EXPORTS
	_ZN11CSblpPolicy12ParseMessageERK6TDesC8 @ 1 NONAME
	_ZN11CSblpPolicy17SetSblpParametersERK15TSblpParameters @ 2 NONAME ABSENT
	_ZN11CSblpPolicy4CopyERK14CExtensionBase @ 3 NONAME
	_ZN11CSblpPolicy4DataEv @ 4 NONAME
	_ZN11CSblpPolicy4NewLEv @ 5 NONAME
	_ZN11CSblpPolicy7CreateLEv @ 6 NONAME
	_ZN11CSblpPolicyD0Ev @ 7 NONAME
	_ZN11CSblpPolicyD1Ev @ 8 NONAME
	_ZN11CSblpPolicyD2Ev @ 9 NONAME
	_ZN14CUmtsQoSPolicy12ParseMessageERK6TDesC8 @ 10 NONAME
	_ZN14CUmtsQoSPolicy13SetQoSMinimumERK18TUmtsQoSParameters @ 11 NONAME
	_ZN14CUmtsQoSPolicy15SetQoSRequestedERK18TUmtsQoSParameters @ 12 NONAME
	_ZN14CUmtsQoSPolicy20SetHeaderCompressionEj @ 13 NONAME
	_ZN14CUmtsQoSPolicy4CopyERK14CExtensionBase @ 14 NONAME
	_ZN14CUmtsQoSPolicy4DataEv @ 15 NONAME
	_ZN14CUmtsQoSPolicy4NewLEv @ 16 NONAME
	_ZN14CUmtsQoSPolicy7CreateLEv @ 17 NONAME
	_ZN14CUmtsQoSPolicyD0Ev @ 18 NONAME
	_ZN14CUmtsQoSPolicyD1Ev @ 19 NONAME
	_ZN14CUmtsQoSPolicyD2Ev @ 20 NONAME
	_ZN15TSblpParameters10GetFlowIdsER6RArrayINS_15TFlowIdentifierEE @ 21 NONAME ABSENT
	_ZN15TSblpParameters10SetFlowIdsERK6RArrayINS_15TFlowIdentifierEE @ 22 NONAME ABSENT
	_ZN15TSblpParameters11NrOfFlowIdsEv @ 23 NONAME ABSENT
	_ZN15TSblpParameters6SetMATERK5TBuf8ILi255EE @ 24 NONAME ABSENT
	_ZN15TSblpParameters9GetFlowIdEi @ 25 NONAME ABSENT
	_ZN15TSblpParametersC1Ev @ 26 NONAME ABSENT
	_ZN15TSblpParametersC2Ev @ 27 NONAME ABSENT
	_ZN15TSblpParametersaSERKS_ @ 28 NONAME ABSENT
	_ZN16CUmtsR5QoSPolicy12ParseMessageERK6TDesC8 @ 29 NONAME
	_ZN16CUmtsR5QoSPolicy13SetQoSMinimumERK20TUmtsR5QoSParameters @ 30 NONAME
	_ZN16CUmtsR5QoSPolicy15SetQoSRequestedERK20TUmtsR5QoSParameters @ 31 NONAME
	_ZN16CUmtsR5QoSPolicy20SetHeaderCompressionEj @ 32 NONAME
	_ZN16CUmtsR5QoSPolicy4CopyERK14CExtensionBase @ 33 NONAME
	_ZN16CUmtsR5QoSPolicy4DataEv @ 34 NONAME
	_ZN16CUmtsR5QoSPolicy4NewLEv @ 35 NONAME
	_ZN16CUmtsR5QoSPolicy7CreateLEv @ 36 NONAME
	_ZN16CUmtsR5QoSPolicyD0Ev @ 37 NONAME
	_ZN16CUmtsR5QoSPolicyD1Ev @ 38 NONAME
	_ZN16CUmtsR5QoSPolicyD2Ev @ 39 NONAME
	_ZN18TUmtsQoSParameters11SetPriorityE28TUmtsTrafficHandlingPriority @ 40 NONAME
	_ZN18TUmtsQoSParameters13SetErrorRatioE18TUmtsSDUErrorRatio @ 41 NONAME
	_ZN18TUmtsQoSParameters13SetMaxSduSizeEj @ 42 NONAME
	_ZN18TUmtsQoSParameters14SetResidualBerE18TUmtsBitErrorRatio @ 43 NONAME
	_ZN18TUmtsQoSParameters15SetTrafficClassE17TUmtsTrafficClass @ 44 NONAME
	_ZN18TUmtsQoSParameters16SetDeliveryOrderE18TUmtsDeliveryOrder @ 45 NONAME
	_ZN18TUmtsQoSParameters16SetTransferDelayEj @ 46 NONAME
	_ZN18TUmtsQoSParameters19SetMaxBitrateUplinkEj @ 47 NONAME
	_ZN18TUmtsQoSParameters21SetMaxBitrateDownlinkEj @ 48 NONAME
	_ZN18TUmtsQoSParameters24SetDeliveryOfErroneusSduE25TUmtsErroneousSDUDelivery @ 49 NONAME
	_ZN18TUmtsQoSParameters26SetGuaranteedBitrateUplinkEj @ 50 NONAME
	_ZN18TUmtsQoSParameters28SetGuaranteedBitrateDownlinkEj @ 51 NONAME
	_ZN18TUmtsQoSParametersC1Ev @ 52 NONAME
	_ZN18TUmtsQoSParametersC2Ev @ 53 NONAME
	_ZN20TUmtsR5QoSParameters22SetSignallingIndicatorEi @ 54 NONAME
	_ZN20TUmtsR5QoSParameters29SetSourceStatisticsDescriptorE31TUmtsSourceStatisticsDescriptor @ 55 NONAME
	_ZN20TUmtsR5QoSParametersC1Ev @ 56 NONAME
	_ZN20TUmtsR5QoSParametersC2Ev @ 57 NONAME
	_ZN28TNegotiatedUmtsQoSParametersC1Ev @ 58 NONAME
	_ZN28TNegotiatedUmtsQoSParametersC2Ev @ 59 NONAME
	_ZN30TNegotiatedUmtsR5QoSParametersC1Ev @ 60 NONAME
	_ZN30TNegotiatedUmtsR5QoSParametersC2Ev @ 61 NONAME
	_ZNK11CSblpPolicy17GetSblpParametersER15TSblpParameters @ 62 NONAME ABSENT
	_ZNK14CUmtsQoSPolicy13GetQoSMinimumER18TUmtsQoSParameters @ 63 NONAME
	_ZNK14CUmtsQoSPolicy15GetQoSRequestedER18TUmtsQoSParameters @ 64 NONAME
	_ZNK14CUmtsQoSPolicy16GetQoSNegotiatedER28TNegotiatedUmtsQoSParameters @ 65 NONAME
	_ZNK14CUmtsQoSPolicy17HeaderCompressionEv @ 66 NONAME
	_ZNK15TSblpParameters6GetMATER5TBuf8ILi255EE @ 67 NONAME ABSENT
	_ZNK16CUmtsR5QoSPolicy13GetQoSMinimumER20TUmtsR5QoSParameters @ 68 NONAME
	_ZNK16CUmtsR5QoSPolicy15GetQoSRequestedER20TUmtsR5QoSParameters @ 69 NONAME
	_ZNK16CUmtsR5QoSPolicy16GetQoSNegotiatedER30TNegotiatedUmtsR5QoSParameters @ 70 NONAME
	_ZNK16CUmtsR5QoSPolicy17HeaderCompressionEv @ 71 NONAME
	_ZNK18TUmtsQoSParameters10ErrorRatioEv @ 72 NONAME
	_ZNK18TUmtsQoSParameters10MaxSduSizeEv @ 73 NONAME
	_ZNK18TUmtsQoSParameters11ResidualBerEv @ 74 NONAME
	_ZNK18TUmtsQoSParameters12TrafficClassEv @ 75 NONAME
	_ZNK18TUmtsQoSParameters13DeliveryOrderEv @ 76 NONAME
	_ZNK18TUmtsQoSParameters13TransferDelayEv @ 77 NONAME
	_ZNK18TUmtsQoSParameters16MaxBitrateUplinkEv @ 78 NONAME
	_ZNK18TUmtsQoSParameters18MaxBitrateDownlinkEv @ 79 NONAME
	_ZNK18TUmtsQoSParameters21DeliveryOfErroneusSduEv @ 80 NONAME
	_ZNK18TUmtsQoSParameters23GuaranteedBitrateUplinkEv @ 81 NONAME
	_ZNK18TUmtsQoSParameters25GuaranteedBitrateDownlinkEv @ 82 NONAME
	_ZNK18TUmtsQoSParameters8PriorityEv @ 83 NONAME
	_ZNK20TUmtsR5QoSParameters19SignallingIndicatorEv @ 84 NONAME
	_ZNK20TUmtsR5QoSParameters26SourceStatisticsDescriptorEv @ 85 NONAME
	_ZNK28TNegotiatedUmtsQoSParameters17HeaderCompressionEv @ 86 NONAME
	_ZNK28TNegotiatedUmtsQoSParameters9ErrorCodeEv @ 87 NONAME
	_ZNK30TNegotiatedUmtsR5QoSParameters17HeaderCompressionEv @ 88 NONAME
	_ZNK30TNegotiatedUmtsR5QoSParameters9ErrorCodeEv @ 89 NONAME
	_ZTI11CSblpPolicy @ 90 NONAME ; #<TI>#
	_ZTI14CUmtsQoSPolicy @ 91 NONAME ; #<TI>#
	_ZTI16CUmtsR5QoSPolicy @ 92 NONAME ; #<TI>#
	_ZTV11CSblpPolicy @ 93 NONAME ; #<VT>#
	_ZTV14CUmtsQoSPolicy @ 94 NONAME ; #<VT>#
	_ZTV16CUmtsR5QoSPolicy @ 95 NONAME ; #<VT>#
	_ZN10CImsPolicy12ParseMessageERK6TDesC8 @ 96 NONAME
	_ZN10CImsPolicy15SetImsParameterERK13TImsParameter @ 97 NONAME
	_ZN10CImsPolicy4CopyERK14CExtensionBase @ 98 NONAME
	_ZN10CImsPolicy4DataEv @ 99 NONAME
	_ZN10CImsPolicy4NewLEv @ 100 NONAME
	_ZN10CImsPolicy7CreateLEv @ 101 NONAME
	_ZN10CImsPolicyD0Ev @ 102 NONAME
	_ZN10CImsPolicyD1Ev @ 103 NONAME
	_ZN10CImsPolicyD2Ev @ 104 NONAME
	_ZN13TImsParameter24SetIMSSigallingIndicatorEi @ 105 NONAME
	_ZN13TImsParameterC1Ev @ 106 NONAME
	_ZN13TImsParameterC2Ev @ 107 NONAME
	_ZNK10CImsPolicy15GetImsParameterER13TImsParameter @ 108 NONAME
	_ZNK13TImsParameter24GetIMSSigallingIndicatorEv @ 109 NONAME
	_ZTI10CImsPolicy @ 110 NONAME ; #<TI>#
	_ZTV10CImsPolicy @ 111 NONAME ; #<VT>#
	_ZN11CSblpPolicy17SetSblpParametersERK15CSblpParameters @ 112 NONAME
	_ZN15CSblpParameters10GetFlowIdsER6RArrayINS_15TFlowIdentifierEE @ 113 NONAME
	_ZN15CSblpParameters10SetFlowIdsERK6RArrayINS_15TFlowIdentifierEE @ 114 NONAME
	_ZN15CSblpParameters11NrOfFlowIdsEv @ 115 NONAME
	_ZN15CSblpParameters6SetMATERK5TBuf8ILi255EE @ 116 NONAME
	_ZN15CSblpParameters9GetFlowIdEi @ 117 NONAME
	_ZN15CSblpParametersC1Ev @ 118 NONAME
	_ZN15CSblpParametersC2Ev @ 119 NONAME
	_ZN15CSblpParametersD0Ev @ 120 NONAME
	_ZN15CSblpParametersD1Ev @ 121 NONAME
	_ZN15CSblpParametersD2Ev @ 122 NONAME
	_ZN15CSblpParametersaSERKS_ @ 123 NONAME
	_ZNK11CSblpPolicy17GetSblpParametersER15CSblpParameters @ 124 NONAME
	_ZNK15CSblpParameters6GetMATER5TBuf8ILi255EE @ 125 NONAME
	_ZTI15CSblpParameters @ 126 NONAME
	_ZTV15CSblpParameters @ 127 NONAME

