EXPORTS
	_ZN20RSuplProxyPosSession5CloseEv @ 1 NONAME
	_ZN20RSuplProxyPosSession7ConnectEv @ 2 NONAME
	_ZN20RSuplProxyPosSessionC1Ev @ 3 NONAME
	_ZN20RSuplProxyPosSessionC2Ev @ 4 NONAME
	_ZN20TSuplInfoRequestData11SetPositionERK17TPositionInfoBase @ 5 NONAME
	_ZN20TSuplInfoRequestData15SetCapabilitiesERK22TLbsNetPosCapabilities @ 6 NONAME
	_ZN20TSuplInfoRequestData15SetIsLastPosMsgEi @ 7 NONAME
	_ZN20TSuplInfoRequestData16SetPositionErrorEi @ 8 NONAME
	_ZN20TSuplInfoRequestData18SetPosPayloadErrorEi @ 9 NONAME
	_ZN20TSuplInfoRequestData20AddRequestItemToMaskENS_15TLbsRequestItemE @ 10 NONAME
	_ZN20TSuplInfoRequestData20SetCapabilitiesErrorEi @ 11 NONAME
	_ZN20TSuplInfoRequestData21InitializeRequestMaskEv @ 12 NONAME
	_ZN20TSuplInfoRequestData21SetAssistanceDataMaskEm @ 13 NONAME
	_ZN20TSuplInfoRequestData22SetAssistanceMaskErrorEi @ 14 NONAME
	_ZN20TSuplInfoRequestData25RemoveRequestItemFromMaskENS_15TLbsRequestItemE @ 15 NONAME
	_ZN20TSuplInfoRequestDataC1Ev @ 16 NONAME
	_ZN20TSuplInfoRequestDataC2Ev @ 17 NONAME
	_ZN23RSuplProxyPosSubSession12GetPositionLER14TRequestStatusR17TPositionInfoBase @ 18 NONAME
	_ZN23RSuplProxyPosSubSession12GetSuplInfoLER14TRequestStatusR20TSuplInfoRequestDataP6HBufC8 @ 19 NONAME
	_ZN23RSuplProxyPosSubSession13SetSlpAddressERK7TDesC16 @ 20 NONAME
	_ZN23RSuplProxyPosSubSession15SendPosPayloadLERK6HBufC8 @ 21 NONAME
	_ZN23RSuplProxyPosSubSession15SessionCompleteEv @ 22 NONAME
	_ZN23RSuplProxyPosSubSession17CancelGetPositionEv @ 23 NONAME
	_ZN23RSuplProxyPosSubSession17CancelGetSuplInfoEv @ 24 NONAME
	_ZN23RSuplProxyPosSubSession20SetPositioningMethodERK23TLbsNetPosRequestMethod @ 25 NONAME
	_ZN23RSuplProxyPosSubSession24ResetSubsessionRequestIdEi @ 26 NONAME
	_ZN23RSuplProxyPosSubSession4OpenER20RSuplProxyPosSessioni @ 27 NONAME
	_ZN23RSuplProxyPosSubSession5CloseEv @ 28 NONAME
	_ZN23RSuplProxyPosSubSessionC1Ev @ 29 NONAME
	_ZN23RSuplProxyPosSubSessionC2Ev @ 30 NONAME
	_ZN24TSuplInfoRequestDataBaseC1Em @ 31 NONAME
	_ZN24TSuplInfoRequestDataBaseC2Em @ 32 NONAME
	_ZNK20TSuplInfoRequestData11RequestMaskEv @ 33 NONAME
	_ZNK20TSuplInfoRequestData12CapabilitiesEv @ 34 NONAME
	_ZNK20TSuplInfoRequestData12IsLastPosMsgEv @ 35 NONAME
	_ZNK20TSuplInfoRequestData13PositionErrorEv @ 36 NONAME
	_ZNK20TSuplInfoRequestData15PosPayloadErrorEv @ 37 NONAME
	_ZNK20TSuplInfoRequestData17CapabilitiesErrorEv @ 38 NONAME
	_ZNK20TSuplInfoRequestData18AssistanceDataMaskEv @ 39 NONAME
	_ZNK20TSuplInfoRequestData19AssistanceMaskErrorEv @ 40 NONAME
	_ZNK20TSuplInfoRequestData8PositionEv @ 41 NONAME
	_ZNK24TSuplInfoRequestDataBase28SuplInfoRequestDataClassTypeEv @ 42 NONAME

