EXPORTS
	?ApplyL@CTempAudioEqualizer@@UAEXXZ @ 1 NONAME ; void CTempAudioEqualizer::ApplyL(void)
	?ApplyPresetL@CAudioEqualizerUtility@@QAEXH@Z @ 2 NONAME ; void CAudioEqualizerUtility::ApplyPresetL(int)
	?BassBoost@CAudioEqualizerUtility@@QAEAAVCBassBoost@@XZ @ 3 NONAME ; class CBassBoost & CAudioEqualizerUtility::BassBoost(void)
	?CreatePresetL@CAudioEqualizerUtility@@QAEXAAVTDesC16@@AAVCAudioEqualizer@@@Z @ 4 NONAME ; void CAudioEqualizerUtility::CreatePresetL(class TDesC16 &, class CAudioEqualizer &)
	?DeletePresetL@CAudioEqualizerUtility@@QAEXH@Z @ 5 NONAME ; void CAudioEqualizerUtility::DeletePresetL(int)
	?DisableEqualizerL@CAudioEqualizerUtility@@QAEXXZ @ 6 NONAME ; void CAudioEqualizerUtility::DisableEqualizerL(void)
	?Equalizer@CAudioEqualizerUtility@@QAEAAVCAudioEqualizer@@XZ @ 7 NONAME ; class CAudioEqualizer & CAudioEqualizerUtility::Equalizer(void)
	?GetPresetL@CAudioEqualizerUtility@@QAEABVTDesC16@@H@Z @ 8 NONAME ; class TDesC16 const & CAudioEqualizerUtility::GetPresetL(int)
	?ModifyPresetL@CAudioEqualizerUtility@@QAEXHAAVTDesC16@@AAVCAudioEqualizer@@@Z @ 9 NONAME ; void CAudioEqualizerUtility::ModifyPresetL(int, class TDesC16 &, class CAudioEqualizer &)
	?NewL@CAudioEqualizerUtility@@SAPAV1@AAVCMMFDevSound@@@Z @ 10 NONAME ; class CAudioEqualizerUtility * CAudioEqualizerUtility::NewL(class CMMFDevSound &)
	?NewL@CAudioEqualizerUtility@@SAPAV1@AAVCMdaAudioConvertUtility@@@Z @ 11 NONAME ; class CAudioEqualizerUtility * CAudioEqualizerUtility::NewL(class CMdaAudioConvertUtility &)
	?NewL@CAudioEqualizerUtility@@SAPAV1@AAVCMdaAudioInputStream@@@Z @ 12 NONAME ; class CAudioEqualizerUtility * CAudioEqualizerUtility::NewL(class CMdaAudioInputStream &)
	?NewL@CAudioEqualizerUtility@@SAPAV1@AAVCMdaAudioOutputStream@@@Z @ 13 NONAME ; class CAudioEqualizerUtility * CAudioEqualizerUtility::NewL(class CMdaAudioOutputStream &)
	?NewL@CAudioEqualizerUtility@@SAPAV1@AAVCMdaAudioPlayerUtility@@@Z @ 14 NONAME ; class CAudioEqualizerUtility * CAudioEqualizerUtility::NewL(class CMdaAudioPlayerUtility &)
	?NewL@CAudioEqualizerUtility@@SAPAV1@AAVCMdaAudioRecorderUtility@@@Z @ 15 NONAME ; class CAudioEqualizerUtility * CAudioEqualizerUtility::NewL(class CMdaAudioRecorderUtility &)
	?NewL@CAudioEqualizerUtility@@SAPAV1@AAVCMdaAudioToneUtility@@@Z @ 16 NONAME ; class CAudioEqualizerUtility * CAudioEqualizerUtility::NewL(class CMdaAudioToneUtility &)
	?NewL@CAudioEqualizerUtility@@SAPAV1@AAVMCustomInterface@@@Z @ 17 NONAME ; class CAudioEqualizerUtility * CAudioEqualizerUtility::NewL(class MCustomInterface &)
	?NewL@CAudioEqualizerUtility@@SAPAV1@PAVCCustomCommandUtility@@@Z @ 18 NONAME ; class CAudioEqualizerUtility * CAudioEqualizerUtility::NewL(class CCustomCommandUtility *)
	?NewL@CTempAudioEqualizer@@SAPAV1@HPAVCAudioEqualizer@@@Z @ 19 NONAME ; class CTempAudioEqualizer * CTempAudioEqualizer::NewL(int, class CAudioEqualizer *)
	?NumberOfPreDefinedPresets@CAudioEqualizerUtility@@QBEKXZ @ 20 NONAME ; unsigned long CAudioEqualizerUtility::NumberOfPreDefinedPresets(void) const
	?Presets@CAudioEqualizerUtility@@QAE?AV?$TArray@VTEfAudioEqualizerUtilityPreset@@@@XZ @ 21 NONAME ; class TArray<class TEfAudioEqualizerUtilityPreset> CAudioEqualizerUtility::Presets(void)
	?ResetPresetL@CAudioEqualizerUtility@@QAEXH@Z @ 22 NONAME ; void CAudioEqualizerUtility::ResetPresetL(int)
	?NewL@CAudioEqualizerUtility@@SAPAV1@AAVCMidiClientUtility@@@Z @ 23 NONAME ; class CAudioEqualizerUtility * CAudioEqualizerUtility::NewL(class CMidiClientUtility &)
	?DisableL@CTempAudioEqualizer@@UAEXXZ @ 24 NONAME ; void CTempAudioEqualizer::DisableL(void)
	?EnableL@CTempAudioEqualizer@@UAEXXZ @ 25 NONAME ; void CTempAudioEqualizer::EnableL(void)
	?IsEnabled@CTempAudioEqualizer@@UBEHXZ @ 26 NONAME ; int CTempAudioEqualizer::IsEnabled(void) const
	?IsEnforced@CTempAudioEqualizer@@UBEHXZ @ 27 NONAME ; int CTempAudioEqualizer::IsEnforced(void) const
	?EnforceL@CTempAudioEqualizer@@UAEXH@Z @ 28 NONAME ; void CTempAudioEqualizer::EnforceL(int)
	?HaveUpdateRights@CTempAudioEqualizer@@UBEHXZ @ 29 NONAME ; int CTempAudioEqualizer::HaveUpdateRights(void) const
	?NewL@CAudioEqualizerUtility@@SAPAV1@AAVCDrmPlayerUtility@@@Z @ 30 NONAME ; class CAudioEqualizerUtility * CAudioEqualizerUtility::NewL(class CDrmPlayerUtility &)
	?NewL@CAudioEqualizerUtility@@SAPAV1@AAVCVideoPlayerUtility@@@Z @ 31 NONAME ; class CAudioEqualizerUtility * CAudioEqualizerUtility::NewL(class CVideoPlayerUtility &)

