EXPORTS
	_ZN4Meta13SMetaDataECom12NewInstanceLERKNS_7STypeIdE @ 1 NONAME
	_ZN4Meta13SMetaDataECom5LoadLER6TPtrC8 @ 2 NONAME
	_ZN4Meta13SMetaDataEComC2Ev @ 3 NONAME
	_ZN4Meta13SMetaDataEComD0Ev @ 4 NONAME
	_ZN4Meta13SMetaDataEComD1Ev @ 5 NONAME
	_ZN4Meta13SMetaDataEComD2Ev @ 6 NONAME
	_ZN4Meta22RMetaDataContainerBase4CopyERKS0_ @ 7 NONAME
	_ZN4Meta22RMetaDataContainerBase4LoadER6TPtrC8 @ 8 NONAME
	_ZN4Meta22RMetaDataContainerBaseC2Ev @ 9 NONAME
	_ZN4Meta9SMetaData4CopyERKS0_ @ 10 NONAME
	_ZN4Meta9SMetaData4LoadER6TPtrC8 @ 11 NONAME
	_ZN4Meta9SMetaDataC2Ev @ 12 NONAME
	_ZN4Meta9SMetaDataD0Ev @ 13 NONAME
	_ZN4Meta9SMetaDataD1Ev @ 14 NONAME
	_ZN4Meta9SMetaDataD2Ev @ 15 NONAME
	_ZNK4Meta22RMetaDataContainerBase5StoreER5TDes8 @ 16 NONAME
	_ZNK4Meta22RMetaDataContainerBase6LengthEv @ 17 NONAME
	_ZNK4Meta9SMetaData5StoreER5TDes8 @ 18 NONAME
	_ZNK4Meta9SMetaData6LengthEv @ 19 NONAME
	_ZTIN4Meta13SMetaDataEComE @ 20 NONAME ; #<TI>#
	_ZTIN4Meta9SMetaDataE @ 21 NONAME ; #<TI>#
	_ZTVN4Meta13SMetaDataEComE @ 22 NONAME ; #<VT>#
	_ZTVN4Meta9SMetaDataE @ 23 NONAME ; #<VT>#
	_ZNK4Meta9SMetaData8IsTypeOfERKNS_7STypeIdE @ 24 NONAME
	_ZNK4Meta9SMetaData9GetTypeIdEv @ 25 NONAME
	_ZN4Meta14TMetaArrayBase4LoadER6TPtrC8 @ 26 NONAME
	_ZN4Meta10TMetaBuf164CopyEPKv @ 27 NONAME
	_ZN4Meta10TMetaBuf164LoadER6TPtrC8 @ 28 NONAME
	_ZN4Meta15TMetaVarLenBase4LoadER6TPtrC8 @ 29 NONAME
	_ZN4Meta19TMetaVTableIteratorC1EPKNS_9MMetaDataE @ 30 NONAME
	_ZN4Meta19TMetaVTableIteratorC2EPKNS_9MMetaDataE @ 31 NONAME
	_ZN4Meta19TMetaVTableIteratorppEi @ 32 NONAME
	_ZN4Meta9TMetaBuf84CopyEPKv @ 33 NONAME
	_ZN4Meta9TMetaBuf84LoadER6TPtrC8 @ 34 NONAME
	_ZNK4Meta10TMetaBuf165StoreER5TDes8 @ 35 NONAME
	_ZNK4Meta10TMetaBuf166LengthEv @ 36 NONAME
	_ZNK4Meta14TMetaArrayBase5StoreER5TDes8 @ 37 NONAME
	_ZNK4Meta15TMetaVarLenBase5StoreER5TDes8 @ 38 NONAME
	_ZNK4Meta7STypeId5CheckER6TPtrC8 @ 39 NONAME
	_ZNK4Meta9SMetaData11CheckTypeOfER6TPtrC8 @ 40 NONAME
	_ZNK4Meta9TMetaBuf85StoreER5TDes8 @ 41 NONAME
	_ZNK4Meta9TMetaBuf86LengthEv @ 42 NONAME
	_ZTIN4Meta10TMetaBuf16E @ 43 NONAME ; #<TI>#
	_ZTIN4Meta11TMetaVarLenI5RBuf8EE @ 44 NONAME ; #<TI>#
	_ZTIN4Meta11TMetaVarLenI6RBuf16EE @ 45 NONAME ; #<TI>#
	_ZTIN4Meta12TMetaVarLen8I5RBuf8EE @ 46 NONAME ; #<TI>#
	_ZTIN4Meta13TMetaVarLen16I6RBuf16EE @ 47 NONAME ; #<TI>#
	_ZTIN4Meta14TMetaArrayBaseE @ 48 NONAME ; #<TI>#
	_ZTIN4Meta15TMetaVarLenBaseE @ 49 NONAME ; #<TI>#
	_ZTIN4Meta9TMetaBuf8E @ 50 NONAME ; #<TI>#
	_ZTVN4Meta10TMetaBuf16E @ 51 NONAME ; #<VT>#
	_ZTVN4Meta11TMetaVarLenI5RBuf8EE @ 52 NONAME ; #<VT>#
	_ZTVN4Meta11TMetaVarLenI6RBuf16EE @ 53 NONAME ; #<VT>#
	_ZTVN4Meta12TMetaVarLen8I5RBuf8EE @ 54 NONAME ; #<VT>#
	_ZTVN4Meta13TMetaVarLen16I6RBuf16EE @ 55 NONAME ; #<VT>#
	_ZTVN4Meta14TMetaArrayBaseE @ 56 NONAME ; #<VT>#
	_ZTVN4Meta15TMetaVarLenBaseE @ 57 NONAME ; #<VT>#
	_ZTVN4Meta9TMetaBuf8E @ 58 NONAME ; #<VT>#
	_ZNK4Meta22RMetaDataContainerBase9GetTypeIdEv @ 59 NONAME
	_ZN4Meta19TMetaVTableIteratorD1Ev @ 60 NONAME
	_ZN4Meta19TMetaVTableIteratorD2Ev @ 61 NONAME
	_ZN4Meta7STypeIdC1ER6TPtrC8 @ 62 NONAME ABSENT
	_ZN4Meta7STypeIdC2ER6TPtrC8 @ 63 NONAME ABSENT
	_ZN4Meta16SMetaDataNetCtornwEjR5TDes8 @ 64 NONAME
	_ZN4Meta24CMetaDataVirtualCtorBase18RegisterInterfaceLE4TUidiPK20TImplementationProxy @ 65 NONAME ABSENT
	_ZN4Meta24CMetaDataVirtualCtorBase19DeregisterInterfaceE4TUid @ 66 NONAME ABSENT
	_ZN4Meta24CMetaDataVirtualCtorBaseC1Ev @ 67 NONAME ABSENT
	_ZN4Meta24CMetaDataVirtualCtorBaseC2Ev @ 68 NONAME ABSENT
	_ZN4Meta24CMetaDataVirtualCtorBaseD0Ev @ 69 NONAME ABSENT
	_ZN4Meta24CMetaDataVirtualCtorBaseD1Ev @ 70 NONAME ABSENT
	_ZN4Meta24CMetaDataVirtualCtorBaseD2Ev @ 71 NONAME ABSENT
	_ZNK4Meta24CMetaDataVirtualCtorBase11FindRawCtorERKNS_7STypeIdE @ 72 NONAME ABSENT
	_ZNK4Meta27CMetaDataVirtualCtorInPlace3NewERKNS_7STypeIdER6TPtrC8R5TDes8 @ 73 NONAME
	_ZTIN4Meta24CMetaDataVirtualCtorBaseE @ 74 NONAME ABSENT ; #<TI>#
	_ZTVN4Meta24CMetaDataVirtualCtorBaseE @ 75 NONAME ABSENT ; #<VT>#
	_ZN4Meta10TMetaBuf164NewLEPKvS2_ @ 76 NONAME
	_ZN4Meta15TMetaVarLenBase4CopyEPKv @ 77 NONAME
	_ZN4Meta9TMetaBuf84NewLEPKvS2_ @ 78 NONAME
	_ZNK4Meta15TMetaVarLenBase6LengthEv @ 79 NONAME
	_ZNK4Meta24CMetaDataVirtualCtorBase21IsInterfaceRegisteredE4TUid @ 80 NONAME ABSENT
	_ZNK4Meta27CMetaDataVirtualCtorInPlace3NewER6TPtrC8R5TDes8 @ 81 NONAME
	_ZNK4Meta27CMetaDataVirtualCtorInPlace3NewERKNS_7STypeIdER5TDes8 @ 82 NONAME
	_ZNK4Meta9SMetaData5CheckER6TPtrC8 @ 83 NONAME
	_ZN4Meta7STypeId13CreateSTypeIdER6TPtrC8 @ 84 NONAME

