EXPORTS
	_ZN20RLbsSystemController11InitializeLEv @ 1 NONAME
	_ZN20RLbsSystemController16GetCloseDownTypeEv @ 2 NONAME
	_ZN20RLbsSystemController18RequestSystemResetEv @ 3 NONAME
	_ZN20RLbsSystemController19SystemStartCompleteEi @ 4 NONAME
	_ZN20RLbsSystemController20RequestSystemStartupEv @ 5 NONAME
	_ZN20RLbsSystemController22RequestSystemCloseDownEv @ 6 NONAME
	_ZN20RLbsSystemController23SystemCloseDownResponseEi @ 7 NONAME
	_ZN20RLbsSystemController24NotifySystemStartRequestER14TRequestStatus @ 8 NONAME
	_ZN20RLbsSystemController24RequestCompleteCloseDownEv @ 9 NONAME
	_ZN20RLbsSystemController28NotifySystemCloseDownRequestER14TRequestStatus @ 10 NONAME
	_ZN20RLbsSystemController5CloseEv @ 11 NONAME
	_ZN20RLbsSystemController5OpenLE4TUid @ 12 NONAME
	_ZN20RLbsSystemController9ShutDownLEv @ 13 NONAME
	_ZN20RLbsSystemControllerC1Ev @ 14 NONAME
	_ZN20RLbsSystemControllerC2Ev @ 15 NONAME
	_ZN21RLbsProcessSupervisor11InitializeLEv @ 16 NONAME
	_ZN21RLbsProcessSupervisor12ResetProcessEv @ 17 NONAME
	_ZN21RLbsProcessSupervisor16CloseDownProcessEv @ 18 NONAME
	_ZN21RLbsProcessSupervisor28CancelNotifyCloseDownRequestEv @ 19 NONAME
	_ZN21RLbsProcessSupervisor5CloseEv @ 20 NONAME
	_ZN21RLbsProcessSupervisor5OpenLE4TUid @ 21 NONAME
	_ZN21RLbsProcessSupervisor9ShutDownLEv @ 22 NONAME
	_ZN21RLbsProcessSupervisorC1Ev @ 23 NONAME
	_ZN21RLbsProcessSupervisorC2Ev @ 24 NONAME
	_ZN28CLbsCloseDownRequestDetector4NewLEP20MLbsProcessCloseDown4TUidP16MLbsProcessReset @ 25 NONAME
	_ZN31CLbsSystemStartupRequestHandler14ConfirmStartupEi @ 26 NONAME
	_ZN31CLbsSystemStartupRequestHandler4NewLEP25MLbsSystemStartupObserver4TUid @ 27 NONAME
	_ZN33CLbsSystemCloseDownRequestHandler16ConfirmCloseDownEi @ 28 NONAME
	_ZN33CLbsSystemCloseDownRequestHandler4NewLEP27MLbsSystemCloseDownObserver4TUid @ 29 NONAME
	_ZTI28CLbsCloseDownRequestDetector @ 30 NONAME ; #<TI>#
	_ZTI31CLbsSystemStartupRequestHandler @ 31 NONAME ; #<TI>#
	_ZTI33CLbsSystemCloseDownRequestHandler @ 32 NONAME ; #<TI>#
	_ZTV28CLbsCloseDownRequestDetector @ 33 NONAME ; #<VT>#
	_ZTV31CLbsSystemStartupRequestHandler @ 34 NONAME ; #<VT>#
	_ZTV33CLbsSystemCloseDownRequestHandler @ 35 NONAME ; #<VT>#
	_ZN20RLbsSystemController22RequestSystemCloseDownEi @ 36 NONAME
	_ZN31CLbsSystemStartupRequestHandlerD0Ev @ 37 NONAME
	_ZN31CLbsSystemStartupRequestHandlerD1Ev @ 38 NONAME
	_ZN31CLbsSystemStartupRequestHandlerD2Ev @ 39 NONAME
	_ZN33CLbsSystemCloseDownRequestHandlerD0Ev @ 40 NONAME
	_ZN33CLbsSystemCloseDownRequestHandlerD1Ev @ 41 NONAME
	_ZN33CLbsSystemCloseDownRequestHandlerD2Ev @ 42 NONAME

