EXPORTS
	_ZN10RCommsBufQ4FreeEv @ 1 NONAME
	_ZN10RCommsBufQ4InitEv @ 2 NONAME
	_ZN10RCommsBufQ6AppendEP9RCommsBuf @ 3 NONAME
	_ZN10RCommsBufQ6AppendER14RCommsBufChain @ 4 NONAME
	_ZN10RCommsBufQ6AppendERS_ @ 5 NONAME
	_ZN10RCommsBufQ6AssignER14RCommsBufChain @ 6 NONAME
	_ZN10RCommsBufQ6AssignERS_ @ 7 NONAME
	_ZN10RCommsBufQ6RemoveEv @ 8 NONAME
	_ZN10RCommsBufQ7PrependEP9RCommsBuf @ 9 NONAME
	_ZN10RCommsBufQ7PrependER14RCommsBufChain @ 10 NONAME
	_ZN10RCommsBufQ7PrependERS_ @ 11 NONAME
	_ZN10RCommsBufQ8TransferERS_iiRi @ 12 NONAME
	_ZN10RCommsBufQ9__CleanupEPv @ 13 NONAME
	_ZN10RCommsBufQC1EP9RCommsBuf @ 14 NONAME
	_ZN10RCommsBufQC2EP9RCommsBuf @ 15 NONAME
	_ZN13RCommsBufPond10FromHandleEi @ 16 NONAME
	_ZN13RCommsBufPond12StartRequestER21RCommsBufAsyncRequest @ 17 NONAME
	_ZN13RCommsBufPond13CancelRequestER21RCommsBufAsyncRequest @ 18 NONAME
	_ZN13RCommsBufPond5AllocEiii @ 19 NONAME
	_ZN13RCommsBufPond9AllocatorEv @ 20 NONAME
	_ZN13RCommsBufPondC1Ev @ 21 NONAME
	_ZN13RCommsBufPondC2Ev @ 22 NONAME
	_ZN14RCommsBufChain4FreeEv @ 23 NONAME
	_ZN14RCommsBufChain5AlignEi @ 24 NONAME
	_ZN14RCommsBufChain5AllocEiR18TCommsBufAllocator @ 25 NONAME
	_ZN14RCommsBufChain5AllocEiiR18TCommsBufAllocator @ 26 NONAME
	_ZN14RCommsBufChain5AllocEiiiR18TCommsBufAllocator @ 27 NONAME
	_ZN14RCommsBufChain5SplitEiRS_ @ 28 NONAME
	_ZN14RCommsBufChain5WriteERK6TDesC8i @ 29 NONAME
	_ZN14RCommsBufChain6AppendEP9RCommsBuf @ 30 NONAME
	_ZN14RCommsBufChain6AppendERS_ @ 31 NONAME
	_ZN14RCommsBufChain6AppendEi @ 32 NONAME
	_ZN14RCommsBufChain6AssignERS_ @ 33 NONAME
	_ZN14RCommsBufChain7PrependEP9RCommsBuf @ 34 NONAME
	_ZN14RCommsBufChain7PrependERS_ @ 35 NONAME
	_ZN14RCommsBufChain7PrependEi @ 36 NONAME
	_ZN14RCommsBufChain7TrimEndEi @ 37 NONAME
	_ZN14RCommsBufChain9TrimStartEi @ 38 NONAME
	_ZN15RCommsBufPondOp4OpenER6RArrayI23TCommsBufPoolCreateInfoEi @ 39 NONAME
	_ZN15RCommsBufPondOp5CloseEv @ 40 NONAME
	_ZN15RCommsBufPondOpC1Ev @ 41 NONAME
	_ZN15RCommsBufPondOpC2Ev @ 42 NONAME
	_ZN16TCommsBufPondDbg13__DbgBufChainEj @ 43 NONAME
	_ZN16TCommsBufPondDbg13__DbgBufChainEv @ 44 NONAME
	_ZN16TCommsBufPondDbg16__DbgGetBufSpaceEj @ 45 NONAME
	_ZN16TCommsBufPondDbg16__DbgGetBufSpaceEv @ 46 NONAME
	_ZN16TCommsBufPondDbg16__DbgGetBufTotalEj @ 47 NONAME
	_ZN16TCommsBufPondDbg16__DbgGetBufTotalEv @ 48 NONAME
	_ZN16TCommsBufPondDbg16__DbgGetHeapSizeEv @ 49 NONAME
	_ZN16TCommsBufPondDbg17__DbgSetFailAfterEi @ 50 NONAME
	_ZN16TCommsBufPondDbg17__DbgSetPoolLimitEi @ 51 NONAME
	_ZN16TCommsBufPondDbg17__DbgSetPoolLimitEij @ 52 NONAME
	_ZN16TCommsBufPondDbgC1ER13RCommsBufPond @ 53 NONAME
	_ZN16TCommsBufPondDbgC2ER13RCommsBufPond @ 54 NONAME
	_ZN18TCommsBufPondTLSOp3GetEv @ 55 NONAME
	_ZN18TCommsBufPondTLSOp3SetEv @ 56 NONAME
	_ZN21CCommsBufAsyncRequest8CompleteEi @ 57 NONAME
	_ZN21CCommsBufAsyncRequestC1ER18TCommsBufAllocator @ 58 NONAME
	_ZN21CCommsBufAsyncRequestC2ER18TCommsBufAllocator @ 59 NONAME
	_ZN21CCommsBufAsyncRequestD0Ev @ 60 NONAME
	_ZN21CCommsBufAsyncRequestD1Ev @ 61 NONAME
	_ZN21CCommsBufAsyncRequestD2Ev @ 62 NONAME
	_ZN21RCommsBufAsyncRequest4OpenER18TCommsBufAllocator @ 63 NONAME
	_ZN21RCommsBufAsyncRequest5AllocER14RCommsBufChainiR14TRequestStatus @ 64 NONAME
	_ZN21RCommsBufAsyncRequest5AllocER14RCommsBufChainiiiR14TRequestStatus @ 65 NONAME
	_ZN21RCommsBufAsyncRequest5CloseEv @ 66 NONAME
	_ZN21RCommsBufAsyncRequest6CancelEv @ 67 NONAME
	_ZN21RCommsBufAsyncRequest8CompleteEi @ 68 NONAME
	_ZN21RCommsBufAsyncRequestC1EP21CCommsBufAsyncRequest @ 69 NONAME
	_ZN21RCommsBufAsyncRequestC1Ev @ 70 NONAME
	_ZN21RCommsBufAsyncRequestC2EP21CCommsBufAsyncRequest @ 71 NONAME
	_ZN21RCommsBufAsyncRequestC2Ev @ 72 NONAME
	_ZN21RCommsBufAsyncRequestD1Ev @ 73 NONAME
	_ZN21RCommsBufAsyncRequestD2Ev @ 74 NONAME
	_ZN9RCommsBuf4FreeEv @ 75 NONAME
	_ZN9RCommsBuf5AllocEjR18TCommsBufAllocator @ 76 NONAME
	_ZN9RCommsBuf5WriteERK6TDesC8i @ 77 NONAME
	_ZN9RCommsBuf6AppendERK6TDesC8 @ 78 NONAME
	_ZN9RCommsBuf7PrependERK6TDesC8 @ 79 NONAME
	_ZNK13RCommsBufPond11NextBufSizeEi @ 80 NONAME
	_ZNK13RCommsBufPond14BytesAvailableEi @ 81 NONAME
	_ZNK13RCommsBufPond14BytesAvailableEv @ 82 NONAME
	_ZNK13RCommsBufPond14LargestBufSizeEv @ 83 NONAME
	_ZNK13RCommsBufPond5StoreER5TBuf8ILi144EE @ 84 NONAME
	_ZNK14RCommsBufChain4GotoEiRiS0_RP9RCommsBuf @ 85 NONAME
	_ZNK14RCommsBufChain4LastEv @ 86 NONAME
	_ZNK14RCommsBufChain4ReadER5TDes8i @ 87 NONAME
	_ZNK14RCommsBufChain6LengthEv @ 88 NONAME
	_ZNK9RCommsBuf4ReadER5TDes8i @ 89 NONAME
	_ZTI21CCommsBufAsyncRequest @ 90 NONAME
	_ZTV21CCommsBufAsyncRequest @ 91 NONAME
	_ZN10RCommsBufQ10RemoveLastEv @ 92 NONAME

