EXPORTS
	_ZN10RMBufChain4FreeEv @ 1 NONAME
	_ZN10RMBufChain5AlignEi @ 2 NONAME
	_ZN10RMBufChain5AllocEi @ 3 NONAME
	_ZN10RMBufChain5AllocEiR14RMBufAllocator @ 4 NONAME
	_ZN10RMBufChain5AllocEii @ 5 NONAME
	_ZN10RMBufChain5AllocEiiR14RMBufAllocator @ 6 NONAME
	_ZN10RMBufChain5AllocEiii @ 7 NONAME
	_ZN10RMBufChain5AllocEiiiR14RMBufAllocator @ 8 NONAME
	_ZN10RMBufChain5FillZEi @ 9 NONAME
	_ZN10RMBufChain5SplitEiRS_ @ 10 NONAME
	_ZN10RMBufChain5SplitEiRS_R14RMBufAllocator @ 11 NONAME
	_ZN10RMBufChain6AllocLEi @ 12 NONAME
	_ZN10RMBufChain6AllocLEiR14RMBufAllocator @ 13 NONAME
	_ZN10RMBufChain6AppendERS_ @ 14 NONAME
	_ZN10RMBufChain6AppendEi @ 15 NONAME
	_ZN10RMBufChain6AppendEiR14RMBufAllocator @ 16 NONAME
	_ZN10RMBufChain6AssignER6RMBufQ @ 17 NONAME
	_ZN10RMBufChain6AssignERS_ @ 18 NONAME
	_ZN10RMBufChain6CopyInERK6TDesC8i @ 19 NONAME
	_ZN10RMBufChain6CreateERK6TDesC8i @ 20 NONAME
	_ZN10RMBufChain6RemoveEv @ 21 NONAME
	_ZN10RMBufChain6SplitLEiRS_ @ 22 NONAME
	_ZN10RMBufChain7AppendLEi @ 23 NONAME
	_ZN10RMBufChain7CreateLERK6TDesC8i @ 24 NONAME
	_ZN10RMBufChain7PrependEP5RMBuf @ 25 NONAME
	_ZN10RMBufChain7PrependERS_ @ 26 NONAME
	_ZN10RMBufChain7PrependEi @ 27 NONAME
	_ZN10RMBufChain7PrependEiR14RMBufAllocator @ 28 NONAME
	_ZN10RMBufChain7ReAllocEi @ 29 NONAME
	_ZN10RMBufChain7TrimEndEi @ 30 NONAME
	_ZN10RMBufChain8PrependLEi @ 31 NONAME
	_ZN10RMBufChain8ReAllocLEi @ 32 NONAME
	_ZN10RMBufChain9TrimStartEi @ 33 NONAME
	_ZN10RMBufChain9__CleanupEPv @ 34 NONAME
	_ZN12RMBufStreamQ12CopySegmentLER10RMBufChainii @ 35 NONAME
	_ZN12RMBufStreamQ6AppendER10RMBufChain @ 36 NONAME
	_ZN12RMBufStreamQ7CopyOutER5TDes8 @ 37 NONAME
	_ZN12RMBufStreamQ9TrimStartEi @ 38 NONAME
	_ZN12RMBufStreamQC1Ev @ 39 NONAME
	_ZN12RMBufStreamQC2Ev @ 40 NONAME
	_ZN13TMBufPktQIter15TidyAfterUpdateEv @ 41 NONAME
	_ZN13TMBufPktQIter6InsertER10RMBufChain @ 42 NONAME
	_ZN13TMBufPktQIter6RemoveER10RMBufChain @ 43 NONAME
	_ZN13TMBufPktQIterppEi @ 44 NONAME
	_ZN14RMBufAllocatorC1Ev @ 45 NONAME
	_ZN14RMBufAllocatorC2Ev @ 46 NONAME
	_ZN15RMBufPacketBase11CopyPackedLER10RMBufChain @ 47 NONAME
	_ZN15RMBufPacketBase11CreateCopyLER12RMBufStreamQiiij @ 48 NONAME
	_ZN15RMBufPacketBase11CreateCopyLERK6RMBufQiiij @ 49 NONAME
	_ZN15RMBufPacketBase11CreateCopyLERK9RMBufPktQij @ 50 NONAME
	_ZN15RMBufPacketBase15PeekInfoInChainER10RMBufChain @ 51 NONAME
	_ZN15RMBufPacketBase4FreeEv @ 52 NONAME
	_ZN15RMBufPacketBase4InfoEv @ 53 NONAME
	_ZN15RMBufPacketBase4PackEv @ 54 NONAME
	_ZN15RMBufPacketBase6UnpackEv @ 55 NONAME
	_ZN15RMBufPacketBase7CreateLER6RMBufQij @ 56 NONAME
	_ZN15RMBufPacketBase7CreateLERK6TDesC8ij @ 57 NONAME
	_ZN15RMBufPacketBase7CreateLEij @ 58 NONAME
	_ZN15RMBufPacketBase7NewInfoEj @ 59 NONAME
	_ZN15RMBufPacketBase7SetInfoEP12RMBufPktInfo @ 60 NONAME
	_ZN15RMBufPacketBase7TrimEndEi @ 61 NONAME
	_ZN15RMBufPacketBase8FreeInfoEv @ 62 NONAME
	_ZN15RMBufPacketBase8NewInfoLEj @ 63 NONAME
	_ZN15RMBufPacketBase8PeekInfoEv @ 64 NONAME
	_ZN15RMBufPacketBase9CopyInfoLERS_ @ 65 NONAME
	_ZN15RMBufPacketBase9TrimStartEi @ 66 NONAME
	_ZN15RMBufPacketBase9__CleanupEPv @ 67 NONAME
	_ZN15RMBufPacketBaseC1Ev @ 68 NONAME
	_ZN15RMBufPacketBaseC2Ev @ 69 NONAME
	_ZN17RMBufAsyncRequest5AllocER10RMBufChainiR14TRequestStatus @ 70 NONAME
	_ZN17RMBufAsyncRequest6CancelEv @ 71 NONAME
	_ZN17RMBufAsyncRequest8CompleteEi @ 72 NONAME
	_ZN17RMBufAsyncRequestC1ERKS_ @ 73 NONAME
	_ZN17RMBufAsyncRequestC1Ev @ 74 NONAME
	_ZN17RMBufAsyncRequestC2ERKS_ @ 75 NONAME
	_ZN17RMBufAsyncRequestC2Ev @ 76 NONAME
	_ZN17RMBufAsyncRequestD1Ev @ 77 NONAME
	_ZN17RMBufAsyncRequestD2Ev @ 78 NONAME
	_ZN17RMBufAsyncRequestaSERKS_ @ 79 NONAME
	_ZN5RMBuf4FreeEv @ 80 NONAME
	_ZN5RMBuf4InitE9TMBufType @ 81 NONAME
	_ZN5RMBuf4LastEv @ 82 NONAME
	_ZN5RMBuf5AllocER14RMBufAllocator @ 83 NONAME
	_ZN5RMBuf5AllocEj @ 84 NONAME
	_ZN5RMBuf5AllocEjR14RMBufAllocator @ 85 NONAME
	_ZN5RMBuf5AllocEv @ 86 NONAME
	_ZN5RMBuf6AllocLER14RMBufAllocator @ 87 NONAME
	_ZN5RMBuf6AllocLEj @ 88 NONAME
	_ZN5RMBuf6AllocLEjR14RMBufAllocator @ 89 NONAME
	_ZN5RMBuf6AllocLEv @ 90 NONAME
	_ZN5RMBuf8__DbgPutEhi @ 91 NONAME
	_ZN6RMBufQ4FreeEv @ 92 NONAME
	_ZN6RMBufQ4InitEv @ 93 NONAME
	_ZN6RMBufQ6AppendEP5RMBuf @ 94 NONAME
	_ZN6RMBufQ6AppendER10RMBufChain @ 95 NONAME
	_ZN6RMBufQ6AppendERS_ @ 96 NONAME
	_ZN6RMBufQ6AssignER10RMBufChain @ 97 NONAME
	_ZN6RMBufQ6AssignERS_ @ 98 NONAME
	_ZN6RMBufQ6RemoveEv @ 99 NONAME
	_ZN6RMBufQ7PrependEP5RMBuf @ 100 NONAME
	_ZN6RMBufQ7PrependER10RMBufChain @ 101 NONAME
	_ZN6RMBufQ7PrependERS_ @ 102 NONAME
	_ZN6RMBufQ8TransferERS_ii @ 103 NONAME
	_ZN6RMBufQ9__CleanupEPv @ 104 NONAME
	_ZN6RMBufQC1EP5RMBuf @ 105 NONAME
	_ZN6RMBufQC2EP5RMBuf @ 106 NONAME
	_ZN7CommsFW9RCFThread6CreateERK7TDesC16PFiPvEiP5RHeapS4_ @ 107 NONAME
	_ZN7CommsFW9RCFThread6CreateERK7TDesC16PFiPvEiiiS4_ @ 108 NONAME
	_ZN9RMBufCell5CopyLEv @ 109 NONAME
	_ZN9RMBufCelldlEPv @ 110 NONAME
	_ZN9RMBufCellnwEj6TLeavej @ 111 NONAME
	_ZN9RMBufCellnwEjj @ 112 NONAME
	_ZN9RMBufPktQ4FreeEv @ 113 NONAME
	_ZN9RMBufPktQ4InitEv @ 114 NONAME
	_ZN9RMBufPktQ6AppendER10RMBufChain @ 115 NONAME
	_ZN9RMBufPktQ6AppendERS_ @ 116 NONAME
	_ZN9RMBufPktQ6RemoveER10RMBufChain @ 117 NONAME
	_ZN9RMBufPktQ7PrependER10RMBufChain @ 118 NONAME
	_ZN9RMBufPktQ9__CleanupEPv @ 119 NONAME
	_ZNK10RMBufChain4CopyERS_iii @ 120 NONAME
	_ZNK10RMBufChain4GotoEiRP5RMBufRiS3_S2_ @ 121 NONAME
	_ZNK10RMBufChain4LastEv @ 122 NONAME
	_ZNK10RMBufChain5CopyLERS_ii @ 123 NONAME
	_ZNK10RMBufChain6LengthEv @ 124 NONAME
	_ZNK10RMBufChain7CopyOutER5TDes8i @ 125 NONAME
	_ZNK10RMBufChain7NumBufsEv @ 126 NONAME
	_ZNK14RMBufAllocator12NextMBufSizeEi @ 127 NONAME
	_ZNK14RMBufAllocator14BytesAvailableEi @ 128 NONAME
	_ZNK14RMBufAllocator14BytesAvailableEv @ 129 NONAME
	_ZNK14RMBufAllocator15LargestMBufSizeEv @ 130 NONAME
	_ZNK5RMBuf8__DbgGetEi @ 131 NONAME
	_ZN17RMBufAsyncRequest10DblQueLinkEv @ 132 NONAME
	_ZN17RMBufAsyncRequest16RequestStatusPtrEv @ 133 NONAME
	_ZN17RMBufAsyncRequest5MBufQEv @ 134 NONAME
	_ZN17RMBufAsyncRequest6LengthEv @ 135 NONAME
	_ZN17RMBufAsyncRequest6ThreadEv @ 136 NONAME
	_ZN17RMBufAsyncRequest9MBufChainEv @ 137 NONAME
	_ZN6RMBufQ10RemoveLastEv @ 138 NONAME

