EXPORTS
	??1CHCICmdQController@@UAE@XZ @ 1 NONAME ; CHCICmdQController::~CHCICmdQController(void)
	??1CHCICommandQItem@@UAE@XZ @ 2 NONAME ; CHCICommandQItem::~CHCICommandQItem(void)
	?Client@CHCICommandQItem@@QBEPAVMHCICommandQueueClient@@XZ @ 3 NONAME ; class MHCICommandQueueClient * CHCICommandQItem::Client(void) const
	?Command@CHCICommandQItem@@QBEAAVCHCICommandBase@@XZ @ 4 NONAME ; class CHCICommandBase & CHCICommandQItem::Command(void) const
	?DoSend@CHCICmdQController@@QAEXXZ @ 5 NONAME ; void CHCICmdQController::DoSend(void)
	?Initialise@CHCICmdQController@@QAEXXZ @ 6 NONAME ; void CHCICmdQController::Initialise(void)
	?IsInitialisation@CHCICommandQItem@@QBEHXZ @ 7 NONAME ; int CHCICommandQItem::IsInitialisation(void) const
	?IsNormal@CHCICommandQItem@@QBEHXZ @ 8 NONAME ; int CHCICommandQItem::IsNormal(void) const
	?IsParent@CHCICommandQItem@@QBEHXZ @ 9 NONAME ; int CHCICommandQItem::IsParent(void) const
	?IsPostChild@CHCICommandQItem@@QBEHXZ @ 10 NONAME ; int CHCICommandQItem::IsPostChild(void) const
	?IsPreChild@CHCICommandQItem@@QBEHXZ @ 11 NONAME ; int CHCICommandQItem::IsPreChild(void) const
	?NewL@CHCICmdQController@@SAPAV1@XZ @ 12 NONAME ; class CHCICmdQController * CHCICmdQController::NewL(void)
	?NewL@CHCICommandQItem@@SAPAV1@AAVMHCICommandAllocator@@AAVMHCICommandQueueClient@@PAVCHCICommandBase@@@Z @ 13 NONAME ; class CHCICommandQItem * CHCICommandQItem::NewL(class MHCICommandAllocator &, class MHCICommandQueueClient &, class CHCICommandBase *)
	?QdpData@CHCICommandQItem@@QBEPAXXZ @ 14 NONAME ; void * CHCICommandQItem::QdpData(void) const
	?ReceivedCmdStatusEvent@CHCICommandQItem@@QBEHXZ @ 15 NONAME ; int CHCICommandQItem::ReceivedCmdStatusEvent(void) const
	?Reset@CHCICmdQController@@QAEXXZ @ 16 NONAME ; void CHCICmdQController::Reset(void)
	?SentCount@CHCICommandQItem@@QBEIXZ @ 17 NONAME ; unsigned int CHCICommandQItem::SentCount(void) const
	?SetHCICommandAllocator@CHCICmdQController@@QAEXAAVMHCICommandAllocator@@@Z @ 18 NONAME ; void CHCICmdQController::SetHCICommandAllocator(class MHCICommandAllocator &)
	?SetHCIUnmatchedEventObserver@CHCICmdQController@@QAEXAAVMHCICommandQueueClient@@@Z @ 19 NONAME ; void CHCICmdQController::SetHCIUnmatchedEventObserver(class MHCICommandQueueClient &)
	?SetHCTLInterface@CHCICmdQController@@QAEXAAVMHCTLInterface@@@Z @ 20 NONAME ; void CHCICmdQController::SetHCTLInterface(class MHCTLInterface &)
	?SetHardResetInitiator@CHCICmdQController@@QAEXAAVMHardResetInitiator@@@Z @ 21 NONAME ; void CHCICmdQController::SetHardResetInitiator(class MHardResetInitiator &)
	?SetLinkMuxNotifier@CHCICmdQController@@QAEXAAVMLinkMuxNotifier@@@Z @ 22 NONAME ; void CHCICmdQController::SetLinkMuxNotifier(class MLinkMuxNotifier &)
	?SetPhysicalLinksState@CHCICmdQController@@QAEXABVMPhysicalLinksState@@@Z @ 23 NONAME ; void CHCICmdQController::SetPhysicalLinksState(class MPhysicalLinksState const &)
	?SetQdpData@CHCICommandQItem@@QAEXPAX@Z @ 24 NONAME ; void CHCICommandQItem::SetQdpData(void *)
	?Start@CHCICmdQController@@QAEXXZ @ 25 NONAME ; void CHCICmdQController::Start(void)
	?InjectEvent@MHCICmdQueueUtilities@@QAEXABVTHCIEventBase@@@Z @ 26 NONAME ; void MHCICmdQueueUtilities::InjectEvent(class THCIEventBase const &)
	?FindOutstandingCommand@MHCICmdQueueUtilities@@QAEPAVCHCICommandQItem@@G@Z @ 27 NONAME
