EXPORTS
	?AddMetaDataEntryL@CVideoRecorderUtility@@QAEXABVCMMFMetaDataEntry@@@Z @ 1 NONAME ; public: void __thiscall CVideoRecorderUtility::AddMetaDataEntryL(class CMMFMetaDataEntry const &)
	?AudioBitRateL@CVideoPlayerUtility@@QBEHXZ @ 2 NONAME ; public: int __thiscall CVideoPlayerUtility::AudioBitRateL(void)const 
	?AudioBitRateL@CVideoRecorderUtility@@QBEHXZ @ 3 NONAME ; public: int __thiscall CVideoRecorderUtility::AudioBitRateL(void)const 
	?AudioEnabledL@CVideoPlayerUtility@@QBEHXZ @ 4 NONAME ; public: int __thiscall CVideoPlayerUtility::AudioEnabledL(void)const 
	?AudioEnabledL@CVideoRecorderUtility@@QBEHXZ @ 5 NONAME ; public: int __thiscall CVideoRecorderUtility::AudioEnabledL(void)const 
	?AudioTypeL@CVideoPlayerUtility@@QBE?AVTFourCC@@XZ @ 6 NONAME ; public: class TFourCC  __thiscall CVideoPlayerUtility::AudioTypeL(void)const 
	?AudioTypeL@CVideoRecorderUtility@@QBE?AVTFourCC@@XZ @ 7 NONAME ; public: class TFourCC  __thiscall CVideoRecorderUtility::AudioTypeL(void)const 
	?Balance@CVideoPlayerUtility@@QBEHXZ @ 8 NONAME ; public: int __thiscall CVideoPlayerUtility::Balance(void)const 
	?Close@CVideoPlayerUtility@@QAEXXZ @ 9 NONAME ; public: void __thiscall CVideoPlayerUtility::Close(void)
	?Close@CVideoRecorderUtility@@QAEXXZ @ 10 NONAME ; public: void __thiscall CVideoRecorderUtility::Close(void)
	?DurationL@CVideoPlayerUtility@@QBE?AVTTimeIntervalMicroSeconds@@XZ @ 11 NONAME ; public: class TTimeIntervalMicroSeconds  __thiscall CVideoPlayerUtility::DurationL(void)const 
	?DurationL@CVideoRecorderUtility@@QBE?AVTTimeIntervalMicroSeconds@@XZ @ 12 NONAME ; public: class TTimeIntervalMicroSeconds  __thiscall CVideoRecorderUtility::DurationL(void)const 
	?GainL@CVideoRecorderUtility@@QBEHXZ @ 13 NONAME ; public: int __thiscall CVideoRecorderUtility::GainL(void)const 
	?GetFrameL@CVideoPlayerUtility@@QAEXW4TDisplayMode@@@Z @ 14 NONAME ; public: void __thiscall CVideoPlayerUtility::GetFrameL(enum TDisplayMode)
	?GetPriorityL@CVideoRecorderUtility@@QBEXAAHAAW4TMdaPriorityPreference@@@Z @ 15 NONAME ; public: void __thiscall CVideoRecorderUtility::GetPriorityL(int &,enum TMdaPriorityPreference &)const 
	?GetSupportedAudioTypesL@CVideoRecorderUtility@@QBEXAAV?$RArray@VTFourCC@@@@@Z @ 16 NONAME ; public: void __thiscall CVideoRecorderUtility::GetSupportedAudioTypesL(class RArray<class TFourCC> &)const 
	?GetSupportedVideoTypesL@CVideoRecorderUtility@@QBEXAAVCDesC8Array@@@Z @ 17 NONAME ; public: void __thiscall CVideoRecorderUtility::GetSupportedVideoTypesL(class CDesC8Array &)const 
	?GetVideoFrameSizeL@CVideoRecorderUtility@@QBEXAAVTSize@@@Z @ 18 NONAME ; public: void __thiscall CVideoRecorderUtility::GetVideoFrameSizeL(class TSize &)const 
	?MaxGainL@CVideoRecorderUtility@@QBEHXZ @ 19 NONAME ; public: int __thiscall CVideoRecorderUtility::MaxGainL(void)const 
	?MaxVolume@CVideoPlayerUtility@@QBEHXZ @ 20 NONAME ; public: int __thiscall CVideoPlayerUtility::MaxVolume(void)const 
	?MetaDataEntryL@CVideoPlayerUtility@@QBEPAVCMMFMetaDataEntry@@H@Z @ 21 NONAME ; public: class CMMFMetaDataEntry * __thiscall CVideoPlayerUtility::MetaDataEntryL(int)const 
	?MetaDataEntryL@CVideoRecorderUtility@@QBEPAVCMMFMetaDataEntry@@H@Z @ 22 NONAME ; public: class CMMFMetaDataEntry * __thiscall CVideoRecorderUtility::MetaDataEntryL(int)const 
	?NewL@CVideoPlayerUtility@@SAPAV1@AAVMVideoPlayerUtilityObserver@@HHAAVRWsSession@@AAVCWsScreenDevice@@AAVRWindowBase@@ABVTRect@@4@Z @ 23 NONAME ; class CVideoPlayerUtility * CVideoPlayerUtility::NewL(class MVideoPlayerUtilityObserver &, int, int, class RWsSession &, class CWsScreenDevice &, class RWindowBase &, class TRect const &, class TRect const &)
	?NewL@CVideoRecorderUtility@@SAPAV1@AAVMVideoRecorderUtilityObserver@@HH@Z @ 24 NONAME ; class CVideoRecorderUtility * CVideoRecorderUtility::NewL(class MVideoRecorderUtilityObserver &, int, int)
	?NumberOfMetaDataEntriesL@CVideoPlayerUtility@@QBEHXZ @ 25 NONAME ; public: int __thiscall CVideoPlayerUtility::NumberOfMetaDataEntriesL(void)const 
	?NumberOfMetaDataEntriesL@CVideoRecorderUtility@@QBEHXZ @ 26 NONAME ; public: int __thiscall CVideoRecorderUtility::NumberOfMetaDataEntriesL(void)const 
	?OpenDesL@CVideoPlayerUtility@@QAEXABVTDesC8@@VTUid@@@Z @ 27 NONAME ; public: void __thiscall CVideoPlayerUtility::OpenDesL(class TDesC8 const &,class TUid)
	?OpenDesL@CVideoRecorderUtility@@QAEXAAVTDes8@@HVTUid@@1ABVTDesC8@@VTFourCC@@@Z @ 28 NONAME ; public: void __thiscall CVideoRecorderUtility::OpenDesL(class TDes8 &,int,class TUid,class TUid,class TDesC8 const &,class TFourCC)
	?OpenFileL@CVideoPlayerUtility@@QAEXABVTDesC16@@VTUid@@@Z @ 29 NONAME ; public: void __thiscall CVideoPlayerUtility::OpenFileL(class TDesC16 const &,class TUid)
	?OpenFileL@CVideoRecorderUtility@@QAEXABVTDesC16@@HVTUid@@1ABVTDesC8@@VTFourCC@@@Z @ 30 NONAME ; public: void __thiscall CVideoRecorderUtility::OpenFileL(class TDesC16 const &,int,class TUid,class TUid,class TDesC8 const &,class TFourCC)
	?OpenUrlL@CVideoPlayerUtility@@QAEXABVTDesC16@@HABVTDesC8@@VTUid@@@Z @ 31 NONAME ; public: void __thiscall CVideoPlayerUtility::OpenUrlL(class TDesC16 const &,int,class TDesC8 const &,class TUid)
	?OpenUrlL@CVideoRecorderUtility@@QAEXABVTDesC16@@HHVTUid@@1ABVTDesC8@@VTFourCC@@@Z @ 32 NONAME ; public: void __thiscall CVideoRecorderUtility::OpenUrlL(class TDesC16 const &,int,int,class TUid,class TUid,class TDesC8 const &,class TFourCC)
	?PauseL@CVideoPlayerUtility@@QAEXXZ @ 33 NONAME ; public: void __thiscall CVideoPlayerUtility::PauseL(void)
	?PauseL@CVideoRecorderUtility@@QAEXXZ @ 34 NONAME ; public: void __thiscall CVideoRecorderUtility::PauseL(void)
	?Play@CVideoPlayerUtility@@QAEXXZ @ 35 NONAME ; public: void __thiscall CVideoPlayerUtility::Play(void)
	?PositionL@CVideoPlayerUtility@@QBE?AVTTimeIntervalMicroSeconds@@XZ @ 36 NONAME ; public: class TTimeIntervalMicroSeconds  __thiscall CVideoPlayerUtility::PositionL(void)const 
	?RecordTimeAvailable@CVideoRecorderUtility@@QBE?AVTTimeIntervalMicroSeconds@@XZ @ 37 NONAME ; public: class TTimeIntervalMicroSeconds  __thiscall CVideoRecorderUtility::RecordTimeAvailable(void)const 
	?Prepare@CVideoRecorderUtility@@QAEXXZ @ 38 NONAME ; public: void __thiscall CVideoRecorderUtility::Prepare(void)
	?PriorityL@CVideoPlayerUtility@@QBEXAAHAAW4TMdaPriorityPreference@@@Z @ 39 NONAME ; public: void __thiscall CVideoPlayerUtility::PriorityL(int &,enum TMdaPriorityPreference &)const 
	?Record@CVideoRecorderUtility@@QAEXXZ @ 40 NONAME ; public: void __thiscall CVideoRecorderUtility::Record(void)
	?RegisterForVideoLoadingNotification@CVideoPlayerUtility@@QAEXAAVMVideoLoadingObserver@@@Z @ 41 NONAME ; public: void __thiscall CVideoPlayerUtility::RegisterForVideoLoadingNotification(class MVideoLoadingObserver &)
	?RemoveMetaDataEntryL@CVideoRecorderUtility@@QAEXH@Z @ 42 NONAME ; public: void __thiscall CVideoRecorderUtility::RemoveMetaDataEntryL(int)
	?ReplaceMetaDataEntryL@CVideoRecorderUtility@@QAEXHABVCMMFMetaDataEntry@@@Z @ 43 NONAME ; public: void __thiscall CVideoRecorderUtility::ReplaceMetaDataEntryL(int,class CMMFMetaDataEntry const &)
	?SetAudioBitRateL@CVideoRecorderUtility@@QAEXH@Z @ 44 NONAME ; public: void __thiscall CVideoRecorderUtility::SetAudioBitRateL(int)
	?SetAudioEnabledL@CVideoRecorderUtility@@QAEXH@Z @ 45 NONAME ; public: void __thiscall CVideoRecorderUtility::SetAudioEnabledL(int)
	?SetAudioTypeL@CVideoRecorderUtility@@QAEXVTFourCC@@@Z @ 46 NONAME ; public: void __thiscall CVideoRecorderUtility::SetAudioTypeL(class TFourCC)
	?SetBalanceL@CVideoPlayerUtility@@QAEXH@Z @ 47 NONAME ; public: void __thiscall CVideoPlayerUtility::SetBalanceL(int)
	?SetDisplayWindowL@CVideoPlayerUtility@@QAEXAAVRWsSession@@AAVCWsScreenDevice@@AAVRWindowBase@@ABVTRect@@3@Z @ 48 NONAME ; public: void __thiscall CVideoPlayerUtility::SetDisplayWindowL(class RWsSession &,class CWsScreenDevice &,class RWindowBase &,class TRect const &,class TRect const &)
	?SetGainL@CVideoRecorderUtility@@QAEXH@Z @ 49 NONAME ; public: void __thiscall CVideoRecorderUtility::SetGainL(int)
	?SetMaxClipSizeL@CVideoRecorderUtility@@QAEXH@Z @ 50 NONAME ; public: void __thiscall CVideoRecorderUtility::SetMaxClipSizeL(int)
	?SetPositionL@CVideoPlayerUtility@@QAEXABVTTimeIntervalMicroSeconds@@@Z @ 51 NONAME ; public: void __thiscall CVideoPlayerUtility::SetPositionL(class TTimeIntervalMicroSeconds const &)
	?SetPriorityL@CVideoPlayerUtility@@QAEXHH@Z @ 52 NONAME ; void CVideoPlayerUtility::SetPriorityL(int, int)
	?SetPriorityL@CVideoRecorderUtility@@QAEXHH@Z @ 53 NONAME ; void CVideoRecorderUtility::SetPriorityL(int, int)
	?SetVideoBitRateL@CVideoRecorderUtility@@QAEXH@Z @ 54 NONAME ; public: void __thiscall CVideoRecorderUtility::SetVideoBitRateL(int)
	?SetVideoFrameRateL@CVideoRecorderUtility@@QAEXM@Z @ 55 NONAME ; public: void __thiscall CVideoRecorderUtility::SetVideoFrameRateL(float)
	?SetVideoFrameSizeL@CVideoRecorderUtility@@QAEXABVTSize@@@Z @ 56 NONAME ; public: void __thiscall CVideoRecorderUtility::SetVideoFrameSizeL(class TSize const &)
	?SetVideoTypeL@CVideoRecorderUtility@@QAEXABVTDesC8@@@Z @ 57 NONAME ; public: void __thiscall CVideoRecorderUtility::SetVideoTypeL(class TDesC8 const &)
	?SetVolumeL@CVideoPlayerUtility@@QAEXH@Z @ 58 NONAME ; public: void __thiscall CVideoPlayerUtility::SetVolumeL(int)
	?Stop@CVideoPlayerUtility@@QAEHXZ @ 59 NONAME ; public: int __thiscall CVideoPlayerUtility::Stop(void)
	?Stop@CVideoRecorderUtility@@QAEHXZ @ 60 NONAME ; public: int __thiscall CVideoRecorderUtility::Stop(void)
	?VideoBitRateL@CVideoPlayerUtility@@QBEHXZ @ 61 NONAME ; public: int __thiscall CVideoPlayerUtility::VideoBitRateL(void)const 
	?VideoBitRateL@CVideoRecorderUtility@@QAEHXZ @ 62 NONAME ; public: int __thiscall CVideoRecorderUtility::VideoBitRateL(void)
	?VideoFormatMimeType@CVideoPlayerUtility@@QBEABVTDesC8@@XZ @ 63 NONAME ; public: class TDesC8 const & __thiscall CVideoPlayerUtility::VideoFormatMimeType(void)const 
	?VideoFrameRateL@CVideoPlayerUtility@@QBEMXZ @ 64 NONAME ; public: float __thiscall CVideoPlayerUtility::VideoFrameRateL(void)const 
	?VideoFrameRateL@CVideoRecorderUtility@@QBEMXZ @ 65 NONAME ; public: float __thiscall CVideoRecorderUtility::VideoFrameRateL(void)const 
	?VideoFrameSizeL@CVideoPlayerUtility@@QBEXAAVTSize@@@Z @ 66 NONAME ; public: void __thiscall CVideoPlayerUtility::VideoFrameSizeL(class TSize &)const 
	?Reserved2@@YAXXZ @ 67 NONAME ; void __cdecl Reserved2(void)
	?Reserved1@@YAXXZ @ 68 NONAME ; void __cdecl Reserved1(void)
	?Volume@CVideoPlayerUtility@@QBEHXZ @ 69 NONAME ; public: int __thiscall CVideoPlayerUtility::Volume(void)const 
	?CustomCommandAsync@CVideoPlayerUtility@@QAEXABV?$TPckgBuf@VTMMFMessageDestination@@@@HABVTDesC8@@1AAVTDes8@@AAVTRequestStatus@@@Z @ 70 NONAME ; public: void __thiscall CVideoPlayerUtility::CustomCommandAsync(class TPckgBuf<class TMMFMessageDestination> const &,int,class TDesC8 const &,class TDesC8 const &,class TDes8 &,class TRequestStatus &)
	?CustomCommandAsync@CVideoPlayerUtility@@QAEXABV?$TPckgBuf@VTMMFMessageDestination@@@@HABVTDesC8@@1AAVTRequestStatus@@@Z @ 71 NONAME ; public: void __thiscall CVideoPlayerUtility::CustomCommandAsync(class TPckgBuf<class TMMFMessageDestination> const &,int,class TDesC8 const &,class TDesC8 const &,class TRequestStatus &)
	?CustomCommandAsync@CVideoRecorderUtility@@QAEXABV?$TPckgBuf@VTMMFMessageDestination@@@@HABVTDesC8@@1AAVTDes8@@AAVTRequestStatus@@@Z @ 72 NONAME ; public: void __thiscall CVideoRecorderUtility::CustomCommandAsync(class TPckgBuf<class TMMFMessageDestination> const &,int,class TDesC8 const &,class TDesC8 const &,class TDes8 &,class TRequestStatus &)
	?CustomCommandAsync@CVideoRecorderUtility@@QAEXABV?$TPckgBuf@VTMMFMessageDestination@@@@HABVTDesC8@@1AAVTRequestStatus@@@Z @ 73 NONAME ; public: void __thiscall CVideoRecorderUtility::CustomCommandAsync(class TPckgBuf<class TMMFMessageDestination> const &,int,class TDesC8 const &,class TDesC8 const &,class TRequestStatus &)
	?CustomCommandSync@CVideoPlayerUtility@@QAEHABV?$TPckgBuf@VTMMFMessageDestination@@@@HABVTDesC8@@1@Z @ 74 NONAME ; public: int __thiscall CVideoPlayerUtility::CustomCommandSync(class TPckgBuf<class TMMFMessageDestination> const &,int,class TDesC8 const &,class TDesC8 const &)
	?CustomCommandSync@CVideoPlayerUtility@@QAEHABV?$TPckgBuf@VTMMFMessageDestination@@@@HABVTDesC8@@1AAVTDes8@@@Z @ 75 NONAME ; public: int __thiscall CVideoPlayerUtility::CustomCommandSync(class TPckgBuf<class TMMFMessageDestination> const &,int,class TDesC8 const &,class TDesC8 const &,class TDes8 &)
	?CustomCommandSync@CVideoRecorderUtility@@QAEHABV?$TPckgBuf@VTMMFMessageDestination@@@@HABVTDesC8@@1@Z @ 76 NONAME ; public: int __thiscall CVideoRecorderUtility::CustomCommandSync(class TPckgBuf<class TMMFMessageDestination> const &,int,class TDesC8 const &,class TDesC8 const &)
	?CustomCommandSync@CVideoRecorderUtility@@QAEHABV?$TPckgBuf@VTMMFMessageDestination@@@@HABVTDesC8@@1AAVTDes8@@@Z @ 77 NONAME ; public: int __thiscall CVideoRecorderUtility::CustomCommandSync(class TPckgBuf<class TMMFMessageDestination> const &,int,class TDesC8 const &,class TDesC8 const &,class TDes8 &)	
	?SetVideoFrameRateL@CVideoPlayerUtility@@QAEXM@Z @ 78 NONAME ; void CVideoPlayerUtility::SetVideoFrameRateL(float)
	?ControllerImplementationInformationL@CVideoPlayerUtility@@QAEABVCMMFControllerImplementationInformation@@XZ @ 79 NONAME ; public: class CMMFControllerImplementationInformation const & __thiscall CVideoPlayerUtility::ControllerImplementationInformationL(void)
	?ControllerImplementationInformationL@CVideoRecorderUtility@@QAEABVCMMFControllerImplementationInformation@@XZ @ 80 NONAME ; class CMMFControllerImplementationInformation const & CVideoRecorderUtility::ControllerImplementationInformationL(void)
	?GetVideoLoadingProgressL@CVideoPlayerUtility@@QAEXAAH@Z @ 81 NONAME ; void CVideoPlayerUtility::GetVideoLoadingProgressL(int &)
	?Play@CVideoPlayerUtility@@QAEXABVTTimeIntervalMicroSeconds@@0@Z @ 82 NONAME ; void CVideoPlayerUtility::Play(class TTimeIntervalMicroSeconds const &, class TTimeIntervalMicroSeconds const &)
	?RefreshFrameL@CVideoPlayerUtility@@QAEXXZ @ 83 NONAME ; void CVideoPlayerUtility::RefreshFrameL(void)
	?VideoFormatMimeType@CVideoRecorderUtility@@QBEABVTDesC8@@XZ @ 84 NONAME ; public: class TDesC8 const & __thiscall CVideoRecorderUtility::VideoFormatMimeType(void)const 
	?GetCropRegionL@CVideoPlayerUtility@@QBEXAAVTRect@@@Z @ 85 NONAME ; public: void __thiscall CVideoPlayerUtility::GetCropRegionL(class TRect &)const 
	?GetScaleFactorL@CVideoPlayerUtility@@QBEXAAM0AAH@Z @ 86 NONAME ; public: void __thiscall CVideoPlayerUtility::GetScaleFactorL(float &,float &,int &)const 
	?Prepare@CVideoPlayerUtility@@QAEXXZ @ 87 NONAME ; public: void __thiscall CVideoPlayerUtility::Prepare(void)
	?RotationL@CVideoPlayerUtility@@QBE?AW4TVideoRotation@@XZ @ 88 NONAME ; public: enum TVideoRotation  __thiscall CVideoPlayerUtility::RotationL(void)const 
	?SetCropRegionL@CVideoPlayerUtility@@QAEXABVTRect@@@Z @ 89 NONAME ; public: void __thiscall CVideoPlayerUtility::SetCropRegionL(class TRect const &)
	?SetRotationL@CVideoPlayerUtility@@QAEXW4TVideoRotation@@@Z @ 90 NONAME ; public: void __thiscall CVideoPlayerUtility::SetRotationL(enum TVideoRotation)
	?SetScaleFactorL@CVideoPlayerUtility@@QAEXMMH@Z @ 91 NONAME ; public: void __thiscall CVideoPlayerUtility::SetScaleFactorL(float,float,int)
	?GetFrameL@CVideoPlayerUtility@@QAEXW4TDisplayMode@@W4TIntent@ContentAccess@@@Z @ 92 NONAME ; public: void __thiscall CVideoPlayerUtility::GetFrameL(enum TDisplayMode,enum ContentAccess::TIntent)
	?OpenFileL@CVideoPlayerUtility@@QAEXABVRFile@@VTUid@@@Z @ 93 NONAME ; void CVideoPlayerUtility::OpenFileL(class RFile const &, class TUid)
	?OpenFileL@CVideoRecorderUtility@@QAEXABVRFile@@HVTUid@@1ABVTDesC8@@VTFourCC@@@Z @ 94 NONAME ; void CVideoRecorderUtility::OpenFileL(class RFile const &, int, class TUid, class TUid, class TDesC8 const &, class TFourCC)
	?GetDRMCustomCommand@CVideoPlayerUtility@@QAEPAVMMMFDRMCustomCommand@@XZ @ 95 NONAME ; class MMMFDRMCustomCommand * CVideoPlayerUtility::GetDRMCustomCommand(void)
	?OpenFileL@CVideoPlayerUtility@@QAEXABVTMMSource@@VTUid@@@Z @ 96 NONAME ; void CVideoPlayerUtility::OpenFileL(class TMMSource const &, class TUid)
	?StartDirectScreenAccessL@CVideoPlayerUtility@@QAEXXZ @ 97 NONAME ; void CVideoPlayerUtility::StartDirectScreenAccessL(void)
	?StopDirectScreenAccessL@CVideoPlayerUtility@@QAEXXZ @ 98 NONAME ; void CVideoPlayerUtility::StopDirectScreenAccessL(void)
	?CancelRegisterAudioResourceNotification@CVideoPlayerUtility@@QAEHVTUid@@@Z @ 99 NONAME ; int CVideoPlayerUtility::CancelRegisterAudioResourceNotification(class TUid)
	?RegisterAudioResourceNotification@CVideoPlayerUtility@@QAEHAAVMMMFAudioResourceNotificationCallback@@VTUid@@ABVTDesC8@@@Z @ 100 NONAME ; int CVideoPlayerUtility::RegisterAudioResourceNotification(class MMMFAudioResourceNotificationCallback &, class TUid, class TDesC8 const &)
	?WillResumePlay@CVideoPlayerUtility@@QAEHXZ @ 101 NONAME ; int CVideoPlayerUtility::WillResumePlay(void)
	?SetInitScreenNumber@CVideoPlayerUtility@@QAEHH@Z @ 102 NONAME ; int CVideoPlayerUtility::SetInitScreenNumber(int)
	?AudioChannelsL@CVideoRecorderUtility@@QBEIXZ @ 103 NONAME ; unsigned int CVideoRecorderUtility::AudioChannelsL(void) const
	?AudioSampleRateL@CVideoRecorderUtility@@QBEIXZ @ 104 NONAME ; unsigned int CVideoRecorderUtility::AudioSampleRateL(void) const
	?GetPixelAspectRatioL@CVideoRecorderUtility@@QBEXAAVTVideoAspectRatio@@@Z @ 105 NONAME ; void CVideoRecorderUtility::GetPixelAspectRatioL(class TVideoAspectRatio &) const
	?GetSupportedAudioChannelsL@CVideoRecorderUtility@@QBEXAAV?$RArray@I@@@Z @ 106 NONAME ; void CVideoRecorderUtility::GetSupportedAudioChannelsL(class RArray<unsigned int> &) const
	?GetSupportedAudioSampleRatesL@CVideoRecorderUtility@@QBEXAAV?$RArray@I@@@Z @ 107 NONAME ; void CVideoRecorderUtility::GetSupportedAudioSampleRatesL(class RArray<unsigned int> &) const
	?GetSupportedPixelAspectRatiosL@CVideoRecorderUtility@@QBEXAAV?$RArray@VTVideoAspectRatio@@@@@Z @ 108 NONAME ; void CVideoRecorderUtility::GetSupportedPixelAspectRatiosL(class RArray<class TVideoAspectRatio> &) const
	?SetAudioChannelsL@CVideoRecorderUtility@@QAEXI@Z @ 109 NONAME ; void CVideoRecorderUtility::SetAudioChannelsL(unsigned int)
	?SetAudioSampleRateL@CVideoRecorderUtility@@QAEXI@Z @ 110 NONAME ; void CVideoRecorderUtility::SetAudioSampleRateL(unsigned int)
	?SetPixelAspectRatioL@CVideoRecorderUtility@@QAEXABVTVideoAspectRatio@@@Z @ 111 NONAME ; void CVideoRecorderUtility::SetPixelAspectRatioL(class TVideoAspectRatio const &)
	?GetPlayRateCapabilitiesL@CVideoPlayerUtility@@QBEXAAVTVideoPlayRateCapabilities@@@Z @ 112 NONAME ; void CVideoPlayerUtility::GetPlayRateCapabilitiesL(class TVideoPlayRateCapabilities &) const
	?PlayVelocityL@CVideoPlayerUtility@@QBEHXZ @ 113 NONAME ; int CVideoPlayerUtility::PlayVelocityL(void) const
	?SetAudioEnabledL@CVideoPlayerUtility@@QAEXH@Z @ 114 NONAME ; void CVideoPlayerUtility::SetAudioEnabledL(int)
	?SetAutoScaleL@CVideoPlayerUtility@@QAEXW4TAutoScaleType@@@Z @ 115 NONAME ; void CVideoPlayerUtility::SetAutoScaleL(enum TAutoScaleType)
	?SetAutoScaleL@CVideoPlayerUtility@@QAEXW4TAutoScaleType@@HH@Z @ 116 NONAME ; void CVideoPlayerUtility::SetAutoScaleL(enum TAutoScaleType, int, int)
	?SetPlayVelocityL@CVideoPlayerUtility@@QAEXH@Z @ 117 NONAME ; void CVideoPlayerUtility::SetPlayVelocityL(int)
	?SetVideoEnabledL@CVideoPlayerUtility@@QAEXH@Z @ 118 NONAME ; void CVideoPlayerUtility::SetVideoEnabledL(int)
	?SetVideoEnabledL@CVideoRecorderUtility@@QAEXH@Z @ 119 NONAME ; void CVideoRecorderUtility::SetVideoEnabledL(int)
	?SetVideoFrameRateFixedL@CVideoRecorderUtility@@QAEXH@Z @ 120 NONAME ; void CVideoRecorderUtility::SetVideoFrameRateFixedL(int)
	?SetVideoQualityL@CVideoRecorderUtility@@QAEXH@Z @ 121 NONAME ; void CVideoRecorderUtility::SetVideoQualityL(int)
	?StepFrameL@CVideoPlayerUtility@@QAEXH@Z @ 122 NONAME ; void CVideoPlayerUtility::StepFrameL(int)
	?VideoEnabledL@CVideoPlayerUtility@@QBEHXZ @ 123 NONAME ; int CVideoPlayerUtility::VideoEnabledL(void) const
	?VideoEnabledL@CVideoRecorderUtility@@QBEHXZ @ 124 NONAME ; int CVideoRecorderUtility::VideoEnabledL(void) const
	?VideoFrameRateFixedL@CVideoRecorderUtility@@QBEHXZ @ 125 NONAME ; int CVideoRecorderUtility::VideoFrameRateFixedL(void) const
	?VideoQualityL@CVideoRecorderUtility@@QBEHXZ @ 126 NONAME ; int CVideoRecorderUtility::VideoQualityL(void) const
	?AddDisplayWindowL@CVideoPlayerUtility2@@QAEXAAVRWsSession@@AAVCWsScreenDevice@@AAVRWindow@@@Z @ 127 NONAME ; void CVideoPlayerUtility2::AddDisplayWindowL(class RWsSession &, class CWsScreenDevice &, class RWindow &)
	?AddDisplayWindowL@CVideoPlayerUtility2@@QAEXAAVRWsSession@@AAVCWsScreenDevice@@AAVRWindow@@ABVTRect@@3@Z @ 128 NONAME ; void CVideoPlayerUtility2::AddDisplayWindowL(class RWsSession &, class CWsScreenDevice &, class RWindow &, class TRect const &, class TRect const &)
	?NewL@CVideoPlayerUtility2@@SAPAV1@AAVMVideoPlayerUtilityObserver@@HH@Z @ 129 NONAME ; class CVideoPlayerUtility2 * CVideoPlayerUtility2::NewL(class MVideoPlayerUtilityObserver &, int, int)
	?RemoveDisplayWindow@CVideoPlayerUtility2@@QAEXAAVRWindow@@@Z @ 130 NONAME ; void CVideoPlayerUtility2::RemoveDisplayWindow(class RWindow &)
	?SetVideoExtentL@CVideoPlayerUtility2@@QAEXABVRWindow@@ABVTRect@@@Z @ 131 NONAME ; void CVideoPlayerUtility2::SetVideoExtentL(class RWindow const &, class TRect const &)
	?SetWindowClipRectL@CVideoPlayerUtility2@@QAEXABVRWindow@@ABVTRect@@@Z @ 132 NONAME ; void CVideoPlayerUtility2::SetWindowClipRectL(class RWindow const &, class TRect const &)
	?GetScaleFactorL@CVideoPlayerUtility2@@QAEXABVRWindow@@AAM1@Z @ 133 NONAME ; void CVideoPlayerUtility2::GetScaleFactorL(class RWindow const &, float &, float &)
	?RotationL@CVideoPlayerUtility2@@QAE?AW4TVideoRotation@@ABVRWindow@@@Z @ 134 NONAME ; enum TVideoRotation CVideoPlayerUtility2::RotationL(class RWindow const &)
	?SetAutoScaleL@CVideoPlayerUtility2@@QAEXABVRWindow@@W4TAutoScaleType@@@Z @ 135 NONAME ; void CVideoPlayerUtility2::SetAutoScaleL(class RWindow const &, enum TAutoScaleType)
	?SetAutoScaleL@CVideoPlayerUtility2@@QAEXABVRWindow@@W4TAutoScaleType@@HH@Z @ 136 NONAME ; void CVideoPlayerUtility2::SetAutoScaleL(class RWindow const &, enum TAutoScaleType, int, int)
	?SetRotationL@CVideoPlayerUtility2@@QAEXABVRWindow@@W4TVideoRotation@@@Z @ 137 NONAME ; void CVideoPlayerUtility2::SetRotationL(class RWindow const &, enum TVideoRotation)
	?SetScaleFactorL@CVideoPlayerUtility2@@QAEXABVRWindow@@MM@Z @ 138 NONAME ; void CVideoPlayerUtility2::SetScaleFactorL(class RWindow const &, float, float)
	?DisableSubtitles@CVideoPlayerUtility2@@QAEXXZ @ 139 NONAME ; void CVideoPlayerUtility2::DisableSubtitles(void)
	?EnableSubtitlesL@CVideoPlayerUtility2@@QAEXXZ @ 140 NONAME ; void CVideoPlayerUtility2::EnableSubtitlesL(void)
	?RedrawSubtitle@CVideoPlayerUtility2@@QAEXAAVRWindow@@ABVTRect@@@Z @ 141 NONAME ; void CVideoPlayerUtility2::RedrawSubtitle(class RWindow &, class TRect const &)
	?SetSubtitleLanguageL@CVideoPlayerUtility2@@QAEXW4TLanguage@@@Z @ 142 NONAME ; void CVideoPlayerUtility2::SetSubtitleLanguageL(enum TLanguage)
	?SubtitleLanguageL@CVideoPlayerUtility2@@QAE?AW4TLanguage@@XZ @ 143 NONAME ; enum TLanguage CVideoPlayerUtility2::SubtitleLanguageL(void)
	?SubtitlesAvailable@CVideoPlayerUtility2@@QAEHXZ @ 144 NONAME ; int CVideoPlayerUtility2::SubtitlesAvailable(void)
	?SupportedSubtitleLanguagesL@CVideoPlayerUtility2@@QAE?AV?$TArray@W4TLanguage@@@@XZ @ 145 NONAME ; class TArray<enum TLanguage> CVideoPlayerUtility2::SupportedSubtitleLanguagesL(void)
	?AddDisplayL@CVideoPlayerUtility2@@QAEXAAVRWsSession@@HAAVMMMFSurfaceEventHandler@@@Z @ 146 NONAME ; void CVideoPlayerUtility2::AddDisplayL(class RWsSession &, int, class MMMFSurfaceEventHandler &)
	?RemoveDisplay@CVideoPlayerUtility2@@QAEXH@Z @ 147 NONAME ; void CVideoPlayerUtility2::RemoveDisplay(int)
	?SetExternalDisplaySwitchingL@CVideoPlayerUtility2@@QAEXHH@Z @ 148 NONAME ; void CVideoPlayerUtility2::SetExternalDisplaySwitchingL(int, int)
	?SetExternalDisplaySwitchingL@CVideoPlayerUtility@@QAEXHH@Z @ 149 NONAME ; void CVideoPlayerUtility::SetExternalDisplaySwitchingL(int, int)	
	??0CExtDisplayConnectionProviderInterface@@IAE@XZ @ 150 NONAME ; CExtDisplayConnectionProviderInterface::CExtDisplayConnectionProviderInterface(void)	
	??1CExtDisplayConnectionProviderInterface@@UAE@XZ @ 151 NONAME ; CExtDisplayConnectionProviderInterface::~CExtDisplayConnectionProviderInterface(void)

