EXPORTS
	_ZN20CGlobalAudioSettings11RingingTypeEv @ 1 NONAME
	_ZN20CGlobalAudioSettings14EmailAlertToneEv @ 2 NONAME
	_ZN20CGlobalAudioSettings14IsVibraEnabledEv @ 3 NONAME
	_ZN20CGlobalAudioSettings16KeyPadToneVolumeEv @ 4 NONAME
	_ZN20CGlobalAudioSettings16MessageAlertToneEv @ 5 NONAME
	_ZN20CGlobalAudioSettings17RingingAlertTone1Ev @ 6 NONAME
	_ZN20CGlobalAudioSettings17RingingAlertTone2Ev @ 7 NONAME
	_ZN20CGlobalAudioSettings18VideoCallAlertToneEv @ 8 NONAME
	_ZN20CGlobalAudioSettings19GetAudioClientsListENS_20TAudioClientListTypeER6RArrayI10TProcessIdE @ 9 NONAME
	_ZN20CGlobalAudioSettings21IsMessageTonesEnabledEv @ 10 NONAME
	_ZN20CGlobalAudioSettings21IsWarningTonesEnabledEv @ 11 NONAME
	_ZN20CGlobalAudioSettings22IsPublicSilenceEnabledEv @ 12 NONAME
	_ZN20CGlobalAudioSettings22IsSilentProfileEnabledEv @ 13 NONAME
	_ZN20CGlobalAudioSettings23IsEmailAlertToneEnabledEv @ 14 NONAME
	_ZN20CGlobalAudioSettings25IsMessageAlertToneEnabledEv @ 15 NONAME
	_ZN20CGlobalAudioSettings26IsRingingAlertTone1EnabledEv @ 16 NONAME
	_ZN20CGlobalAudioSettings26IsRingingAlertTone2EnabledEv @ 17 NONAME
	_ZN20CGlobalAudioSettings27IsVideoCallAlertToneEnabledEv @ 18 NONAME
	_ZN20CGlobalAudioSettings32RegisterAudioClientsListObserverER25MAudioClientsListObserver @ 19 NONAME
	_ZN20CGlobalAudioSettings34UnregisterAudioClientsListObserverER25MAudioClientsListObserver @ 20 NONAME
	_ZN20CGlobalAudioSettings4NewLER22MAudioSettingsObserver @ 21 NONAME
	_ZN20CGlobalAudioSettingsD0Ev @ 22 NONAME
	_ZN20CGlobalAudioSettingsD1Ev @ 23 NONAME
	_ZN20CGlobalAudioSettingsD2Ev @ 24 NONAME
	_ZTI20CGlobalAudioSettings @ 25 NONAME
	_ZTI26CAudioClientsListManagerAO @ 26 NONAME
	_ZTV20CGlobalAudioSettings @ 27 NONAME
	_ZTV26CAudioClientsListManagerAO @ 28 NONAME
	_ZN20CGlobalAudioSettings20IsSilenceModeEnabledEv @ 29 NONAME

