EXPORTS
	?__DbgCheckHeap@RRemConBulk@@QAEHH@Z @ 1 NONAME ; int RRemConBulk::__DbgCheckHeap(int)
	??0RRemConBulk@@QAE@XZ @ 2 NONAME ; RRemConBulk::RRemConBulk(void)
	?Receive@RRemCon@@QAEXAAVTRequestStatus@@AAUTRemConClientReceivePackage@@AAVTDes8@@@Z @ 3 NONAME ; void RRemCon::Receive(class TRequestStatus &, struct TRemConClientReceivePackage &, class TDes8 &)
	?__DbgMarkHeap@RRemCon@@QAEHXZ @ 4 NONAME ; int RRemCon::__DbgMarkHeap(void)
	?DisconnectBearerCancel@RRemConController@@QAEHXZ @ 5 NONAME ; int RRemConController::DisconnectBearerCancel(void)
	?Receive@RRemConBulk@@QAEXAAVTRequestStatus@@AAVTUid@@AAIAAVTDes8@@@Z @ 6 NONAME ; void RRemConBulk::Receive(class TRequestStatus &, class TUid &, unsigned int &, class TDes8 &)
	?SendCancel@RRemConBulk@@QAEHXZ @ 7 NONAME ; int RRemConBulk::SendCancel(void)
	?ReceiveCancel@RRemConBulk@@QAEHXZ @ 8 NONAME ; int RRemConBulk::ReceiveCancel(void)
	?ReceiveCancel@RRemCon@@QAEHXZ @ 9 NONAME ; int RRemCon::ReceiveCancel(void)
	?Send@RRemConBulk@@QAEXAAVTRequestStatus@@VTUid@@IABVTDesC8@@@Z @ 10 NONAME ; void RRemConBulk::Send(class TRequestStatus &, class TUid, unsigned int, class TDesC8 const &)
	?ConnectBearerCancel@RRemConController@@QAEHXZ @ 11 NONAME ; int RRemConController::ConnectBearerCancel(void)
	?NotifyConnectionsChange@RRemCon@@QAEXAAVTRequestStatus@@@Z @ 12 NONAME ; void RRemCon::NotifyConnectionsChange(class TRequestStatus &)
	?__DbgMarkEnd@RRemConBulk@@QAEHH@Z @ 13 NONAME ; int RRemConBulk::__DbgMarkEnd(int)
	?RegisterInterestedAPIs@RRemCon@@QAEHABVTDesC8@@@Z @ 14 NONAME ; int RRemCon::RegisterInterestedAPIs(class TDesC8 const &)
	?SendUnreliable@RRemConBulk@@QAEHVTUid@@IABVTDesC8@@@Z @ 15 NONAME ; int RRemConBulk::SendUnreliable(class TUid, unsigned int, class TDesC8 const &)
	?Connect@RRemCon@@QAEHXZ @ 16 NONAME ; int RRemCon::Connect(void)
	?Connect@RRemConBulk@@QAEHXZ @ 17 NONAME ; int RRemConBulk::Connect(void)
	?DisconnectBearer@RRemConController@@QAEXAAVTRequestStatus@@@Z @ 18 NONAME ; void RRemConController::DisconnectBearer(class TRequestStatus &)
	?GetConnections@RRemCon@@QAEHAAV?$TSglQue@VTRemConAddress@@@@@Z @ 19 NONAME ; int RRemCon::GetConnections(class TSglQue<class TRemConAddress> &)
	?Connect@RRemCon@@QAEHABW4TPlayerType@@ABW4TPlayerSubType@@ABVTDesC8@@@Z @ 20 NONAME ; int RRemCon::Connect(enum TPlayerType const &, enum TPlayerSubType const &, class TDesC8 const &)
	?Version@RRemConBulk@@QBE?AVTVersion@@XZ @ 21 NONAME ; class TVersion RRemConBulk::Version(void) const
	?ConnectBearer@RRemConController@@QAEXAAVTRequestStatus@@@Z @ 22 NONAME ; void RRemConController::ConnectBearer(class TRequestStatus &)
	??0RRemConTarget@@QAE@XZ @ 23 NONAME ; RRemConTarget::RRemConTarget(void)
	?GoConnectionless@RRemConController@@QAEHXZ @ 24 NONAME ; int RRemConController::GoConnectionless(void)
	?__DbgFailNext@RRemCon@@QAEHH@Z @ 25 NONAME ; int RRemCon::__DbgFailNext(int)
	?__DbgFailNext@RRemConBulk@@QAEHH@Z @ 26 NONAME ; int RRemConBulk::__DbgFailNext(int)
	?SendCancel@RRemCon@@QAEHXZ @ 27 NONAME ; int RRemCon::SendCancel(void)
	?GoConnectionOriented@RRemConController@@QAEHABVTRemConAddress@@@Z @ 28 NONAME ; int RRemConController::GoConnectionOriented(class TRemConAddress const &)
	?Send@RRemCon@@QAEXAAVTRequestStatus@@VTUid@@IAAIW4TRemConMessageSubType@@ABVTDesC8@@@Z @ 29 NONAME ; void RRemCon::Send(class TRequestStatus &, class TUid, unsigned int, unsigned int &, enum TRemConMessageSubType, class TDesC8 const &)
	?NotifyConnectionsChangeCancel@RRemCon@@QAEHXZ @ 30 NONAME ; int RRemCon::NotifyConnectionsChangeCancel(void)
	?__DbgMarkHeap@RRemConBulk@@QAEHXZ @ 31 NONAME ; int RRemConBulk::__DbgMarkHeap(void)
	?SendNotify@RRemCon@@QAEXAAVTRequestStatus@@VTUid@@IW4TRemConMessageSubType@@ABVTDesC8@@@Z @ 32 NONAME ; void RRemCon::SendNotify(class TRequestStatus &, class TUid, unsigned int, enum TRemConMessageSubType, class TDesC8 const &)
	?SendUnreliable@RRemCon@@QAEHVTUid@@IW4TRemConMessageSubType@@ABVTDesC8@@@Z @ 33 NONAME ; int RRemCon::SendUnreliable(class TUid, unsigned int, enum TRemConMessageSubType, class TDesC8 const &)
	?__DbgMarkEnd@RRemCon@@QAEHH@Z @ 34 NONAME ; int RRemCon::__DbgMarkEnd(int)
	??0RRemConController@@QAE@XZ @ 35 NONAME ; RRemConController::RRemConController(void)
	?__DbgCheckHeap@RRemCon@@QAEHH@Z @ 36 NONAME ; int RRemCon::__DbgCheckHeap(int)

