EXPORTS
	_Z18NewTestSuiteCsdAgtv @ 1 NONAME
	_ZTI10CDbAgtBase @ 2 NONAME ; #<TI>#
	_ZTI10CDbUndoInt @ 3 NONAME ; #<TI>#
	_ZTI11CDbCsdTable @ 4 NONAME ; #<TI>#
	_ZTI11CDbUndoBool @ 5 NONAME ; #<TI>#
	_ZTI11CDbUndoText @ 6 NONAME ; #<TI>#
	_ZTI12CDbCDMATable @ 7 NONAME ; #<TI>#
	_ZTI13CDbModemTable @ 8 NONAME ; #<TI>#
	_ZTI13CDialogServer @ 9 NONAME ; #<TI>#
	_ZTI14CCsdAgtTest1_1 @ 10 NONAME ; #<TI>#
	_ZTI14CCsdAgtTest1_2 @ 11 NONAME ; #<TI>#
	_ZTI14CCsdAgtTest1_3 @ 12 NONAME ; #<TI>#
	_ZTI14CCsdAgtTest2_1 @ 13 NONAME ; #<TI>#
	_ZTI14CCsdAgtTest2_2 @ 14 NONAME ; #<TI>#
	_ZTI14CCsdAgtTest2_3 @ 15 NONAME ; #<TI>#
	_ZTI14CCsdAgtTest2_4 @ 16 NONAME ; #<TI>#
	_ZTI14CCsdAgtTest2_5 @ 17 NONAME ; #<TI>#
	_ZTI14CCsdAgtTest2_6 @ 18 NONAME ; #<TI>#
	_ZTI14CCsdAgtTest2_7 @ 19 NONAME ; #<TI>#
	_ZTI14CCsdAgtTest2_8 @ 20 NONAME ; #<TI>#
	_ZTI14CCsdAgtTest2_9 @ 21 NONAME ; #<TI>#
	_ZTI14CCsdAgtTest3_1 @ 22 NONAME ; #<TI>#
	_ZTI14CCsdAgtTest3_2 @ 23 NONAME ; #<TI>#
	_ZTI14CCsdAgtTest4_1 @ 24 NONAME ; #<TI>#
	_ZTI14CCsdAgtTest5_1 @ 25 NONAME ; #<TI>#
	_ZTI14CCsdAgtTest5_2 @ 26 NONAME ; #<TI>#
	_ZTI14CCsdAgtTest5_3 @ 27 NONAME ; #<TI>#
	_ZTI14CCsdAgtTest5_4 @ 28 NONAME ; #<TI>#
	_ZTI14CCsdAgtTest5_5 @ 29 NONAME ; #<TI>#
	_ZTI14CCsdAgtTest5_6 @ 30 NONAME ; #<TI>#
	_ZTI14CCsdAgtTest5_7 @ 31 NONAME ; #<TI>#
	_ZTI14CCsdAgtTest5_8 @ 32 NONAME ; #<TI>#
	_ZTI14CCsdAgtTest5_9 @ 33 NONAME ; #<TI>#
	_ZTI14TRealAgtNotify @ 34 NONAME ; #<TI>#
	_ZTI15CCsdAgtTest2_10 @ 35 NONAME ; #<TI>#
	_ZTI15CCsdAgtTest2_11 @ 36 NONAME ; #<TI>#
	_ZTI15CCsdAgtTest2_12 @ 37 NONAME ; #<TI>#
	_ZTI15CCsdAgtTest2_13 @ 38 NONAME ; #<TI>#
	_ZTI15CCsdAgtTest2_14 @ 39 NONAME ; #<TI>#
	_ZTI15CCsdAgtTest2_15 @ 40 NONAME ; #<TI>#
	_ZTI15CCsdAgtTest5_10 @ 41 NONAME ; #<TI>#
	_ZTI15CCsdAgtTest5_11 @ 42 NONAME ; #<TI>#
	_ZTI15CCsdAgtTest5_12 @ 43 NONAME ; #<TI>#
	_ZTI15CCsdAgtTest5_13 @ 44 NONAME ; #<TI>#
	_ZTI15CCsdAgtTest5_14 @ 45 NONAME ; #<TI>#
	_ZTI15CCsdAgtTest5_15 @ 46 NONAME ; #<TI>#
	_ZTI15CCsdAgtTest5_16 @ 47 NONAME ; #<TI>#
	_ZTI15CCsdAgtTest5_17 @ 48 NONAME ; #<TI>#
	_ZTI15CCsdAgtTest5_18 @ 49 NONAME ; #<TI>#
	_ZTI15CCsdAgtTest5_19 @ 50 NONAME ; #<TI>#
	_ZTI15CDbUndoAgentExt @ 51 NONAME ; #<TI>#
	_ZTI15CDbUndoLongText @ 52 NONAME ; #<TI>#
	_ZTI15CTestStepCsdAgt @ 53 NONAME ; #<TI>#
	_ZTI16CTestSuiteCsdAgt @ 54 NONAME ; #<TI>#
	_ZTI20CDbGPRSOutgoingTable @ 55 NONAME ; #<TI>#
	_ZTV10CDbAgtBase @ 56 NONAME ; #<VT>#
	_ZTV10CDbUndoInt @ 57 NONAME ; #<VT>#
	_ZTV11CDbCsdTable @ 58 NONAME ; #<VT>#
	_ZTV11CDbUndoBool @ 59 NONAME ; #<VT>#
	_ZTV11CDbUndoText @ 60 NONAME ; #<VT>#
	_ZTV12CDbCDMATable @ 61 NONAME ; #<VT>#
	_ZTV13CDbModemTable @ 62 NONAME ; #<VT>#
	_ZTV13CDialogServer @ 63 NONAME ; #<VT>#
	_ZTV14CCsdAgtTest1_1 @ 64 NONAME ; #<VT>#
	_ZTV14CCsdAgtTest1_2 @ 65 NONAME ; #<VT>#
	_ZTV14CCsdAgtTest1_3 @ 66 NONAME ; #<VT>#
	_ZTV14CCsdAgtTest2_1 @ 67 NONAME ; #<VT>#
	_ZTV14CCsdAgtTest2_2 @ 68 NONAME ; #<VT>#
	_ZTV14CCsdAgtTest2_3 @ 69 NONAME ; #<VT>#
	_ZTV14CCsdAgtTest2_4 @ 70 NONAME ; #<VT>#
	_ZTV14CCsdAgtTest2_5 @ 71 NONAME ; #<VT>#
	_ZTV14CCsdAgtTest2_6 @ 72 NONAME ; #<VT>#
	_ZTV14CCsdAgtTest2_7 @ 73 NONAME ; #<VT>#
	_ZTV14CCsdAgtTest2_8 @ 74 NONAME ; #<VT>#
	_ZTV14CCsdAgtTest2_9 @ 75 NONAME ; #<VT>#
	_ZTV14CCsdAgtTest3_1 @ 76 NONAME ; #<VT>#
	_ZTV14CCsdAgtTest3_2 @ 77 NONAME ; #<VT>#
	_ZTV14CCsdAgtTest4_1 @ 78 NONAME ; #<VT>#
	_ZTV14CCsdAgtTest5_1 @ 79 NONAME ; #<VT>#
	_ZTV14CCsdAgtTest5_2 @ 80 NONAME ; #<VT>#
	_ZTV14CCsdAgtTest5_3 @ 81 NONAME ; #<VT>#
	_ZTV14CCsdAgtTest5_4 @ 82 NONAME ; #<VT>#
	_ZTV14CCsdAgtTest5_5 @ 83 NONAME ; #<VT>#
	_ZTV14CCsdAgtTest5_6 @ 84 NONAME ; #<VT>#
	_ZTV14CCsdAgtTest5_7 @ 85 NONAME ; #<VT>#
	_ZTV14CCsdAgtTest5_8 @ 86 NONAME ; #<VT>#
	_ZTV14CCsdAgtTest5_9 @ 87 NONAME ; #<VT>#
	_ZTV14TRealAgtNotify @ 88 NONAME ; #<VT>#
	_ZTV15CCsdAgtTest2_10 @ 89 NONAME ; #<VT>#
	_ZTV15CCsdAgtTest2_11 @ 90 NONAME ; #<VT>#
	_ZTV15CCsdAgtTest2_12 @ 91 NONAME ; #<VT>#
	_ZTV15CCsdAgtTest2_13 @ 92 NONAME ; #<VT>#
	_ZTV15CCsdAgtTest2_14 @ 93 NONAME ; #<VT>#
	_ZTV15CCsdAgtTest2_15 @ 94 NONAME ; #<VT>#
	_ZTV15CCsdAgtTest5_10 @ 95 NONAME ; #<VT>#
	_ZTV15CCsdAgtTest5_11 @ 96 NONAME ; #<VT>#
	_ZTV15CCsdAgtTest5_12 @ 97 NONAME ; #<VT>#
	_ZTV15CCsdAgtTest5_13 @ 98 NONAME ; #<VT>#
	_ZTV15CCsdAgtTest5_14 @ 99 NONAME ; #<VT>#
	_ZTV15CCsdAgtTest5_15 @ 100 NONAME ; #<VT>#
	_ZTV15CCsdAgtTest5_16 @ 101 NONAME ; #<VT>#
	_ZTV15CCsdAgtTest5_17 @ 102 NONAME ; #<VT>#
	_ZTV15CCsdAgtTest5_18 @ 103 NONAME ; #<VT>#
	_ZTV15CCsdAgtTest5_19 @ 104 NONAME ; #<VT>#
	_ZTV15CDbUndoAgentExt @ 105 NONAME ; #<VT>#
	_ZTV15CDbUndoLongText @ 106 NONAME ; #<VT>#
	_ZTV15CTestStepCsdAgt @ 107 NONAME ; #<VT>#
	_ZTV16CTestSuiteCsdAgt @ 108 NONAME ; #<VT>#
	_ZTV20CDbGPRSOutgoingTable @ 109 NONAME ; #<VT>#
	
