EXPORTS
	_ZN10CBassBoost12DoEffectDataEv @ 1 NONAME
	_ZN10CBassBoost13SetEffectDataERK6TDesC8 @ 2 NONAME
	_ZN10CBassBoost4NewLEP21CCustomCommandUtilityi @ 3 NONAME
	_ZN10CBassBoost4NewLER12CMMFDevSoundi @ 4 NONAME
	_ZN10CBassBoost4NewLER16MCustomInterfacei @ 5 NONAME
	_ZN10CBassBoost4NewLER20CMdaAudioInputStreami @ 6 NONAME
	_ZN10CBassBoost4NewLER20CMdaAudioToneUtilityi @ 7 NONAME
	_ZN10CBassBoost4NewLER21CMdaAudioOutputStreami @ 8 NONAME
	_ZN10CBassBoost4NewLER22CMdaAudioPlayerUtilityi @ 9 NONAME
	_ZN10CBassBoost4NewLER23CMdaAudioConvertUtilityi @ 10 NONAME
	_ZN10CBassBoost4NewLER24CMdaAudioRecorderUtilityii @ 11 NONAME
	_ZN10CBassBoostC2Ev @ 12 NONAME
	_ZN10CBassBoostD0Ev @ 13 NONAME
	_ZN10CBassBoostD1Ev @ 14 NONAME
	_ZN10CBassBoostD2Ev @ 15 NONAME
	_ZNK10CBassBoost3UidEv @ 16 NONAME
	_ZTI10CBassBoost @ 17 NONAME ; #<TI>#
	_ZTV10CBassBoost @ 18 NONAME ; #<VT>#
	_ZN10CBassBoost4NewLER18CMidiClientUtilityi @ 19 NONAME
	_ZN10CBassBoost4NewLER17CDrmPlayerUtilityi @ 20 NONAME
	_ZN10CBassBoost4NewLER19CVideoPlayerUtilityi @ 21 NONAME

