EXPORTS
	?NewTestSuiteL@@YAPAVCTestSuite@@XZ @ 1 NONAME ; class CTestSuite * NewTestSuiteL(void)
	?Buffer@TVideoFrameBuffer@@QBEPAEXZ @ 2 NONAME ; unsigned char * TVideoFrameBuffer::Buffer(void) const
	?NotifyWhenDisplayedXTimes@RSurfaceUpdateSession@@QAEXHAAVTRequestStatus@@@Z @ 3 NONAME ; void RSurfaceUpdateSession::NotifyWhenDisplayedXTimes(int, class TRequestStatus &)
	?Format@TVideoFrameBuffer@@QBE?AVTUncompressedVideoFormat@@XZ @ 4 NONAME ; class TUncompressedVideoFormat TVideoFrameBuffer::Format(void) const
	?NewL@CVideoRenderer@@SAPAV1@AAVMVideoRendererObserver@@H@Z @ 5 NONAME ; class CVideoRenderer * CVideoRenderer::NewL(class MVideoRendererObserver &, int)
	?NotifyWhenAvailable@RSurfaceUpdateSession@@QAEXAAVTRequestStatus@@@Z @ 6 NONAME ; void RSurfaceUpdateSession::NotifyWhenAvailable(class TRequestStatus &)
	??0TVideoFrameBuffer@@QAE@ABVTUncompressedVideoFormat@@HHABVRChunk@@H@Z @ 7 NONAME ; TVideoFrameBuffer::TVideoFrameBuffer(class TUncompressedVideoFormat const &, int, int, class RChunk const &, int)
	?DestroySurface@CVideoRenderer@@QAEXABVTSurfaceId@@@Z @ 8 NONAME ; void CVideoRenderer::DestroySurface(class TSurfaceId const &)
	?BufferId@TVideoFrameBuffer@@QBEHXZ @ 9 NONAME ; int TVideoFrameBuffer::BufferId(void) const
	?NextBuffer@CVideoRenderer@@QAEPAVTVideoFrameBuffer@@XZ @ 10 NONAME ; class TVideoFrameBuffer * CVideoRenderer::NextBuffer(void)
	?CancelAllUpdateNotifications@RSurfaceUpdateSession@@QAEXXZ @ 11 NONAME ; void RSurfaceUpdateSession::CancelAllUpdateNotifications(void)
	?Chunk@TVideoFrameBuffer@@QBEABVRChunk@@XZ @ 12 NONAME ; class RChunk const & TVideoFrameBuffer::Chunk(void) const
	?SubmitUpdate@RSurfaceUpdateSession@@QAEHHABVTSurfaceId@@HPBVTRegion@@@Z @ 13 NONAME ; int RSurfaceUpdateSession::SubmitUpdate(int, class TSurfaceId const &, int, class TRegion const *)
	?ReleaseBuffer@CVideoRenderer@@QAEXPAVTVideoFrameBuffer@@@Z @ 14 NONAME ; void CVideoRenderer::ReleaseBuffer(class TVideoFrameBuffer *)
	?GetSupportedFormatsL@CVideoRenderer@@QAEXAAV?$RArray@VTUncompressedVideoFormat@@@@@Z @ 15 NONAME ; void CVideoRenderer::GetSupportedFormatsL(class RArray<class TUncompressedVideoFormat> &)
	?NotifyWhenDisplayed@RSurfaceUpdateSession@@QAEXAAVTRequestStatus@@AAV?$TPckgBuf@K@@@Z @ 16 NONAME ; void RSurfaceUpdateSession::NotifyWhenDisplayed(class TRequestStatus &, class TPckgBuf<unsigned long> &)
	?CreateSurfaceL@CVideoRenderer@@QAEXABVTSize@@HABVTUncompressedVideoFormat@@AAVTSurfaceId@@@Z @ 17 NONAME ; void CVideoRenderer::CreateSurfaceL(class TSize const &, int, class TUncompressedVideoFormat const &, class TSurfaceId &)
	?Stride@TVideoFrameBuffer@@QBEIXZ @ 18 NONAME ; unsigned int TVideoFrameBuffer::Stride(void) const
	?Connect@RSurfaceUpdateSession@@QAEHH@Z @ 19 NONAME ; int RSurfaceUpdateSession::Connect(int)
	?Close@RSurfaceUpdateSession@@QAEXXZ @ 20 NONAME ; void RSurfaceUpdateSession::Close(void)
	?UpdateBuffer@CVideoRenderer@@QAEXPAVTVideoFrameBuffer@@ABVTTime@@@Z @ 21 NONAME ; void CVideoRenderer::UpdateBuffer(class TVideoFrameBuffer *, class TTime const &)
	??1CVideoRenderer@@UAE@XZ @ 22 NONAME ; CVideoRenderer::~CVideoRenderer(void)
	??0RSurfaceUpdateSession@@QAE@XZ @ 23 NONAME ; RSurfaceUpdateSession::RSurfaceUpdateSession(void)

