EXPORTS
	??0RLbsLogger@@QAE@XZ @ 1 NONAME ; RLbsLogger::RLbsLogger(void)
	??1RLbsLogger@@QAE@XZ @ 2 NONAME ; RLbsLogger::~RLbsLogger(void)
	?AddEvent@RLbsLogger@@QAEHAAVCLbsLogEvent@@@Z @ 3 NONAME ; int RLbsLogger::AddEvent(class CLbsLogEvent &)
	?Close@RLbsLogger@@QAEHXZ @ 4 NONAME ; int RLbsLogger::Close(void)
	?ExtensionInterfaceL@RLbsLogger@@UAEXVTUid@@AAPAX@Z @ 5 NONAME ; void RLbsLogger::ExtensionInterfaceL(class TUid, void * &)
	?ExternalizeL@CLbsLogEvent@@QBEPAVCLogEvent@@XZ @ 6 NONAME ; class CLogEvent * CLbsLogEvent::ExternalizeL(void) const
	?NewL@CLbsAssistanceDataLogEvent@@SAPAV1@KK@Z @ 7 NONAME ; class CLbsAssistanceDataLogEvent * CLbsAssistanceDataLogEvent::NewL(unsigned long, unsigned long)
	?NewL@CLbsExternalLocateLogEvent@@SAPAV1@VTUid@@PAVTPositionInfoBase@@1@Z @ 8 NONAME ; class CLbsExternalLocateLogEvent * CLbsExternalLocateLogEvent::NewL(class TUid, class TPositionInfoBase *, class TPositionInfoBase *)
	?NewL@CLbsLogEvent@@SAPAV1@ABVCLogEvent@@@Z @ 9 NONAME ; class CLbsLogEvent * CLbsLogEvent::NewL(class CLogEvent const &)
	?NewL@CLbsNetworkLocateLogEvent@@SAPAV1@VTUid@@PAVTPositionInfoBase@@@Z @ 10 NONAME ; class CLbsNetworkLocateLogEvent * CLbsNetworkLocateLogEvent::NewL(class TUid, class TPositionInfoBase *)
	?NewL@CLbsSelfLocateLogEvent@@SAPAV1@VTUid@@PAVTPositionInfoBase@@@Z @ 11 NONAME ; class CLbsSelfLocateLogEvent * CLbsSelfLocateLogEvent::NewL(class TUid, class TPositionInfoBase *)
	?NewL@CLbsTransmitLocationLogEvent@@SAPAV1@VTUid@@PAVTPositionInfoBase@@AAVTDesC16@@@Z @ 12 NONAME ; class CLbsTransmitLocationLogEvent * CLbsTransmitLocationLogEvent::NewL(class TUid, class TPositionInfoBase *, class TDesC16 &)
	?Open@RLbsLogger@@QAEHI@Z @ 13 NONAME ; int RLbsLogger::Open(unsigned int)
	?SetPositionInfo@CLbsLogEvent@@QAEXPAVTPositionInfoBase@@@Z @ 14 NONAME ; void CLbsLogEvent::SetPositionInfo(class TPositionInfoBase *)
	?SetPrivacyRequestParams@CLbsExternalLocateLogEvent@@QAEXABVTLbsLoggingPrivacyRequestParams@@@Z @ 15 NONAME ; void CLbsExternalLocateLogEvent::SetPrivacyRequestParams(class TLbsLoggingPrivacyRequestParams const &)
	?SetPrivacyResponseParams@CLbsExternalLocateLogEvent@@QAEXABVTLbsLoggingPrivacyResponseParams@@@Z @ 16 NONAME ; void CLbsExternalLocateLogEvent::SetPrivacyResponseParams(class TLbsLoggingPrivacyResponseParams const &)
	?SetReferenceLocation@CLbsExternalLocateLogEvent@@QAEXPAVTPositionInfoBase@@@Z @ 17 NONAME ; void CLbsExternalLocateLogEvent::SetReferenceLocation(class TPositionInfoBase *)
	?UpdateEvent@RLbsLogger@@QAEHAAVCLbsLogEvent@@@Z @ 18 NONAME ; int RLbsLogger::UpdateEvent(class CLbsLogEvent &)
	?__DbgTestInvariant@CLbsLogWriterEngine@@QBEXXZ @ 19 NONAME ; void CLbsLogWriterEngine::__DbgTestInvariant(void) const
	?CostInformation@CLbsLogEvent@@QBEIXZ @ 20 NONAME ; unsigned int CLbsLogEvent::CostInformation(void) const
	?Destination@CLbsTransmitLocationLogEvent@@QBEAAVTDesC16@@XZ @ 21 NONAME ; class TDesC16 & CLbsTransmitLocationLogEvent::Destination(void) const
	?Direction@CLbsLogEvent@@QBEHXZ @ 22 NONAME ; int CLbsLogEvent::Direction(void) const
	?EventType@CLbsLogEvent@@QBE?AVTUid@@XZ @ 23 NONAME ; class TUid CLbsLogEvent::EventType(void) const
	?IsCostInformationAvailable@CLbsLogEvent@@QBEHXZ @ 24 NONAME ; int CLbsLogEvent::IsCostInformationAvailable(void) const
	?LocalApp@CLbsNetworkLocateLogEvent@@QBE?AVTUid@@XZ @ 25 NONAME ; class TUid CLbsNetworkLocateLogEvent::LocalApp(void) const
	?LocalApp@CLbsSelfLocateLogEvent@@QBE?AVTUid@@XZ @ 26 NONAME ; class TUid CLbsSelfLocateLogEvent::LocalApp(void) const
	?PositionInfo@CLbsLogEvent@@QBEPAVTPositionInfoBase@@XZ @ 27 NONAME ; class TPositionInfoBase * CLbsLogEvent::PositionInfo(void) const
	?PrivacyRequestParams@CLbsExternalLocateLogEvent@@QBE?AVTLbsLoggingPrivacyRequestParams@@XZ @ 28 NONAME ; class TLbsLoggingPrivacyRequestParams CLbsExternalLocateLogEvent::PrivacyRequestParams(void) const
	?PrivacyResponseParams@CLbsExternalLocateLogEvent@@QBE?AVTLbsLoggingPrivacyResponseParams@@XZ @ 29 NONAME ; class TLbsLoggingPrivacyResponseParams CLbsExternalLocateLogEvent::PrivacyResponseParams(void) const
	?ReceiveAssistanceDataType@CLbsAssistanceDataLogEvent@@QBEKXZ @ 30 NONAME ; unsigned long CLbsAssistanceDataLogEvent::ReceiveAssistanceDataType(void) const
	?ReferenceLocation@CLbsExternalLocateLogEvent@@QBEPAVTPositionInfoBase@@XZ @ 31 NONAME ; class TPositionInfoBase * CLbsExternalLocateLogEvent::ReferenceLocation(void) const
	?RequestAssistanceDataType@CLbsAssistanceDataLogEvent@@QBEKXZ @ 32 NONAME ; unsigned long CLbsAssistanceDataLogEvent::RequestAssistanceDataType(void) const
	?RequestOriginator@CLbsExternalLocateLogEvent@@QBE?AVTUid@@XZ @ 33 NONAME ; class TUid CLbsExternalLocateLogEvent::RequestOriginator(void) const
	?RequestOutcome@CLbsLogEvent@@QBE?AW4TLbsRequestOutcome@@XZ @ 34 NONAME ; enum TLbsRequestOutcome CLbsLogEvent::RequestOutcome(void) const
	?SetCostInformation@CLbsLogEvent@@QAEXI@Z @ 35 NONAME ; void CLbsLogEvent::SetCostInformation(unsigned int)
	?SetDestination@CLbsTransmitLocationLogEvent@@QAEXAAVTDesC16@@@Z @ 36 NONAME ; void CLbsTransmitLocationLogEvent::SetDestination(class TDesC16 &)
	?SetDirection@CLbsLogEvent@@QAEXH@Z @ 37 NONAME ; void CLbsLogEvent::SetDirection(int)
	?SetEventType@CLbsLogEvent@@QAEXVTUid@@@Z @ 38 NONAME ; void CLbsLogEvent::SetEventType(class TUid)
	?SetLocalApp@CLbsNetworkLocateLogEvent@@QAEXVTUid@@@Z @ 39 NONAME ; void CLbsNetworkLocateLogEvent::SetLocalApp(class TUid)
	?SetLocalApp@CLbsSelfLocateLogEvent@@QAEXVTUid@@@Z @ 40 NONAME ; void CLbsSelfLocateLogEvent::SetLocalApp(class TUid)
	?SetReceiveAssistanceDataType@CLbsAssistanceDataLogEvent@@QAEXK@Z @ 41 NONAME ; void CLbsAssistanceDataLogEvent::SetReceiveAssistanceDataType(unsigned long)
	?SetRequestAssistanceDataType@CLbsAssistanceDataLogEvent@@QAEXK@Z @ 42 NONAME ; void CLbsAssistanceDataLogEvent::SetRequestAssistanceDataType(unsigned long)
	?SetRequestOriginator@CLbsExternalLocateLogEvent@@QAEXVTUid@@@Z @ 43 NONAME ; void CLbsExternalLocateLogEvent::SetRequestOriginator(class TUid)
	?SetRequestOutcome@CLbsLogEvent@@QAEXW4TLbsRequestOutcome@@@Z @ 44 NONAME ; void CLbsLogEvent::SetRequestOutcome(enum TLbsRequestOutcome)
	?SetX3PApp@CLbsTransmitLocationLogEvent@@QAEXVTUid@@@Z @ 45 NONAME ; void CLbsTransmitLocationLogEvent::SetX3PApp(class TUid)
	?X3PApp@CLbsTransmitLocationLogEvent@@QBE?AVTUid@@XZ @ 46 NONAME ; class TUid CLbsTransmitLocationLogEvent::X3PApp(void) const

