EXPORTS
	?IsEqual@?$TComparator@VTSimAuthenticationMgvMskUpdate@RMmCustomAPI@@@@SAHABVTSimAuthenticationMgvMskUpdate@RMmCustomAPI@@0@Z @ 1 NONAME ; int TComparator<class RMmCustomAPI::TSimAuthenticationMgvMskUpdate>::IsEqual(class RMmCustomAPI::TSimAuthenticationMgvMskUpdate const &, class RMmCustomAPI::TSimAuthenticationMgvMskUpdate const &)
	?IsEqual@?$TComparator@VTMobilePhonePasswordChangeV1@RMobilePhone@@@@SAHVTMobilePhonePasswordChangeV1@RMobilePhone@@0@Z @ 2 NONAME ; int TComparator<class RMobilePhone::TMobilePhonePasswordChangeV1>::IsEqual(class RMobilePhone::TMobilePhonePasswordChangeV1, class RMobilePhone::TMobilePhonePasswordChangeV1)
	?IsEqual@?$TComparator@VCMobilePhoneListBase@@@@SAHABVCMobilePhoneListBase@@0@Z @ 3 NONAME ; int TComparator<class CMobilePhoneListBase>::IsEqual(class CMobilePhoneListBase const &, class CMobilePhoneListBase const &)
	?IsEqual@?$TComparator@VTContextConfigGPRS@RPacketContext@@@@SAHABVTContextConfigGPRS@RPacketContext@@0@Z @ 4 NONAME ; int TComparator<class RPacketContext::TContextConfigGPRS>::IsEqual(class RPacketContext::TContextConfigGPRS const &, class RPacketContext::TContextConfigGPRS const &)
	?ExternalizeL@TPacketQoSR5Negotiated@@QBEXAAVRWriteStream@@@Z @ 5 NONAME ; void TPacketQoSR5Negotiated::ExternalizeL(class RWriteStream &) const
	?SerialiseL@?$TSerializer@VCMobilePhoneSmspList@@@@SAXABVCMobilePhoneSmspList@@AAVRBuf8@@@Z @ 6 NONAME ; void TSerializer<class CMobilePhoneSmspList>::SerialiseL(class CMobilePhoneSmspList const &, class RBuf8 &)
	?IsEqual@?$TComparator@UTCommPort@RCall@@@@SAHUTCommPort@RCall@@0@Z @ 7 NONAME ; int TComparator<struct RCall::TCommPort>::IsEqual(struct RCall::TCommPort, struct RCall::TCommPort)
	??8TMockLtsyData0@@UBEHABVTDesC8@@@Z @ 8 NONAME ; int TMockLtsyData0::operator==(class TDesC8 const &) const
	?IsEqual@?$TComparator@W4TMbmsAction@@@@SAHABW4TMbmsAction@@0@Z @ 9 NONAME ; int TComparator<enum TMbmsAction>::IsEqual(enum TMbmsAction const &, enum TMbmsAction const &)
	?IsEqual@?$TComparator@VTSimAuthenticationGbaNafDerivation@RMmCustomAPI@@@@SAHABVTSimAuthenticationGbaNafDerivation@RMmCustomAPI@@0@Z @ 10 NONAME ; int TComparator<class RMmCustomAPI::TSimAuthenticationGbaNafDerivation>::IsEqual(class RMmCustomAPI::TSimAuthenticationGbaNafDerivation const &, class RMmCustomAPI::TSimAuthenticationGbaNafDerivation const &)
	??0TMockLtsyContextData0@@QAE@AAVTContextConfigGPRS@RPacketContext@@H@Z @ 11 NONAME ; TMockLtsyContextData0::TMockLtsyContextData0(class RPacketContext::TContextConfigGPRS &, int)
	??0TPacketQoSGPRSNegotiated@@QAE@XZ @ 12 NONAME ; TPacketQoSGPRSNegotiated::TPacketQoSGPRSNegotiated(void)
	?IsEqual@?$TComparator@PAVCPhoneBookStoreEntry@@@@SAHABQAVCPhoneBookStoreEntry@@0@Z @ 13 NONAME ; int TComparator<class CPhoneBookStoreEntry *>::IsEqual(class CPhoneBookStoreEntry * const const &, class CPhoneBookStoreEntry * const const &)
	?IsEqual@?$TComparator@PAV?$CArrayPtrSeg@VCPhoneBookStoreEntry@@@@@@SAHABQAV?$CArrayPtrSeg@VCPhoneBookStoreEntry@@@@0@Z @ 14 NONAME ; int TComparator<class CArrayPtrSeg<class CPhoneBookStoreEntry> *>::IsEqual(class CArrayPtrSeg<class CPhoneBookStoreEntry> * const const &, class CArrayPtrSeg<class CPhoneBookStoreEntry> * const const &)
	?SerialiseL@?$TSerializer@UTContextConfiguration@@@@SAXABUTContextConfiguration@@AAVRBuf8@@@Z @ 15 NONAME ; void TSerializer<struct TContextConfiguration>::SerialiseL(struct TContextConfiguration const &, class RBuf8 &)
	?IsEqual@?$TComparator@UTENStoreResponse@@@@SAHABUTENStoreResponse@@0@Z @ 16 NONAME ; int TComparator<struct TENStoreResponse>::IsEqual(struct TENStoreResponse const &, struct TENStoreResponse const &)
	?SerialiseL@?$TSerializer@VCMobilePhoneListBase@@@@SAXABVCMobilePhoneListBase@@AAVRBuf8@@@Z @ 17 NONAME ; void TSerializer<class CMobilePhoneListBase>::SerialiseL(class CMobilePhoneListBase const &, class RBuf8 &)
	?Destroy@?$TDestroyer@PAVTMultimodeType@RMobilePhone@@@@SAXPAVTMultimodeType@RMobilePhone@@@Z @ 18 NONAME ; void TDestroyer<class RMobilePhone::TMultimodeType *>::Destroy(class RMobilePhone::TMultimodeType *)
	?IsEqual@?$TComparator@V?$TBuf8@$0PM@@@@@SAHABV?$TBuf8@$0PM@@@0@Z @ 19 NONAME ; int TComparator<class TBuf8<252> >::IsEqual(class TBuf8<252> const &, class TBuf8<252> const &)
	??0TMockLtsyPacketQoSData0@@QAE@XZ @ 20 NONAME ; TMockLtsyPacketQoSData0::TMockLtsyPacketQoSData0(void)
	?ExpectL@RMockLtsy@@QAEXHABVTDesC8@@HH@Z @ 21 NONAME ; void RMockLtsy::ExpectL(int, class TDesC8 const &, int, int)
	?Destroy@?$TDestroyer@UTMmMbmsMonitorServiceListParams@@@@SAXAAUTMmMbmsMonitorServiceListParams@@@Z @ 22 NONAME ; void TDestroyer<struct TMmMbmsMonitorServiceListParams>::Destroy(struct TMmMbmsMonitorServiceListParams &)
	?IsEqual@?$TComparator@VTContextConfig_R5@RPacketContext@@@@SAHABVTContextConfig_R5@RPacketContext@@0@Z @ 23 NONAME ; int TComparator<class RPacketContext::TContextConfig_R5>::IsEqual(class RPacketContext::TContextConfig_R5 const &, class RPacketContext::TContextConfig_R5 const &)
	?DeserialiseL@?$TSerializer@PAVTDesC8@@@@SAXABVTDesC8@@AAPAV2@@Z @ 24 NONAME ; void TSerializer<class TDesC8 *>::DeserialiseL(class TDesC8 const &, class TDesC8 * &)
	?SerialiseL@?$TSerializer@UTSendSmsDataAndAttributes@@@@SAXUTSendSmsDataAndAttributes@@AAVRBuf8@@@Z @ 25 NONAME ; void TSerializer<struct TSendSmsDataAndAttributes>::SerialiseL(struct TSendSmsDataAndAttributes, class RBuf8 &)
	?QoSR5Negotiated@TMockLtsyPacketQoSData0@@QAEAAVTPacketQoSR5Negotiated@@XZ @ 26 NONAME ; class TPacketQoSR5Negotiated & TMockLtsyPacketQoSData0::QoSR5Negotiated(void)
	?DeserialiseL@?$TSerializer@PAV?$CArrayPtrSeg@VCPhoneBookStoreEntry@@@@@@SAXABVTDesC8@@AAPAV?$CArrayPtrSeg@VCPhoneBookStoreEntry@@@@@Z @ 27 NONAME ; void TSerializer<class CArrayPtrSeg<class CPhoneBookStoreEntry> *>::DeserialiseL(class TDesC8 const &, class CArrayPtrSeg<class CPhoneBookStoreEntry> * &)
	?IsEqual@?$TComparator@UTMmMbmsActiveServiceListParams@@@@SAHABUTMmMbmsActiveServiceListParams@@0@Z @ 28 NONAME ; int TComparator<struct TMmMbmsActiveServiceListParams>::IsEqual(struct TMmMbmsActiveServiceListParams const &, struct TMmMbmsActiveServiceListParams const &)
	?IsEqual@?$TComparator@VTMobileONEntryV1@RMobileONStore@@@@SAHVTMobileONEntryV1@RMobileONStore@@0@Z @ 29 NONAME ; int TComparator<class RMobileONStore::TMobileONEntryV1>::IsEqual(class RMobileONStore::TMobileONEntryV1, class RMobileONStore::TMobileONEntryV1)
	?DeserialiseL@?$TSerializer@PAVCMobilePhoneNetworkListV2@@@@SAXABVTDesC8@@AAPAVCMobilePhoneNetworkListV2@@@Z @ 30 NONAME ; void TSerializer<class CMobilePhoneNetworkListV2 *>::DeserialiseL(class TDesC8 const &, class CMobilePhoneNetworkListV2 * &)
	?IsEqual@?$TComparator@VTMobileCallParamsV1@RMobileCall@@@@SAHABVTMobileCallParamsV1@RMobileCall@@0@Z @ 31 NONAME ; int TComparator<class RMobileCall::TMobileCallParamsV1>::IsEqual(class RMobileCall::TMobileCallParamsV1 const &, class RMobileCall::TMobileCallParamsV1 const &)
	?ServerName@RMockLtsy@@MAEABVTDesC16@@XZ @ 32 NONAME ; class TDesC16 const & RMockLtsy::ServerName(void)
	?ConstructL@?$TConstructor@VCMobilePhoneSmspList@@@@SAXAAPAVCMobilePhoneSmspList@@@Z @ 33 NONAME ; void TConstructor<class CMobilePhoneSmspList>::ConstructL(class CMobilePhoneSmspList * &)
	?DeserialiseL@?$TSerializer@VCPcktMbmsMonitoredServiceList@@@@SAXABVTDesC8@@AAVCPcktMbmsMonitoredServiceList@@@Z @ 34 NONAME ; void TSerializer<class CPcktMbmsMonitoredServiceList>::DeserialiseL(class TDesC8 const &, class CPcktMbmsMonitoredServiceList &)
	?SerialiseL@?$TSerializer@PAVCPhoneBookStoreEntry@@@@SAXPBVCPhoneBookStoreEntry@@AAVRBuf8@@@Z @ 35 NONAME ; void TSerializer<class CPhoneBookStoreEntry *>::SerialiseL(class CPhoneBookStoreEntry const *, class RBuf8 &)
	?IsEqual@?$TComparator@VTSimAuthenticationEapAka@RMmCustomAPI@@@@SAHABVTSimAuthenticationEapAka@RMmCustomAPI@@0@Z @ 36 NONAME ; int TComparator<class RMmCustomAPI::TSimAuthenticationEapAka>::IsEqual(class RMmCustomAPI::TSimAuthenticationEapAka const &, class RMmCustomAPI::TSimAuthenticationEapAka const &)
	?SerialiseL@?$TSerializer@VCMobilePhoneCWList@@@@SAXABVCMobilePhoneCWList@@AAVRBuf8@@@Z @ 37 NONAME ; void TSerializer<class CMobilePhoneCWList>::SerialiseL(class CMobilePhoneCWList const &, class RBuf8 &)
	?IsEqual@?$TComparator@VCPcktMbmsMonitoredServiceList@@@@SAHABVCPcktMbmsMonitoredServiceList@@0@Z @ 38 NONAME ; int TComparator<class CPcktMbmsMonitoredServiceList>::IsEqual(class CPcktMbmsMonitoredServiceList const &, class CPcktMbmsMonitoredServiceList const &)
	?DeserialiseL@?$TSerializer@VCMobilePhoneSmspList@@@@SAXABVTDesC8@@AAVCMobilePhoneSmspList@@@Z @ 39 NONAME ; void TSerializer<class CMobilePhoneSmspList>::DeserialiseL(class TDesC8 const &, class CMobilePhoneSmspList &)
	?SerialiseL@?$TSerializer@PAVTDesC16@@@@SAXPBVTDesC16@@AAVRBuf8@@@Z @ 40 NONAME ; void TSerializer<class TDesC16 *>::SerialiseL(class TDesC16 const *, class RBuf8 &)
	?InternalizeL@TPacketQoSR99_R4Negotiated@@QAEXAAVRReadStream@@@Z @ 41 NONAME ; void TPacketQoSR99_R4Negotiated::InternalizeL(class RReadStream &)
	?IsEqual@?$TComparator@VTSimAuthenticationMgvMtkGeneration@RMmCustomAPI@@@@SAHABVTSimAuthenticationMgvMtkGeneration@RMmCustomAPI@@0@Z @ 42 NONAME ; int TComparator<class RMmCustomAPI::TSimAuthenticationMgvMtkGeneration>::IsEqual(class RMmCustomAPI::TSimAuthenticationMgvMtkGeneration const &, class RMmCustomAPI::TSimAuthenticationMgvMtkGeneration const &)
	?IsEqual@?$TComparator@V?$TBuf8@$0KF@@@@@SAHABV?$TBuf8@$0KF@@@0@Z @ 43 NONAME ; int TComparator<class TBuf8<165> >::IsEqual(class TBuf8<165> const &, class TBuf8<165> const &)
	?DeserialiseL@?$TSerializer@VCTFTMediaAuthorizationV3@RPacketContext@@@@SAXABVTDesC8@@AAVCTFTMediaAuthorizationV3@RPacketContext@@@Z @ 44 NONAME ; void TSerializer<class RPacketContext::CTFTMediaAuthorizationV3>::DeserialiseL(class TDesC8 const &, class RPacketContext::CTFTMediaAuthorizationV3 &)
	?DeserialiseL@?$TSerializer@UTContextConfiguration@@@@SAXABVTDesC8@@AAUTContextConfiguration@@@Z @ 45 NONAME ; void TSerializer<struct TContextConfiguration>::DeserialiseL(class TDesC8 const &, struct TContextConfiguration &)
	??0TMockLtsyContextData0@@QAE@XZ @ 46 NONAME ; TMockLtsyContextData0::TMockLtsyContextData0(void)
	?SerialiseL@TMockLtsyPacketQoSData0@@QBEXAAVRBuf8@@@Z @ 47 NONAME ; void TMockLtsyPacketQoSData0::SerialiseL(class RBuf8 &) const
	?IsEqual@?$TComparator@V?$TBuf@$0BO@@@@@SAHABV?$TBuf@$0BO@@@0@Z @ 48 NONAME ; int TComparator<class TBuf<30> >::IsEqual(class TBuf<30> const &, class TBuf<30> const &)
	?SerialiseL@?$TSerializer@UTMmMbmsActiveServiceListParams@@@@SAXABUTMmMbmsActiveServiceListParams@@AAVRBuf8@@@Z @ 49 NONAME ; void TSerializer<struct TMmMbmsActiveServiceListParams>::SerialiseL(struct TMmMbmsActiveServiceListParams const &, class RBuf8 &)
	?IsEqual@?$TComparator@VTMobileUssdAttributesV1@RMobileUssdMessaging@@@@SAHABVTMobileUssdAttributesV1@RMobileUssdMessaging@@0@Z @ 50 NONAME ; int TComparator<class RMobileUssdMessaging::TMobileUssdAttributesV1>::IsEqual(class RMobileUssdMessaging::TMobileUssdAttributesV1 const &, class RMobileUssdMessaging::TMobileUssdAttributesV1 const &)
	?InternalizeL@TPacketQoSR5Negotiated@@QAEXAAVRReadStream@@@Z @ 51 NONAME ; void TPacketQoSR5Negotiated::InternalizeL(class RReadStream &)
	?IsEqual@?$TComparator@V?$TBuf8@$0PN@@@@@SAHABV?$TBuf8@$0PN@@@0@Z @ 52 NONAME ; int TComparator<class TBuf8<253> >::IsEqual(class TBuf8<253> const &, class TBuf8<253> const &)
	?CallMode@TMockLtsyCallData0@@QBE?AW4TMobileService@RMobilePhone@@XZ @ 53 NONAME ; enum RMobilePhone::TMobileService TMockLtsyCallData0::CallMode(void) const
	??0TMockLtsyPacketQoSData0@@QAE@AAVTPacketQoSGPRSNegotiated@@AAVTPacketQoSR99_R4Negotiated@@AAVTPacketQoSR5Negotiated@@@Z @ 54 NONAME ; TMockLtsyPacketQoSData0::TMockLtsyPacketQoSData0(class TPacketQoSGPRSNegotiated &, class TPacketQoSR99_R4Negotiated &, class TPacketQoSR5Negotiated &)
	?Destroy@?$TDestroyer@PAVTDesC8@@@@SAXPAVTDesC8@@@Z @ 55 NONAME ; void TDestroyer<class TDesC8 *>::Destroy(class TDesC8 *)
	?IsEqual@?$TComparator@VTSimAuthenticationGbaBootstrapUpdate@RMmCustomAPI@@@@SAHABVTSimAuthenticationGbaBootstrapUpdate@RMmCustomAPI@@0@Z @ 56 NONAME ; int TComparator<class RMmCustomAPI::TSimAuthenticationGbaBootstrapUpdate>::IsEqual(class RMmCustomAPI::TSimAuthenticationGbaBootstrapUpdate const &, class RMmCustomAPI::TSimAuthenticationGbaBootstrapUpdate const &)
	?IsEqual@?$TComparator@VTSimAuthenticationGbaBootstrap@RMmCustomAPI@@@@SAHABVTSimAuthenticationGbaBootstrap@RMmCustomAPI@@0@Z @ 57 NONAME ; int TComparator<class RMmCustomAPI::TSimAuthenticationGbaBootstrap>::IsEqual(class RMmCustomAPI::TSimAuthenticationGbaBootstrap const &, class RMmCustomAPI::TSimAuthenticationGbaBootstrap const &)
	?IsEqual@?$TComparator@VCMobilePhoneCFList@@@@SAHABVCMobilePhoneCFList@@0@Z @ 58 NONAME ; int TComparator<class CMobilePhoneCFList>::IsEqual(class CMobilePhoneCFList const &, class CMobilePhoneCFList const &)
	??8TMockLtsyCallData0@@UBEHABVTDesC8@@@Z @ 59 NONAME ; int TMockLtsyCallData0::operator==(class TDesC8 const &) const
	?IsEqual@?$TComparator@VTMobileSmsSendAttributesV1@RMobileSmsMessaging@@@@SAHABVTMobileSmsSendAttributesV1@RMobileSmsMessaging@@0@Z @ 60 NONAME ; int TComparator<class RMobileSmsMessaging::TMobileSmsSendAttributesV1>::IsEqual(class RMobileSmsMessaging::TMobileSmsSendAttributesV1 const &, class RMobileSmsMessaging::TMobileSmsSendAttributesV1 const &)
	?IsEqual@?$TComparator@VTMobileAddress@RMobilePhone@@@@SAHABVTMobileAddress@RMobilePhone@@0@Z @ 61 NONAME ; int TComparator<class RMobilePhone::TMobileAddress>::IsEqual(class RMobilePhone::TMobileAddress const &, class RMobilePhone::TMobileAddress const &)
	?SerialiseL@?$TSerializer@VCMobilePhoneCFList@@@@SAXABVCMobilePhoneCFList@@AAVRBuf8@@@Z @ 62 NONAME ; void TSerializer<class CMobilePhoneCFList>::SerialiseL(class CMobilePhoneCFList const &, class RBuf8 &)
	?IsEqual@?$TComparator@VTMobileCallInfoV8@RMobileCall@@@@SAHABVTMobileCallInfoV8@RMobileCall@@0@Z @ 63 NONAME ; int TComparator<class RMobileCall::TMobileCallInfoV8>::IsEqual(class RMobileCall::TMobileCallInfoV8 const &, class RMobileCall::TMobileCallInfoV8 const &)
	?IsEqual@?$TComparator@PAV?$TPckg@VTMobileONEntryV1@RMobileONStore@@@@@@SAHPBV?$TPckg@VTMobileONEntryV1@RMobileONStore@@@@PAV2@@Z @ 64 NONAME ; int TComparator<class TPckg<class RMobileONStore::TMobileONEntryV1> *>::IsEqual(class TPckg<class RMobileONStore::TMobileONEntryV1> const *, class TPckg<class RMobileONStore::TMobileONEntryV1> *)
	?IsEqual@?$TComparator@UTMobilePhoneNetworkManualSelection@RMobilePhone@@@@SAHABUTMobilePhoneNetworkManualSelection@RMobilePhone@@0@Z @ 65 NONAME ; int TComparator<struct RMobilePhone::TMobilePhoneNetworkManualSelection>::IsEqual(struct RMobilePhone::TMobilePhoneNetworkManualSelection const &, struct RMobilePhone::TMobilePhoneNetworkManualSelection const &)
	?IsEqual@?$TComparator@VTSimAuthenticationMgvMskDeletion@RMmCustomAPI@@@@SAHABVTSimAuthenticationMgvMskDeletion@RMmCustomAPI@@0@Z @ 66 NONAME ; int TComparator<class RMmCustomAPI::TSimAuthenticationMgvMskDeletion>::IsEqual(class RMmCustomAPI::TSimAuthenticationMgvMskDeletion const &, class RMmCustomAPI::TSimAuthenticationMgvMskDeletion const &)
	?IsEqual@?$TComparator@V?$TBuf8@$0DC@@@@@SAHABV?$TBuf8@$0DC@@@0@Z @ 67 NONAME ; int TComparator<class TBuf8<50> >::IsEqual(class TBuf8<50> const &, class TBuf8<50> const &)
	?Config@TMockLtsyContextData0@@QAEAAVTContextConfigGPRS@RPacketContext@@XZ @ 68 NONAME ; class RPacketContext::TContextConfigGPRS & TMockLtsyContextData0::Config(void)
	?InternalizeL@TPacketQoSGPRSNegotiated@@QAEXAAVRReadStream@@@Z @ 69 NONAME ; void TPacketQoSGPRSNegotiated::InternalizeL(class RReadStream &)
	?Destroy@?$TDestroyer@UTContextConfiguration@@@@SAXAAUTContextConfiguration@@@Z @ 70 NONAME ; void TDestroyer<struct TContextConfiguration>::Destroy(struct TContextConfiguration &)
	?DeserialiseL@TMockLtsyPacketQoSData0@@QAEXABVTDesC8@@@Z @ 71 NONAME ; void TMockLtsyPacketQoSData0::DeserialiseL(class TDesC8 const &)
	?ExternalizeL@TPacketQoSGPRSNegotiated@@QBEXAAVRWriteStream@@@Z @ 72 NONAME ; void TPacketQoSGPRSNegotiated::ExternalizeL(class RWriteStream &) const
	?ConstructL@?$TConstructor@VCMobilePhoneCFList@@@@SAXAAPAVCMobilePhoneCFList@@@Z @ 73 NONAME ; void TConstructor<class CMobilePhoneCFList>::ConstructL(class CMobilePhoneCFList * &)
	?DeserialiseL@?$TSerializer@UTOperatorLogo@RMmCustomAPI@@@@SAXABVTDesC8@@AAUTOperatorLogo@RMmCustomAPI@@@Z @ 74 NONAME ; void TSerializer<struct RMmCustomAPI::TOperatorLogo>::DeserialiseL(class TDesC8 const &, struct RMmCustomAPI::TOperatorLogo &)
	?IsEqual@?$TComparator@VCMobilePhoneSmspList@@@@SAHABVCMobilePhoneSmspList@@0@Z @ 75 NONAME ; int TComparator<class CMobilePhoneSmspList>::IsEqual(class CMobilePhoneSmspList const &, class CMobilePhoneSmspList const &)
	?DeserialiseL@?$TSerializer@VCMbmsSession@RPacketMbmsContext@@@@SAXABVTDesC8@@AAVCMbmsSession@RPacketMbmsContext@@@Z @ 76 NONAME ; void TSerializer<class RPacketMbmsContext::CMbmsSession>::DeserialiseL(class TDesC8 const &, class RPacketMbmsContext::CMbmsSession &)
	?IsEqual@?$TComparator@V?$TBuf@$05@@@@SAHABV?$TBuf@$05@@0@Z @ 77 NONAME ; int TComparator<class TBuf<6> >::IsEqual(class TBuf<6> const &, class TBuf<6> const &)
	?IsEqual@?$TComparator@VTMobileGsmSmsEntryV1@RMobileSmsStore@@@@SAHABVTMobileGsmSmsEntryV1@RMobileSmsStore@@0@Z @ 78 NONAME ; int TComparator<class RMobileSmsStore::TMobileGsmSmsEntryV1>::IsEqual(class RMobileSmsStore::TMobileGsmSmsEntryV1 const &, class RMobileSmsStore::TMobileGsmSmsEntryV1 const &)
	?IsEqual@?$TComparator@VTMobilePhoneCspFileV1@RMobilePhone@@@@SAHABVTMobilePhoneCspFileV1@RMobilePhone@@0@Z @ 79 NONAME ; int TComparator<class RMobilePhone::TMobilePhoneCspFileV1>::IsEqual(class RMobilePhone::TMobilePhoneCspFileV1 const &, class RMobilePhone::TMobilePhoneCspFileV1 const &)
	?ContextConfigurationType@TMockLtsyContextData0@@QAEAAHXZ @ 80 NONAME ; int & TMockLtsyContextData0::ContextConfigurationType(void)
	?DeserialiseL@?$TSerializer@PAVCTFTMediaAuthorizationV3@RPacketContext@@@@SAXABVTDesC8@@AAPAVCTFTMediaAuthorizationV3@RPacketContext@@@Z @ 81 NONAME ; void TSerializer<class RPacketContext::CTFTMediaAuthorizationV3 *>::DeserialiseL(class TDesC8 const &, class RPacketContext::CTFTMediaAuthorizationV3 * &)
	?DeserialiseL@TMockLtsyPhoneBookData0@@QAEXABVTDesC8@@@Z @ 82 NONAME ; void TMockLtsyPhoneBookData0::DeserialiseL(class TDesC8 const &)
	?Destroy@?$TDestroyer@PAV?$CArrayPtrSeg@VCPhoneBookStoreEntry@@@@@@SAXAAPAV?$CArrayPtrSeg@VCPhoneBookStoreEntry@@@@@Z @ 83 NONAME ; void TDestroyer<class CArrayPtrSeg<class CPhoneBookStoreEntry> *>::Destroy(class CArrayPtrSeg<class CPhoneBookStoreEntry> * &)
	?IsEqual@?$TComparator@UTContextConfiguration@@@@SAHABUTContextConfiguration@@0@Z @ 84 NONAME ; int TComparator<struct TContextConfiguration>::IsEqual(struct TContextConfiguration const &, struct TContextConfiguration const &)
	?SerialiseL@?$TSerializer@VCTFTMediaAuthorizationV3@RPacketContext@@@@SAXABVCTFTMediaAuthorizationV3@RPacketContext@@AAVRBuf8@@@Z @ 85 NONAME ; void TSerializer<class RPacketContext::CTFTMediaAuthorizationV3>::SerialiseL(class RPacketContext::CTFTMediaAuthorizationV3 const &, class RBuf8 &)
	?SerialiseL@TMockLtsyPhoneBookData0@@QBEXAAVRBuf8@@@Z @ 86 NONAME ; void TMockLtsyPhoneBookData0::SerialiseL(class RBuf8 &) const
	?IsEqual@?$TComparator@VTContextConfigR99_R4@RPacketContext@@@@SAHABVTContextConfigR99_R4@RPacketContext@@0@Z @ 87 NONAME ; int TComparator<class RPacketContext::TContextConfigR99_R4>::IsEqual(class RPacketContext::TContextConfigR99_R4 const &, class RPacketContext::TContextConfigR99_R4 const &)
	?IsEqual@?$TComparator@UTCodeAndUnblockCode@RMobilePhone@@@@SAHABUTCodeAndUnblockCode@RMobilePhone@@0@Z @ 88 NONAME ; int TComparator<struct RMobilePhone::TCodeAndUnblockCode>::IsEqual(struct RMobilePhone::TCodeAndUnblockCode const &, struct RMobilePhone::TCodeAndUnblockCode const &)
	?IsEqual@?$TComparator@VTMobilePhonePasswordChangeV2@RMobilePhone@@@@SAHVTMobilePhonePasswordChangeV2@RMobilePhone@@0@Z @ 89 NONAME ; int TComparator<class RMobilePhone::TMobilePhonePasswordChangeV2>::IsEqual(class RMobilePhone::TMobilePhonePasswordChangeV2, class RMobilePhone::TMobilePhonePasswordChangeV2)
	?IsEqual@?$TComparator@V?$TBuf8@$0BA@@@@@SAHABV?$TBuf8@$0BA@@@0@Z @ 90 NONAME ; int TComparator<class TBuf8<16> >::IsEqual(class TBuf8<16> const &, class TBuf8<16> const &)
	?IsEqual@?$TComparator@VTSimAuthenticationEapSim@RMmCustomAPI@@@@SAHABVTSimAuthenticationEapSim@RMmCustomAPI@@0@Z @ 91 NONAME ; int TComparator<class RMmCustomAPI::TSimAuthenticationEapSim>::IsEqual(class RMmCustomAPI::TSimAuthenticationEapSim const &, class RMmCustomAPI::TSimAuthenticationEapSim const &)
	?ConstructL@?$TConstructor@VCMobilePhoneBroadcastIdList@@@@SAXAAPAVCMobilePhoneBroadcastIdList@@@Z @ 92 NONAME ; void TConstructor<class CMobilePhoneBroadcastIdList>::ConstructL(class CMobilePhoneBroadcastIdList * &)
	?CompleteL@RMockLtsy@@QAEXHHH@Z @ 93 NONAME ; void RMockLtsy::CompleteL(int, int, int)
	?IsEqual@?$TComparator@UTSendSmsDataAndAttributes@@@@SAHABUTSendSmsDataAndAttributes@@0@Z @ 94 NONAME ; int TComparator<struct TSendSmsDataAndAttributes>::IsEqual(struct TSendSmsDataAndAttributes const &, struct TSendSmsDataAndAttributes const &)
	?IsEqual@?$TComparator@UTLockSettingPassword@@@@SAHABUTLockSettingPassword@@0@Z @ 95 NONAME ; int TComparator<struct TLockSettingPassword>::IsEqual(struct TLockSettingPassword const &, struct TLockSettingPassword const &)
	?SerialiseL@?$TSerializer@VCPcktMbmsMonitoredServiceList@@@@SAXABVCPcktMbmsMonitoredServiceList@@AAVRBuf8@@@Z @ 96 NONAME ; void TSerializer<class CPcktMbmsMonitoredServiceList>::SerialiseL(class CPcktMbmsMonitoredServiceList const &, class RBuf8 &)
	?DeserialiseL@?$TSerializer@UTSendSmsDataAndAttributes@@@@SAXABVTDesC8@@AAUTSendSmsDataAndAttributes@@@Z @ 97 NONAME ; void TSerializer<struct TSendSmsDataAndAttributes>::DeserialiseL(class TDesC8 const &, struct TSendSmsDataAndAttributes &)
	?SerialiseL@?$TSerializer@PAVCMobilePhoneNetworkListV2@@@@SAXPBVCMobilePhoneNetworkListV2@@AAVRBuf8@@@Z @ 98 NONAME ; void TSerializer<class CMobilePhoneNetworkListV2 *>::SerialiseL(class CMobilePhoneNetworkListV2 const *, class RBuf8 &)
	?ConstructL@?$TConstructor@VCMbmsSession@RPacketMbmsContext@@@@SAXAAPAVCMbmsSession@RPacketMbmsContext@@@Z @ 99 NONAME ; void TConstructor<class RPacketMbmsContext::CMbmsSession>::ConstructL(class RPacketMbmsContext::CMbmsSession * &)
	?DeserialiseL@?$TSerializer@VCMobilePhoneListBase@@@@SAXABVTDesC8@@AAVCMobilePhoneListBase@@@Z @ 100 NONAME ; void TSerializer<class CMobilePhoneListBase>::DeserialiseL(class TDesC8 const &, class CMobilePhoneListBase &)
	??0TPacketQoSR5Negotiated@@QAE@XZ @ 101 NONAME ; TPacketQoSR5Negotiated::TPacketQoSR5Negotiated(void)
	?IsEqual@?$TComparator@VTMobileCallHscsdInfoV8@RMobileCall@@@@SAHABVTMobileCallHscsdInfoV8@RMobileCall@@0@Z @ 102 NONAME ; int TComparator<class RMobileCall::TMobileCallHscsdInfoV8>::IsEqual(class RMobileCall::TMobileCallHscsdInfoV8 const &, class RMobileCall::TMobileCallHscsdInfoV8 const &)
	?ExpectL@RMockLtsy@@QAEXHHH@Z @ 103 NONAME ; void RMockLtsy::ExpectL(int, int, int)
	?IsEqual@?$TComparator@VTImsAuthenticateDataV5@RMobilePhone@@@@SAHABVTImsAuthenticateDataV5@RMobilePhone@@0@Z @ 104 NONAME ; int TComparator<class RMobilePhone::TImsAuthenticateDataV5>::IsEqual(class RMobilePhone::TImsAuthenticateDataV5 const &, class RMobilePhone::TImsAuthenticateDataV5 const &)
	?CallId@TMockLtsyCallData0@@QBEHXZ @ 105 NONAME ; int TMockLtsyCallData0::CallId(void) const
	?SerialiseL@?$TSerializer@VCMbmsSession@RPacketMbmsContext@@@@SAXABVCMbmsSession@RPacketMbmsContext@@AAVRBuf8@@@Z @ 106 NONAME ; void TSerializer<class RPacketMbmsContext::CMbmsSession>::SerialiseL(class RPacketMbmsContext::CMbmsSession const &, class RBuf8 &)
	?PhoneBookName@TMockLtsyPhoneBookData0@@QAEAAV?$TBuf@$0IA@@@XZ @ 107 NONAME ; class TBuf<128> & TMockLtsyPhoneBookData0::PhoneBookName(void)
	??0TMockLtsyPhoneBookData0@@QAE@XZ @ 108 NONAME ; TMockLtsyPhoneBookData0::TMockLtsyPhoneBookData0(void)
	?QoSGPRSNegotiated@TMockLtsyPacketQoSData0@@QAEAAVTPacketQoSGPRSNegotiated@@XZ @ 109 NONAME ; class TPacketQoSGPRSNegotiated & TMockLtsyPacketQoSData0::QoSGPRSNegotiated(void)
	??8TPacketQoSR5Negotiated@@QBEHABV0@@Z @ 110 NONAME ; int TPacketQoSR5Negotiated::operator==(class TPacketQoSR5Negotiated const &) const
	?ConstructL@?$TConstructor@VCPcktMbmsMonitoredServiceList@@@@SAXAAPAVCPcktMbmsMonitoredServiceList@@@Z @ 111 NONAME ; void TConstructor<class CPcktMbmsMonitoredServiceList>::ConstructL(class CPcktMbmsMonitoredServiceList * &)
	?IsEqual@?$TComparator@W4TMbmsNetworkServiceStatus@@@@SAHABW4TMbmsNetworkServiceStatus@@0@Z @ 112 NONAME ; int TComparator<enum TMbmsNetworkServiceStatus>::IsEqual(enum TMbmsNetworkServiceStatus const &, enum TMbmsNetworkServiceStatus const &)
	?ConstructL@?$TConstructor@VTMultimodeType@RMobilePhone@@@@SAXAAPAVTMultimodeType@RMobilePhone@@@Z @ 113 NONAME ; void TConstructor<class RMobilePhone::TMultimodeType>::ConstructL(class RMobilePhone::TMultimodeType * &)
	?IsEqual@?$TComparator@PAVCMobilePhoneNetworkListV2@@@@SAHPBVCMobilePhoneNetworkListV2@@0@Z @ 114 NONAME ; int TComparator<class CMobilePhoneNetworkListV2 *>::IsEqual(class CMobilePhoneNetworkListV2 const *, class CMobilePhoneNetworkListV2 const *)
	?IsEqual@?$TComparator@PAUTPBIndexAndNumEntries@RMobilePhoneBookStore@@@@SAHABQAUTPBIndexAndNumEntries@RMobilePhoneBookStore@@0@Z @ 115 NONAME ; int TComparator<struct RMobilePhoneBookStore::TPBIndexAndNumEntries *>::IsEqual(struct RMobilePhoneBookStore::TPBIndexAndNumEntries * const const &, struct RMobilePhoneBookStore::TPBIndexAndNumEntries * const const &)
	?IsEqual@?$TComparator@UTViagCacheRecordContent@RMmCustomAPI@@@@SAHABUTViagCacheRecordContent@RMmCustomAPI@@0@Z @ 116 NONAME ; int TComparator<struct RMmCustomAPI::TViagCacheRecordContent>::IsEqual(struct RMmCustomAPI::TViagCacheRecordContent const &, struct RMmCustomAPI::TViagCacheRecordContent const &)
	??8TMockLtsyPacketQoSData0@@UBEHABVTDesC8@@@Z @ 117 NONAME ; int TMockLtsyPacketQoSData0::operator==(class TDesC8 const &) const
	??0TMockLtsyPhoneBookData0@@QAE@AAV?$TBuf@$0IA@@@@Z @ 118 NONAME ; TMockLtsyPhoneBookData0::TMockLtsyPhoneBookData0(class TBuf<128> &)
	?IsEqual@?$TComparator@VTMobileHscsdCallParamsV8@RMobileCall@@@@SAHABVTMobileHscsdCallParamsV8@RMobileCall@@0@Z @ 119 NONAME ; int TComparator<class RMobileCall::TMobileHscsdCallParamsV8>::IsEqual(class RMobileCall::TMobileHscsdCallParamsV8 const &, class RMobileCall::TMobileHscsdCallParamsV8 const &)
	?IsEqual@?$TComparator@PAVCDesC16Array@@@@SAHABQAVCDesC16Array@@0@Z @ 120 NONAME ; int TComparator<class CDesC16Array *>::IsEqual(class CDesC16Array * const const &, class CDesC16Array * const const &)
	?ConstructL@?$TConstructor@VCMobilePhoneCWList@@@@SAXAAPAVCMobilePhoneCWList@@@Z @ 121 NONAME ; void TConstructor<class CMobilePhoneCWList>::ConstructL(class CMobilePhoneCWList * &)
	?DeserialiseL@?$TSerializer@VCMobilePhoneCFList@@@@SAXABVTDesC8@@AAVCMobilePhoneCFList@@@Z @ 122 NONAME ; void TSerializer<class CMobilePhoneCFList>::DeserialiseL(class TDesC8 const &, class CMobilePhoneCFList &)
	?IsEqual@?$TComparator@VCTFTMediaAuthorizationV3@RPacketContext@@@@SAHABVCTFTMediaAuthorizationV3@RPacketContext@@0@Z @ 123 NONAME ; int TComparator<class RPacketContext::CTFTMediaAuthorizationV3>::IsEqual(class RPacketContext::CTFTMediaAuthorizationV3 const &, class RPacketContext::CTFTMediaAuthorizationV3 const &)
	??8TPacketQoSGPRSNegotiated@@QBEHABV0@@Z @ 124 NONAME ; int TPacketQoSGPRSNegotiated::operator==(class TPacketQoSGPRSNegotiated const &) const
	?IsEqual@?$TComparator@VTMobilePhoneCBChangeV1@RMobilePhone@@@@SAHABVTMobilePhoneCBChangeV1@RMobilePhone@@0@Z @ 125 NONAME ; int TComparator<class RMobilePhone::TMobilePhoneCBChangeV1>::IsEqual(class RMobilePhone::TMobilePhoneCBChangeV1 const &, class RMobilePhone::TMobilePhoneCBChangeV1 const &)
	?IsEqual@?$TComparator@W4TMobilePhoneSecurityCode@RMobilePhone@@@@SAHABW4TMobilePhoneSecurityCode@RMobilePhone@@0@Z @ 126 NONAME ; int TComparator<enum RMobilePhone::TMobilePhoneSecurityCode>::IsEqual(enum RMobilePhone::TMobilePhoneSecurityCode const &, enum RMobilePhone::TMobilePhoneSecurityCode const &)
	?DeserialiseL@?$TSerializer@UTMmMbmsActiveServiceListParams@@@@SAXABVTDesC8@@AAUTMmMbmsActiveServiceListParams@@@Z @ 127 NONAME ; void TSerializer<struct TMmMbmsActiveServiceListParams>::DeserialiseL(class TDesC8 const &, struct TMmMbmsActiveServiceListParams &)
	?IsEqual@?$TComparator@PAV?$CArrayFixFlat@VTPacketFilterV2@RPacketContext@@@@@@SAHPBV?$CArrayFixFlat@VTPacketFilterV2@RPacketContext@@@@0@Z @ 128 NONAME ; int TComparator<class CArrayFixFlat<class RPacketContext::TPacketFilterV2> *>::IsEqual(class CArrayFixFlat<class RPacketContext::TPacketFilterV2> const *, class CArrayFixFlat<class RPacketContext::TPacketFilterV2> const *)
	?IsEqual@?$TComparator@VTMobileSmspEntryV1@RMobileSmsMessaging@@@@SAHABVTMobileSmspEntryV1@RMobileSmsMessaging@@0@Z @ 129 NONAME ; int TComparator<class RMobileSmsMessaging::TMobileSmspEntryV1>::IsEqual(class RMobileSmsMessaging::TMobileSmspEntryV1 const &, class RMobileSmsMessaging::TMobileSmspEntryV1 const &)
	?ConstructL@?$TConstructor@VCTFTMediaAuthorizationV3@RPacketContext@@@@SAXAAPAVCTFTMediaAuthorizationV3@RPacketContext@@@Z @ 130 NONAME ; void TConstructor<class RPacketContext::CTFTMediaAuthorizationV3>::ConstructL(class RPacketContext::CTFTMediaAuthorizationV3 * &)
	?IsEqual@?$TComparator@VTMobileSmsAttributesV1@RMobileSmsMessaging@@@@SAHABVTMobileSmsAttributesV1@RMobileSmsMessaging@@0@Z @ 131 NONAME ; int TComparator<class RMobileSmsMessaging::TMobileSmsAttributesV1>::IsEqual(class RMobileSmsMessaging::TMobileSmsAttributesV1 const &, class RMobileSmsMessaging::TMobileSmsAttributesV1 const &)
	??8TMockLtsyPhoneBookData0@@UBEHABVTDesC8@@@Z @ 132 NONAME ; int TMockLtsyPhoneBookData0::operator==(class TDesC8 const &) const
	?IsEqual@?$TComparator@VCMobilePhoneBroadcastIdList@@@@SAHABVCMobilePhoneBroadcastIdList@@0@Z @ 133 NONAME ; int TComparator<class CMobilePhoneBroadcastIdList>::IsEqual(class CMobilePhoneBroadcastIdList const &, class CMobilePhoneBroadcastIdList const &)
	?IsEqual@?$TComparator@UTMmMbmsMonitorServiceListParams@@@@SAHABUTMmMbmsMonitorServiceListParams@@0@Z @ 134 NONAME ; int TComparator<struct TMmMbmsMonitorServiceListParams>::IsEqual(struct TMmMbmsMonitorServiceListParams const &, struct TMmMbmsMonitorServiceListParams const &)
	?IsEqual@?$TComparator@VTMobilePhoneCFChangeV1@RMobilePhone@@@@SAHABVTMobilePhoneCFChangeV1@RMobilePhone@@0@Z @ 135 NONAME ; int TComparator<class RMobilePhone::TMobilePhoneCFChangeV1>::IsEqual(class RMobilePhone::TMobilePhoneCFChangeV1 const &, class RMobilePhone::TMobilePhoneCFChangeV1 const &)
	?IsEqual@?$TComparator@VTMmCellInfo@RMmCustomAPI@@@@SAHABVTMmCellInfo@RMmCustomAPI@@0@Z @ 136 NONAME ; int TComparator<class RMmCustomAPI::TMmCellInfo>::IsEqual(class RMmCustomAPI::TMmCellInfo const &, class RMmCustomAPI::TMmCellInfo const &)
	?SerialiseL@?$TSerializer@PAV?$CArrayPtrSeg@VCPhoneBookStoreEntry@@@@@@SAXPBV?$CArrayPtrSeg@VCPhoneBookStoreEntry@@@@AAVRBuf8@@@Z @ 137 NONAME ; void TSerializer<class CArrayPtrSeg<class CPhoneBookStoreEntry> *>::SerialiseL(class CArrayPtrSeg<class CPhoneBookStoreEntry> const *, class RBuf8 &)
	?IsEqual@?$TComparator@UTViagCacheRecordId@RMmCustomAPI@@@@SAHABUTViagCacheRecordId@RMmCustomAPI@@0@Z @ 138 NONAME ; int TComparator<struct RMmCustomAPI::TViagCacheRecordId>::IsEqual(struct RMmCustomAPI::TViagCacheRecordId const &, struct RMmCustomAPI::TViagCacheRecordId const &)
	??0TMockLtsyCallData0@@QAE@XZ @ 139 NONAME ; TMockLtsyCallData0::TMockLtsyCallData0(void)
	?IsEqual@?$TComparator@VTMobilePhoneStoreEntryV1@RMobilePhoneStore@@@@SAHABVTMobilePhoneStoreEntryV1@RMobilePhoneStore@@0@Z @ 140 NONAME ; int TComparator<class RMobilePhoneStore::TMobilePhoneStoreEntryV1>::IsEqual(class RMobilePhoneStore::TMobilePhoneStoreEntryV1 const &, class RMobilePhoneStore::TMobilePhoneStoreEntryV1 const &)
	??8TPacketQoSR99_R4Negotiated@@QBEHABV0@@Z @ 141 NONAME ; int TPacketQoSR99_R4Negotiated::operator==(class TPacketQoSR99_R4Negotiated const &) const
	?DeserialiseL@?$TSerializer@PAVTDesC16@@@@SAXABVTDesC8@@AAPAVTDesC16@@@Z @ 142 NONAME ; void TSerializer<class TDesC16 *>::DeserialiseL(class TDesC8 const &, class TDesC16 * &)
	?CompleteL@RMockLtsy@@QAEXHHABVTDesC8@@H@Z @ 143 NONAME ; void RMockLtsy::CompleteL(int, int, class TDesC8 const &, int)
	?SerialiseL@?$TSerializer@PAVCTFTMediaAuthorizationV3@RPacketContext@@@@SAXPBVCTFTMediaAuthorizationV3@RPacketContext@@AAVRBuf8@@@Z @ 144 NONAME ; void TSerializer<class RPacketContext::CTFTMediaAuthorizationV3 *>::SerialiseL(class RPacketContext::CTFTMediaAuthorizationV3 const *, class RBuf8 &)
	??0TPacketQoSR99_R4Negotiated@@QAE@XZ @ 145 NONAME ; TPacketQoSR99_R4Negotiated::TPacketQoSR99_R4Negotiated(void)
	?ExternalizeL@TPacketQoSR99_R4Negotiated@@QBEXAAVRWriteStream@@@Z @ 146 NONAME ; void TPacketQoSR99_R4Negotiated::ExternalizeL(class RWriteStream &) const
	?IsEqual@?$TComparator@VTApdu@RMmCustomAPI@@@@SAHABVTApdu@RMmCustomAPI@@0@Z @ 147 NONAME ; int TComparator<class RMmCustomAPI::TApdu>::IsEqual(class RMmCustomAPI::TApdu const &, class RMmCustomAPI::TApdu const &)
	?IsEqual@?$TComparator@UTIconId@RMobileCall@@@@SAHABUTIconId@RMobileCall@@0@Z @ 148 NONAME ; int TComparator<struct RMobileCall::TIconId>::IsEqual(struct RMobileCall::TIconId const &, struct RMobileCall::TIconId const &)
	?SerialiseL@TMockLtsyCallData0@@QBEXAAVRBuf8@@@Z @ 149 NONAME ; void TMockLtsyCallData0::SerialiseL(class RBuf8 &) const
	?SerialiseL@?$TSerializer@UTMmMbmsMonitorServiceListParams@@@@SAXABUTMmMbmsMonitorServiceListParams@@AAVRBuf8@@@Z @ 150 NONAME ; void TSerializer<struct TMmMbmsMonitorServiceListParams>::SerialiseL(struct TMmMbmsMonitorServiceListParams const &, class RBuf8 &)
	?SerialiseL@TMockLtsyContextData0@@QBEXAAVRBuf8@@@Z @ 151 NONAME ; void TMockLtsyContextData0::SerialiseL(class RBuf8 &) const
	?IsEqual@?$TComparator@PAVTDesC8@@@@SAHPBVTDesC8@@0@Z @ 152 NONAME ; int TComparator<class TDesC8 *>::IsEqual(class TDesC8 const *, class TDesC8 const *)
	?IsEqual@?$TComparator@UTEmerNumberCheckMode@RMmCustomAPI@@@@SAHABUTEmerNumberCheckMode@RMmCustomAPI@@0@Z @ 153 NONAME ; int TComparator<struct RMmCustomAPI::TEmerNumberCheckMode>::IsEqual(struct RMmCustomAPI::TEmerNumberCheckMode const &, struct RMmCustomAPI::TEmerNumberCheckMode const &)
	?IsEqual@?$TComparator@VTMobileCallInfoV1@RMobileCall@@@@SAHABVTMobileCallInfoV1@RMobileCall@@0@Z @ 154 NONAME ; int TComparator<class RMobileCall::TMobileCallInfoV1>::IsEqual(class RMobileCall::TMobileCallInfoV1 const &, class RMobileCall::TMobileCallInfoV1 const &)
	?SerialiseL@?$TSerializer@PAVTDesC8@@@@SAXPBVTDesC8@@AAVRBuf8@@@Z @ 155 NONAME ; void TSerializer<class TDesC8 *>::SerialiseL(class TDesC8 const *, class RBuf8 &)
	?QoSR99_R4Negotiated@TMockLtsyPacketQoSData0@@QAEAAVTPacketQoSR99_R4Negotiated@@XZ @ 156 NONAME ; class TPacketQoSR99_R4Negotiated & TMockLtsyPacketQoSData0::QoSR99_R4Negotiated(void)
	?IsEqual@?$TComparator@V?$TBuf@$09@@@@SAHABV?$TBuf@$09@@0@Z @ 157 NONAME ; int TComparator<class TBuf<10> >::IsEqual(class TBuf<10> const &, class TBuf<10> const &)
	?IsEqual@?$TComparator@UTCbsCbmiAndLangAndFilter@@@@SAHABUTCbsCbmiAndLangAndFilter@@0@Z @ 158 NONAME ; int TComparator<struct TCbsCbmiAndLangAndFilter>::IsEqual(struct TCbsCbmiAndLangAndFilter const &, struct TCbsCbmiAndLangAndFilter const &)
	?IsEqual@?$TComparator@VTMobileBroadcastIdEntryV1@RMobileBroadcastMessaging@@@@SAHABVTMobileBroadcastIdEntryV1@RMobileBroadcastMessaging@@0@Z @ 159 NONAME ; int TComparator<class RMobileBroadcastMessaging::TMobileBroadcastIdEntryV1>::IsEqual(class RMobileBroadcastMessaging::TMobileBroadcastIdEntryV1 const &, class RMobileBroadcastMessaging::TMobileBroadcastIdEntryV1 const &)
	?IsEqual@?$TComparator@UTContextParams@@@@SAHABUTContextParams@@0@Z @ 160 NONAME ; int TComparator<struct TContextParams>::IsEqual(struct TContextParams const &, struct TContextParams const &)
	?DeserialiseL@?$TSerializer@VCMobilePhoneBroadcastIdList@@@@SAXABVTDesC8@@AAVCMobilePhoneBroadcastIdList@@@Z @ 161 NONAME ; void TSerializer<class CMobilePhoneBroadcastIdList>::DeserialiseL(class TDesC8 const &, class CMobilePhoneBroadcastIdList &)
	??8TMockLtsyContextData0@@UBEHABVTDesC8@@@Z @ 162 NONAME ; int TMockLtsyContextData0::operator==(class TDesC8 const &) const
	?Destroy@?$TDestroyer@UTOperatorLogo@RMmCustomAPI@@@@SAXAAUTOperatorLogo@RMmCustomAPI@@@Z @ 163 NONAME ; void TDestroyer<struct RMmCustomAPI::TOperatorLogo>::Destroy(struct RMmCustomAPI::TOperatorLogo &)
	?Destroy@?$TDestroyer@UTSendSmsDataAndAttributes@@@@SAXAAUTSendSmsDataAndAttributes@@@Z @ 164 NONAME ; void TDestroyer<struct TSendSmsDataAndAttributes>::Destroy(struct TSendSmsDataAndAttributes &)
	??0TMockLtsyCallData0@@QAE@HW4TMobileService@RMobilePhone@@@Z @ 165 NONAME ; TMockLtsyCallData0::TMockLtsyCallData0(int, enum RMobilePhone::TMobileService)
	?IsEqual@?$TComparator@VTAPNEntryV3@RMobilePhone@@@@SAHABVTAPNEntryV3@RMobilePhone@@0@Z @ 166 NONAME ; int TComparator<class RMobilePhone::TAPNEntryV3>::IsEqual(class RMobilePhone::TAPNEntryV3 const &, class RMobilePhone::TAPNEntryV3 const &)
	?IsEqual@?$TComparator@VTMobileCallParamsV7@RMobileCall@@@@SAHABVTMobileCallParamsV7@RMobileCall@@0@Z @ 167 NONAME ; int TComparator<class RMobileCall::TMobileCallParamsV7>::IsEqual(class RMobileCall::TMobileCallParamsV7 const &, class RMobileCall::TMobileCallParamsV7 const &)
	?SerialiseL@?$TSerializer@VCMobilePhoneBroadcastIdList@@@@SAXABVCMobilePhoneBroadcastIdList@@AAVRBuf8@@@Z @ 168 NONAME ; void TSerializer<class CMobilePhoneBroadcastIdList>::SerialiseL(class CMobilePhoneBroadcastIdList const &, class RBuf8 &)
	?Destroy@?$TDestroyer@PAVCPhoneBookStoreEntry@@@@SAXAAPAVCPhoneBookStoreEntry@@@Z @ 169 NONAME ; void TDestroyer<class CPhoneBookStoreEntry *>::Destroy(class CPhoneBookStoreEntry * &)
	?IsEqual@?$TComparator@V?$TBuf@$0BA@@@@@SAHABV?$TBuf@$0BA@@@0@Z @ 170 NONAME ; int TComparator<class TBuf<16> >::IsEqual(class TBuf<16> const &, class TBuf<16> const &)
	?IsEqual@?$TComparator@VCMobilePhoneCWList@@@@SAHABVCMobilePhoneCWList@@0@Z @ 171 NONAME ; int TComparator<class CMobilePhoneCWList>::IsEqual(class CMobilePhoneCWList const &, class CMobilePhoneCWList const &)
	?IsEqual@?$TComparator@VTMobileSmsEntryV1@RMobileSmsStore@@@@SAHABVTMobileSmsEntryV1@RMobileSmsStore@@0@Z @ 172 NONAME ; int TComparator<class RMobileSmsStore::TMobileSmsEntryV1>::IsEqual(class RMobileSmsStore::TMobileSmsEntryV1 const &, class RMobileSmsStore::TMobileSmsEntryV1 const &)
	?IsEqual@?$TComparator@VTMobilePhoneServiceTableV1@RMobilePhone@@@@SAHABVTMobilePhoneServiceTableV1@RMobilePhone@@0@Z @ 173 NONAME ; int TComparator<class RMobilePhone::TMobilePhoneServiceTableV1>::IsEqual(class RMobilePhone::TMobilePhoneServiceTableV1 const &, class RMobilePhone::TMobilePhoneServiceTableV1 const &)
	?DeserialiseL@?$TSerializer@VCMobilePhoneCWList@@@@SAXABVTDesC8@@AAVCMobilePhoneCWList@@@Z @ 174 NONAME ; void TSerializer<class CMobilePhoneCWList>::DeserialiseL(class TDesC8 const &, class CMobilePhoneCWList &)
	?DeserialiseL@?$TSerializer@PAVCPhoneBookStoreEntry@@@@SAXABVTDesC8@@AAPAVCPhoneBookStoreEntry@@@Z @ 175 NONAME ; void TSerializer<class CPhoneBookStoreEntry *>::DeserialiseL(class TDesC8 const &, class CPhoneBookStoreEntry * &)
	?DeserialiseL@TMockLtsyCallData0@@QAEXABVTDesC8@@@Z @ 176 NONAME ; void TMockLtsyCallData0::DeserialiseL(class TDesC8 const &)
	?IsEqual@?$TComparator@VTAuthInfoV8@RMobilePhone@@@@SAHABVTAuthInfoV8@RMobilePhone@@0@Z @ 177 NONAME ; int TComparator<class RMobilePhone::TAuthInfoV8>::IsEqual(class RMobilePhone::TAuthInfoV8 const &, class RMobilePhone::TAuthInfoV8 const &)
	?DeserialiseL@?$TSerializer@UTMmMbmsMonitorServiceListParams@@@@SAXABVTDesC8@@AAUTMmMbmsMonitorServiceListParams@@@Z @ 178 NONAME ; void TSerializer<struct TMmMbmsMonitorServiceListParams>::DeserialiseL(class TDesC8 const &, struct TMmMbmsMonitorServiceListParams &)
	?IsEqual@?$TComparator@V?$TBuf@$0CA@@@@@SAHABV?$TBuf@$0CA@@@0@Z @ 179 NONAME ; int TComparator<class TBuf<32> >::IsEqual(class TBuf<32> const &, class TBuf<32> const &)
	?SerialiseL@?$TSerializer@UTOperatorLogo@RMmCustomAPI@@@@SAXABUTOperatorLogo@RMmCustomAPI@@AAVRBuf8@@@Z @ 180 NONAME ; void TSerializer<struct RMmCustomAPI::TOperatorLogo>::SerialiseL(struct RMmCustomAPI::TOperatorLogo const &, class RBuf8 &)
	?DeserialiseL@TMockLtsyContextData0@@QAEXABVTDesC8@@@Z @ 181 NONAME ; void TMockLtsyContextData0::DeserialiseL(class TDesC8 const &)
	?IsEqual@?$TComparator@VTApduParameters@RMmCustomAPI@@@@SAHABVTApduParameters@RMmCustomAPI@@0@Z @ 182 NONAME ; int TComparator<class RMmCustomAPI::TApduParameters>::IsEqual(class RMmCustomAPI::TApduParameters const &, class RMmCustomAPI::TApduParameters const &)
	?IsEqual@?$TComparator@VTSimFileInfo@RMmCustomAPI@@@@SAHABVTSimFileInfo@RMmCustomAPI@@0@Z @ 183 NONAME ; int TComparator<class RMmCustomAPI::TSimFileInfo>::IsEqual(class RMmCustomAPI::TSimFileInfo const &, class RMmCustomAPI::TSimFileInfo const &)
	?IsEqual@?$TComparator@VTMobileDataCallParamsV8@RMobileCall@@@@SAHABVTMobileDataCallParamsV8@RMobileCall@@0@Z @ 184 NONAME ; int TComparator<class RMobileCall::TMobileDataCallParamsV8>::IsEqual(class RMobileCall::TMobileDataCallParamsV8 const &, class RMobileCall::TMobileDataCallParamsV8 const &)
	
