EXPORTS
	_ZN11CTestBitmap4NewLERK5TSize12TDisplayMode @ 1 NONAME
	_ZN11CTestBitmap4NewLEi @ 2 NONAME
	_ZN11CTestBitmap5NewLCERK5TSize12TDisplayMode @ 3 NONAME
	_ZN19TImportScreenConfig11ExtractRectERK7TPtrC16R5TRectRK5TSize @ 4 NONAME
	_ZN19TImportScreenConfig11ExtractSizeERK7TPtrC16R5TSize @ 5 NONAME
	_ZN19TImportScreenConfig12ExtractPointERK7TPtrC16R6TPoint @ 6 NONAME
	_ZN19TImportScreenConfig13ExtractNumberERK7TPtrC16RiS3_ @ 7 NONAME
	_ZN19TImportScreenConfig18ExtractAspectRatioERK7TPtrC16R5TSize @ 8 NONAME
	_ZN19TImportScreenConfig23VerifyFramesPerTraverseERii @ 9 NONAME
	_ZN19TImportScreenConfig7NumeralEiRi @ 10 NONAME
	_ZN19TImportScreenConfig7ReadIniERK7TDesC16RK7TPtrC16RS3_P8CIniData @ 11 NONAME
	_ZN19TImportScreenConfig7ReadIniERK7TDesC16RK7TPtrC16RiP8CIniData @ 12 NONAME
	_ZN19TImportScreenConfig7ReadIniERK7TDesC16RK7TPtrC16S5_S5_RiiiP8CIniData @ 13 NONAME
	_ZN19TImportScreenConfig7ReadIniERK7TDesC16RK7TPtrC16S5_S5_S5_RiiiiP8CIniData @ 14 NONAME
	_ZN19TImportScreenConfig7ReadIniERK7TDesC16RK7TPtrC16S5_S5_S5_S5_RiiiiiP8CIniData @ 15 NONAME
	_ZN19TImportScreenConfig7ReadIniERK7TDesC16RK7TPtrC16S5_S5_S5_S5_S5_RiiiiiiP8CIniData @ 16 NONAME
	_ZN19TImportScreenConfig7ReadIniERK7TPtrC16RS0_P8CIniData @ 17 NONAME
	_ZN19TImportScreenConfig7ReadIniERK7TPtrC16RiP8CIniData @ 18 NONAME
	_ZN19TImportScreenConfig7ReadIniERK7TPtrC16S2_S2_RiiiP8CIniData @ 19 NONAME
	_ZN19TImportScreenConfig7ReadIniERK7TPtrC16S2_S2_S2_RiiiiP8CIniData @ 20 NONAME
	_ZN19TImportScreenConfig7ReadIniERK7TPtrC16S2_S2_S2_S2_RiiiiiP8CIniData @ 21 NONAME
	_ZN19TImportScreenConfig7ReadIniERK7TPtrC16S2_S2_S2_S2_S2_RiiiiiiP8CIniData @ 22 NONAME
	_ZN22TImportPseudoAppConfig22ImportPseudoAppConfigLEiRiS0_R12TDisplayModeR5TSizeP8CIniData @ 23 NONAME
	_ZTI11CTestBitmap @ 24 NONAME
	_ZTV11CTestBitmap @ 25 NONAME

