EXPORTS
	_ZN13CommsDatUtils14CCommsDatUtils19CheckReadCapabilityERK7TDesC16PK12RMessagePtr2 @ 1 NONAME
	_ZN13CommsDatUtils14CCommsDatUtils19ResolvePhoneNumberLER7TDesC16R6TDes1610TParseModemm @ 2 NONAME
	_ZN13CommsDatUtils14CCommsDatUtils20CheckWriteCapabilityERK7TDesC16PK12RMessagePtr2 @ 3 NONAME
	_ZN13CommsDatUtils14CCommsDatUtils31ResolvePhoneNumberFromDatabaseLER7TDesC16R6TDes1610TParseModemm @ 4 NONAME
	_ZN13CommsDatUtils14CCommsDatUtils4NewLEv @ 5 NONAME
	_ZN13CommsDatUtils14CCommsDatUtilsD0Ev @ 6 NONAME
	_ZN13CommsDatUtils14CCommsDatUtilsD1Ev @ 7 NONAME
	_ZN13CommsDatUtils14CCommsDatUtilsD2Ev @ 8 NONAME
	_ZN4Meta22TMDBBinVisitorFactoryLEPKvS1_ @ 9 NONAME
	_ZN4Meta22TMDBNumVisitorFactoryLEPKvS1_ @ 10 NONAME
	_ZN4Meta23TMDBLinkVisitorFactoryLEPKvS1_ @ 11 NONAME
	_ZN4Meta23TMDBTextVisitorFactoryLEPKvS1_ @ 12 NONAME
	_ZN4Meta26TMDBMedTextVisitorFactoryLEPKvS1_ @ 13 NONAME
	_ZN4Meta27TMDBLongTextVisitorFactoryLEPKvS1_ @ 14 NONAME
	_ZN4Meta28TMDBRecordSetVisitorFactoryLEPKvS1_ @ 15 NONAME
	_ZN4Meta32TMDBGenericRecordVisitorFactoryLEPKvS1_ @ 16 NONAME
	_ZN8CommsDat11CMDBElement11SetRecordIdEi @ 17 NONAME
	_ZN8CommsDat11CMDBElement19GetVDataTableStaticEv @ 18 NONAME
	_ZN8CommsDat11CMDBElement12SetElementIdEm @ 19 NONAME
	_ZN8CommsDat11CMDBElement13SetAttributesEm @ 20 NONAME
	_ZN8CommsDat11CMDBElement15ClearAttributesEm @ 21 NONAME
	_ZN8CommsDat11CMDBElement9SetTypeIdEm @ 22 NONAME
	_ZN8CommsDat11CMDBElementC2Em @ 23 NONAME
	_ZN8CommsDat11CMDBElementC2Ev @ 24 NONAME
	_ZN8CommsDat11CMDBElementD0Ev @ 25 NONAME
	_ZN8CommsDat11CMDBElementD1Ev @ 26 NONAME
	_ZN8CommsDat11CMDBElementD2Ev @ 27 NONAME
	_ZN8CommsDat11CMDBSession10ConstructLE8TVersion @ 28 NONAME
	_ZN8CommsDat11CMDBSession12VersionInUseEv @ 29 NONAME
	_ZN8CommsDat11CMDBSession13LatestVersionEv @ 30 NONAME
	_ZN8CommsDat11CMDBSession15IsInTransactionEv @ 31 NONAME
	_ZN8CommsDat11CMDBSession16OpenTransactionLEv @ 32 NONAME
	_ZN8CommsDat11CMDBSession16SetAttributeMaskEm @ 33 NONAME
	_ZN8CommsDat11CMDBSession17PublishPropertiesEv @ 34 NONAME
	_ZN8CommsDat11CMDBSession18ClearAttributeMaskEm @ 35 NONAME
	_ZN8CommsDat11CMDBSession18CommitTransactionLEv @ 36 NONAME
	_ZN8CommsDat11CMDBSession20RollbackTransactionLEv @ 37 NONAME
	_ZN8CommsDat11CMDBSession22CancelAllNotificationsEv @ 38 NONAME
	_ZN8CommsDat11CMDBSession4NewLE8TVersion @ 39 NONAME
	_ZN8CommsDat11CMDBSession5CloseEv @ 40 NONAME
	_ZN8CommsDat11CMDBSession5NewLCE8TVersion @ 41 NONAME
	_ZN8CommsDat11CMDBSessionC1Ev @ 42 NONAME
	_ZN8CommsDat11CMDBSessionC2Ev @ 43 NONAME
	_ZN8CommsDat11CMDBSessionD0Ev @ 44 NONAME
	_ZN8CommsDat11CMDBSessionD1Ev @ 45 NONAME
	_ZN8CommsDat11CMDBSessionD2Ev @ 46 NONAME
	_ZN8CommsDat13CCDRecordBase19GetVDataTableStaticEv @ 47 NONAME
	_ZN8CommsDat13CCDRecordBase14RecordFactoryLEm @ 48 NONAME
	_ZN8CommsDat13CCDRecordBase17CreateCopyRecordLERNS_14CMDBRecordBaseE @ 49 NONAME
	_ZN8CommsDat13CCDRecordBaseC1Em @ 50 NONAME
	_ZN8CommsDat13CCDRecordBaseC2Em @ 51 NONAME
	_ZN8CommsDat13MMetaDatabase18CancelNotificationERNS_11CMDBSessionER14TRequestStatus @ 52 NONAME
	_ZN8CommsDat13MMetaDatabase19RequestNotificationERNS_11CMDBSessionER14TRequestStatus @ 53 NONAME
	_ZN8CommsDat13MMetaDatabase5FindLERNS_11CMDBSessionE @ 54 NONAME
	_ZN8CommsDat13MMetaDatabase5LoadLERNS_11CMDBSessionE @ 55 NONAME
	_ZN8CommsDat13MMetaDatabase6StoreLERNS_11CMDBSessionE @ 56 NONAME
	_ZN8CommsDat13MMetaDatabase7DeleteLERNS_11CMDBSessionE @ 57 NONAME
	_ZN8CommsDat13MMetaDatabase7ModifyLERNS_11CMDBSessionE @ 58 NONAME
	_ZN8CommsDat13MMetaDatabase8RefreshLERNS_11CMDBSessionE @ 59 NONAME
	_ZN8CommsDat13MMetaDatabaseC2Ev @ 60 NONAME
	_ZN8CommsDat13MMetaDatabaseD0Ev @ 61 NONAME
	_ZN8CommsDat13MMetaDatabaseD1Ev @ 62 NONAME
	_ZN8CommsDat13MMetaDatabaseD2Ev @ 63 NONAME
	_ZN8CommsDat14CMDBRecordBase13GetFieldByIdLEm @ 64 NONAME
	_ZN8CommsDat14CMDBRecordBase13GetRecordInfoEv @ 65 NONAME
	_ZN8CommsDat14CMDBRecordBase15GetFieldByNameLERK7TPtrC16Ri @ 66 NONAME
	_ZN8CommsDat16CMDBBinFieldBase19GetVDataTableStaticEv @ 67 NONAME
	_ZN8CommsDat16CMDBBinFieldBase13SetMaxLengthLEi @ 68 NONAME
	_ZN8CommsDat16CMDBBinFieldBaseC1Em @ 69 NONAME
	_ZN8CommsDat16CMDBBinFieldBaseC1Ev @ 70 NONAME
	_ZN8CommsDat16CMDBBinFieldBaseC2Em @ 71 NONAME
	_ZN8CommsDat16CMDBBinFieldBaseC2Ev @ 72 NONAME
	_ZN8CommsDat16CMDBBinFieldBaseD0Ev @ 73 NONAME
	_ZN8CommsDat16CMDBBinFieldBaseD1Ev @ 74 NONAME
	_ZN8CommsDat16CMDBBinFieldBaseD2Ev @ 75 NONAME
	_ZN8CommsDat16CMDBBinFieldBaseaSERK6TDesC8 @ 76 NONAME
	_ZN8CommsDat16CMDBNumFieldBase19GetVDataTableStaticEv @ 77 NONAME
	_ZN8CommsDat16CMDBNumFieldBase13SetMaxLengthLEi @ 78 NONAME
	_ZN8CommsDat16CMDBNumFieldBaseC1Em @ 79 NONAME
	_ZN8CommsDat16CMDBNumFieldBaseC1Ev @ 80 NONAME
	_ZN8CommsDat16CMDBNumFieldBaseC2Em @ 81 NONAME
	_ZN8CommsDat16CMDBNumFieldBaseC2Ev @ 82 NONAME
	_ZN8CommsDat16CMDBNumFieldBaseaSEi @ 83 NONAME
	_ZN8CommsDat17CMDBGenericRecord19GetVDataTableStaticEv @ 84 NONAME
	_ZN8CommsDat17CMDBGenericRecord13GetFieldByIdLEm @ 85 NONAME
	_ZN8CommsDat17CMDBGenericRecord15GetFieldByNameLERK7TPtrC16Ri @ 86 NONAME
	_ZN8CommsDat17CMDBGenericRecord11InitializeLERK7TDesC16PKNS_25SGenericRecordTypeInfoTagE @ 87 NONAME
	_ZN8CommsDat17CMDBGenericRecordD0Ev @ 88 NONAME
	_ZN8CommsDat17CMDBGenericRecordD1Ev @ 89 NONAME
	_ZN8CommsDat17CMDBGenericRecordD2Ev @ 90 NONAME
	_ZN8CommsDat17CMDBRecordSetBase19GetVDataTableStaticEv @ 91 NONAME
	_ZN8CommsDat17CMDBRecordSetBaseC1Em @ 92 NONAME
	_ZN8CommsDat17CMDBRecordSetBaseC1Ev @ 93 NONAME
	_ZN8CommsDat17CMDBRecordSetBaseC2Em @ 94 NONAME
	_ZN8CommsDat17CMDBRecordSetBaseC2Ev @ 95 NONAME
	_ZN8CommsDat17CMDBRecordSetBaseD0Ev @ 96 NONAME
	_ZN8CommsDat17CMDBRecordSetBaseD1Ev @ 97 NONAME
	_ZN8CommsDat17CMDBRecordSetBaseD2Ev @ 98 NONAME
	_ZN8CommsDat17CMDBTextFieldBase19GetVDataTableStaticEv @ 99 NONAME
	_ZN8CommsDat17CMDBTextFieldBase13SetMaxLengthLEi @ 100 NONAME
	_ZN8CommsDat17CMDBTextFieldBaseC1Em @ 101 NONAME
	_ZN8CommsDat17CMDBTextFieldBaseC1Ev @ 102 NONAME
	_ZN8CommsDat17CMDBTextFieldBaseC2Em @ 103 NONAME
	_ZN8CommsDat17CMDBTextFieldBaseC2Ev @ 104 NONAME
	_ZN8CommsDat17CMDBTextFieldBaseD0Ev @ 105 NONAME
	_ZN8CommsDat17CMDBTextFieldBaseD1Ev @ 106 NONAME
	_ZN8CommsDat17CMDBTextFieldBaseD2Ev @ 107 NONAME
	_ZN8CommsDat17CMDBTextFieldBaseaSERK7TDesC16 @ 108 NONAME
	_ZN8CommsDat18CMDBRecordLinkBase19GetVDataTableStaticEv @ 109 NONAME
	_ZN8CommsDat18CMDBRecordLinkBaseC1Em @ 110 NONAME
	_ZN8CommsDat18CMDBRecordLinkBaseC1EmPNS_11CMDBElementE @ 111 NONAME
	_ZN8CommsDat18CMDBRecordLinkBaseC1Ev @ 112 NONAME
	_ZN8CommsDat18CMDBRecordLinkBaseC2Em @ 113 NONAME
	_ZN8CommsDat18CMDBRecordLinkBaseC2EmPNS_11CMDBElementE @ 114 NONAME
	_ZN8CommsDat18CMDBRecordLinkBaseC2Ev @ 115 NONAME
	_ZN8CommsDat18CMDBRecordLinkBaseD0Ev @ 116 NONAME
	_ZN8CommsDat18CMDBRecordLinkBaseD1Ev @ 117 NONAME
	_ZN8CommsDat18CMDBRecordLinkBaseD2Ev @ 118 NONAME
	_ZN8CommsDat18CMDBRecordLinkBaseaSEm @ 119 NONAME
	_ZN8CommsDat18CMDBRecordLinkBasecvmEv @ 120 NONAME
	_ZNK8CommsDat11CMDBElement10AttributesEv @ 121 NONAME
	_ZNK8CommsDat11CMDBElement12GetAttribPtrEi @ 122 NONAME
	_ZNK8CommsDat11CMDBElement13GetVDataTableEv @ 123 NONAME
	_ZNK8CommsDat11CMDBElement14IsSetAttributeEm @ 124 NONAME
	_ZNK8CommsDat11CMDBElement6IsNullEv @ 125 NONAME
	_ZNK8CommsDat11CMDBElement6TypeIdEv @ 126 NONAME
	_ZNK8CommsDat11CMDBElement8RecordIdEv @ 127 NONAME
	_ZNK8CommsDat11CMDBElement9ElementIdEv @ 128 NONAME
	_ZNK8CommsDat13CCDRecordBase12GetAttribPtrEi @ 129 NONAME
	_ZNK8CommsDat13CCDRecordBase13GetVDataTableEv @ 130 NONAME
	_ZNK8CommsDat16CMDBBinFieldBase12GetAttribPtrEi @ 131 NONAME
	_ZNK8CommsDat16CMDBBinFieldBase13GetVDataTableEv @ 132 NONAME
	_ZNK8CommsDat16CMDBNumFieldBase12GetAttribPtrEi @ 133 NONAME
	_ZNK8CommsDat16CMDBNumFieldBase13GetVDataTableEv @ 134 NONAME
	_ZNK8CommsDat17CMDBGenericRecord12GetAttribPtrEi @ 135 NONAME
	_ZNK8CommsDat17CMDBGenericRecord13GetVDataTableEv @ 136 NONAME
	_ZNK8CommsDat17CMDBRecordSetBase12GetAttribPtrEi @ 137 NONAME
	_ZNK8CommsDat17CMDBRecordSetBase13GetVDataTableEv @ 138 NONAME
	_ZNK8CommsDat17CMDBTextFieldBase12GetAttribPtrEi @ 139 NONAME
	_ZNK8CommsDat17CMDBTextFieldBase13GetVDataTableEv @ 140 NONAME
	_ZNK8CommsDat18CMDBRecordLinkBase12GetAttribPtrEi @ 141 NONAME
	_ZNK8CommsDat18CMDBRecordLinkBase13GetVDataTableEv @ 142 NONAME
	_ZTIN13CommsDatUtils14CCommsDatUtilsE @ 143 NONAME ; #<TI>#
	_ZTIN8CommsDat11CMDBElementE @ 144 NONAME ; #<TI>#
	_ZTIN8CommsDat11CMDBSessionE @ 145 NONAME ; #<TI>#
	_ZTIN8CommsDat12CCDIAPRecordE @ 146 NONAME ; #<TI>#
	_ZTIN8CommsDat13CCDRecordBaseE @ 147 NONAME ; #<TI>#
	_ZTIN8CommsDat13MMetaDatabaseE @ 148 NONAME ; #<TI>#
	_ZTIN8CommsDat14CMDBRecordBaseE @ 149 NONAME ; #<TI>#
	_ZTIN8CommsDat16CCDNetworkRecordE @ 150 NONAME ; #<TI>#
	_ZTIN8CommsDat16CCDProxiesRecordE @ 151 NONAME ; #<TI>#
	_ZTIN8CommsDat16CMDBBinFieldBaseE @ 152 NONAME ; #<TI>#
	_ZTIN8CommsDat16CMDBNumFieldBaseE @ 153 NONAME ; #<TI>#
	_ZTIN8CommsDat17CCDLocationRecordE @ 154 NONAME ; #<TI>#
	_ZTIN8CommsDat17CMDBGenericRecordE @ 155 NONAME ; #<TI>#
	_ZTIN8CommsDat17CMDBRecordSetBaseE @ 156 NONAME ; #<TI>#
	_ZTIN8CommsDat17CMDBTextFieldBaseE @ 157 NONAME ; #<TI>#
	_ZTIN8CommsDat18CCDDialInISPRecordE @ 158 NONAME ; #<TI>#
	_ZTIN8CommsDat18CCDLANBearerRecordE @ 159 NONAME ; #<TI>#
	_ZTIN8CommsDat18CMDBRecordLinkBaseE @ 160 NONAME ; #<TI>#
	_ZTIN8CommsDat19CCDBearerRecordBaseE @ 161 NONAME ; #<TI>#
	_ZTIN8CommsDat19CCDChargecardRecordE @ 162 NONAME ; #<TI>#
	_ZTIN8CommsDat19CCDDialOutISPRecordE @ 163 NONAME ; #<TI>#
	_ZTIN8CommsDat19CCDLANServiceRecordE @ 164 NONAME ; #<TI>#
	_ZTIN8CommsDat19CCDVPNServiceRecordE @ 165 NONAME ; #<TI>#
	_ZTIN8CommsDat20CCDAgentLookupRecordE @ 166 NONAME ; #<TI>#
	_ZTIN8CommsDat20CCDModemBearerRecordE @ 167 NONAME ; #<TI>#
	_ZTIN8CommsDat20CCDServiceRecordBaseE @ 168 NONAME ; #<TI>#
	_ZTIN8CommsDat20CCDWAPIPBearerRecordE @ 169 NONAME ; #<TI>#
	_ZTIN8CommsDat21CCDDefaultWCDMARecordE @ 170 NONAME ; #<TI>#
	_ZTIN8CommsDat21CCDIncomingGprsRecordE @ 171 NONAME ; #<TI>#
	_ZTIN8CommsDat21CCDOutgoingGprsRecordE @ 172 NONAME ; #<TI>#
	_ZTIN8CommsDat21CCDSecureSocketRecordE @ 173 NONAME ; #<TI>#
	_ZTIN8CommsDat21CCDWAPSMSBearerRecordE @ 174 NONAME ; #<TI>#
	_ZTIN8CommsDat22CCDVirtualBearerRecordE @ 175 NONAME ; #<TI>#
	_ZTIN8CommsDat23CCDGlobalSettingsRecordE @ 176 NONAME ; #<TI>#
	_ZTIN8CommsDat23CCDWAPAccessPointRecordE @ 177 NONAME ; #<TI>#
	_ZTIN8CommsDat23CCDWLANServiceExtRecordE @ 178 NONAME ; #<TI>#
	_ZTIN8CommsDat24CCDConnectionPrefsRecordE @ 179 NONAME ; #<TI>#
	_ZTIN8CommsDat27CCDWCDMAPacketServiceRecordE @ 180 NONAME ; #<TI>#
	_ZTIN8CommsDat30CCDCDMA2000PacketServiceRecordE @ 181 NONAME ABSENT
	_ZTIN8CommsDat32CCDDefaultCDMA2000SettingsRecordE @ 182 NONAME ABSENT
	_ZTVN13CommsDatUtils14CCommsDatUtilsE @ 183 NONAME ; #<VT>#
	_ZTVN8CommsDat11CMDBElementE @ 184 NONAME ; #<VT>#
	_ZTVN8CommsDat11CMDBSessionE @ 185 NONAME ; #<VT>#
	_ZTVN8CommsDat12CCDIAPRecordE @ 186 NONAME ; #<VT>#
	_ZTVN8CommsDat13CCDRecordBaseE @ 187 NONAME ; #<VT>#
	_ZTVN8CommsDat13MMetaDatabaseE @ 188 NONAME ; #<VT>#
	_ZTVN8CommsDat14CMDBRecordBaseE @ 189 NONAME ; #<VT>#
	_ZTVN8CommsDat16CCDNetworkRecordE @ 190 NONAME ; #<VT>#
	_ZTVN8CommsDat16CCDProxiesRecordE @ 191 NONAME ; #<VT>#
	_ZTVN8CommsDat16CMDBBinFieldBaseE @ 192 NONAME ; #<VT>#
	_ZTVN8CommsDat16CMDBNumFieldBaseE @ 193 NONAME ; #<VT>#
	_ZTVN8CommsDat17CCDLocationRecordE @ 194 NONAME ; #<VT>#
	_ZTVN8CommsDat17CMDBGenericRecordE @ 195 NONAME ; #<VT>#
	_ZTVN8CommsDat17CMDBRecordSetBaseE @ 196 NONAME ; #<VT>#
	_ZTVN8CommsDat17CMDBTextFieldBaseE @ 197 NONAME ; #<VT>#
	_ZTVN8CommsDat18CCDDialInISPRecordE @ 198 NONAME ; #<VT>#
	_ZTVN8CommsDat18CCDLANBearerRecordE @ 199 NONAME ; #<VT>#
	_ZTVN8CommsDat18CMDBRecordLinkBaseE @ 200 NONAME ; #<VT>#
	_ZTVN8CommsDat19CCDBearerRecordBaseE @ 201 NONAME ; #<VT>#
	_ZTVN8CommsDat19CCDChargecardRecordE @ 202 NONAME ; #<VT>#
	_ZTVN8CommsDat19CCDDialOutISPRecordE @ 203 NONAME ; #<VT>#
	_ZTVN8CommsDat19CCDLANServiceRecordE @ 204 NONAME ; #<VT>#
	_ZTVN8CommsDat19CCDVPNServiceRecordE @ 205 NONAME ; #<VT>#
	_ZTVN8CommsDat20CCDAgentLookupRecordE @ 206 NONAME ; #<VT>#
	_ZTVN8CommsDat20CCDModemBearerRecordE @ 207 NONAME ; #<VT>#
	_ZTVN8CommsDat20CCDServiceRecordBaseE @ 208 NONAME ; #<VT>#
	_ZTVN8CommsDat20CCDWAPIPBearerRecordE @ 209 NONAME ; #<VT>#
	_ZTVN8CommsDat21CCDDefaultWCDMARecordE @ 210 NONAME ; #<VT>#
	_ZTVN8CommsDat21CCDIncomingGprsRecordE @ 211 NONAME ; #<VT>#
	_ZTVN8CommsDat21CCDOutgoingGprsRecordE @ 212 NONAME ; #<VT>#
	_ZTVN8CommsDat21CCDSecureSocketRecordE @ 213 NONAME ; #<VT>#
	_ZTVN8CommsDat21CCDWAPSMSBearerRecordE @ 214 NONAME ; #<VT>#
	_ZTVN8CommsDat22CCDVirtualBearerRecordE @ 215 NONAME ; #<VT>#
	_ZTVN8CommsDat23CCDGlobalSettingsRecordE @ 216 NONAME ; #<VT>#
	_ZTVN8CommsDat23CCDWAPAccessPointRecordE @ 217 NONAME ; #<VT>#
	_ZTVN8CommsDat23CCDWLANServiceExtRecordE @ 218 NONAME ; #<VT>#
	_ZTVN8CommsDat24CCDConnectionPrefsRecordE @ 219 NONAME ; #<VT>#
	_ZTVN8CommsDat27CCDWCDMAPacketServiceRecordE @ 220 NONAME ; #<VT>#
	_ZTVN8CommsDat30CCDCDMA2000PacketServiceRecordE @ 221 NONAME ; #<VT>#
	_ZTVN8CommsDat32CCDDefaultCDMA2000SettingsRecordE @ 222 NONAME ; #<VT>#
	_ZThn4_N8CommsDat11CMDBElementD0Ev @ 223 NONAME ; #<thunk>#
	_ZThn4_N8CommsDat11CMDBElementD1Ev @ 224 NONAME ; #<thunk>#
	_ZThn4_N8CommsDat16CMDBBinFieldBaseD0Ev @ 225 NONAME ; #<thunk>#
	_ZThn4_N8CommsDat16CMDBBinFieldBaseD1Ev @ 226 NONAME ; #<thunk>#
	_ZThn4_N8CommsDat17CMDBGenericRecordD0Ev @ 227 NONAME ; #<thunk>#
	_ZThn4_N8CommsDat17CMDBGenericRecordD1Ev @ 228 NONAME ; #<thunk>#
	_ZThn4_N8CommsDat17CMDBRecordSetBaseD0Ev @ 229 NONAME ; #<thunk>#
	_ZThn4_N8CommsDat17CMDBRecordSetBaseD1Ev @ 230 NONAME ; #<thunk>#
	_ZThn4_N8CommsDat17CMDBTextFieldBaseD0Ev @ 231 NONAME ; #<thunk>#
	_ZThn4_N8CommsDat17CMDBTextFieldBaseD1Ev @ 232 NONAME ; #<thunk>#
	_ZThn4_N8CommsDat18CMDBRecordLinkBaseD0Ev @ 233 NONAME ; #<thunk>#
	_ZThn4_N8CommsDat18CMDBRecordLinkBaseD1Ev @ 234 NONAME ; #<thunk>#
	_ZThn4_NK8CommsDat11CMDBElement12GetAttribPtrEi @ 235 NONAME ; #<thunk>#
	_ZThn4_NK8CommsDat11CMDBElement13GetVDataTableEv @ 236 NONAME ; #<thunk>#
	_ZThn4_NK8CommsDat13CCDRecordBase12GetAttribPtrEi @ 237 NONAME ; #<thunk>#
	_ZThn4_NK8CommsDat13CCDRecordBase13GetVDataTableEv @ 238 NONAME ; #<thunk>#
	_ZThn4_NK8CommsDat16CMDBBinFieldBase12GetAttribPtrEi @ 239 NONAME ; #<thunk>#
	_ZThn4_NK8CommsDat16CMDBBinFieldBase13GetVDataTableEv @ 240 NONAME ; #<thunk>#
	_ZThn4_NK8CommsDat16CMDBNumFieldBase12GetAttribPtrEi @ 241 NONAME ; #<thunk>#
	_ZThn4_NK8CommsDat16CMDBNumFieldBase13GetVDataTableEv @ 242 NONAME ; #<thunk>#
	_ZThn4_NK8CommsDat17CMDBGenericRecord12GetAttribPtrEi @ 243 NONAME ; #<thunk>#
	_ZThn4_NK8CommsDat17CMDBGenericRecord13GetVDataTableEv @ 244 NONAME ; #<thunk>#
	_ZThn4_NK8CommsDat17CMDBRecordSetBase12GetAttribPtrEi @ 245 NONAME ; #<thunk>#
	_ZThn4_NK8CommsDat17CMDBRecordSetBase13GetVDataTableEv @ 246 NONAME ; #<thunk>#
	_ZThn4_NK8CommsDat17CMDBTextFieldBase12GetAttribPtrEi @ 247 NONAME ; #<thunk>#
	_ZThn4_NK8CommsDat17CMDBTextFieldBase13GetVDataTableEv @ 248 NONAME ; #<thunk>#
	_ZThn4_NK8CommsDat18CMDBRecordLinkBase12GetAttribPtrEi @ 249 NONAME ; #<thunk>#
	_ZThn4_NK8CommsDat18CMDBRecordLinkBase13GetVDataTableEv @ 250 NONAME ; #<thunk>#
	_ZN8CommsDat11CMDBSession18IsSetAttributeMaskEm @ 251 NONAME
	_ZTIN8CommsDat22CCDPANServiceExtRecordE @ 252 NONAME ; #<TI>#
	_ZTVN8CommsDat22CCDPANServiceExtRecordE @ 253 NONAME ; #<VT>#
	_ZNK8CommsDat11CMDBElement7TableIdEv @ 254 NONAME
	_ZTIN8CommsDat20CCDAccessPointRecordE @ 255 NONAME ; #<TI>#
	_ZTIN8CommsDat28CCDSelectionPolicyRecordBaseE @ 256 NONAME ; #<TI>#
	_ZTIN8CommsDat35CCDIAPPrioritySelectionPolicyRecordE @ 257 NONAME ; #<TI>#
	_ZTVN8CommsDat20CCDAccessPointRecordE @ 258 NONAME ; #<VT>#
	_ZTVN8CommsDat28CCDSelectionPolicyRecordBaseE @ 259 NONAME ; #<VT>#
	_ZTVN8CommsDat35CCDIAPPrioritySelectionPolicyRecordE @ 260 NONAME ; #<VT>#
	_ZTIN8CommsDat29CCDUmtsR99QoSAndOnTableRecordE @ 261 NONAME ; #<TI>#
	_ZTVN8CommsDat29CCDUmtsR99QoSAndOnTableRecordE @ 262 NONAME ; #<VT>#
	_ZTIN8CommsDat13CCDLEAPRecordE @ 263 NONAME ; #<TI>#
	_ZTIN8CommsDat15CCDEAPSecRecordE @ 264 NONAME ; #<TI>#
	_ZTIN8CommsDat15CCDEAPTLSRecordE @ 265 NONAME ; #<TI>#
	_ZTIN8CommsDat15CCDTunEAPRecordE @ 266 NONAME ; #<TI>#
	_ZTVN8CommsDat13CCDLEAPRecordE @ 267 NONAME ; #<VT>#
	_ZTVN8CommsDat15CCDEAPSecRecordE @ 268 NONAME ; #<VT>#
	_ZTVN8CommsDat15CCDEAPTLSRecordE @ 269 NONAME ; #<VT>#
	_ZTVN8CommsDat15CCDTunEAPRecordE @ 270 NONAME ; #<VT>#
	_ZTIN8CommsDat16CCDBaseSecRecordE @ 271 NONAME ; #<TI>#
	_ZTVN8CommsDat16CCDBaseSecRecordE @ 272 NONAME ; #<VT>#
	_ZTIN8CommsDat23CCDEapAkaProtocolRecordE @ 273 NONAME ; #<TI>#
	_ZTIN8CommsDat23CCDEapSimProtocolRecordE @ 274 NONAME ; #<TI>#
	_ZTVN8CommsDat23CCDEapAkaProtocolRecordE @ 275 NONAME ; #<VT>#
	_ZTVN8CommsDat23CCDEapSimProtocolRecordE @ 276 NONAME ; #<VT>#
	_ZN13CommsDatUtils10NameLookUp15FieldNameLookupEmRP7HBufC16Ri @ 277 NONAME
	_ZN4Meta26TMDBLinkNumVisitorFactoryLEPKvS1_ @ 278 NONAME

