EXPORTS
	??1CTestConfig@@UAE@XZ @ 1 NONAME ; public: virtual __thiscall CTestConfig::~CTestConfig(void)
	??1CTestConfigItem@@UAE@XZ @ 2 NONAME ; public: virtual __thiscall CTestConfigItem::~CTestConfigItem(void)
	??1CTestConfigSection@@UAE@XZ @ 3 NONAME ; public: virtual __thiscall CTestConfigSection::~CTestConfigSection(void)
	??8CTestConfig@@QBEHABV0@@Z @ 4 NONAME ; public: int __thiscall CTestConfig::operator==(class CTestConfig const &)const 
	?AddItemL@CTestConfigSection@@QAEAAVCTestConfigItem@@ABVTDesC8@@0@Z @ 5 NONAME ; public: class CTestConfigItem & __thiscall CTestConfigSection::AddItemL(class TDesC8 const &,class TDesC8 const &)
	?CopyLC@CTestConfigSection@@QBEPAV1@XZ @ 6 NONAME ; public: class CTestConfigSection * __thiscall CTestConfigSection::CopyLC(void)const 
	?CountElements@CTestConfig@@SAHABVTDesC8@@VTChar@@@Z @ 7 NONAME ; public: static int __cdecl CTestConfig::CountElements(class TDesC8 const &,class TChar)
	?DeleteItemsL@CTestConfigSection@@QAEXABVTDesC8@@@Z @ 8 NONAME ; public: void __thiscall CTestConfigSection::DeleteItemsL(class TDesC8 const &)
	?GetElement@CTestConfig@@SAHABVTDesC8@@VTChar@@HAAH@Z @ 9 NONAME ; public: static int __cdecl CTestConfig::GetElement(class TDesC8 const &,class TChar,int,int &)
	?GetElement@CTestConfig@@SAHABVTDesC8@@VTChar@@HAAVTPtrC8@@H@Z @ 10 NONAME ; public: static int __cdecl CTestConfig::GetElement(class TDesC8 const &,class TChar,int,class TPtrC8 &,int)
	?Item@CTestConfigSection@@QBEPBVCTestConfigItem@@ABVTDesC8@@@Z @ 11 NONAME ; public: class CTestConfigItem const * __thiscall CTestConfigSection::Item(class TDesC8 const &)const 
	?Item@CTestConfigSection@@QBEPBVCTestConfigItem@@ABVTDesC8@@H@Z @ 12 NONAME ; public: class CTestConfigItem const * __thiscall CTestConfigSection::Item(class TDesC8 const &,int)const 
	?ItemCount@CTestConfigSection@@QBEHABVTDesC8@@@Z @ 13 NONAME ; public: int __thiscall CTestConfigSection::ItemCount(class TDesC8 const &)const 
	?ItemValue@CTestConfig@@QBEABVTDesC8@@ABV2@00@Z @ 14 NONAME ; public: class TDesC8 const & __thiscall CTestConfig::ItemValue(class TDesC8 const &,class TDesC8 const &,class TDesC8 const &)const 
	?ItemValue@CTestConfig@@QBEHABVTDesC8@@0H@Z @ 15 NONAME ; public: int __thiscall CTestConfig::ItemValue(class TDesC8 const &,class TDesC8 const &,int)const 
	?ItemValue@CTestConfigSection@@QBEABVTDesC8@@ABV2@0@Z @ 16 NONAME ; public: class TDesC8 const & __thiscall CTestConfigSection::ItemValue(class TDesC8 const &,class TDesC8 const &)const 
	?ItemValue@CTestConfigSection@@QBEHABVTDesC8@@H@Z @ 17 NONAME ; public: int __thiscall CTestConfigSection::ItemValue(class TDesC8 const &,int)const 
	?NewLC@CTestConfig@@SAPAV1@AAVRFs@@ABVTDesC16@@1@Z @ 18 NONAME ; public: static class CTestConfig * __cdecl CTestConfig::NewLC(class RFs &,class TDesC16 const &,class TDesC16 const &)
	?NewLC@CTestConfig@@SAPAV1@AAVRFs@@ABVTDesC16@@@Z @ 19 NONAME ; public: static class CTestConfig * __cdecl CTestConfig::NewLC(class RFs &,class TDesC16 const &)
	?NewLC@CTestConfigItem@@SAPAV1@AAVCTestConfigSection@@ABVTDesC8@@1@Z @ 20 NONAME ; public: static class CTestConfigItem * __cdecl CTestConfigItem::NewLC(class CTestConfigSection &,class TDesC8 const &,class TDesC8 const &)
	?NewLC@CTestConfigSection@@SAPAV1@ABVTDesC8@@@Z @ 21 NONAME ; public: static class CTestConfigSection * __cdecl CTestConfigSection::NewLC(class TDesC8 const &)
	?NewLC@CTestConfigSection@@SAPAV1@ABVTDesC8@@AAV1@@Z @ 22 NONAME ; public: static class CTestConfigSection * __cdecl CTestConfigSection::NewLC(class TDesC8 const &,class CTestConfigSection &)
	?ReadScriptL@CTestConfig@@QAEXABVTDesC16@@@Z @ 23 NONAME ; public: void __thiscall CTestConfig::ReadScriptL(class TDesC16 const &)
	?ReplaceLC@CTestConfig@@SAPAVHBufC8@@ABVTDesC8@@00@Z @ 24 NONAME ; public: static class HBufC8 * __cdecl CTestConfig::ReplaceLC(class TDesC8 const &,class TDesC8 const &,class TDesC8 const &)
	?ResolveFile@CTestConfig@@SAHAAVRFs@@ABVTDesC16@@1AAVTParse@@@Z @ 25 NONAME ; public: static int __cdecl CTestConfig::ResolveFile(class RFs &,class TDesC16 const &,class TDesC16 const &,class TParse &)
	?Section@CTestConfig@@QBEPBVCTestConfigSection@@ABVTDesC8@@@Z @ 26 NONAME ; public: class CTestConfigSection const * __thiscall CTestConfig::Section(class TDesC8 const &)const 
	?Trim@CTestConfig@@SA?AVTPtrC8@@ABVTDesC8@@@Z @ 27 NONAME ; public: static class TPtrC8  __cdecl CTestConfig::Trim(class TDesC8 const &)
	?WriteFileL@CTestConfig@@QAEXABVTDesC16@@@Z @ 28 NONAME ; public: void __thiscall CTestConfig::WriteFileL(class TDesC16 const &)
	?TrimLeft@CTestConfig@@SA?AVTPtrC8@@ABVTDesC8@@@Z @ 29 NONAME ; public: static class TPtrC8  __cdecl CTestConfig::TrimLeft(class TDesC8 const &)
	?TrimRight@CTestConfig@@SA?AVTPtrC8@@ABVTDesC8@@@Z @ 30 NONAME ; public: static class TPtrC8  __cdecl CTestConfig::TrimRight(class TDesC8 const &)
	?Item@CTestConfigSection@@QAEPAVCTestConfigItem@@ABVTDesC8@@@Z @ 31 NONAME ; public: class CTestConfigItem * __thiscall CTestConfigSection::Item(class TDesC8 const &)
	?Item@CTestConfigSection@@QAEPAVCTestConfigItem@@ABVTDesC8@@H@Z @ 32 NONAME ; public: class CTestConfigItem * __thiscall CTestConfigSection::Item(class TDesC8 const &,int)
	?ItemsL@CTestConfigSection@@QAEXAAV?$RPointerArray@VCTestConfigItem@@@@ABVTDesC8@@@Z @ 33 NONAME ; public: void __thiscall CTestConfigSection::ItemsL(class RPointerArray<class CTestConfigItem> &,class TDesC8 const &)
	?Section@CTestConfig@@QAEPAVCTestConfigSection@@ABVTDesC8@@@Z @ 34 NONAME ; public: class CTestConfigSection * __thiscall CTestConfig::Section(class TDesC8 const &)
	?ItemsL@CTestConfigSection@@QBEXAAV?$RPointerArray@$$CBVCTestConfigItem@@@@ABVTDesC8@@@Z @ 35 NONAME ; public: void __thiscall CTestConfigSection::ItemsL(class RPointerArray<class CTestConfigItem const > &,class TDesC8 const &)const 

