EXPORTS
	??1CExtJpegDecoder@@UAE@XZ @ 1 NONAME ; CExtJpegDecoder::~CExtJpegDecoder(void)
	??1CExtJpegEncoder@@UAE@XZ @ 2 NONAME ; CExtJpegEncoder::~CExtJpegEncoder(void)
	??1CVisualFrame@@UAE@XZ @ 3 NONAME ; CVisualFrame::~CVisualFrame(void)
	?CapabilitiesL@CExtJpegDecoder@@QAEHXZ @ 4 NONAME ; int CExtJpegDecoder::CapabilitiesL(void)
	?CapabilitiesL@CExtJpegEncoder@@QAEHXZ @ 5 NONAME ; int CExtJpegEncoder::CapabilitiesL(void)
	?ContinueConvertL@CExtJpegDecoder@@QAEXPAVTRequestStatus@@PBVCVisualFrame@@AAHH@Z @ 6 NONAME ; void CExtJpegDecoder::ContinueConvertL(class TRequestStatus *, class CVisualFrame const *, int &, int)
	?ContinueConvertL@CExtJpegEncoder@@QAEXPAVTRequestStatus@@PBVCVisualFrame@@AAH@Z @ 7 NONAME ; void CExtJpegEncoder::ContinueConvertL(class TRequestStatus *, class CVisualFrame const *, int &)
	?ConvertL@CExtJpegDecoder@@QAEXPAVTRequestStatus@@PBVCVisualFrame@@AAHH@Z @ 8 NONAME ; void CExtJpegDecoder::ConvertL(class TRequestStatus *, class CVisualFrame const *, int &, int)
	?ConvertL@CExtJpegEncoder@@QAEXPAVTRequestStatus@@PBVCVisualFrame@@AAHPBVCFrameImageData@@@Z @ 9 NONAME ; void CExtJpegEncoder::ConvertL(class TRequestStatus *, class CVisualFrame const *, int &, class CFrameImageData const *)
	?DataChunkL@CVisualFrame@@QBEABVRChunk@@XZ @ 10 NONAME ; class RChunk const & CVisualFrame::DataChunkL(void) const
	?DataContainer@CVisualFrame@@QBE?AW4TDataContainer@1@XZ @ 11 NONAME ; enum CVisualFrame::TDataContainer CVisualFrame::DataContainer(void) const
	?DataNewL@CExtJpegDecoder@@SAPAV1@AAVRFs@@ABVTDesC8@@1W4TOptions@CImageDecoder@@@Z @ 12 NONAME ; class CExtJpegDecoder * CExtJpegDecoder::DataNewL(class RFs &, class TDesC8 const &, class TDesC8 const &, enum CImageDecoder::TOptions)
	?DataNewL@CExtJpegDecoder@@SAPAV1@AAVRFs@@ABVTDesC8@@W4TOptions@CImageDecoder@@VTUid@@33@Z @ 13 NONAME ; class CExtJpegDecoder * CExtJpegDecoder::DataNewL(class RFs &, class TDesC8 const &, enum CImageDecoder::TOptions, class TUid, class TUid, class TUid)
	?DataNewL@CExtJpegDecoder@@SAPAV1@AAVRFs@@PBVCVisualFrame@@ABVTDesC8@@W4TOptions@CImageDecoder@@@Z @ 14 NONAME ; class CExtJpegDecoder * CExtJpegDecoder::DataNewL(class RFs &, class CVisualFrame const *, class TDesC8 const &, enum CImageDecoder::TOptions)
	?DataNewL@CExtJpegDecoder@@SAPAV1@AAVRFs@@PBVCVisualFrame@@W4TOptions@CImageDecoder@@VTUid@@33@Z @ 15 NONAME ; class CExtJpegDecoder * CExtJpegDecoder::DataNewL(class RFs &, class CVisualFrame const *, enum CImageDecoder::TOptions, class TUid, class TUid, class TUid)
	?DataNewL@CExtJpegDecoder@@SAPAV1@W4TDecoderType@1@AAVRFs@@ABVTDesC8@@W4TOptions@CImageDecoder@@@Z @ 16 NONAME ; class CExtJpegDecoder * CExtJpegDecoder::DataNewL(enum CExtJpegDecoder::TDecoderType, class RFs &, class TDesC8 const &, enum CImageDecoder::TOptions)
	?DataNewL@CExtJpegDecoder@@SAPAV1@W4TDecoderType@1@AAVRFs@@PBVCVisualFrame@@W4TOptions@CImageDecoder@@@Z @ 17 NONAME ; class CExtJpegDecoder * CExtJpegDecoder::DataNewL(enum CExtJpegDecoder::TDecoderType, class RFs &, class CVisualFrame const *, enum CImageDecoder::TOptions)
	?DataNewL@CExtJpegEncoder@@SAPAV1@AAPAVHBufC8@@ABVTDesC8@@W4TOptions@CImageEncoder@@@Z @ 18 NONAME ; class CExtJpegEncoder * CExtJpegEncoder::DataNewL(class HBufC8 * &, class TDesC8 const &, enum CImageEncoder::TOptions)
	?DataNewL@CExtJpegEncoder@@SAPAV1@AAPAVHBufC8@@W4TOptions@CImageEncoder@@VTUid@@22@Z @ 19 NONAME ; class CExtJpegEncoder * CExtJpegEncoder::DataNewL(class HBufC8 * &, enum CImageEncoder::TOptions, class TUid, class TUid, class TUid)
	?DataNewL@CExtJpegEncoder@@SAPAV1@PBVCVisualFrame@@ABVTDesC8@@W4TOptions@CImageEncoder@@@Z @ 20 NONAME ; class CExtJpegEncoder * CExtJpegEncoder::DataNewL(class CVisualFrame const *, class TDesC8 const &, enum CImageEncoder::TOptions)
	?DataNewL@CExtJpegEncoder@@SAPAV1@PBVCVisualFrame@@W4TOptions@CImageEncoder@@VTUid@@22@Z @ 21 NONAME ; class CExtJpegEncoder * CExtJpegEncoder::DataNewL(class CVisualFrame const *, enum CImageEncoder::TOptions, class TUid, class TUid, class TUid)
	?DataNewL@CExtJpegEncoder@@SAPAV1@W4TEncoderType@1@AAPAVHBufC8@@W4TOptions@CImageEncoder@@@Z @ 22 NONAME ; class CExtJpegEncoder * CExtJpegEncoder::DataNewL(enum CExtJpegEncoder::TEncoderType, class HBufC8 * &, enum CImageEncoder::TOptions)
	?DataNewL@CExtJpegEncoder@@SAPAV1@W4TEncoderType@1@PBVCVisualFrame@@W4TOptions@CImageEncoder@@@Z @ 23 NONAME ; class CExtJpegEncoder * CExtJpegEncoder::DataNewL(enum CExtJpegEncoder::TEncoderType, class CVisualFrame const *, enum CImageEncoder::TOptions)
	?DataOffset@CVisualFrame@@QBEHXZ @ 24 NONAME ; int CVisualFrame::DataOffset(void) const
	?DataPtrL@CVisualFrame@@QBE?AVTPtr8@@XZ @ 25 NONAME ; class TPtr8 CVisualFrame::DataPtrL(void) const
	?Dimension@CVisualFrame@@QBE?AVTSize@@XZ @ 26 NONAME ; class TSize CVisualFrame::Dimension(void) const
	?FileNewL@CExtJpegDecoder@@SAPAV1@AAVRFs@@ABVTDesC16@@ABVTDesC8@@W4TOptions@CImageDecoder@@@Z @ 27 NONAME ; class CExtJpegDecoder * CExtJpegDecoder::FileNewL(class RFs &, class TDesC16 const &, class TDesC8 const &, enum CImageDecoder::TOptions)
	?FileNewL@CExtJpegDecoder@@SAPAV1@AAVRFs@@ABVTDesC16@@W4TOptions@CImageDecoder@@VTUid@@33@Z @ 28 NONAME ; class CExtJpegDecoder * CExtJpegDecoder::FileNewL(class RFs &, class TDesC16 const &, enum CImageDecoder::TOptions, class TUid, class TUid, class TUid)
	?FileNewL@CExtJpegDecoder@@SAPAV1@W4TDecoderType@1@AAVRFs@@ABVTDesC16@@W4TOptions@CImageDecoder@@@Z @ 29 NONAME ; class CExtJpegDecoder * CExtJpegDecoder::FileNewL(enum CExtJpegDecoder::TDecoderType, class RFs &, class TDesC16 const &, enum CImageDecoder::TOptions)
	?FileNewL@CExtJpegEncoder@@SAPAV1@AAVRFs@@ABVTDesC16@@ABVTDesC8@@W4TOptions@CImageEncoder@@@Z @ 30 NONAME ; class CExtJpegEncoder * CExtJpegEncoder::FileNewL(class RFs &, class TDesC16 const &, class TDesC8 const &, enum CImageEncoder::TOptions)
	?FileNewL@CExtJpegEncoder@@SAPAV1@AAVRFs@@ABVTDesC16@@W4TOptions@CImageEncoder@@VTUid@@33@Z @ 31 NONAME ; class CExtJpegEncoder * CExtJpegEncoder::FileNewL(class RFs &, class TDesC16 const &, enum CImageEncoder::TOptions, class TUid, class TUid, class TUid)
	?FileNewL@CExtJpegEncoder@@SAPAV1@W4TEncoderType@1@AAVRFs@@ABVTDesC16@@W4TOptions@CImageEncoder@@@Z @ 32 NONAME ; class CExtJpegEncoder * CExtJpegEncoder::FileNewL(enum CExtJpegEncoder::TEncoderType, class RFs &, class TDesC16 const &, enum CImageEncoder::TOptions)
	?FrameFormat@CVisualFrame@@QBEHXZ @ 33 NONAME ; int CVisualFrame::FrameFormat(void) const
	?FrameLayout@CVisualFrame@@QBEABVTFrameLayout@1@XZ @ 34 NONAME ; class CVisualFrame::TFrameLayout const & CVisualFrame::FrameLayout(void) const
	?GetDestinationDataSizeL@CExtJpegEncoder@@QAEHXZ @ 35 NONAME ; int CExtJpegEncoder::GetDestinationDataSizeL(void)
	?MaxSize@CVisualFrame@@QBEHXZ @ 36 NONAME ; int CVisualFrame::MaxSize(void) const
	?NewL@CExtJpegDecoder@@SAPAV1@XZ @ 37 NONAME ; class CExtJpegDecoder * CExtJpegDecoder::NewL(void)
	?NewL@CExtJpegEncoder@@SAPAV1@XZ @ 38 NONAME ; class CExtJpegEncoder * CExtJpegEncoder::NewL(void)
	?NewL@CVisualFrame@@SAPAV1@AAVRChunk@@HHABVTSize@@HABVTFrameLayout@1@@Z @ 39 NONAME ; class CVisualFrame * CVisualFrame::NewL(class RChunk &, int, int, class TSize const &, int, class CVisualFrame::TFrameLayout const &)
	?NewL@CVisualFrame@@SAPAV1@AAVRChunk@@HHHABVTSize@@H@Z @ 40 NONAME ; class CVisualFrame * CVisualFrame::NewL(class RChunk &, int, int, int, class TSize const &, int)
	?NewL@CVisualFrame@@SAPAV1@AAVTDes8@@ABVTSize@@H@Z @ 41 NONAME ; class CVisualFrame * CVisualFrame::NewL(class TDes8 &, class TSize const &, int)
	?NewL@CVisualFrame@@SAPAV1@AAVTDes8@@ABVTSize@@HABVTFrameLayout@1@@Z @ 42 NONAME ; class CVisualFrame * CVisualFrame::NewL(class TDes8 &, class TSize const &, int, class CVisualFrame::TFrameLayout const &)
	?ProvideNewDestDataL@CExtJpegEncoder@@QAEXPBVCVisualFrame@@@Z @ 43 NONAME ; void CExtJpegEncoder::ProvideNewDestDataL(class CVisualFrame const *)
	?SetBitmapOverlayL@CExtJpegEncoder@@QAEXABVCFbsBitmap@@IVTPoint@@@Z @ 44 NONAME ; void CExtJpegEncoder::SetBitmapOverlayL(class CFbsBitmap const &, unsigned int, class TPoint)
	?SetBitmapReplaceL@CExtJpegEncoder@@QAEXABVCFbsBitmap@@VTPoint@@@Z @ 45 NONAME ; void CExtJpegEncoder::SetBitmapReplaceL(class CFbsBitmap const &, class TPoint)
	?SetCroppingL@CExtJpegDecoder@@QAEXVTRect@@@Z @ 46 NONAME ; void CExtJpegDecoder::SetCroppingL(class TRect)
	?SetDctDecodingL@CExtJpegDecoder@@QAEXXZ @ 47 NONAME ; void CExtJpegDecoder::SetDctDecodingL(void)
	?SetDctEncodingL@CExtJpegEncoder@@QAEXXZ @ 48 NONAME ; void CExtJpegEncoder::SetDctEncodingL(void)
	?SetFlippingL@CExtJpegDecoder@@QAEXXZ @ 49 NONAME ; void CExtJpegDecoder::SetFlippingL(void)
	?SetImageReplaceL@CExtJpegEncoder@@QAEXPBVCVisualFrame@@VTPoint@@@Z @ 50 NONAME ; void CExtJpegEncoder::SetImageReplaceL(class CVisualFrame const *, class TPoint)
	?SetLosslessFlippingL@CExtJpegEncoder@@QAEXXZ @ 51 NONAME ; void CExtJpegEncoder::SetLosslessFlippingL(void)
	?SetLosslessMirroringL@CExtJpegEncoder@@QAEXXZ @ 52 NONAME ; void CExtJpegEncoder::SetLosslessMirroringL(void)
	?SetLosslessRotationL@CExtJpegEncoder@@QAEXH@Z @ 53 NONAME ; void CExtJpegEncoder::SetLosslessRotationL(int)
	?SetMirroringL@CExtJpegDecoder@@QAEXXZ @ 54 NONAME ; void CExtJpegDecoder::SetMirroringL(void)
	?SetRotationL@CExtJpegDecoder@@QAEXH@Z @ 55 NONAME ; void CExtJpegDecoder::SetRotationL(int)
	?SetSizeL@CVisualFrame@@QAEXH@Z @ 56 NONAME ; void CVisualFrame::SetSizeL(int)
	?SetStreamingL@CExtJpegDecoder@@QAEXAAVTSize@@@Z @ 57 NONAME ; void CExtJpegDecoder::SetStreamingL(class TSize &)
	?SetStreamingL@CExtJpegEncoder@@QAEXAAVTSize@@PBVCFrameImageData@@@Z @ 58 NONAME ; void CExtJpegEncoder::SetStreamingL(class TSize &, class CFrameImageData const *)
	?Size@CVisualFrame@@QBEHXZ @ 59 NONAME ; int CVisualFrame::Size(void) const
	?SupportedFormatsL@CExtJpegDecoder@@QAEHXZ @ 60 NONAME ; int CExtJpegDecoder::SupportedFormatsL(void)
	?SupportedFormatsL@CExtJpegEncoder@@QAEHXZ @ 61 NONAME ; int CExtJpegEncoder::SupportedFormatsL(void)
	?GetImageFrameL@CVisualFrame@@QAEPAVCImageFrame@@XZ @ 62 NONAME ; class CImageFrame * CVisualFrame::GetImageFrameL(void)
	?NewL@CVisualFrame@@SAPAV1@PBVCImageFrame@@@Z @ 63 NONAME ; class CVisualFrame * CVisualFrame::NewL(class CImageFrame const *)
	?ContinueConvert@CExtJpegDecoder@@UAEXPAVTRequestStatus@@@Z @ 64 NONAME ; void CExtJpegDecoder::ContinueConvert(class TRequestStatus *)
	?Convert@CExtJpegDecoder@@UAEXPAVTRequestStatus@@AAVCFbsBitmap@@1H@Z @ 65 NONAME ; void CExtJpegDecoder::Convert(class TRequestStatus *, class CFbsBitmap &, class CFbsBitmap &, int)
	?Convert@CExtJpegDecoder@@UAEXPAVTRequestStatus@@AAVCFbsBitmap@@H@Z @ 66 NONAME ; void CExtJpegDecoder::Convert(class TRequestStatus *, class CFbsBitmap &, int)

