EXPORTS
	_ZN21CWmaDecoderIntfcProxy10EnableToolEN16CWmaDecoderIntfc5TToolE @ 1 NONAME
	_ZN21CWmaDecoderIntfcProxy11ApplyConfigEv @ 2 NONAME
	_ZN21CWmaDecoderIntfcProxy11DisableToolEN16CWmaDecoderIntfc5TToolE @ 3 NONAME
	_ZN21CWmaDecoderIntfcProxy13GetBlockAlignERj @ 4 NONAME
	_ZN21CWmaDecoderIntfcProxy13SetBlockAlignEj @ 5 NONAME
	_ZN21CWmaDecoderIntfcProxy16GetChannelMaskInERj @ 6 NONAME
	_ZN21CWmaDecoderIntfcProxy16GetEncodeOptionsERj @ 7 NONAME
	_ZN21CWmaDecoderIntfcProxy16GetSamplesPerSecERj @ 8 NONAME
	_ZN21CWmaDecoderIntfcProxy16SetChannelMaskInEj @ 9 NONAME
	_ZN21CWmaDecoderIntfcProxy16SetEncodeOptionsEj @ 10 NONAME
	_ZN21CWmaDecoderIntfcProxy16SetNumChannelsInEj @ 11 NONAME
	_ZN21CWmaDecoderIntfcProxy16SetSamplesPerSecEj @ 12 NONAME
	_ZN21CWmaDecoderIntfcProxy17GetAvgBytesPerSecERj @ 13 NONAME
	_ZN21CWmaDecoderIntfcProxy17GetEncodeOptions1ERj @ 14 NONAME
	_ZN21CWmaDecoderIntfcProxy17GetEncodeOptions2ERj @ 15 NONAME
	_ZN21CWmaDecoderIntfcProxy17GetSupportedToolsER6RArrayIN16CWmaDecoderIntfc5TToolEE @ 16 NONAME
	_ZN21CWmaDecoderIntfcProxy17SetAvgBytesPerSecEj @ 17 NONAME
	_ZN21CWmaDecoderIntfcProxy17SetEncodeOptions1Ej @ 18 NONAME
	_ZN21CWmaDecoderIntfcProxy17SetEncodeOptions2Ej @ 19 NONAME
	_ZN21CWmaDecoderIntfcProxy18GetBitsPerSampleInERj @ 20 NONAME
	_ZN21CWmaDecoderIntfcProxy18GetNumOfChannelsInERj @ 21 NONAME
	_ZN21CWmaDecoderIntfcProxy18SetBitsPerSampleInEj @ 22 NONAME
	_ZN21CWmaDecoderIntfcProxy19GetSupportedFormatsER6RArrayIN16CWmaDecoderIntfc7TFormatEE @ 23 NONAME
	_ZN21CWmaDecoderIntfcProxy20GetControllableToolsER6RArrayIN16CWmaDecoderIntfc5TToolEE @ 24 NONAME
	_ZN21CWmaDecoderIntfcProxy22GetSupportedMaxBitrateERj @ 25 NONAME
	_ZN21CWmaDecoderIntfcProxy25GetSupportedMaxChannelsInERj @ 26 NONAME
	_ZN21CWmaDecoderIntfcProxy4NewLE8TPckgBufI22TMMFMessageDestinationER14MCustomCommandP23CCustomInterfaceUtility @ 27 NONAME
	_ZN21CWmaDecoderIntfcProxy7GetToolEN16CWmaDecoderIntfc5TToolERi @ 28 NONAME
	_ZN21CWmaDecoderIntfcProxy9GetFormatERN16CWmaDecoderIntfc7TFormatE @ 29 NONAME
	_ZN21CWmaDecoderIntfcProxy9SetFormatEN16CWmaDecoderIntfc7TFormatE @ 30 NONAME
	_ZN21CWmaDecoderIntfcProxyD0Ev @ 31 NONAME
	_ZN21CWmaDecoderIntfcProxyD1Ev @ 32 NONAME
	_ZN21CWmaDecoderIntfcProxyD2Ev @ 33 NONAME
	_ZTI21CWmaDecoderIntfcProxy @ 34 NONAME ; #<TI>#
	_ZTV21CWmaDecoderIntfcProxy @ 35 NONAME ; #<VT>#

