EXPORTS
	_Z12NewTestSuitev @ 1 NONAME
	_ZTI11CSDDatabase @ 2 NONAME ; #<TI>#
	_ZTI14RTestASRCLNewL @ 3 NONAME ; #<TI>#
	_ZTI14TDummyObserver @ 4 NONAME ; #<TI>#
	_ZTI15RTestASRCLNewLC @ 5 NONAME ; #<TI>#
	_ZTI15RTestASRCLTrain @ 6 NONAME ; #<TI>#
	_ZTI16RTestASRCLCancel @ 7 NONAME ; #<TI>#
	_ZTI17RTestASRCLAddRule @ 8 NONAME ; #<TI>#
	_ZTI18RTestMMF_ASRCLStep @ 9 NONAME ; #<TI>#
	_ZTI19CTestMMF_ASRCLSuite @ 10 NONAME ; #<TI>#
	_ZTI19RTestASRCLRecognize @ 11 NONAME ; #<TI>#
	_ZTI20RTestASRCLRemoveRule @ 12 NONAME ; #<TI>#
	_ZTI20RTestASRCLSDDataRule @ 13 NONAME ; #<TI>#
	_ZTI20RTestASRCLUnloadRule @ 14 NONAME ; #<TI>#
	_ZTI21RTestASRCLLoadGrammar @ 15 NONAME ; #<TI>#
	_ZTI21RTestASRCLLoadLexicon @ 16 NONAME ; #<TI>#
	_ZTI21RTestASRCLRemoveModel @ 17 NONAME ; #<TI>#
	_ZTI21RTestASRCLSDDataModel @ 18 NONAME ; #<TI>#
	_ZTI22RTestASRCLSDDataResult @ 19 NONAME ; #<TI>#
	_ZTI23RTestASRCLCommitChanges @ 20 NONAME ; #<TI>#
	_ZTI23RTestASRCLCreateGrammar @ 21 NONAME ; #<TI>#
	_ZTI23RTestASRCLCreateLexicon @ 22 NONAME ; #<TI>#
	_ZTI23RTestASRCLEndRecSession @ 23 NONAME ; #<TI>#
	_ZTI23RTestASRCLGetAllRuleIDs @ 24 NONAME ; #<TI>#
	_ZTI23RTestASRCLGetModelCount @ 25 NONAME ; #<TI>#
	_ZTI23RTestASRCLLoadModelBank @ 26 NONAME ; #<TI>#
	_ZTI23RTestASRCLNegAsyncCalls @ 27 NONAME ; #<TI>#
	_ZTI23RTestASRCLPlayUtterance @ 28 NONAME ; #<TI>#
	_ZTI23RTestASRCLRemoveGrammar @ 29 NONAME ; #<TI>#
	_ZTI23RTestASRCLRemoveLexicon @ 30 NONAME ; #<TI>#
	_ZTI23RTestASRCLSDDataGrammar @ 31 NONAME ; #<TI>#
	_ZTI23RTestASRCLSDDataLexicon @ 32 NONAME ; #<TI>#
	_ZTI24RTestASRCLGetAllModelIDs @ 33 NONAME ; #<TI>#
	_ZTI24RTestASRCLRecognizeAlloc @ 34 NONAME ; #<TI>#
	_ZTI25RTestASRCLCreateModelBank @ 35 NONAME ; #<TI>#
	_ZTI25RTestASRCLGetRuleValidity @ 36 NONAME ; #<TI>#
	_ZTI25RTestASRCLRecordUtterance @ 37 NONAME ; #<TI>#
	_ZTI25RTestASRCLRemoveModelBank @ 38 NONAME ; #<TI>#
	_ZTI25RTestASRCLSDDataModelBank @ 39 NONAME ; #<TI>#
	_ZTI25RTestASRCLSetEventHandler @ 40 NONAME ; #<TI>#
	_ZTI25RTestASRCLStartRecSession @ 41 NONAME ; #<TI>#
	_ZTI26RTestASRCLAddPronunciation @ 42 NONAME ; #<TI>#
	_ZTI26RTestASRCLGetAllGrammarIDs @ 43 NONAME ; #<TI>#
	_ZTI26RTestASRCLGetAllLexiconIDs @ 44 NONAME ; #<TI>#
	_ZTI26RTestASRCLSDDataGrammarAdd @ 45 NONAME ; #<TI>#
	_ZTI26RTestASRCLSDDataLexiconAdd @ 46 NONAME ; #<TI>#
	_ZTI27RTestASRCLSDDataGrammarFind @ 47 NONAME ; #<TI>#
	_ZTI27RTestASRCLSDDataLexiconFind @ 48 NONAME ; #<TI>#
	_ZTI28RTestASRCLGetAllModelBankIDs @ 49 NONAME ; #<TI>#
	_ZTI28RTestASRCLGetAllRuleIDsAlloc @ 50 NONAME ; #<TI>#
	_ZTI28RTestASRCLSDDataGrammarAlloc @ 51 NONAME ; #<TI>#
	_ZTI28RTestASRCLSDDataLexiconAlloc @ 52 NONAME ; #<TI>#
	_ZTI28RTestASRCLSDDataModelBankAdd @ 53 NONAME ; #<TI>#
	_ZTI28RTestASRCLSDDataResultSetAdd @ 54 NONAME ; #<TI>#
	_ZTI29RTestASRCLGetAllModelIDsAlloc @ 55 NONAME ; #<TI>#
	_ZTI29RTestASRCLGetAvailableStorage @ 56 NONAME ; #<TI>#
	_ZTI29RTestASRCLGetEngineProperties @ 57 NONAME ; #<TI>#
	_ZTI29RTestASRCLRemovePronunciation @ 58 NONAME ; #<TI>#
	_ZTI29RTestASRCLSDDataGrammarDelete @ 59 NONAME ; #<TI>#
	_ZTI29RTestASRCLSDDataModelBankFind @ 60 NONAME ; #<TI>#
	_ZTI29RTestASRCLSDDataPronunciation @ 61 NONAME ; #<TI>#
	_ZTI30RTestASRCLGetUtteranceDuration @ 62 NONAME ; #<TI>#
	_ZTI30RTestASRCLLoadEngineParameters @ 63 NONAME ; #<TI>#
	_ZTI30RTestASRCLSDDataModelBankAlloc @ 64 NONAME ; #<TI>#
	_ZTI30RTestASRCLSDDataResultSetAlloc @ 65 NONAME ; #<TI>#
	_ZTI31RTestASRCLGetAllGrammarIDsAlloc @ 66 NONAME ; #<TI>#
	_ZTI31RTestASRCLGetAllLexiconIDsAlloc @ 67 NONAME ; #<TI>#
	_ZTI32RTestASRCLGetAllClientGrammarIDs @ 68 NONAME ; #<TI>#
	_ZTI32RTestASRCLGetAllClientLexiconIDs @ 69 NONAME ; #<TI>#
	_ZTI32RTestASRCLGetAllPronunciationIDs @ 70 NONAME ; #<TI>#
	_ZTI33RTestASRCLGetAllModelBankIDsAlloc @ 71 NONAME ; #<TI>#
	_ZTI34RTestASRCLGetAllClientModelBankIDs @ 72 NONAME ; #<TI>#
	_ZTI34RTestASRCLGetEnginePropertiesAlloc @ 73 NONAME ; #<TI>#
	_ZTI37RTestASRCLGetAllClientGrammarIDsAlloc @ 74 NONAME ; #<TI>#
	_ZTI37RTestASRCLGetAllClientLexiconIDsAlloc @ 75 NONAME ; #<TI>#
	_ZTI37RTestASRCLGetAllPronunciationIDsAlloc @ 76 NONAME ; #<TI>#
	_ZTI39RTestASRCLGetAllClientModelBankIDsAlloc @ 77 NONAME ; #<TI>#
	_ZTV11CSDDatabase @ 78 NONAME ; #<VT>#
	_ZTV14RTestASRCLNewL @ 79 NONAME ; #<VT>#
	_ZTV14TDummyObserver @ 80 NONAME ; #<VT>#
	_ZTV15RTestASRCLNewLC @ 81 NONAME ; #<VT>#
	_ZTV15RTestASRCLTrain @ 82 NONAME ; #<VT>#
	_ZTV16RTestASRCLCancel @ 83 NONAME ; #<VT>#
	_ZTV17RTestASRCLAddRule @ 84 NONAME ; #<VT>#
	_ZTV18RTestMMF_ASRCLStep @ 85 NONAME ; #<VT>#
	_ZTV19CTestMMF_ASRCLSuite @ 86 NONAME ; #<VT>#
	_ZTV19RTestASRCLRecognize @ 87 NONAME ; #<VT>#
	_ZTV20RTestASRCLRemoveRule @ 88 NONAME ; #<VT>#
	_ZTV20RTestASRCLSDDataRule @ 89 NONAME ; #<VT>#
	_ZTV20RTestASRCLUnloadRule @ 90 NONAME ; #<VT>#
	_ZTV21RTestASRCLLoadGrammar @ 91 NONAME ; #<VT>#
	_ZTV21RTestASRCLLoadLexicon @ 92 NONAME ; #<VT>#
	_ZTV21RTestASRCLRemoveModel @ 93 NONAME ; #<VT>#
	_ZTV21RTestASRCLSDDataModel @ 94 NONAME ; #<VT>#
	_ZTV22RTestASRCLSDDataResult @ 95 NONAME ; #<VT>#
	_ZTV23RTestASRCLCommitChanges @ 96 NONAME ; #<VT>#
	_ZTV23RTestASRCLCreateGrammar @ 97 NONAME ; #<VT>#
	_ZTV23RTestASRCLCreateLexicon @ 98 NONAME ; #<VT>#
	_ZTV23RTestASRCLEndRecSession @ 99 NONAME ; #<VT>#
	_ZTV23RTestASRCLGetAllRuleIDs @ 100 NONAME ; #<VT>#
	_ZTV23RTestASRCLGetModelCount @ 101 NONAME ; #<VT>#
	_ZTV23RTestASRCLLoadModelBank @ 102 NONAME ; #<VT>#
	_ZTV23RTestASRCLNegAsyncCalls @ 103 NONAME ; #<VT>#
	_ZTV23RTestASRCLPlayUtterance @ 104 NONAME ; #<VT>#
	_ZTV23RTestASRCLRemoveGrammar @ 105 NONAME ; #<VT>#
	_ZTV23RTestASRCLRemoveLexicon @ 106 NONAME ; #<VT>#
	_ZTV23RTestASRCLSDDataGrammar @ 107 NONAME ; #<VT>#
	_ZTV23RTestASRCLSDDataLexicon @ 108 NONAME ; #<VT>#
	_ZTV24RTestASRCLGetAllModelIDs @ 109 NONAME ; #<VT>#
	_ZTV24RTestASRCLRecognizeAlloc @ 110 NONAME ; #<VT>#
	_ZTV25RTestASRCLCreateModelBank @ 111 NONAME ; #<VT>#
	_ZTV25RTestASRCLGetRuleValidity @ 112 NONAME ; #<VT>#
	_ZTV25RTestASRCLRecordUtterance @ 113 NONAME ; #<VT>#
	_ZTV25RTestASRCLRemoveModelBank @ 114 NONAME ; #<VT>#
	_ZTV25RTestASRCLSDDataModelBank @ 115 NONAME ; #<VT>#
	_ZTV25RTestASRCLSetEventHandler @ 116 NONAME ; #<VT>#
	_ZTV25RTestASRCLStartRecSession @ 117 NONAME ; #<VT>#
	_ZTV26RTestASRCLAddPronunciation @ 118 NONAME ; #<VT>#
	_ZTV26RTestASRCLGetAllGrammarIDs @ 119 NONAME ; #<VT>#
	_ZTV26RTestASRCLGetAllLexiconIDs @ 120 NONAME ; #<VT>#
	_ZTV26RTestASRCLSDDataGrammarAdd @ 121 NONAME ; #<VT>#
	_ZTV26RTestASRCLSDDataLexiconAdd @ 122 NONAME ; #<VT>#
	_ZTV27RTestASRCLSDDataGrammarFind @ 123 NONAME ; #<VT>#
	_ZTV27RTestASRCLSDDataLexiconFind @ 124 NONAME ; #<VT>#
	_ZTV28RTestASRCLGetAllModelBankIDs @ 125 NONAME ; #<VT>#
	_ZTV28RTestASRCLGetAllRuleIDsAlloc @ 126 NONAME ; #<VT>#
	_ZTV28RTestASRCLSDDataGrammarAlloc @ 127 NONAME ; #<VT>#
	_ZTV28RTestASRCLSDDataLexiconAlloc @ 128 NONAME ; #<VT>#
	_ZTV28RTestASRCLSDDataModelBankAdd @ 129 NONAME ; #<VT>#
	_ZTV28RTestASRCLSDDataResultSetAdd @ 130 NONAME ; #<VT>#
	_ZTV29RTestASRCLGetAllModelIDsAlloc @ 131 NONAME ; #<VT>#
	_ZTV29RTestASRCLGetAvailableStorage @ 132 NONAME ; #<VT>#
	_ZTV29RTestASRCLGetEngineProperties @ 133 NONAME ; #<VT>#
	_ZTV29RTestASRCLRemovePronunciation @ 134 NONAME ; #<VT>#
	_ZTV29RTestASRCLSDDataGrammarDelete @ 135 NONAME ; #<VT>#
	_ZTV29RTestASRCLSDDataModelBankFind @ 136 NONAME ; #<VT>#
	_ZTV29RTestASRCLSDDataPronunciation @ 137 NONAME ; #<VT>#
	_ZTV30RTestASRCLGetUtteranceDuration @ 138 NONAME ; #<VT>#
	_ZTV30RTestASRCLLoadEngineParameters @ 139 NONAME ; #<VT>#
	_ZTV30RTestASRCLSDDataModelBankAlloc @ 140 NONAME ; #<VT>#
	_ZTV30RTestASRCLSDDataResultSetAlloc @ 141 NONAME ; #<VT>#
	_ZTV31RTestASRCLGetAllGrammarIDsAlloc @ 142 NONAME ; #<VT>#
	_ZTV31RTestASRCLGetAllLexiconIDsAlloc @ 143 NONAME ; #<VT>#
	_ZTV32RTestASRCLGetAllClientGrammarIDs @ 144 NONAME ; #<VT>#
	_ZTV32RTestASRCLGetAllClientLexiconIDs @ 145 NONAME ; #<VT>#
	_ZTV32RTestASRCLGetAllPronunciationIDs @ 146 NONAME ; #<VT>#
	_ZTV33RTestASRCLGetAllModelBankIDsAlloc @ 147 NONAME ; #<VT>#
	_ZTV34RTestASRCLGetAllClientModelBankIDs @ 148 NONAME ; #<VT>#
	_ZTV34RTestASRCLGetEnginePropertiesAlloc @ 149 NONAME ; #<VT>#
	_ZTV37RTestASRCLGetAllClientGrammarIDsAlloc @ 150 NONAME ; #<VT>#
	_ZTV37RTestASRCLGetAllClientLexiconIDsAlloc @ 151 NONAME ; #<VT>#
	_ZTV37RTestASRCLGetAllPronunciationIDsAlloc @ 152 NONAME ; #<VT>#
	_ZTV39RTestASRCLGetAllClientModelBankIDsAlloc @ 153 NONAME ; #<VT>#

