EXPORTS
	?NewServer@@YAHXZ @ 1 NONAME ; int __cdecl NewServer(void)
	??0CSARStore@@IAE@AAVRFs@@@Z @ 2 NONAME ; protected: __thiscall CSARStore::CSARStore(class RFs &)
	??0TGsmSmsSlotEntry@@QAE@XZ @ 3 NONAME ; public: __thiscall TGsmSmsSlotEntry::TGsmSmsSlotEntry(void)	
	??0TSAREntry@@QAE@XZ @ 4 NONAME ; public: __thiscall TSAREntry::TSAREntry(void)
	??0TSmsBufferReassembler@@QAE@AAVCSmsAlphabetConverter@@AAVCSmsBufferBase@@@Z @ 5 NONAME ; public: __thiscall TSmsBufferReassembler::TSmsBufferReassembler(class CSmsAlphabetConverter &,class CSmsBufferBase &)
	??0TSmsUserDataSettings@@QAE@XZ @ 6 NONAME ; public: __thiscall TSmsUserDataSettings::TSmsUserDataSettings(void)
	??1CEmsAnimationIE@@UAE@XZ @ 7 NONAME ; public: virtual __thiscall CEmsAnimationIE::~CEmsAnimationIE(void)
	??1CEmsPictureIE@@UAE@XZ @ 8 NONAME ; public: virtual __thiscall CEmsPictureIE::~CEmsPictureIE(void)
	??1CEmsSoundIE@@UAE@XZ @ 9 NONAME ; public: virtual __thiscall CEmsSoundIE::~CEmsSoundIE(void)
	??1CSARStore@@MAE@XZ @ 10 NONAME ; protected: virtual __thiscall CSARStore::~CSARStore(void)
	??1CSmsAlphabetConverter@@UAE@XZ @ 11 NONAME ; public: virtual __thiscall CSmsAlphabetConverter::~CSmsAlphabetConverter(void)
	??1CSmsBuffer@@UAE@XZ @ 12 NONAME ; public: virtual __thiscall CSmsBuffer::~CSmsBuffer(void)
	??1CSmsBufferSegmenter@@UAE@XZ @ 13 NONAME ; public: virtual __thiscall CSmsBufferSegmenter::~CSmsBufferSegmenter(void)
	??1CSmsEditorBuffer@@UAE@XZ @ 14 NONAME ; public: virtual __thiscall CSmsEditorBuffer::~CSmsEditorBuffer(void)
	??1CSmsMessage@@UAE@XZ @ 15 NONAME ; public: virtual __thiscall CSmsMessage::~CSmsMessage(void)
	?AddEMSInformationElementL@CSmsMessage@@QAEXABVCEmsInformationElement@@@Z @ 16 NONAME ; public: void __thiscall CSmsMessage::AddEMSInformationElementL(class CEmsInformationElement const &)
	?AddEmailHeaderL@CSmsMessage@@QAEXABVTDesC16@@0@Z @ 17 NONAME ; public: void __thiscall CSmsMessage::AddEmailHeaderL(class TDesC16 const &,class TDesC16 const &)
	?AddEntryL@CSARStore@@IAEXABVTSAREntry@@@Z @ 18 NONAME ; protected: void __thiscall CSARStore::AddEntryL(class TSAREntry const &)
	?AddInformationElementL@CSmsCommand@@QAEXW4TSmsInformationElementIdentifier@CSmsInformationElement@@AAVTDesC8@@@Z @ 19 NONAME ; public: void __thiscall CSmsCommand::AddInformationElementL(enum CSmsInformationElement::TSmsInformationElementIdentifier,class TDesC8 &)
	?AddInformationElementL@CSmsUserData@@QAEXW4TSmsInformationElementIdentifier@CSmsInformationElement@@ABVTDesC8@@@Z @ 20 NONAME ; public: void __thiscall CSmsUserData::AddInformationElementL(enum CSmsInformationElement::TSmsInformationElementIdentifier,class TDesC8 const &)
	?AddSlotL@CSmsMessage@@QAEXABVTGsmSmsSlotEntry@@@Z @ 21 NONAME ; public: void __thiscall CSmsMessage::AddSlotL(class TGsmSmsSlotEntry const &)
	?Alignment@CEmsFormatIE@@QBE?AW4TAlignment@1@XZ @ 22 NONAME ; public: enum CEmsFormatIE::TAlignment  __thiscall CEmsFormatIE::Alignment(void)const 
	?Alphabet@CSmsPDU@@QBE?AW4TSmsAlphabet@TSmsDataCodingScheme@@XZ @ 23 NONAME ; public: enum TSmsDataCodingScheme::TSmsAlphabet  __thiscall CSmsPDU::Alphabet(void)const 
	?Animation@CEmsPreDefAnimationIE@@QBE?AW4TAnimType@1@XZ @ 24 NONAME ; public: enum CEmsPreDefAnimationIE::TAnimType  __thiscall CEmsPreDefAnimationIE::Animation(void)const 
	?ApplicationPortAddressing@CSmsPDU@@QBEHAAH0PAH@Z @ 25 NONAME ; public: int __thiscall CSmsPDU::ApplicationPortAddressing(int &,int &,int *)const 
	?BeginTransactionLC@CSARStore@@QAEXXZ @ 26 NONAME ; public: void __thiscall CSARStore::BeginTransactionLC(void)
	?Bits7To4@CSmsPDU@@QBE?AW4TSmsDCSBits7To4@TSmsDataCodingScheme@@XZ @ 27 NONAME ; public: enum TSmsDataCodingScheme::TSmsDCSBits7To4  __thiscall CSmsPDU::Bits7To4(void)const 
	?Body@CSmsUserData@@QBE?AVTPtrC8@@XZ @ 28 NONAME ; public: class TPtrC8  __thiscall CSmsUserData::Body(void)const 
	?Bold@CEmsFormatIE@@QBEHXZ @ 29 NONAME ; public: int __thiscall CEmsFormatIE::Bold(void)const 
	?ChangeEntryL@CSARStore@@IAEXHABVTSAREntry@@@Z @ 30 NONAME ; protected: void __thiscall CSARStore::ChangeEntryL(int,class TSAREntry const &)
	?Class@CSmsPDU@@QBEHAAW4TSmsClass@TSmsDataCodingScheme@@@Z @ 31 NONAME ; public: int __thiscall CSmsPDU::Class(enum TSmsDataCodingScheme::TSmsClass &)const 
	?Close@CSARStore@@QAEXXZ @ 32 NONAME ; public: void __thiscall CSARStore::Close(void)
	?CommandData@CSmsCommand@@QBE?AVTPtrC8@@XZ @ 33 NONAME ; public: class TPtrC8  __thiscall CSmsCommand::CommandData(void)const 
	?CommandType@CSmsCommand@@QBEHXZ @ 34 NONAME ; public: int __thiscall CSmsCommand::CommandType(void)const 
	?CommitTransactionL@CSARStore@@QAEXXZ @ 35 NONAME ; public: void __thiscall CSARStore::CommitTransactionL(void)
	?CompactL@CSARStore@@QAEXXZ @ 36 NONAME ; public: void __thiscall CSARStore::CompactL(void)
	?ConcatenatedMessagePDUIndex@CSmsPDU@@QBEHXZ @ 37 NONAME ; public: int __thiscall CSmsPDU::ConcatenatedMessagePDUIndex(void)const 
	?ConcatenatedMessageReference@CSmsPDU@@QBEHXZ @ 38 NONAME ; public: int __thiscall CSmsPDU::ConcatenatedMessageReference(void)const 
	?ConvertFromNativeL@CSmsAlphabetConverter@@QAE?AVTPtrC8@@ABVTDesC16@@@Z @ 39 NONAME ; public: class TPtrC8  __thiscall CSmsAlphabetConverter::ConvertFromNativeL(class TDesC16 const &)
	?ConvertToETelMM@TGsmSmsTypeOfAddress@@QBEXAAW4TMobileTON@NMobilePhone@@AAW4TMobileNPI@3@@Z @ 40 NONAME ; public: void __thiscall TGsmSmsTypeOfAddress::ConvertToETelMM(enum NMobilePhone::TMobileTON &,enum NMobilePhone::TMobileNPI &)const 
	?ConvertToNativeL@CSmsAlphabetConverter@@QAE?AVTPtrC16@@ABVTDesC8@@@Z @ 41 NONAME ; public: class TPtrC16  __thiscall CSmsAlphabetConverter::ConvertToNativeL(class TDesC8 const &)
	?CopyEmsElementsL@CSmsMessage@@QBEXAAV1@@Z @ 42 NONAME ; public: void __thiscall CSmsMessage::CopyEmsElementsL(class CSmsMessage &)const 
	?CopyL@CEmsAnimationIE@@QAEXABV1@@Z @ 43 NONAME ; public: void __thiscall CEmsAnimationIE::CopyL(class CEmsAnimationIE const &)
	?CopyL@CEmsFormatIE@@QAEXABV1@@Z @ 44 NONAME ; public: void __thiscall CEmsFormatIE::CopyL(class CEmsFormatIE const &)
	?CopyL@CEmsObjectDistribution@@QAEXABV1@@Z @ 45 NONAME ; public: void __thiscall CEmsObjectDistribution::CopyL(class CEmsObjectDistribution const &)
	?CopyL@CEmsPictureIE@@QAEXABV1@@Z @ 46 NONAME ; public: void __thiscall CEmsPictureIE::CopyL(class CEmsPictureIE const &)
	?CopyL@CEmsPreDefAnimationIE@@QAEXABV1@@Z @ 47 NONAME ; public: void __thiscall CEmsPreDefAnimationIE::CopyL(class CEmsPreDefAnimationIE const &)
	?CopyL@CEmsPreDefSoundIE@@QAEXABV1@@Z @ 48 NONAME ; public: void __thiscall CEmsPreDefSoundIE::CopyL(class CEmsPreDefSoundIE const &)
	?CopyL@CEmsSoundIE@@QAEXABV1@@Z @ 49 NONAME ; public: void __thiscall CEmsSoundIE::CopyL(class CEmsSoundIE const &)
	?CopyL@CEmsUserPrompt@@QAEXABV1@@Z @ 50 NONAME ; public: void __thiscall CEmsUserPrompt::CopyL(class CEmsUserPrompt const &)
	?Data@CSmsInformationElement@@QAE?AVTPtr8@@XZ @ 51 NONAME ; public: class TPtr8  __thiscall CSmsInformationElement::Data(void)
	?Data@CSmsInformationElement@@QBEABVTDesC8@@XZ @ 52 NONAME ; public: class TDesC8 const & __thiscall CSmsInformationElement::Data(void)const 
	?DataCodingSchemePresent@CSmsPDU@@QBEHXZ @ 53 NONAME ; public: int __thiscall CSmsPDU::DataCodingSchemePresent(void)const 
	?DecodeMessagePDUsL@CSmsMessage@@QAEXABV?$CArrayFix@VTGsmSms@@@@@Z @ 54 NONAME ; public: void __thiscall CSmsMessage::DecodeMessagePDUsL(class CArrayFix<class TGsmSms> const &)
	?DeleteEntryL@CSARStore@@QAEXH@Z @ 55 NONAME ; public: void __thiscall CSARStore::DeleteEntryL(int)
	?DeleteL@CSmsBuffer@@UAEXHH@Z @ 56 NONAME ; public: virtual void __thiscall CSmsBuffer::DeleteL(int,int)
	?DeleteL@CSmsEditorBuffer@@UAEXHH@Z @ 57 NONAME ; public: virtual void __thiscall CSmsEditorBuffer::DeleteL(int,int)
	?DischargeTime@CSmsStatusReport@@QAEXAAVTTime@@AAH@Z @ 58 NONAME ; public: void __thiscall CSmsStatusReport::DischargeTime(class TTime &,int &)
	?DoOpenL@CSARStore@@QAEXXZ @ 59 NONAME ; public: void __thiscall CSARStore::DoOpenL(void)
	?DuplicateL@CEmsAnimationIE@@UBEPAVCEmsInformationElement@@XZ @ 60 NONAME ; public: virtual class CEmsInformationElement * __thiscall CEmsAnimationIE::DuplicateL(void)const 
	?DuplicateL@CEmsFormatIE@@UBEPAVCEmsInformationElement@@XZ @ 61 NONAME ; public: virtual class CEmsInformationElement * __thiscall CEmsFormatIE::DuplicateL(void)const 
	?DuplicateL@CEmsObjectDistribution@@UBEPAVCEmsInformationElement@@XZ @ 62 NONAME ; public: virtual class CEmsInformationElement * __thiscall CEmsObjectDistribution::DuplicateL(void)const 
	?DuplicateL@CEmsPictureIE@@UBEPAVCEmsInformationElement@@XZ @ 63 NONAME ; public: virtual class CEmsInformationElement * __thiscall CEmsPictureIE::DuplicateL(void)const 
	?DuplicateL@CEmsPreDefAnimationIE@@UBEPAVCEmsInformationElement@@XZ @ 64 NONAME ; public: virtual class CEmsInformationElement * __thiscall CEmsPreDefAnimationIE::DuplicateL(void)const 
	?DuplicateL@CEmsPreDefSoundIE@@UBEPAVCEmsInformationElement@@XZ @ 65 NONAME ; public: virtual class CEmsInformationElement * __thiscall CEmsPreDefSoundIE::DuplicateL(void)const 
	?DuplicateL@CEmsSoundIE@@UBEPAVCEmsInformationElement@@XZ @ 66 NONAME ; public: virtual class CEmsInformationElement * __thiscall CEmsSoundIE::DuplicateL(void)const 
	?DuplicateL@CEmsUserPrompt@@UBEPAVCEmsInformationElement@@XZ @ 67 NONAME ; public: virtual class CEmsInformationElement * __thiscall CEmsUserPrompt::DuplicateL(void)const 
	?EncodeInformationElementL@CEmsInformationElement@@QAEXXZ @ 68 NONAME ; public: void __thiscall CEmsInformationElement::EncodeInformationElementL(void)
	?EncodeIntoSinglePDUL@CSmsMessage@@QAEHAAV?$CArrayFix@VTGsmSms@@@@@Z @ 69 NONAME ; public: int __thiscall CSmsMessage::EncodeIntoSinglePDUL(class CArrayFix<class TGsmSms> &)
	?EncodeMessagePDUL@CSmsPDU@@QBEXAAVTGsmSms@@@Z @ 70 NONAME ; public: void __thiscall CSmsPDU::EncodeMessagePDUL(class TGsmSms &)const 
	?EncodeMessagePDUsL@CSmsMessage@@QAEXAAV?$CArrayFix@VTGsmSms@@@@H@Z @ 71 NONAME ; public: void __thiscall CSmsMessage::EncodeMessagePDUsL(class CArrayFix<class TGsmSms> &,int)
	?Entries@CSARStore@@QBEABV?$CArrayFix@VTSAREntry@@@@XZ @ 72 NONAME ; public: class CArrayFix<class TSAREntry> const & __thiscall CSARStore::Entries(void)const 
	?ExternalizeL@CSmsBufferBase@@QBEXAAVRWriteStream@@@Z @ 73 NONAME ; public: void __thiscall CSmsBufferBase::ExternalizeL(class RWriteStream &)const 
	?ExternalizeL@CSmsMessage@@QBEXAAVRWriteStream@@@Z @ 74 NONAME ; public: void __thiscall CSmsMessage::ExternalizeL(class RWriteStream &)const 
	?ExternalizeL@CSmsPDU@@QBEXAAVRWriteStream@@@Z @ 75 NONAME ; public: void __thiscall CSmsPDU::ExternalizeL(class RWriteStream &)const 
	?ExternalizeL@TSAREntry@@QBEXAAVRWriteStream@@@Z @ 76 NONAME ; public: void __thiscall TSAREntry::ExternalizeL(class RWriteStream &)const 
	?ExternalizeL@TSmsUserDataSettings@@QBEXAAVRWriteStream@@@Z @ 77 NONAME ; public: void __thiscall TSmsUserDataSettings::ExternalizeL(class RWriteStream &)const 
	?ExternalizeWithoutBufferL@CSmsMessage@@QBEXAAVRWriteStream@@@Z @ 78 NONAME ; public: void __thiscall CSmsMessage::ExternalizeWithoutBufferL(class RWriteStream &)const 
	?ExtraStreamId@CSARStore@@IBE?AVTStreamId@@XZ @ 79 NONAME ; protected: class TStreamId  __thiscall CSARStore::ExtraStreamId(void)const 
	?Extract@CSmsBuffer@@UBEXAAVTDes16@@HH@Z @ 80 NONAME ; public: virtual void __thiscall CSmsBuffer::Extract(class TDes16 &,int,int)const 
	?Extract@CSmsEditorBuffer@@UBEXAAVTDes16@@HH@Z @ 81 NONAME ; public: virtual void __thiscall CSmsEditorBuffer::Extract(class TDes16 &,int,int)const 
	?FailureCause@CSmsDeliverReport@@QBEHXZ @ 82 NONAME ; public: int __thiscall CSmsDeliverReport::FailureCause(void)const 
	?FailureCause@CSmsSubmitReport@@QBEHXZ @ 83 NONAME ; public: int __thiscall CSmsSubmitReport::FailureCause(void)const 
	?FileStore@CSARStore@@IAEAAVCFileStore@@XZ @ 84 NONAME ; protected: class CFileStore & __thiscall CSARStore::FileStore(void)
	?FileStore@CSARStore@@IBEABVCFileStore@@XZ @ 85 NONAME ; protected: class CFileStore const & __thiscall CSARStore::FileStore(void)const 
	?FontSize@CEmsFormatIE@@QBE?AW4TFontSize@1@XZ @ 86 NONAME ; public: enum CEmsFormatIE::TFontSize  __thiscall CEmsFormatIE::FontSize(void)const 
	?FormatLength@CEmsFormatIE@@QBEIXZ @ 87 NONAME ; public: unsigned int __thiscall CEmsFormatIE::FormatLength(void)const 
	?Forwarding@CEmsObjectDistribution@@QBE?AW4TAttrs@1@XZ @ 88 NONAME ; public: enum CEmsObjectDistribution::TAttrs  __thiscall CEmsObjectDistribution::Forwarding(void)const 
	?GetBitmapL@CEmsAnimationIE@@QBEPAVCFbsBitmap@@XZ @ 89 NONAME ; public: class CFbsBitmap * __thiscall CEmsAnimationIE::GetBitmapL(void)const 
	?GetBitmapL@CEmsPictureIE@@QBEPAVCFbsBitmap@@XZ @ 90 NONAME ; public: class CFbsBitmap * __thiscall CEmsPictureIE::GetBitmapL(void)const 
	?GetEMSInformationElementsL@CSmsMessage@@QBEABV?$RPointerArray@$$CBVCEmsInformationElement@@@@XZ @ 91 NONAME ; public: class RPointerArray<class CEmsInformationElement const > const & __thiscall CSmsMessage::GetEMSInformationElementsL(void)const 
	?GetEmailHeaderL@CSmsMessage@@QAEHPAPAVHBufC16@@0@Z @ 92 NONAME ; public: int __thiscall CSmsMessage::GetEmailHeaderL(class HBufC16 * *,class HBufC16 * *)
	?Identifier@CSmsInformationElement@@QBE?AW4TSmsInformationElementIdentifier@1@XZ @ 93 NONAME ; public: enum CSmsInformationElement::TSmsInformationElementIdentifier  __thiscall CSmsInformationElement::Identifier(void)const 
	?IndicationState@CSmsPDU@@QBE?AW4TSmsIndicationState@TSmsDataCodingScheme@@XZ @ 94 NONAME ; public: enum TSmsDataCodingScheme::TSmsIndicationState  __thiscall CSmsPDU::IndicationState(void)const 
	?IndicationType@CSmsPDU@@QBE?AW4TSmsIndicationType@TSmsDataCodingScheme@@XZ @ 95 NONAME ; public: enum TSmsDataCodingScheme::TSmsIndicationType  __thiscall CSmsPDU::IndicationType(void)const 
	?InformationElement@CSmsCommand@@QBEAAVCSmsInformationElement@@H@Z @ 96 NONAME ; public: class CSmsInformationElement & __thiscall CSmsCommand::InformationElement(int)const 
	?InformationElement@CSmsUserData@@QBEAAVCSmsInformationElement@@H@Z @ 97 NONAME ; public: class CSmsInformationElement & __thiscall CSmsUserData::InformationElement(int)const 
	?InformationElementIndex@CSmsCommand@@QBEHW4TSmsInformationElementIdentifier@CSmsInformationElement@@AAH@Z @ 98 NONAME ; public: int __thiscall CSmsCommand::InformationElementIndex(enum CSmsInformationElement::TSmsInformationElementIdentifier,int &)const 
	?InformationElementIndex@CSmsUserData@@QBEHW4TSmsInformationElementIdentifier@CSmsInformationElement@@AAH@Z @ 99 NONAME ; public: int __thiscall CSmsUserData::InformationElementIndex(enum CSmsInformationElement::TSmsInformationElementIdentifier,int &)const 
	?InsertL@CSmsBuffer@@UAEXHABVTDesC16@@@Z @ 100 NONAME ; public: virtual void __thiscall CSmsBuffer::InsertL(int,class TDesC16 const &)
	?InsertL@CSmsEditorBuffer@@UAEXHABVTDesC16@@@Z @ 101 NONAME ; public: virtual void __thiscall CSmsEditorBuffer::InsertL(int,class TDesC16 const &)
	?InternalizeL@CSmsBufferBase@@QAEXAAVRReadStream@@@Z @ 102 NONAME ; public: void __thiscall CSmsBufferBase::InternalizeL(class RReadStream &)
	?InternalizeL@CSmsMessage@@QAEXAAVRReadStream@@@Z @ 103 NONAME ; public: void __thiscall CSmsMessage::InternalizeL(class RReadStream &)
	?InternalizeL@TSAREntry@@QAEXAAVRReadStream@@@Z @ 104 NONAME ; public: void __thiscall TSAREntry::InternalizeL(class RReadStream &)
	?InternalizeL@TSmsUserDataSettings@@QAEXAAVRReadStream@@@Z @ 105 NONAME ; public: void __thiscall TSmsUserDataSettings::InternalizeL(class RReadStream &)
	?InternalizeWithoutBufferL@CSmsMessage@@QAEXAAVRReadStream@@@Z @ 106 NONAME ; public: void __thiscall CSmsMessage::InternalizeWithoutBufferL(class RReadStream &)
	?IsEmailHeader@CSmsMessage@@QBEHXZ @ 107 NONAME ; public: int __thiscall CSmsMessage::IsEmailHeader(void)const 
	?IsSupportedL@CSmsMessage@@QAEHABVTDesC16@@AAH1@Z @ 108 NONAME ; public: int __thiscall CSmsMessage::IsSupportedL(class TDesC16 const &,int &,int &)
	?IsSupportedL@CSmsUserData@@QAEHVTChar@@@Z @ 109 NONAME ; public: int __thiscall CSmsUserData::IsSupportedL(class TChar)
	?Italic@CEmsFormatIE@@QBEHXZ @ 110 NONAME ; public: int __thiscall CEmsFormatIE::Italic(void)const 
	?Length@CEmsInformationElement@@QBEHXZ @ 111 NONAME ; public: int __thiscall CEmsInformationElement::Length(void)const 
	?Length@CSmsBuffer@@UBEHXZ @ 112 NONAME ; public: virtual int __thiscall CSmsBuffer::Length(void)const 
	?Length@CSmsEditorBuffer@@UBEHXZ @ 113 NONAME ; public: virtual int __thiscall CSmsEditorBuffer::Length(void)const 
	?MatchSlots@CSmsMessage@@QAEHABV?$CArrayFixFlat@VTGsmSmsSlotEntry@@@@@Z @ 114 NONAME ; public: int __thiscall CSmsMessage::MatchSlots(class CArrayFixFlat<class TGsmSmsSlotEntry> const &)
	?MaxBodyLengthInChars@CSmsUserData@@QBEHXZ @ 115 NONAME ; public: int __thiscall CSmsUserData::MaxBodyLengthInChars(void)const 
	?MaxCommandDataLength@CSmsCommand@@QBEHXZ @ 116 NONAME ; public: int __thiscall CSmsCommand::MaxCommandDataLength(void)const 
	?MaxMessageLength@CSmsMessage@@QBEHXZ @ 117 NONAME ; public: int __thiscall CSmsMessage::MaxMessageLength(void)const 
	?Melody@CEmsSoundIE@@QBEPBVHBufC8@@XZ @ 118 NONAME ; public: class HBufC8 const * __thiscall CEmsSoundIE::Melody(void)const 
	?MessageLengthL@CSmsMessage@@QAEHXZ @ 119 NONAME ; public: int __thiscall CSmsMessage::MessageLengthL(void)
	?MessageNumber@CSmsCommand@@QBEHXZ @ 120 NONAME ; public: int __thiscall CSmsCommand::MessageNumber(void)const 
	?MessageReference@CSmsCommand@@QBEHXZ @ 121 NONAME ; public: int __thiscall CSmsCommand::MessageReference(void)const 
	?MessageReference@CSmsStatusReport@@QBEHXZ @ 122 NONAME ; public: int __thiscall CSmsStatusReport::MessageReference(void)const 
	?MessageReference@CSmsSubmit@@QBEHXZ @ 123 NONAME ; public: int __thiscall CSmsSubmit::MessageReference(void)const 
	?MoreMessagesToSend@CSmsDeliver@@QBEHXZ @ 124 NONAME ; public: int __thiscall CSmsDeliver::MoreMessagesToSend(void)const 
	?MoreMessagesToSend@CSmsStatusReport@@QBEHXZ @ 125 NONAME ; public: int __thiscall CSmsStatusReport::MoreMessagesToSend(void)const 
	?NewL@CEmsAnimationIE@@SAPAV1@ABVCFbsBitmap@@@Z @ 126 NONAME ; public: static class CEmsAnimationIE * __cdecl CEmsAnimationIE::NewL(class CFbsBitmap const &)
	?NewL@CEmsFormatIE@@SAPAV1@XZ @ 127 NONAME ; public: static class CEmsFormatIE * __cdecl CEmsFormatIE::NewL(void)
	?NewL@CEmsObjectDistribution@@SAPAV1@IW4TAttrs@1@@Z @ 128 NONAME ; public: static class CEmsObjectDistribution * __cdecl CEmsObjectDistribution::NewL(unsigned int,enum CEmsObjectDistribution::TAttrs)
	?NewL@CEmsPictureIE@@SAPAV1@ABVCFbsBitmap@@@Z @ 129 NONAME ; public: static class CEmsPictureIE * __cdecl CEmsPictureIE::NewL(class CFbsBitmap const &)
	?NewL@CEmsPreDefAnimationIE@@SAPAV1@W4TAnimType@1@@Z @ 130 NONAME ; public: static class CEmsPreDefAnimationIE * __cdecl CEmsPreDefAnimationIE::NewL(enum CEmsPreDefAnimationIE::TAnimType)
	?NewL@CEmsPreDefSoundIE@@SAPAV1@W4TPredefinedSound@1@@Z @ 131 NONAME ; public: static class CEmsPreDefSoundIE * __cdecl CEmsPreDefSoundIE::NewL(enum CEmsPreDefSoundIE::TPredefinedSound)
	?NewL@CEmsSoundIE@@SAPAV1@ABVTDesC8@@@Z @ 132 NONAME ; public: static class CEmsSoundIE * __cdecl CEmsSoundIE::NewL(class TDesC8 const &)
	?NewL@CEmsUserPrompt@@SAPAV1@I@Z @ 133 NONAME ; public: static class CEmsUserPrompt * __cdecl CEmsUserPrompt::NewL(unsigned int)
	?NewL@CSmsBuffer@@SAPAV1@XZ @ 134 NONAME ; public: static class CSmsBuffer * __cdecl CSmsBuffer::NewL(void)
	?NewL@CSmsEditorBuffer@@SAPAV1@AAVCEditableText@@@Z @ 135 NONAME ; public: static class CSmsEditorBuffer * __cdecl CSmsEditorBuffer::NewL(class CEditableText &)
	?NewL@CSmsMessage@@SAPAV1@AAVRFs@@ABVTGsmSms@@PAVCSmsBufferBase@@HH@Z @ 136 NONAME ; public: static class CSmsMessage * __cdecl CSmsMessage::NewL(class RFs &,class TGsmSms const &,class CSmsBufferBase *,int,int)
	?NewL@CSmsMessage@@SAPAV1@AAVRFs@@W4TSmsPDUType@CSmsPDU@@PAVCSmsBufferBase@@H@Z @ 137 NONAME ; public: static class CSmsMessage * __cdecl CSmsMessage::NewL(class RFs &,enum CSmsPDU::TSmsPDUType,class CSmsBufferBase *,int)
	?NewL@CSmsPDU@@SAPAV1@AAVRReadStream@@AAVCCnvCharacterSetConverter@@AAVRFs@@@Z @ 138 NONAME ; public: static class CSmsPDU * __cdecl CSmsPDU::NewL(class RReadStream &,class CCnvCharacterSetConverter &,class RFs &)
	?NewL@CSmsPDU@@SAPAV1@ABVTGsmSms@@AAVCCnvCharacterSetConverter@@AAVRFs@@HH@Z @ 139 NONAME ; public: static class CSmsPDU * __cdecl CSmsPDU::NewL(class TGsmSms const &,class CCnvCharacterSetConverter &,class RFs &,int,int)
	?NewL@CSmsPDU@@SAPAV1@W4TSmsPDUType@1@AAVCCnvCharacterSetConverter@@AAVRFs@@H@Z @ 140 NONAME ; public: static class CSmsPDU * __cdecl CSmsPDU::NewL(enum CSmsPDU::TSmsPDUType,class CCnvCharacterSetConverter &,class RFs &,int)
	?NewLC@CSmsAlphabetConverter@@SAPAV1@AAVCCnvCharacterSetConverter@@AAVRFs@@W4TSmsAlphabet@TSmsDataCodingScheme@@H@Z @ 141 NONAME ; public: static class CSmsAlphabetConverter * __cdecl CSmsAlphabetConverter::NewLC(class CCnvCharacterSetConverter &,class RFs &,enum TSmsDataCodingScheme::TSmsAlphabet,int)
	?NewLC@CSmsBufferSegmenter@@SAPAV1@AAVCSmsAlphabetConverter@@ABVCSmsBufferBase@@H@Z @ 142 NONAME ; public: static class CSmsBufferSegmenter * __cdecl CSmsBufferSegmenter::NewLC(class CSmsAlphabetConverter &,class CSmsBufferBase const &,int)
	?NewLC@CSmsEMSBufferSegmenter@@SAPAV1@AAVCSmsAlphabetConverter@@ABVCSmsBufferBase@@H@Z @ 143 NONAME ; public: static class CSmsEMSBufferSegmenter * __cdecl CSmsEMSBufferSegmenter::NewLC(class CSmsAlphabetConverter &,class CSmsBufferBase const &,int)
	?NumConcatenatedMessagePDUs@CSmsPDU@@QBEHXZ @ 144 NONAME ; public: int __thiscall CSmsPDU::NumConcatenatedMessagePDUs(void)const 
	?NumInformationElements@CSmsCommand@@QBEHXZ @ 145 NONAME ; public: int __thiscall CSmsCommand::NumInformationElements(void)const 
	?NumMessagePDUsL@CSmsMessage@@QAEHXZ @ 146 NONAME ; public: int __thiscall CSmsMessage::NumMessagePDUsL(void)
	?ObjectCount@CEmsObjectDistribution@@QBEIXZ @ 147 NONAME ; public: unsigned int __thiscall CEmsObjectDistribution::ObjectCount(void)const 
	?ObjectCount@CEmsUserPrompt@@QBEIXZ @ 148 NONAME ; public: unsigned int __thiscall CEmsUserPrompt::ObjectCount(void)const 
	?OpenL@CSARStore@@QAEXABVTDesC16@@ABVTUid@@@Z @ 149 NONAME ; public: void __thiscall CSARStore::OpenL(class TDesC16 const &,class TUid const &)
	?OptimizeSettingsL@CSmsMessage@@QAEXH@Z @ 150 NONAME ; public: void __thiscall CSmsMessage::OptimizeSettingsL(int)
	?PIDType@CSmsPDU@@QBE?AW4TSmsPIDType@TSmsProtocolIdentifier@@XZ @ 151 NONAME ; public: enum TSmsProtocolIdentifier::TSmsPIDType  __thiscall CSmsPDU::PIDType(void)const 
	?ParsedServiceCenterAddress@CSmsPDU@@QBEXAAVTGsmSmsTelNumber@@@Z @ 152 NONAME ; public: void __thiscall CSmsPDU::ParsedServiceCenterAddress(class TGsmSmsTelNumber &)const 
	?ParsedToFromAddress@CSmsPDU@@QBEXAAVTGsmSmsTelNumber@@@Z @ 153 NONAME ; public: void __thiscall CSmsPDU::ParsedToFromAddress(class TGsmSmsTelNumber &)const 
	?PredefinedSound@CEmsPreDefSoundIE@@QBE?AW4TPredefinedSound@1@XZ @ 154 NONAME ; public: enum CEmsPreDefSoundIE::TPredefinedSound  __thiscall CEmsPreDefSoundIE::PredefinedSound(void)const 
	?ProtocolIdentifier@CSmsDeliver@@UBEPBVTSmsProtocolIdentifier@@XZ @ 155 NONAME ; public: virtual class TSmsProtocolIdentifier const * __thiscall CSmsDeliver::ProtocolIdentifier(void)const 
	?ProtocolIdentifierPresent@CSmsPDU@@QBEHXZ @ 156 NONAME ; public: int __thiscall CSmsPDU::ProtocolIdentifierPresent(void)const 
	?PurgeL@CSARStore@@QAEXABVTTimeIntervalMinutes@@H@Z @ 157 NONAME ; public: void __thiscall CSARStore::PurgeL(class TTimeIntervalMinutes const &,int)
	?PurgeL@CSARStore@@QAEXHH@Z @ 158 NONAME ; public: void __thiscall CSARStore::PurgeL(int,int)
	?ReassembleNextL@TSmsBufferReassembler@@QAEXABVTDesC8@@H@Z @ 159 NONAME ; public: void __thiscall TSmsBufferReassembler::ReassembleNextL(class TDesC8 const &,int)
	?RejectDuplicates@CSmsSubmit@@QBEHXZ @ 160 NONAME ; public: int __thiscall CSmsSubmit::RejectDuplicates(void)const 
	?RemoveEMSInformationElementL@CSmsMessage@@QAEPAVCEmsInformationElement@@IW4TSmsInformationElementIdentifier@CSmsInformationElement@@@Z @ 161 NONAME ; public: class CEmsInformationElement * __thiscall CSmsMessage::RemoveEMSInformationElementL(unsigned int,enum CSmsInformationElement::TSmsInformationElementIdentifier)
	?RemoveEMSInformationElementsL@CSmsMessage@@QAEPAV?$RPointerArray@VCEmsInformationElement@@@@IW4TSmsInformationElementIdentifier@CSmsInformationElement@@@Z @ 162 NONAME ; public: class RPointerArray<class CEmsInformationElement> * __thiscall CSmsMessage::RemoveEMSInformationElementsL(unsigned int,enum CSmsInformationElement::TSmsInformationElementIdentifier)
	?RemoveInformationElement@CSmsCommand@@QAEXH@Z @ 163 NONAME ; public: void __thiscall CSmsCommand::RemoveInformationElement(int)
	?RemoveInformationElement@CSmsUserData@@QAEXH@Z @ 164 NONAME ; public: void __thiscall CSmsUserData::RemoveInformationElement(int)
	?ReplyPath@CSmsDeliver@@QBEHXZ @ 165 NONAME ; public: int __thiscall CSmsDeliver::ReplyPath(void)const 
	?ReplyPath@CSmsSubmit@@QBEHXZ @ 166 NONAME ; public: int __thiscall CSmsSubmit::ReplyPath(void)const 
	?Reset@CSmsBuffer@@UAEXXZ @ 167 NONAME ; public: virtual void __thiscall CSmsBuffer::Reset(void)
	?Reset@CSmsEditorBuffer@@UAEXXZ @ 168 NONAME ; public: virtual void __thiscall CSmsEditorBuffer::Reset(void)
	?ResetEMSL@CSmsMessage@@QAEXXZ @ 169 NONAME ; public: void __thiscall CSmsMessage::ResetEMSL(void)
	?SegmentNextL@CSmsBufferSegmenter@@QAEHAAVTDes8@@@Z @ 170 NONAME ; public: int __thiscall CSmsBufferSegmenter::SegmentNextL(class TDes8 &)
	?SegmentNextL@CSmsEMSBufferSegmenter@@QAEHAAVTDes8@@H@Z @ 171 NONAME ; public: int __thiscall CSmsEMSBufferSegmenter::SegmentNextL(class TDes8 &,int)
	?ServiceCenterAddress@CSmsPDU@@QBE?AVTPtrC16@@XZ @ 172 NONAME ; public: class TPtrC16  __thiscall CSmsPDU::ServiceCenterAddress(void)const 
	?ServiceCenterTimeStamp@CSmsDeliver@@QAEXAAVTTime@@AAH@Z @ 173 NONAME ; public: void __thiscall CSmsDeliver::ServiceCenterTimeStamp(class TTime &,int &)
	?ServiceCenterTimeStamp@CSmsStatusReport@@QAEXAAVTTime@@AAH@Z @ 174 NONAME ; public: void __thiscall CSmsStatusReport::ServiceCenterTimeStamp(class TTime &,int &)
	?SetAlignment@CEmsFormatIE@@QAEXW4TAlignment@1@@Z @ 175 NONAME ; public: void __thiscall CEmsFormatIE::SetAlignment(enum CEmsFormatIE::TAlignment)
	?SetAlphabet@CSmsPDU@@QAEXW4TSmsAlphabet@TSmsDataCodingScheme@@@Z @ 176 NONAME ; public: void __thiscall CSmsPDU::SetAlphabet(enum TSmsDataCodingScheme::TSmsAlphabet)
	?SetAnimationL@CEmsPreDefAnimationIE@@QAEXW4TAnimType@1@@Z @ 177 NONAME ; public: void __thiscall CEmsPreDefAnimationIE::SetAnimationL(enum CEmsPreDefAnimationIE::TAnimType)
	?SetApplicationPortAddressingL@CSmsPDU@@QAEXHHHH@Z @ 178 NONAME ; public: void __thiscall CSmsPDU::SetApplicationPortAddressingL(int,int,int,int)
	?SetBits7To4@CSmsPDU@@QAEXW4TSmsDCSBits7To4@TSmsDataCodingScheme@@@Z @ 179 NONAME ; public: void __thiscall CSmsPDU::SetBits7To4(enum TSmsDataCodingScheme::TSmsDCSBits7To4)
	?SetBodyL@CSmsUserData@@QAEXABVTDesC8@@@Z @ 180 NONAME ; public: void __thiscall CSmsUserData::SetBodyL(class TDesC8 const &)
	?SetBold@CEmsFormatIE@@QAEXH@Z @ 181 NONAME ; public: void __thiscall CEmsFormatIE::SetBold(int)
	?SetClass@CSmsPDU@@QAEXHW4TSmsClass@TSmsDataCodingScheme@@@Z @ 182 NONAME ; public: void __thiscall CSmsPDU::SetClass(int,enum TSmsDataCodingScheme::TSmsClass)
	?SetCommandDataL@CSmsCommand@@QAEXABVTDesC8@@@Z @ 183 NONAME ; public: void __thiscall CSmsCommand::SetCommandDataL(class TDesC8 const &)
	?SetCommandType@CSmsCommand@@QAEXW4TSmsCommandTypeValue@TSmsCommandType@@@Z @ 184 NONAME ; public: void __thiscall CSmsCommand::SetCommandType(enum TSmsCommandType::TSmsCommandTypeValue)
	?SetConcatenatedMessagePDUIndex@CSmsPDU@@QAEXH@Z @ 185 NONAME ; public: void __thiscall CSmsPDU::SetConcatenatedMessagePDUIndex(int)
	?SetConcatenatedMessageReference@CSmsPDU@@QAEXH@Z @ 186 NONAME ; public: void __thiscall CSmsPDU::SetConcatenatedMessageReference(int)
	?SetDataCodingSchemePresent@CSmsPDU@@QAEXH@Z @ 187 NONAME ; public: void __thiscall CSmsPDU::SetDataCodingSchemePresent(int)
	?SetDischargeTime@CSmsStatusReport@@QAEXABVTTime@@AAH@Z @ 188 NONAME ; public: void __thiscall CSmsStatusReport::SetDischargeTime(class TTime const &,int &)
	?SetExtraStreamIdL@CSARStore@@IAEXABVTStreamId@@@Z @ 189 NONAME ; protected: void __thiscall CSARStore::SetExtraStreamIdL(class TStreamId const &)
	?SetFailureCause@CSmsDeliverReport@@QAEXW4TSmsFailureCauseError@TSmsFailureCause@@@Z @ 190 NONAME ; public: void __thiscall CSmsDeliverReport::SetFailureCause(enum TSmsFailureCause::TSmsFailureCauseError)
	?SetFailureCause@CSmsSubmitReport@@QAEXW4TSmsFailureCauseError@TSmsFailureCause@@@Z @ 191 NONAME ; public: void __thiscall CSmsSubmitReport::SetFailureCause(enum TSmsFailureCause::TSmsFailureCauseError)
	?SetFontSize@CEmsFormatIE@@QAEXW4TFontSize@1@@Z @ 192 NONAME ; public: void __thiscall CEmsFormatIE::SetFontSize(enum CEmsFormatIE::TFontSize)
	?SetFormatLength@CEmsFormatIE@@QAEXI@Z @ 193 NONAME ; public: void __thiscall CEmsFormatIE::SetFormatLength(unsigned int)
	?SetForwarding@CEmsObjectDistribution@@QAEXW4TAttrs@1@@Z @ 194 NONAME ; public: void __thiscall CEmsObjectDistribution::SetForwarding(enum CEmsObjectDistribution::TAttrs)
	?SetFromETelMM@TGsmSmsTypeOfAddress@@QAEXW4TMobileTON@NMobilePhone@@W4TMobileNPI@3@@Z @ 195 NONAME ; public: void __thiscall TGsmSmsTypeOfAddress::SetFromETelMM(enum NMobilePhone::TMobileTON,enum NMobilePhone::TMobileNPI)
	?SetIndicationState@CSmsPDU@@QAEXW4TSmsIndicationState@TSmsDataCodingScheme@@@Z @ 196 NONAME ; public: void __thiscall CSmsPDU::SetIndicationState(enum TSmsDataCodingScheme::TSmsIndicationState)
	?SetIndicationType@CSmsPDU@@QAEXW4TSmsIndicationType@TSmsDataCodingScheme@@@Z @ 197 NONAME ; public: void __thiscall CSmsPDU::SetIndicationType(enum TSmsDataCodingScheme::TSmsIndicationType)
	?SetItalic@CEmsFormatIE@@QAEXH@Z @ 198 NONAME ; public: void __thiscall CEmsFormatIE::SetItalic(int)
	?SetMessageNumber@CSmsCommand@@QAEXH@Z @ 199 NONAME ; public: void __thiscall CSmsCommand::SetMessageNumber(int)
	?SetMessageReference@CSmsCommand@@QAEXH@Z @ 200 NONAME ; public: void __thiscall CSmsCommand::SetMessageReference(int)
	?SetMessageReference@CSmsStatusReport@@QAEXH@Z @ 201 NONAME ; public: void __thiscall CSmsStatusReport::SetMessageReference(int)
	?SetMessageReference@CSmsSubmit@@QAEXH@Z @ 202 NONAME ; public: void __thiscall CSmsSubmit::SetMessageReference(int)
	?SetMoreMessagesToSend@CSmsDeliver@@QAEXH@Z @ 203 NONAME ; public: void __thiscall CSmsDeliver::SetMoreMessagesToSend(int)
	?SetMoreMessagesToSend@CSmsStatusReport@@QAEXH@Z @ 204 NONAME ; public: void __thiscall CSmsStatusReport::SetMoreMessagesToSend(int)
	?SetNumConcatenatedMessagePDUs@CSmsPDU@@QAEXH@Z @ 205 NONAME ; public: void __thiscall CSmsPDU::SetNumConcatenatedMessagePDUs(int)
	?SetObjectCount@CEmsObjectDistribution@@QAEXI@Z @ 206 NONAME ; public: void __thiscall CEmsObjectDistribution::SetObjectCount(unsigned int)
	?SetObjectCount@CEmsUserPrompt@@QAEXI@Z @ 207 NONAME ; public: void __thiscall CEmsUserPrompt::SetObjectCount(unsigned int)
	?SetPIDType@CSmsPDU@@QAEXW4TSmsPIDType@TSmsProtocolIdentifier@@@Z @ 208 NONAME ; public: void __thiscall CSmsPDU::SetPIDType(enum TSmsProtocolIdentifier::TSmsPIDType)
	?SetParsedServiceCenterAddressL@CSmsPDU@@QAEXABVTGsmSmsTelNumber@@@Z @ 209 NONAME ; public: void __thiscall CSmsPDU::SetParsedServiceCenterAddressL(class TGsmSmsTelNumber const &)
	?SetParsedToFromAddressL@CSmsPDU@@QAEXABVTGsmSmsTelNumber@@@Z @ 210 NONAME ; public: void __thiscall CSmsPDU::SetParsedToFromAddressL(class TGsmSmsTelNumber const &)
	?SetProtocolIdentifierPresent@CSmsPDU@@QAEXH@Z @ 211 NONAME ; public: void __thiscall CSmsPDU::SetProtocolIdentifierPresent(int)
	?SetRejectDuplicates@CSmsSubmit@@QAEXH@Z @ 212 NONAME ; public: void __thiscall CSmsSubmit::SetRejectDuplicates(int)
	?SetReplyPath@CSmsDeliver@@QAEXH@Z @ 213 NONAME ; public: void __thiscall CSmsDeliver::SetReplyPath(int)
	?SetReplyPath@CSmsSubmit@@QAEXH@Z @ 214 NONAME ; public: void __thiscall CSmsSubmit::SetReplyPath(int)
	?SetServiceCenterAddressL@CSmsPDU@@QAEXABVTDesC16@@@Z @ 215 NONAME ; public: void __thiscall CSmsPDU::SetServiceCenterAddressL(class TDesC16 const &)
	?SetServiceCenterTimeStamp@CSmsDeliver@@QAEXABVTTime@@H@Z @ 216 NONAME ; public: void __thiscall CSmsDeliver::SetServiceCenterTimeStamp(class TTime const &,int)
	?SetServiceCenterTimeStamp@CSmsStatusReport@@QAEXABVTTime@@AAH@Z @ 217 NONAME ; public: void __thiscall CSmsStatusReport::SetServiceCenterTimeStamp(class TTime const &,int &)
	?SetShortMessageType@CSmsPDU@@QAEXW4TSmsShortMessageType@TSmsProtocolIdentifier@@@Z @ 218 NONAME ; public: void __thiscall CSmsPDU::SetShortMessageType(enum TSmsProtocolIdentifier::TSmsShortMessageType)
	?SetStartPosition@CEmsInformationElement@@QAEXI@Z @ 219 NONAME ; public: void __thiscall CEmsInformationElement::SetStartPosition(unsigned int)
	?SetStatus@CSmsStatusReport@@QAEXW4TSmsStatusValue@TSmsStatus@@@Z @ 220 NONAME ; public: void __thiscall CSmsStatusReport::SetStatus(enum TSmsStatus::TSmsStatusValue)
	?SetStatusReportIndication@CSmsDeliver@@QAEXH@Z @ 221 NONAME ; public: void __thiscall CSmsDeliver::SetStatusReportIndication(int)
	?SetStatusReportQualifier@CSmsStatusReport@@QAEXW4TSmsStatusReportQualifier@TSmsFirstOctet@@@Z @ 222 NONAME ; public: void __thiscall CSmsStatusReport::SetStatusReportQualifier(enum TSmsFirstOctet::TSmsStatusReportQualifier)
	?SetStatusReportRequest@CSmsCommand@@QAEXH@Z @ 223 NONAME ; public: void __thiscall CSmsCommand::SetStatusReportRequest(int)
	?SetStatusReportRequest@CSmsSubmit@@QAEXH@Z @ 224 NONAME ; public: void __thiscall CSmsSubmit::SetStatusReportRequest(int)
	?SetStrikethrough@CEmsFormatIE@@QAEXH@Z @ 225 NONAME ; public: void __thiscall CEmsFormatIE::SetStrikethrough(int)
	?SetTelematicDeviceIndicator@CSmsPDU@@QAEXW4TSmsTelematicDeviceIndicator@TSmsProtocolIdentifier@@@Z @ 226 NONAME ; public: void __thiscall CSmsPDU::SetTelematicDeviceIndicator(enum TSmsProtocolIdentifier::TSmsTelematicDeviceIndicator)
	?SetTelematicDeviceType@CSmsPDU@@QAEXW4TSmsTelematicDeviceType@TSmsProtocolIdentifier@@@Z @ 227 NONAME ; public: void __thiscall CSmsPDU::SetTelematicDeviceType(enum TSmsProtocolIdentifier::TSmsTelematicDeviceType)
	?SetTextCompressed@CSmsPDU@@QAEXH@Z @ 228 NONAME ; public: void __thiscall CSmsPDU::SetTextCompressed(int)
	?SetTextConcatenated@TSmsUserDataSettings@@QAEXHH@Z @ 229 NONAME ; public: void __thiscall TSmsUserDataSettings::SetTextConcatenated(int,int)
	?SetTextConcatenatedL@CSmsPDU@@QAEXHH@Z @ 230 NONAME ; public: void __thiscall CSmsPDU::SetTextConcatenatedL(int,int)
	?SetToFromAddressL@CSmsPDU@@QAEXABVTDesC16@@@Z @ 231 NONAME ; public: void __thiscall CSmsPDU::SetToFromAddressL(class TDesC16 const &)
	?SetUnderline@CEmsFormatIE@@QAEXH@Z @ 232 NONAME ; public: void __thiscall CEmsFormatIE::SetUnderline(int)
	?SetUserDataPresent@CSmsPDU@@QAEXH@Z @ 233 NONAME ; public: void __thiscall CSmsPDU::SetUserDataPresent(int)
	?SetUserDataSettingsL@CSmsMessage@@QAEXABVTSmsUserDataSettings@@@Z @ 234 NONAME ; public: void __thiscall CSmsMessage::SetUserDataSettingsL(class TSmsUserDataSettings const &)
	?SetValidityPeriod@CSmsSubmit@@QAEXABVTTimeIntervalMinutes@@@Z @ 235 NONAME ; public: void __thiscall CSmsSubmit::SetValidityPeriod(class TTimeIntervalMinutes const &)
	?SetValidityPeriodFormat@CSmsSubmit@@QAEXW4TSmsValidityPeriodFormat@TSmsFirstOctet@@@Z @ 236 NONAME ; public: void __thiscall CSmsSubmit::SetValidityPeriodFormat(enum TSmsFirstOctet::TSmsValidityPeriodFormat)
	?ShortMessageType@CSmsPDU@@QBE?AW4TSmsShortMessageType@TSmsProtocolIdentifier@@XZ @ 237 NONAME ; public: enum TSmsProtocolIdentifier::TSmsShortMessageType  __thiscall CSmsPDU::ShortMessageType(void)const 
	?SizeInPixels@CEmsPictureIE@@QBE?AVTSize@@XZ @ 238 NONAME ; public: class TSize  __thiscall CEmsPictureIE::SizeInPixels(void)const 
	?StartPosition@CEmsInformationElement@@QBEIXZ @ 239 NONAME ; public: unsigned int __thiscall CEmsInformationElement::StartPosition(void)const 
	?Status@CSmsStatusReport@@QBE?AW4TSmsStatusValue@TSmsStatus@@XZ @ 240 NONAME ; public: enum TSmsStatus::TSmsStatusValue  __thiscall CSmsStatusReport::Status(void)const 
	?StatusReportIndication@CSmsDeliver@@QBEHXZ @ 241 NONAME ; public: int __thiscall CSmsDeliver::StatusReportIndication(void)const 
	?StatusReportQualifier@CSmsStatusReport@@QBE?AW4TSmsStatusReportQualifier@TSmsFirstOctet@@XZ @ 242 NONAME ; public: enum TSmsFirstOctet::TSmsStatusReportQualifier  __thiscall CSmsStatusReport::StatusReportQualifier(void)const 
	?StatusReportRequest@CSmsCommand@@QBEHXZ @ 243 NONAME ; public: int __thiscall CSmsCommand::StatusReportRequest(void)const 
	?StatusReportRequest@CSmsSubmit@@QBEHXZ @ 244 NONAME ; public: int __thiscall CSmsSubmit::StatusReportRequest(void)const 
	?Strikethrough@CEmsFormatIE@@QBEHXZ @ 245 NONAME ; public: int __thiscall CEmsFormatIE::Strikethrough(void)const 
	?TelematicDeviceIndicator@CSmsPDU@@QBE?AW4TSmsTelematicDeviceIndicator@TSmsProtocolIdentifier@@XZ @ 246 NONAME ; public: enum TSmsProtocolIdentifier::TSmsTelematicDeviceIndicator  __thiscall CSmsPDU::TelematicDeviceIndicator(void)const 
	?TelematicDeviceType@CSmsPDU@@QBE?AW4TSmsTelematicDeviceType@TSmsProtocolIdentifier@@XZ @ 247 NONAME ; public: enum TSmsProtocolIdentifier::TSmsTelematicDeviceType  __thiscall CSmsPDU::TelematicDeviceType(void)const 
	?TextCompressed@CSmsPDU@@QBEHXZ @ 248 NONAME ; public: int __thiscall CSmsPDU::TextCompressed(void)const 
	?TextConcatenated@CSmsPDU@@QBEHPAH@Z @ 249 NONAME ; public: int __thiscall CSmsPDU::TextConcatenated(int *)const 
	?TextConcatenated@TSmsUserDataSettings@@QBEHPAH@Z @ 250 NONAME ; public: int __thiscall TSmsUserDataSettings::TextConcatenated(int *)const 
	?TextPresent@CSmsMessage@@QBEHXZ @ 251 NONAME ; public: int __thiscall CSmsMessage::TextPresent(void)const 
	?ToFromAddress@CSmsPDU@@QBE?AVTPtrC16@@XZ @ 252 NONAME ; public: class TPtrC16  __thiscall CSmsPDU::ToFromAddress(void)const 
	?TotalConvertedLengthL@CSmsBufferSegmenter@@QAEHXZ @ 253 NONAME ; public: int __thiscall CSmsBufferSegmenter::TotalConvertedLengthL(void)
	?Underline@CEmsFormatIE@@QBEHXZ @ 254 NONAME ; public: int __thiscall CEmsFormatIE::Underline(void)const 
	?UpdateSlotsL@CSmsMessage@@QAEXAAVTDesC8@@@Z @ 255 NONAME ; public: void __thiscall CSmsMessage::UpdateSlotsL(class TDesC8 &)
	?UserData@CSmsPDU@@QAEAAVCSmsUserData@@XZ @ 256 NONAME ; public: class CSmsUserData & __thiscall CSmsPDU::UserData(void)
	?UserData@CSmsPDU@@QBEABVCSmsUserData@@XZ @ 257 NONAME ; public: class CSmsUserData const & __thiscall CSmsPDU::UserData(void)const 
	?UserDataPresent@CSmsPDU@@QBEHXZ @ 258 NONAME ; public: int __thiscall CSmsPDU::UserDataPresent(void)const 
	?UserDataSettings@CSmsMessage@@QBEXAAVTSmsUserDataSettings@@@Z @ 259 NONAME ; public: void __thiscall CSmsMessage::UserDataSettings(class TSmsUserDataSettings &)const 
	?ValidityPeriod@CSmsSubmit@@QBEABVTTimeIntervalMinutes@@XZ @ 260 NONAME ; public: class TTimeIntervalMinutes const & __thiscall CSmsSubmit::ValidityPeriod(void)const 
	?ValidityPeriodFormat@CSmsSubmit@@QBE?AW4TSmsValidityPeriodFormat@TSmsFirstOctet@@XZ @ 261 NONAME ; public: enum TSmsFirstOctet::TSmsValidityPeriodFormat  __thiscall CSmsSubmit::ValidityPeriodFormat(void)const 
	?IsInstanceOf@TGsmSmsTelNumber@@QAEHW4TTypeOfIndicator@1@@Z @ 262 NONAME ; public: int __thiscall TGsmSmsTelNumber::IsInstanceOf(enum TGsmSmsTelNumber::TTypeOfIndicator)
	?PrivatePath@CSARStore@@QAEXAAVTDes16@@@Z @ 263 NONAME ; public: void __thiscall CSARStore::PrivatePath(class TDes16 &)
