EXPORTS
	_ZN13CEirPublisher11PublishDataEi @ 1 NONAME
	_ZN13CEirPublisher4NewLE7TEirTagR21MEirPublisherNotifier @ 2 NONAME
	_ZN13CEirPublisher7SetDataERK6TDesC812TEirDataMode @ 3 NONAME
	_ZN33TExtendedInquiryResponseDataCodec11GetNextDataER6TPtrC8 @ 4 NONAME
	_ZN33TExtendedInquiryResponseDataCodec13SetDeviceNameERK6TPtrC8i @ 5 NONAME
	_ZN33TExtendedInquiryResponseDataCodec3SetER11TNameRecord @ 6 NONAME
	_ZN33TExtendedInquiryResponseDataCodec3SetER5TDes8 @ 7 NONAME
	_ZN33TExtendedInquiryResponseDataCodec3SetERK11TNameRecord @ 8 NONAME
	_ZN33TExtendedInquiryResponseDataCodec3SetERK6TDesC8 @ 9 NONAME
	_ZN33TExtendedInquiryResponseDataCodecC1ER11TNameRecord @ 10 NONAME
	_ZN33TExtendedInquiryResponseDataCodecC1ER5TDes8 @ 11 NONAME
	_ZN33TExtendedInquiryResponseDataCodecC1ERK11TNameRecord @ 12 NONAME
	_ZN33TExtendedInquiryResponseDataCodecC1ERK6TDesC8 @ 13 NONAME
	_ZN33TExtendedInquiryResponseDataCodecC1Ev @ 14 NONAME
	_ZN33TExtendedInquiryResponseDataCodecC2ER11TNameRecord @ 15 NONAME
	_ZN33TExtendedInquiryResponseDataCodecC2ER5TDes8 @ 16 NONAME
	_ZN33TExtendedInquiryResponseDataCodecC2ERK11TNameRecord @ 17 NONAME
	_ZN33TExtendedInquiryResponseDataCodecC2ERK6TDesC8 @ 18 NONAME
	_ZN33TExtendedInquiryResponseDataCodecC2Ev @ 19 NONAME
	_ZNK33TExtendedInquiryResponseDataCodec13GetDeviceNameER6TPtrC8 @ 20 NONAME
	_ZNK33TExtendedInquiryResponseDataCodec17IsDataTypePresentE32TExtendedInquiryResponseDataType @ 21 NONAME
	_ZNK33TExtendedInquiryResponseDataCodec7GetDataE32TExtendedInquiryResponseDataTypeR6TPtrC8 @ 22 NONAME
	_ZN33TExtendedInquiryResponseDataCodec4CopyER6TDesC8 @ 23 NONAME
	_ZN33TExtendedInquiryResponseDataCodec13DoSanityCheckER5TDes8 @ 24 NONAME

