EXPORTS
	_ZN15CStereoWidening12DoEffectDataEv @ 1 NONAME
	_ZN15CStereoWidening13SetEffectDataERK6TDesC8 @ 2 NONAME
	_ZN15CStereoWidening23SetStereoWideningLevelLEh @ 3 NONAME
	_ZN15CStereoWidening4NewLEP21CCustomCommandUtilityia @ 4 NONAME
	_ZN15CStereoWidening4NewLER12CMMFDevSoundia @ 5 NONAME
	_ZN15CStereoWidening4NewLER16MCustomInterfaceia @ 6 NONAME
	_ZN15CStereoWidening4NewLER20CMdaAudioInputStreamia @ 7 NONAME
	_ZN15CStereoWidening4NewLER20CMdaAudioToneUtilityia @ 8 NONAME
	_ZN15CStereoWidening4NewLER21CMdaAudioOutputStreamia @ 9 NONAME
	_ZN15CStereoWidening4NewLER22CMdaAudioPlayerUtilityia @ 10 NONAME
	_ZN15CStereoWidening4NewLER23CMdaAudioConvertUtilityia @ 11 NONAME
	_ZN15CStereoWidening4NewLER24CMdaAudioRecorderUtilityiia @ 12 NONAME
	_ZN15CStereoWidening4NewLEv @ 13 NONAME
	_ZN15CStereoWideningC2Ev @ 14 NONAME
	_ZN15CStereoWideningD0Ev @ 15 NONAME
	_ZN15CStereoWideningD1Ev @ 16 NONAME
	_ZN15CStereoWideningD2Ev @ 17 NONAME
	_ZNK15CStereoWidening19StereoWideningLevelEv @ 18 NONAME
	_ZNK15CStereoWidening26IsContinuousLevelSupportedEv @ 19 NONAME
	_ZNK15CStereoWidening3UidEv @ 20 NONAME
	_ZTI15CStereoWidening @ 21 NONAME ; #<TI>#
	_ZTV15CStereoWidening @ 22 NONAME ; #<VT>#
	_ZN15CStereoWidening4NewLER18CMidiClientUtilityia @ 23 NONAME
	_ZN15CStereoWidening4NewLER17CDrmPlayerUtilityia @ 24 NONAME
	_ZN15CStereoWidening4NewLER19CVideoPlayerUtilityia @ 25 NONAME

