EXPORTS
	??0CLbsLocationSourceGpsBase@@IAE@AAVMLbsLocationSourceGpsObserver@@@Z @ 1 NONAME ; CLbsLocationSourceGpsBase::CLbsLocationSourceGpsBase(class MLbsLocationSourceGpsObserver &)
	??0TLbsGpsOptions@@QAE@XZ @ 2 NONAME ; TLbsGpsOptions::TLbsGpsOptions(void)
	??0TLbsLocRequestQuality@@QAE@XZ @ 3 NONAME ; TLbsLocRequestQuality::TLbsLocRequestQuality(void)
	??1CLbsLocationSourceGpsBase@@UAE@XZ @ 4 NONAME ; CLbsLocationSourceGpsBase::~CLbsLocationSourceGpsBase(void)
	?ConstructL@CLbsLocationSourceGpsBase@@IAEXXZ @ 5 NONAME ; void CLbsLocationSourceGpsBase::ConstructL(void)
	?ExtendedInterface@CLbsLocationSourceGpsBase@@EAEPAXHPAX0@Z @ 6 NONAME ; void * CLbsLocationSourceGpsBase::ExtendedInterface(int, void *, void *)
	?GpsMode@TLbsGpsOptions@@QBE?AW4TGpsMode@CLbsAdmin@@XZ @ 7 NONAME ; enum CLbsAdmin::TGpsMode TLbsGpsOptions::GpsMode(void) const
	?MaxFixTime@TLbsLocRequestQuality@@QBE?AVTTimeIntervalMicroSeconds@@XZ @ 8 NONAME ; class TTimeIntervalMicroSeconds TLbsLocRequestQuality::MaxFixTime(void) const
	?MinHorizontalAccuracy@TLbsLocRequestQuality@@QBEMXZ @ 9 NONAME ; float TLbsLocRequestQuality::MinHorizontalAccuracy(void) const
	?MinVerticalAccuracy@TLbsLocRequestQuality@@QBEMXZ @ 10 NONAME ; float TLbsLocRequestQuality::MinVerticalAccuracy(void) const
	?NewL@CLbsLocationSourceGpsBase@@SAPAV1@AAVMLbsLocationSourceGpsObserver@@VTUid@@@Z @ 11 NONAME ; class CLbsLocationSourceGpsBase * CLbsLocationSourceGpsBase::NewL(class MLbsLocationSourceGpsObserver &, class TUid)
	?SetGpsMode@TLbsGpsOptions@@QAEXW4TGpsMode@CLbsAdmin@@@Z @ 12 NONAME ; void TLbsGpsOptions::SetGpsMode(enum CLbsAdmin::TGpsMode)
	?SetMaxFixTime@TLbsLocRequestQuality@@QAEXVTTimeIntervalMicroSeconds@@@Z @ 13 NONAME ; void TLbsLocRequestQuality::SetMaxFixTime(class TTimeIntervalMicroSeconds)
	?SetMinHorizontalAccuracy@TLbsLocRequestQuality@@QAEXM@Z @ 14 NONAME ; void TLbsLocRequestQuality::SetMinHorizontalAccuracy(float)
	?SetMinVerticalAccuracy@TLbsLocRequestQuality@@QAEXM@Z @ 15 NONAME ; void TLbsLocRequestQuality::SetMinVerticalAccuracy(float)
	?ExtendedInterface@MLbsLocationSourceGpsObserver@@EAEPAXHPAX0@Z @ 16 NONAME ; void * MLbsLocationSourceGpsObserver::ExtendedInterface(int, void *, void *)
	?Version@MLbsLocationSourceGpsObserver@@UAE?AVTVersion@@XZ @ 17 NONAME ; class TVersion MLbsLocationSourceGpsObserver::Version(void)
	??0TLbsGpsOptionsArray@@QAE@XZ @ 18 NONAME ; TLbsGpsOptionsArray::TLbsGpsOptionsArray(void)
	??0TLbsGpsOptionsItem@@QAE@XZ @ 19 NONAME ; TLbsGpsOptionsItem::TLbsGpsOptionsItem(void)
	?AppendOptionItem@TLbsGpsOptionsArray@@QAEHABVTLbsGpsOptionsItem@@@Z @ 20 NONAME ; int TLbsGpsOptionsArray::AppendOptionItem(class TLbsGpsOptionsItem const &)
	?ClearOptionItems@TLbsGpsOptionsArray@@QAEXXZ @ 21 NONAME ; void TLbsGpsOptionsArray::ClearOptionItems(void)
	?GetOptionItem@TLbsGpsOptionsArray@@QBEHIAAVTLbsGpsOptionsItem@@@Z @ 22 NONAME ; int TLbsGpsOptionsArray::GetOptionItem(unsigned int, class TLbsGpsOptionsItem &) const
	?NumOptionItems@TLbsGpsOptionsArray@@QBEHXZ @ 23 NONAME ; int TLbsGpsOptionsArray::NumOptionItems(void) const
	?PosUpdateType@TLbsGpsOptionsItem@@QBE?AW4TPosUpdateType@1@XZ @ 24 NONAME ; enum TLbsGpsOptionsItem::TPosUpdateType TLbsGpsOptionsItem::PosUpdateType(void) const
	?SetLocUpdateType@TLbsGpsOptionsItem@@QAEXW4TPosUpdateType@1@@Z @ 25 NONAME ; void TLbsGpsOptionsItem::SetLocUpdateType(enum TLbsGpsOptionsItem::TPosUpdateType)
	?SetAssistedClientRequestPresent@TLbsLocRequestQuality@@QAEXH@Z @ 26 NONAME ; void TLbsLocRequestQuality::SetAssistedClientRequestPresent(int)
	?AssistedClientRequestPresent@TLbsLocRequestQuality@@QBEHXZ @ 27 NONAME ; int TLbsLocRequestQuality::AssistedClientRequestPresent(void) const
	?SetGpsTimeRelationReq@TLbsGpsOptions@@QAEXH@Z @ 28 NONAME ; void TLbsGpsOptions::SetGpsTimeRelationReq(int)
	?GpsTimeRelationReq@TLbsGpsOptions@@QBEHXZ @ 29 NONAME ; int TLbsGpsOptions::GpsTimeRelationReq(void) const

