EXPORTS
	?NewTestSuiteUnitMMFVidClientL@@YAPAVCTestSuiteUnitMMFVidClient@@XZ @ 1 NONAME ; class CTestSuiteUnitMMFVidClient * __cdecl NewTestSuiteUnitMMFVidClientL(void)
	?AddMetaDataEntryL@CVideoRecorderUtility@@QAEXABVCMMFMetaDataEntry@@@Z @ 2 NONAME ; void CVideoRecorderUtility::AddMetaDataEntryL(class CMMFMetaDataEntry const &)
	?AudioBitRateL@CVideoPlayerUtility@@QBEHXZ @ 3 NONAME ; int CVideoPlayerUtility::AudioBitRateL(void) const
	?AudioBitRateL@CVideoRecorderUtility@@QBEHXZ @ 4 NONAME ; int CVideoRecorderUtility::AudioBitRateL(void) const
	?AudioEnabledL@CVideoPlayerUtility@@QBEHXZ @ 5 NONAME ; int CVideoPlayerUtility::AudioEnabledL(void) const
	?AudioEnabledL@CVideoRecorderUtility@@QBEHXZ @ 6 NONAME ; int CVideoRecorderUtility::AudioEnabledL(void) const
	?AudioTypeL@CVideoPlayerUtility@@QBE?AVTFourCC@@XZ @ 7 NONAME ; class TFourCC CVideoPlayerUtility::AudioTypeL(void) const
	?AudioTypeL@CVideoRecorderUtility@@QBE?AVTFourCC@@XZ @ 8 NONAME ; class TFourCC CVideoRecorderUtility::AudioTypeL(void) const
	?Balance@CVideoPlayerUtility@@QBEHXZ @ 9 NONAME ; int CVideoPlayerUtility::Balance(void) const
	?Close@CVideoPlayerUtility@@QAEXXZ @ 10 NONAME ; void CVideoPlayerUtility::Close(void)
	?Close@CVideoRecorderUtility@@QAEXXZ @ 11 NONAME ; void CVideoRecorderUtility::Close(void)
	?ControllerImplementationInformationL@CVideoPlayerUtility@@QAEABVCMMFControllerImplementationInformation@@XZ @ 12 NONAME ; class CMMFControllerImplementationInformation const & CVideoPlayerUtility::ControllerImplementationInformationL(void)
	?ControllerImplementationInformationL@CVideoRecorderUtility@@QAEABVCMMFControllerImplementationInformation@@XZ @ 13 NONAME ; class CMMFControllerImplementationInformation const & CVideoRecorderUtility::ControllerImplementationInformationL(void)
	?CustomCommandAsync@CVideoPlayerUtility@@QAEXABV?$TPckgBuf@VTMMFMessageDestination@@@@HABVTDesC8@@1AAVTDes8@@AAVTRequestStatus@@@Z @ 14 NONAME ; void CVideoPlayerUtility::CustomCommandAsync(class TPckgBuf<class TMMFMessageDestination> const &, int, class TDesC8 const &, class TDesC8 const &, class TDes8 &, class TRequestStatus &)
	?CustomCommandAsync@CVideoPlayerUtility@@QAEXABV?$TPckgBuf@VTMMFMessageDestination@@@@HABVTDesC8@@1AAVTRequestStatus@@@Z @ 15 NONAME ; void CVideoPlayerUtility::CustomCommandAsync(class TPckgBuf<class TMMFMessageDestination> const &, int, class TDesC8 const &, class TDesC8 const &, class TRequestStatus &)
	?CustomCommandAsync@CVideoRecorderUtility@@QAEXABV?$TPckgBuf@VTMMFMessageDestination@@@@HABVTDesC8@@1AAVTDes8@@AAVTRequestStatus@@@Z @ 16 NONAME ; void CVideoRecorderUtility::CustomCommandAsync(class TPckgBuf<class TMMFMessageDestination> const &, int, class TDesC8 const &, class TDesC8 const &, class TDes8 &, class TRequestStatus &)
	?CustomCommandAsync@CVideoRecorderUtility@@QAEXABV?$TPckgBuf@VTMMFMessageDestination@@@@HABVTDesC8@@1AAVTRequestStatus@@@Z @ 17 NONAME ; void CVideoRecorderUtility::CustomCommandAsync(class TPckgBuf<class TMMFMessageDestination> const &, int, class TDesC8 const &, class TDesC8 const &, class TRequestStatus &)
	?CustomCommandSync@CVideoPlayerUtility@@QAEHABV?$TPckgBuf@VTMMFMessageDestination@@@@HABVTDesC8@@1@Z @ 18 NONAME ; int CVideoPlayerUtility::CustomCommandSync(class TPckgBuf<class TMMFMessageDestination> const &, int, class TDesC8 const &, class TDesC8 const &)
	?CustomCommandSync@CVideoPlayerUtility@@QAEHABV?$TPckgBuf@VTMMFMessageDestination@@@@HABVTDesC8@@1AAVTDes8@@@Z @ 19 NONAME ; int CVideoPlayerUtility::CustomCommandSync(class TPckgBuf<class TMMFMessageDestination> const &, int, class TDesC8 const &, class TDesC8 const &, class TDes8 &)
	?CustomCommandSync@CVideoRecorderUtility@@QAEHABV?$TPckgBuf@VTMMFMessageDestination@@@@HABVTDesC8@@1@Z @ 20 NONAME ; int CVideoRecorderUtility::CustomCommandSync(class TPckgBuf<class TMMFMessageDestination> const &, int, class TDesC8 const &, class TDesC8 const &)
	?CustomCommandSync@CVideoRecorderUtility@@QAEHABV?$TPckgBuf@VTMMFMessageDestination@@@@HABVTDesC8@@1AAVTDes8@@@Z @ 21 NONAME ; int CVideoRecorderUtility::CustomCommandSync(class TPckgBuf<class TMMFMessageDestination> const &, int, class TDesC8 const &, class TDesC8 const &, class TDes8 &)
	?DurationL@CVideoPlayerUtility@@QBE?AVTTimeIntervalMicroSeconds@@XZ @ 22 NONAME ; class TTimeIntervalMicroSeconds CVideoPlayerUtility::DurationL(void) const
	?DurationL@CVideoRecorderUtility@@QBE?AVTTimeIntervalMicroSeconds@@XZ @ 23 NONAME ; class TTimeIntervalMicroSeconds CVideoRecorderUtility::DurationL(void) const
	?GainL@CVideoRecorderUtility@@QBEHXZ @ 24 NONAME ; int CVideoRecorderUtility::GainL(void) const
	?GetCropRegionL@CVideoPlayerUtility@@QBEXAAVTRect@@@Z @ 25 NONAME ; void CVideoPlayerUtility::GetCropRegionL(class TRect &) const
	?GetDRMCustomCommand@CVideoPlayerUtility@@QAEPAVMMMFDRMCustomCommand@@XZ @ 26 NONAME ; class MMMFDRMCustomCommand * CVideoPlayerUtility::GetDRMCustomCommand(void)
	?GetFrameL@CVideoPlayerUtility@@QAEXW4TDisplayMode@@@Z @ 27 NONAME ; void CVideoPlayerUtility::GetFrameL(enum TDisplayMode)
	?GetFrameL@CVideoPlayerUtility@@QAEXW4TDisplayMode@@W4TIntent@ContentAccess@@@Z @ 28 NONAME ; void CVideoPlayerUtility::GetFrameL(enum TDisplayMode, enum ContentAccess::TIntent)
	?GetPriorityL@CVideoRecorderUtility@@QBEXAAHAAW4TMdaPriorityPreference@@@Z @ 29 NONAME ; void CVideoRecorderUtility::GetPriorityL(int &, enum TMdaPriorityPreference &) const
	?GetScaleFactorL@CVideoPlayerUtility@@QBEXAAM0AAH@Z @ 30 NONAME ; void CVideoPlayerUtility::GetScaleFactorL(float &, float &, int &) const
	?GetSupportedAudioTypesL@CVideoRecorderUtility@@QBEXAAV?$RArray@VTFourCC@@@@@Z @ 31 NONAME ; void CVideoRecorderUtility::GetSupportedAudioTypesL(class RArray<class TFourCC> &) const
	?GetSupportedVideoTypesL@CVideoRecorderUtility@@QBEXAAVCDesC8Array@@@Z @ 32 NONAME ; void CVideoRecorderUtility::GetSupportedVideoTypesL(class CDesC8Array &) const
	?GetVideoFrameSizeL@CVideoRecorderUtility@@QBEXAAVTSize@@@Z @ 33 NONAME ; void CVideoRecorderUtility::GetVideoFrameSizeL(class TSize &) const
	?GetVideoLoadingProgressL@CVideoPlayerUtility@@QAEXAAH@Z @ 34 NONAME ; void CVideoPlayerUtility::GetVideoLoadingProgressL(int &)
	?MaxGainL@CVideoRecorderUtility@@QBEHXZ @ 35 NONAME ; int CVideoRecorderUtility::MaxGainL(void) const
	?MaxVolume@CVideoPlayerUtility@@QBEHXZ @ 36 NONAME ; int CVideoPlayerUtility::MaxVolume(void) const
	?MetaDataEntryL@CVideoPlayerUtility@@QBEPAVCMMFMetaDataEntry@@H@Z @ 37 NONAME ; class CMMFMetaDataEntry * CVideoPlayerUtility::MetaDataEntryL(int) const
	?MetaDataEntryL@CVideoRecorderUtility@@QBEPAVCMMFMetaDataEntry@@H@Z @ 38 NONAME ; class CMMFMetaDataEntry * CVideoRecorderUtility::MetaDataEntryL(int) const
	?NewL@CVideoPlayerUtility@@SAPAV1@AAVMVideoPlayerUtilityObserver@@HW4TMdaPriorityPreference@@AAVRWsSession@@AAVCWsScreenDevice@@AAVRWindowBase@@ABVTRect@@5@Z @ 39 NONAME ; class CVideoPlayerUtility * CVideoPlayerUtility::NewL(class MVideoPlayerUtilityObserver &, int, enum TMdaPriorityPreference, class RWsSession &, class CWsScreenDevice &, class RWindowBase &, class TRect const &, class TRect const &)
	?NewL@CVideoRecorderUtility@@SAPAV1@AAVMVideoRecorderUtilityObserver@@HW4TMdaPriorityPreference@@@Z @ 40 NONAME ; class CVideoRecorderUtility * CVideoRecorderUtility::NewL(class MVideoRecorderUtilityObserver &, int, enum TMdaPriorityPreference)
	?NumberOfMetaDataEntriesL@CVideoPlayerUtility@@QBEHXZ @ 41 NONAME ; int CVideoPlayerUtility::NumberOfMetaDataEntriesL(void) const
	?NumberOfMetaDataEntriesL@CVideoRecorderUtility@@QBEHXZ @ 42 NONAME ; int CVideoRecorderUtility::NumberOfMetaDataEntriesL(void) const
	?OpenDesL@CVideoPlayerUtility@@QAEXABVTDesC8@@VTUid@@@Z @ 43 NONAME ; void CVideoPlayerUtility::OpenDesL(class TDesC8 const &, class TUid)
	?OpenDesL@CVideoRecorderUtility@@QAEXAAVTDes8@@HVTUid@@1ABVTDesC8@@VTFourCC@@@Z @ 44 NONAME ; void CVideoRecorderUtility::OpenDesL(class TDes8 &, int, class TUid, class TUid, class TDesC8 const &, class TFourCC)
	?OpenFileL@CVideoPlayerUtility@@QAEXABVRFile@@VTUid@@@Z @ 45 NONAME ; void CVideoPlayerUtility::OpenFileL(class RFile const &, class TUid)
	?OpenFileL@CVideoPlayerUtility@@QAEXABVTDesC16@@VTUid@@@Z @ 46 NONAME ; void CVideoPlayerUtility::OpenFileL(class TDesC16 const &, class TUid)
	?OpenFileL@CVideoPlayerUtility@@QAEXABVTMMSource@@VTUid@@@Z @ 47 NONAME ; void CVideoPlayerUtility::OpenFileL(class TMMSource const &, class TUid)
	?OpenFileL@CVideoRecorderUtility@@QAEXABVRFile@@HVTUid@@1ABVTDesC8@@VTFourCC@@@Z @ 48 NONAME ; void CVideoRecorderUtility::OpenFileL(class RFile const &, int, class TUid, class TUid, class TDesC8 const &, class TFourCC)
	?OpenFileL@CVideoRecorderUtility@@QAEXABVTDesC16@@HVTUid@@1ABVTDesC8@@VTFourCC@@@Z @ 49 NONAME ; void CVideoRecorderUtility::OpenFileL(class TDesC16 const &, int, class TUid, class TUid, class TDesC8 const &, class TFourCC)
	?OpenUrlL@CVideoPlayerUtility@@QAEXABVTDesC16@@HABVTDesC8@@VTUid@@@Z @ 50 NONAME ; void CVideoPlayerUtility::OpenUrlL(class TDesC16 const &, int, class TDesC8 const &, class TUid)
	?OpenUrlL@CVideoRecorderUtility@@QAEXABVTDesC16@@HHVTUid@@1ABVTDesC8@@VTFourCC@@@Z @ 51 NONAME ; void CVideoRecorderUtility::OpenUrlL(class TDesC16 const &, int, int, class TUid, class TUid, class TDesC8 const &, class TFourCC)
	?PauseL@CVideoPlayerUtility@@QAEXXZ @ 52 NONAME ; void CVideoPlayerUtility::PauseL(void)
	?PauseL@CVideoRecorderUtility@@QAEXXZ @ 53 NONAME ; void CVideoRecorderUtility::PauseL(void)
	?Play@CVideoPlayerUtility@@QAEXABVTTimeIntervalMicroSeconds@@0@Z @ 54 NONAME ; void CVideoPlayerUtility::Play(class TTimeIntervalMicroSeconds const &, class TTimeIntervalMicroSeconds const &)
	?Play@CVideoPlayerUtility@@QAEXXZ @ 55 NONAME ; void CVideoPlayerUtility::Play(void)
	?PositionL@CVideoPlayerUtility@@QBE?AVTTimeIntervalMicroSeconds@@XZ @ 56 NONAME ; class TTimeIntervalMicroSeconds CVideoPlayerUtility::PositionL(void) const
	?Prepare@CVideoPlayerUtility@@QAEXXZ @ 57 NONAME ; void CVideoPlayerUtility::Prepare(void)
	?Prepare@CVideoRecorderUtility@@QAEXXZ @ 58 NONAME ; void CVideoRecorderUtility::Prepare(void)
	?PriorityL@CVideoPlayerUtility@@QBEXAAHAAW4TMdaPriorityPreference@@@Z @ 59 NONAME ; void CVideoPlayerUtility::PriorityL(int &, enum TMdaPriorityPreference &) const
	?Record@CVideoRecorderUtility@@QAEXXZ @ 60 NONAME ; void CVideoRecorderUtility::Record(void)
	?RecordTimeAvailable@CVideoRecorderUtility@@QBE?AVTTimeIntervalMicroSeconds@@XZ @ 61 NONAME ; class TTimeIntervalMicroSeconds CVideoRecorderUtility::RecordTimeAvailable(void) const
	?RefreshFrameL@CVideoPlayerUtility@@QAEXXZ @ 62 NONAME ; void CVideoPlayerUtility::RefreshFrameL(void)
	?RegisterForVideoLoadingNotification@CVideoPlayerUtility@@QAEXAAVMVideoLoadingObserver@@@Z @ 63 NONAME ; void CVideoPlayerUtility::RegisterForVideoLoadingNotification(class MVideoLoadingObserver &)
	?RemoveMetaDataEntryL@CVideoRecorderUtility@@QAEXH@Z @ 64 NONAME ; void CVideoRecorderUtility::RemoveMetaDataEntryL(int)
	?ReplaceMetaDataEntryL@CVideoRecorderUtility@@QAEXHABVCMMFMetaDataEntry@@@Z @ 65 NONAME ; void CVideoRecorderUtility::ReplaceMetaDataEntryL(int, class CMMFMetaDataEntry const &)
	?Reserved1@@YAXXZ @ 66 NONAME ; void Reserved1(void)
	?Reserved2@@YAXXZ @ 67 NONAME ; void Reserved2(void)
	?RotationL@CVideoPlayerUtility@@QBE?AW4TVideoRotation@@XZ @ 68 NONAME ; enum TVideoRotation CVideoPlayerUtility::RotationL(void) const
	?SetAudioBitRateL@CVideoRecorderUtility@@QAEXH@Z @ 69 NONAME ; void CVideoRecorderUtility::SetAudioBitRateL(int)
	?SetAudioEnabledL@CVideoRecorderUtility@@QAEXH@Z @ 70 NONAME ; void CVideoRecorderUtility::SetAudioEnabledL(int)
	?SetAudioTypeL@CVideoRecorderUtility@@QAEXVTFourCC@@@Z @ 71 NONAME ; void CVideoRecorderUtility::SetAudioTypeL(class TFourCC)
	?SetBalanceL@CVideoPlayerUtility@@QAEXH@Z @ 72 NONAME ; void CVideoPlayerUtility::SetBalanceL(int)
	?SetCropRegionL@CVideoPlayerUtility@@QAEXABVTRect@@@Z @ 73 NONAME ; void CVideoPlayerUtility::SetCropRegionL(class TRect const &)
	?SetDisplayWindowL@CVideoPlayerUtility@@QAEXAAVRWsSession@@AAVCWsScreenDevice@@AAVRWindowBase@@ABVTRect@@3@Z @ 74 NONAME ; void CVideoPlayerUtility::SetDisplayWindowL(class RWsSession &, class CWsScreenDevice &, class RWindowBase &, class TRect const &, class TRect const &)
	?SetGainL@CVideoRecorderUtility@@QAEXH@Z @ 75 NONAME ; void CVideoRecorderUtility::SetGainL(int)
	?SetMaxClipSizeL@CVideoRecorderUtility@@QAEXH@Z @ 76 NONAME ; void CVideoRecorderUtility::SetMaxClipSizeL(int)
	?SetPositionL@CVideoPlayerUtility@@QAEXABVTTimeIntervalMicroSeconds@@@Z @ 77 NONAME ; void CVideoPlayerUtility::SetPositionL(class TTimeIntervalMicroSeconds const &)
	?SetPriorityL@CVideoPlayerUtility@@QAEXHW4TMdaPriorityPreference@@@Z @ 78 NONAME ; void CVideoPlayerUtility::SetPriorityL(int, enum TMdaPriorityPreference)
	?SetPriorityL@CVideoRecorderUtility@@QAEXHW4TMdaPriorityPreference@@@Z @ 79 NONAME ; void CVideoRecorderUtility::SetPriorityL(int, enum TMdaPriorityPreference)
	?SetRotationL@CVideoPlayerUtility@@QAEXW4TVideoRotation@@@Z @ 80 NONAME ; void CVideoPlayerUtility::SetRotationL(enum TVideoRotation)
	?SetScaleFactorL@CVideoPlayerUtility@@QAEXMMH@Z @ 81 NONAME ; void CVideoPlayerUtility::SetScaleFactorL(float, float, int)
	?SetVideoBitRateL@CVideoRecorderUtility@@QAEXH@Z @ 82 NONAME ; void CVideoRecorderUtility::SetVideoBitRateL(int)
	?SetVideoFrameRateL@CVideoPlayerUtility@@QAEXM@Z @ 83 NONAME ; void CVideoPlayerUtility::SetVideoFrameRateL(float)
	?SetVideoFrameRateL@CVideoRecorderUtility@@QAEXM@Z @ 84 NONAME ; void CVideoRecorderUtility::SetVideoFrameRateL(float)
	?SetVideoFrameSizeL@CVideoRecorderUtility@@QAEXABVTSize@@@Z @ 85 NONAME ; void CVideoRecorderUtility::SetVideoFrameSizeL(class TSize const &)
	?SetVideoTypeL@CVideoRecorderUtility@@QAEXABVTDesC8@@@Z @ 86 NONAME ; void CVideoRecorderUtility::SetVideoTypeL(class TDesC8 const &)
	?SetVolumeL@CVideoPlayerUtility@@QAEXH@Z @ 87 NONAME ; void CVideoPlayerUtility::SetVolumeL(int)
	?Stop@CVideoPlayerUtility@@QAEHXZ @ 88 NONAME ; int CVideoPlayerUtility::Stop(void)
	?Stop@CVideoRecorderUtility@@QAEHXZ @ 89 NONAME ; int CVideoRecorderUtility::Stop(void)
	?VideoBitRateL@CVideoPlayerUtility@@QBEHXZ @ 90 NONAME ; int CVideoPlayerUtility::VideoBitRateL(void) const
	?VideoBitRateL@CVideoRecorderUtility@@QAEHXZ @ 91 NONAME ; int CVideoRecorderUtility::VideoBitRateL(void)
	?VideoFormatMimeType@CVideoPlayerUtility@@QBEABVTDesC8@@XZ @ 92 NONAME ; class TDesC8 const & CVideoPlayerUtility::VideoFormatMimeType(void) const
	?VideoFormatMimeType@CVideoRecorderUtility@@QBEABVTDesC8@@XZ @ 93 NONAME ; class TDesC8 const & CVideoRecorderUtility::VideoFormatMimeType(void) const
	?VideoFrameRateL@CVideoPlayerUtility@@QBEMXZ @ 94 NONAME ; float CVideoPlayerUtility::VideoFrameRateL(void) const
	?VideoFrameRateL@CVideoRecorderUtility@@QBEMXZ @ 95 NONAME ; float CVideoRecorderUtility::VideoFrameRateL(void) const
	?VideoFrameSizeL@CVideoPlayerUtility@@QBEXAAVTSize@@@Z @ 96 NONAME ; void CVideoPlayerUtility::VideoFrameSizeL(class TSize &) const
	?Volume@CVideoPlayerUtility@@QBEHXZ @ 97 NONAME ; int CVideoPlayerUtility::Volume(void) const
	?StartDirectScreenAccessL@CVideoPlayerUtility@@QAEXXZ @ 98 NONAME ; void CVideoPlayerUtility::StartDirectScreenAccessL(void)
	?StopDirectScreenAccessL@CVideoPlayerUtility@@QAEXXZ @ 99 NONAME ; void CVideoPlayerUtility::StopDirectScreenAccessL(void)
	?CancelRegisterAudioResourceNotification@CVideoPlayerUtility@@QAEHVTUid@@@Z @ 100 NONAME ; int CVideoPlayerUtility::CancelRegisterAudioResourceNotification(class TUid)
	?RegisterAudioResourceNotification@CVideoPlayerUtility@@QAEHAAVMMMFAudioResourceNotificationCallback@@VTUid@@ABVTDesC8@@@Z @ 101 NONAME ; int CVideoPlayerUtility::RegisterAudioResourceNotification(class MMMFAudioResourceNotificationCallback &, class TUid, class TDesC8 const &)
	?WillResumePlay@CVideoPlayerUtility@@QAEHXZ @ 102 NONAME ; int CVideoPlayerUtility::WillResumePlay(void)
	?SetInitScreenNumber@CVideoPlayerUtility@@QAEHH@Z @ 103 NONAME ; int CVideoPlayerUtility::SetInitScreenNumber(int)
	?AudioChannelsL@CVideoRecorderUtility@@QBEIXZ @ 104 NONAME ; unsigned int CVideoRecorderUtility::AudioChannelsL(void) const
	?AudioSampleRateL@CVideoRecorderUtility@@QBEIXZ @ 105 NONAME ; unsigned int CVideoRecorderUtility::AudioSampleRateL(void) const
	?GetPixelAspectRatioL@CVideoRecorderUtility@@QBEXAAVTVideoAspectRatio@@@Z @ 106 NONAME ; void CVideoRecorderUtility::GetPixelAspectRatioL(class TVideoAspectRatio &) const
	?GetSupportedAudioChannelsL@CVideoRecorderUtility@@QBEXAAV?$RArray@I@@@Z @ 107 NONAME ; void CVideoRecorderUtility::GetSupportedAudioChannelsL(class RArray<unsigned int> &) const
	?GetSupportedAudioSampleRatesL@CVideoRecorderUtility@@QBEXAAV?$RArray@I@@@Z @ 108 NONAME ; void CVideoRecorderUtility::GetSupportedAudioSampleRatesL(class RArray<unsigned int> &) const
	?GetSupportedPixelAspectRatiosL@CVideoRecorderUtility@@QBEXAAV?$RArray@VTVideoAspectRatio@@@@@Z @ 109 NONAME ; void CVideoRecorderUtility::GetSupportedPixelAspectRatiosL(class RArray<class TVideoAspectRatio> &) const
	?SetAudioChannelsL@CVideoRecorderUtility@@QAEXI@Z @ 110 NONAME ; void CVideoRecorderUtility::SetAudioChannelsL(unsigned int)
	?SetAudioSampleRateL@CVideoRecorderUtility@@QAEXI@Z @ 111 NONAME ; void CVideoRecorderUtility::SetAudioSampleRateL(unsigned int)
	?SetPixelAspectRatioL@CVideoRecorderUtility@@QAEXABVTVideoAspectRatio@@@Z @ 112 NONAME ; void CVideoRecorderUtility::SetPixelAspectRatioL(class TVideoAspectRatio const &)
	?GetPlayRateCapabilitiesL@CVideoPlayerUtility@@QBEXAAVTVideoPlayRateCapabilities@@@Z @ 113 NONAME ; void CVideoPlayerUtility::GetPlayRateCapabilitiesL(class TVideoPlayRateCapabilities &) const
	?PlayVelocityL@CVideoPlayerUtility@@QBEHXZ @ 114 NONAME ; int CVideoPlayerUtility::PlayVelocityL(void) const
	?SetAudioEnabledL@CVideoPlayerUtility@@QAEXH@Z @ 115 NONAME ; void CVideoPlayerUtility::SetAudioEnabledL(int)
	?SetAutoScaleL@CVideoPlayerUtility@@QAEXW4TAutoScaleType@@@Z @ 116 NONAME ; void CVideoPlayerUtility::SetAutoScaleL(enum TAutoScaleType)
	?SetAutoScaleL@CVideoPlayerUtility@@QAEXW4TAutoScaleType@@HH@Z @ 117 NONAME ; void CVideoPlayerUtility::SetAutoScaleL(enum TAutoScaleType, int, int)
	?SetPlayVelocityL@CVideoPlayerUtility@@QAEXH@Z @ 118 NONAME ; void CVideoPlayerUtility::SetPlayVelocityL(int)
	?SetVideoEnabledL@CVideoPlayerUtility@@QAEXH@Z @ 119 NONAME ; void CVideoPlayerUtility::SetVideoEnabledL(int)
	?SetVideoEnabledL@CVideoRecorderUtility@@QAEXH@Z @ 120 NONAME ; void CVideoRecorderUtility::SetVideoEnabledL(int)
	?SetVideoFrameRateFixedL@CVideoRecorderUtility@@QAEXH@Z @ 121 NONAME ; void CVideoRecorderUtility::SetVideoFrameRateFixedL(int)
	?SetVideoQualityL@CVideoRecorderUtility@@QAEXH@Z @ 122 NONAME ; void CVideoRecorderUtility::SetVideoQualityL(int)
	?StepFrameL@CVideoPlayerUtility@@QAEXH@Z @ 123 NONAME ; void CVideoPlayerUtility::StepFrameL(int)
	?VideoEnabledL@CVideoPlayerUtility@@QBEHXZ @ 124 NONAME ; int CVideoPlayerUtility::VideoEnabledL(void) const
	?VideoEnabledL@CVideoRecorderUtility@@QBEHXZ @ 125 NONAME ; int CVideoRecorderUtility::VideoEnabledL(void) const
	?VideoFrameRateFixedL@CVideoRecorderUtility@@QBEHXZ @ 126 NONAME ; int CVideoRecorderUtility::VideoFrameRateFixedL(void) const
	?VideoQualityL@CVideoRecorderUtility@@QBEHXZ @ 127 NONAME ; int CVideoRecorderUtility::VideoQualityL(void) const
	?AddDisplayWindowL@CVideoPlayerUtility2@@QAEXAAVRWsSession@@AAVCWsScreenDevice@@AAVRWindow@@@Z @ 128 NONAME ABSENT ; void CVideoPlayerUtility2::AddDisplayWindowL(class RWsSession &, class CWsScreenDevice &, class RWindow &)
	?AddDisplayWindowL@CVideoPlayerUtility2@@QAEXAAVRWsSession@@AAVCWsScreenDevice@@AAVRWindow@@ABVTRect@@3@Z @ 129 NONAME ABSENT ; void CVideoPlayerUtility2::AddDisplayWindowL(class RWsSession &, class CWsScreenDevice &, class RWindow &, class TRect const &, class TRect const &)
	?NewL@CVideoPlayerUtility2@@SAPAV1@AAVMVideoPlayerUtilityObserver@@HW4TMdaPriorityPreference@@@Z @ 130 NONAME ABSENT ; class CVideoPlayerUtility2 * CVideoPlayerUtility2::NewL(class MVideoPlayerUtilityObserver &, int, enum TMdaPriorityPreference)
	?RemoveDisplayWindow@CVideoPlayerUtility2@@QAEXAAVRWindow@@@Z @ 131 NONAME ABSENT ; void CVideoPlayerUtility2::RemoveDisplayWindow(class RWindow &)
	?SetVideoExtentL@CVideoPlayerUtility2@@QAEXABVRWindow@@ABVTRect@@@Z @ 132 NONAME ABSENT ; void CVideoPlayerUtility2::SetVideoExtentL(class RWindow const &, class TRect const &)
	?SetWindowClipRectL@CVideoPlayerUtility2@@QAEXABVRWindow@@ABVTRect@@@Z @ 133 NONAME ABSENT ; void CVideoPlayerUtility2::SetWindowClipRectL(class RWindow const &, class TRect const &)
	?GetScaleFactorL@CVideoPlayerUtility2@@QAEXABVRWindow@@AAM1@Z @ 134 NONAME ABSENT ; void CVideoPlayerUtility2::GetScaleFactorL(class RWindow const &, float &, float &)
	?RotationL@CVideoPlayerUtility2@@QAE?AW4TVideoRotation@@ABVRWindow@@@Z @ 135 NONAME ABSENT ; enum TVideoRotation CVideoPlayerUtility2::RotationL(class RWindow const &)
	?SetAutoScaleL@CVideoPlayerUtility2@@QAEXABVRWindow@@W4TAutoScaleType@@@Z @ 136 NONAME ABSENT ; void CVideoPlayerUtility2::SetAutoScaleL(class RWindow const &, enum TAutoScaleType)
	?SetAutoScaleL@CVideoPlayerUtility2@@QAEXABVRWindow@@W4TAutoScaleType@@HH@Z @ 137 NONAME ABSENT ; void CVideoPlayerUtility2::SetAutoScaleL(class RWindow const &, enum TAutoScaleType, int, int)
	?SetRotationL@CVideoPlayerUtility2@@QAEXABVRWindow@@W4TVideoRotation@@@Z @ 138 NONAME ABSENT ; void CVideoPlayerUtility2::SetRotationL(class RWindow const &, enum TVideoRotation)
	?SetScaleFactorL@CVideoPlayerUtility2@@QAEXABVRWindow@@MM@Z @ 139 NONAME ABSENT ; void CVideoPlayerUtility2::SetScaleFactorL(class RWindow const &, float, float)
