EXPORTS
	??0AIpcExtensionInterfaceBase@Den@@IAE@XZ @ 1 NONAME ; Den::AIpcExtensionInterfaceBase::AIpcExtensionInterfaceBase(void)
	??0CCommonDealer@Den@@IAE@PAVCCommonServer@1@@Z @ 2 NONAME ; Den::CCommonDealer::CCommonDealer(class Den::CCommonServer *)
	??0CCommonObjectBroker@Den@@IAE@XZ @ 3 NONAME ; Den::CCommonObjectBroker::CCommonObjectBroker(void)
	??0CCommonPitBoss@Den@@IAE@PAVCCommonWorkerThread@1@@Z @ 4 NONAME ; Den::CCommonPitBoss::CCommonPitBoss(class Den::CCommonWorkerThread *)
	??0CCommonPlayer@Den@@IAE@PAVCCommonWorkerThread@1@VTPlayerRole@1@@Z @ 5 NONAME ; Den::CCommonPlayer::CCommonPlayer(class Den::CCommonWorkerThread *, class Den::TPlayerRole)
	??0CCommonServer@Den@@IAE@HPAVCCommonWorkerThread@1@ABVTPolicy@CPolicyServer@@W4TServerType@CServer2@@ABVTDesC16@@@Z @ 6 NONAME ; Den::CCommonServer::CCommonServer(int, class Den::CCommonWorkerThread *, class CPolicyServer::TPolicy const &, enum CServer2::TServerType, class TDesC16 const &)
	??0CCommonSessionProxy@Den@@IAE@PAVCWorkerSession@1@AAVCCommonPlayer@1@@Z @ 7 NONAME ; Den::CCommonSessionProxy::CCommonSessionProxy(class Den::CWorkerSession *, class Den::CCommonPlayer &)
	??0CCommonWorkerDealer@Den@@IAE@PAVCCommonServer@1@@Z @ 8 NONAME ; Den::CCommonWorkerDealer::CCommonWorkerDealer(class Den::CCommonServer *)
	??0CCommonWorkerThread@Den@@IAE@XZ @ 9 NONAME ; Den::CCommonWorkerThread::CCommonWorkerThread(void)
	??0CWorkerSession@Den@@IAE@VTUidType@@I@Z @ 10 NONAME ; Den::CWorkerSession::CWorkerSession(class TUidType, unsigned int)
	??0CWorkerSubSession@Den@@IAE@PAVCWorkerSession@1@PAVCCommonPlayer@1@I@Z @ 11 NONAME ; Den::CWorkerSubSession::CWorkerSubSession(class Den::CWorkerSession *, class Den::CCommonPlayer *, unsigned int)
	??0THeapSwitcher@Den@@QAE@AAVCCommonPitBoss@1@ABVTNodeId@Messages@@@Z @ 12 NONAME ; Den::THeapSwitcher::THeapSwitcher(class Den::CCommonPitBoss &, class Messages::TNodeId const &)
	??0THeapSwitcher@Den@@QAE@AAVCCommonPitBoss@1@G@Z @ 13 NONAME ; Den::THeapSwitcher::THeapSwitcher(class Den::CCommonPitBoss &, unsigned short)
	??1CCommonDealer@Den@@UAE@XZ @ 14 NONAME ; Den::CCommonDealer::~CCommonDealer(void)
	??1CCommonObjectBroker@Den@@UAE@XZ @ 15 NONAME ; Den::CCommonObjectBroker::~CCommonObjectBroker(void)
	??1CCommonPitBoss@Den@@UAE@XZ @ 16 NONAME ; Den::CCommonPitBoss::~CCommonPitBoss(void)
	??1CCommonPlayer@Den@@UAE@XZ @ 17 NONAME ; Den::CCommonPlayer::~CCommonPlayer(void)
	??1CCommonServer@Den@@UAE@XZ @ 18 NONAME ; Den::CCommonServer::~CCommonServer(void)
	??1CCommonSessionProxy@Den@@UAE@XZ @ 19 NONAME ; Den::CCommonSessionProxy::~CCommonSessionProxy(void)
	??1CCommonWorkerDealer@Den@@UAE@XZ @ 20 NONAME ; Den::CCommonWorkerDealer::~CCommonWorkerDealer(void)
	??1CCommonWorkerThread@Den@@UAE@XZ @ 21 NONAME ; Den::CCommonWorkerThread::~CCommonWorkerThread(void)
	??1CExtItfMsgPluginInfo@Den@@UAE@XZ @ 22 NONAME ; Den::CExtItfMsgPluginInfo::~CExtItfMsgPluginInfo(void)
	??1CSubSessionIx@Den@@UAE@XZ @ 23 NONAME ; Den::CSubSessionIx::~CSubSessionIx(void)
	??1CWorkerSession@Den@@UAE@XZ @ 24 NONAME ; Den::CWorkerSession::~CWorkerSession(void)
	??1CWorkerSubSession@Den@@UAE@XZ @ 25 NONAME ; Den::CWorkerSubSession::~CWorkerSubSession(void)
	??1RSafeMessage@Den@@QAE@XZ @ 26 NONAME ; Den::RSafeMessage::~RSafeMessage(void)
	??1THeapSwitcher@Den@@QAE@XZ @ 27 NONAME ; Den::THeapSwitcher::~THeapSwitcher(void)
	?AddEligiblePidL@CCommonWorkerDealer@Den@@QAEXVTProcessId@@@Z @ 28 NONAME ; void Den::CCommonWorkerDealer::AddEligiblePidL(class TProcessId)
	?AddSubSession@CCommonPitBoss@Den@@QAEHPAVCWorkerSubSession@2@PAVCWorkerSession@2@AAH@Z @ 29 NONAME ; int Den::CCommonPitBoss::AddSubSession(class Den::CWorkerSubSession *, class Den::CWorkerSession *, int &)
	?Adopt@RSafeMessage@Den@@QAEXAAV12@@Z @ 30 NONAME ; void Den::RSafeMessage::Adopt(class Den::RSafeMessage &)
	?AppendAction@CMessageInterceptRegister@Den@@EAEHABVTAction@2@@Z @ 31 NONAME ; int Den::CMessageInterceptRegister::AppendAction(class Den::TAction const &)
	?AppendExpression@CMessageInterceptRegister@Den@@EAEHABVTEventExpression@2@@Z @ 32 NONAME ; int Den::CMessageInterceptRegister::AppendExpression(class Den::TEventExpression const &)
	?AppendPattern@CMessageInterceptRegister@Den@@EAEHPBVCPattern@2@@Z @ 33 NONAME ; int Den::CMessageInterceptRegister::AppendPattern(class Den::CPattern const *)
	?At@CSubSessionIx@Den@@ABEPAVTEntry@12@H@Z @ 34 NONAME ; class Den::CSubSessionIx::TEntry * Den::CSubSessionIx::At(int) const
	?At@CSubSessionIx@Den@@QBEPAVCWorkerSubSession@2@HVTSubSessInfo@2@@Z @ 35 NONAME ; class Den::CWorkerSubSession * Den::CSubSessionIx::At(int, class Den::TSubSessInfo) const
	?BindMessageReceived@CCommonPitBoss@Den@@QAEXABV?$TBuf8@$0CA@@@G@Z @ 36 NONAME ; void Den::CCommonPitBoss::BindMessageReceived(class TBuf8<32> const &, unsigned short)
	?BroadcastConfigurationComplete@CCommonPitBoss@Den@@QAEXW4TConfigurationCompletionType@2@@Z @ 37 NONAME ; void Den::CCommonPitBoss::BroadcastConfigurationComplete(enum Den::TConfigurationCompletionType)
	?CanShutdown@CCommonServer@Den@@QAEHXZ @ 38 NONAME ; int Den::CCommonServer::CanShutdown(void)
	?CheckFinished@CMessageInterceptRegister@Den@@EAEHXZ @ 39 NONAME ; int Den::CMessageInterceptRegister::CheckFinished(void)
	?CleanupDeadWorker@CCommonDealer@Den@@QAEXG@Z @ 40 NONAME ; void Den::CCommonDealer::CleanupDeadWorker(unsigned short)
	?CleanupDeadWorker@CCommonPlayer@Den@@QAEXG@Z @ 41 NONAME ; void Den::CCommonPlayer::CleanupDeadWorker(unsigned short)
	?Close@RApiExtSessionBase@Den@@QAEXXZ @ 42 NONAME ; void Den::RApiExtSessionBase::Close(void)
	?Close@RApiExtSubSessionBase@Den@@QAEXXZ @ 43 NONAME ; void Den::RApiExtSubSessionBase::Close(void)
	?CloseAllSessionIpcExtensions@CWorkerSession@Den@@IAEXXZ @ 44 NONAME ; void Den::CWorkerSession::CloseAllSessionIpcExtensions(void)
	?CloseAllSubSessionIpcExtensions@CWorkerSubSession@Den@@IAEXXZ @ 45 NONAME ; void Den::CWorkerSubSession::CloseAllSubSessionIpcExtensions(void)
	?CloseSessionIpcExtension@CWorkerSession@Den@@IAEXABVRSafeMessage@2@ABVTApiExtIdentification@2@@Z @ 46 NONAME ; void Den::CWorkerSession::CloseSessionIpcExtension(class Den::RSafeMessage const &, class Den::TApiExtIdentification const &)
	?CloseSubSessionIpcExtension@CWorkerSubSession@Den@@IAEXABVRSafeMessage@2@ABVTApiExtIdentification@2@@Z @ 47 NONAME ; void Den::CWorkerSubSession::CloseSubSessionIpcExtension(class Den::RSafeMessage const &, class Den::TApiExtIdentification const &)
	?Complete@RSafeMessage@Den@@QBEXH@Z @ 48 NONAME ; void Den::RSafeMessage::Complete(int) const
	?CompleteMessage@CWorkerSubSession@Den@@IAEXABVRMessage2@@H@Z @ 49 NONAME ; void Den::CWorkerSubSession::CompleteMessage(class RMessage2 const &, int)
	?CompleteSessionClose@CCommonWorkerThread@Den@@QAEXPAVCWorkerSession@2@@Z @ 50 NONAME ; void Den::CCommonWorkerThread::CompleteSessionClose(class Den::CWorkerSession *)
	?ComposeSubSessionName@CWorkerSubSession@Den@@SAXPBV12@AAV?$TBuf@$0IA@@@@Z @ 51 NONAME ; void Den::CWorkerSubSession::ComposeSubSessionName(class Den::CWorkerSubSession const *, class TBuf<128> &)
	?ConstructL@CCommonDealer@Den@@IAEXXZ @ 52 NONAME ; void Den::CCommonDealer::ConstructL(void)
	?ConstructL@CCommonPitBoss@Den@@QAEXXZ @ 53 NONAME ; void Den::CCommonPitBoss::ConstructL(void)
	?ConstructL@CCommonWorkerDealer@Den@@IAEXXZ @ 54 NONAME ; void Den::CCommonWorkerDealer::ConstructL(void)
	?ConstructL@CCommonWorkerThread@Den@@QAEXAAUTCFModuleInfo@CommsFW@@AAVCShutdownWatchDog@2@@Z @ 55 NONAME ; void Den::CCommonWorkerThread::ConstructL(struct CommsFW::TCFModuleInfo &, class Den::CShutdownWatchDog &)
	?ConstructL@CWorkerSession@Den@@QAEXVTProcessId@@@Z @ 56 NONAME ; void Den::CWorkerSession::ConstructL(class TProcessId)
	?ConstructL@CWorkerSubSession@Den@@IAEXXZ @ 57 NONAME ; void Den::CWorkerSubSession::ConstructL(void)
	?CurrentSessionProxyL@CCommonPlayer@Den@@QAEPAVCCommonSessionProxy@2@XZ @ 58 NONAME ; class Den::CCommonSessionProxy * Den::CCommonPlayer::CurrentSessionProxyL(void)
	?DecProlongBindingLife@CCommonWorkerThread@Den@@QAEXXZ @ 59 NONAME ; void Den::CCommonWorkerThread::DecProlongBindingLife(void)
	?DecodePeerId@CCommonWorkerThread@Den@@IAEHPBVTCFSubModuleAddress@CommsFW@@0AAG@Z @ 60 NONAME ; int Den::CCommonWorkerThread::DecodePeerId(class CommsFW::TCFSubModuleAddress const *, class CommsFW::TCFSubModuleAddress const *, unsigned short &)
	?DeleteHBufC8@CCommonWorkerThread@Den@@KAXPAX@Z @ 61 NONAME ; void Den::CCommonWorkerThread::DeleteHBufC8(void *)
	?DeleteSession@CCommonDealer@Den@@QAEXPAVCWorkerSession@2@@Z @ 62 NONAME ; void Den::CCommonDealer::DeleteSession(class Den::CWorkerSession *)
	?DeregisterMessagesAtDestination@TIpcExtensionRoutingMessageBase@Den@@QAEXAAVAIpcExtensionInterfaceBase@2@@Z @ 63 NONAME ; void Den::TIpcExtensionRoutingMessageBase::DeregisterMessagesAtDestination(class Den::AIpcExtensionInterfaceBase &)
	?DestroyDealer@CCommonWorkerThread@Den@@QAEXXZ @ 64 NONAME ; void Den::CCommonWorkerThread::DestroyDealer(void)
	?DestroyPlayer@CCommonWorkerThread@Den@@QAEXXZ @ 65 NONAME ; void Den::CCommonWorkerThread::DestroyPlayer(void)
	?DetermineRoleL@CCommonWorkerThread@Den@@IAEXPAVHBufC8@@AAH1AAVTPlayerRole@2@@Z @ 66 NONAME ; void Den::CCommonWorkerThread::DetermineRoleL(class HBufC8 *, int &, int &, class Den::TPlayerRole &)
	?Disconnect@CWorkerSession@Den@@UAEXABVRMessage2@@@Z @ 67 NONAME ; void Den::CWorkerSession::Disconnect(class RMessage2 const &)
	?DispatchL@CCommonWorkerThread@Den@@UAEXABVTCFMessage@CommsFW@@G@Z @ 68 NONAME ; void Den::CCommonWorkerThread::DispatchL(class CommsFW::TCFMessage const &, unsigned short)
	?DispatchL@TAppendActionMsg@Den@@UAEXAAVTInterfaceControl@NetInterfaces@@IAAVRResponseMsg@Elements@@@Z @ 69 NONAME ; void Den::TAppendActionMsg::DispatchL(class NetInterfaces::TInterfaceControl &, unsigned int, class Elements::RResponseMsg &)
	?DispatchL@TAppendExpressionMsg@Den@@UAEXAAVTInterfaceControl@NetInterfaces@@IAAVRResponseMsg@Elements@@@Z @ 70 NONAME ; void Den::TAppendExpressionMsg::DispatchL(class NetInterfaces::TInterfaceControl &, unsigned int, class Elements::RResponseMsg &)
	?DispatchL@TCheckFallibleMsgModeMsg@Den@@UAEXAAVTInterfaceControl@NetInterfaces@@IAAVRResponseMsg@Elements@@@Z @ 71 NONAME ; void Den::TCheckFallibleMsgModeMsg::DispatchL(class NetInterfaces::TInterfaceControl &, unsigned int, class Elements::RResponseMsg &)
	?DispatchL@TDisableMsg@Den@@UAEXAAVTInterfaceControl@NetInterfaces@@IAAVRResponseMsg@Elements@@@Z @ 72 NONAME ; void Den::TDisableMsg::DispatchL(class NetInterfaces::TInterfaceControl &, unsigned int, class Elements::RResponseMsg &)
	?DispatchL@TEnableFallibleMsgModeMsg@Den@@UAEXAAVTInterfaceControl@NetInterfaces@@IAAVRResponseMsg@Elements@@@Z @ 73 NONAME ; void Den::TEnableFallibleMsgModeMsg::DispatchL(class NetInterfaces::TInterfaceControl &, unsigned int, class Elements::RResponseMsg &)
	?DispatchL@TEnableMsg@Den@@UAEXAAVTInterfaceControl@NetInterfaces@@IAAVRResponseMsg@Elements@@@Z @ 74 NONAME ; void Den::TEnableMsg::DispatchL(class NetInterfaces::TInterfaceControl &, unsigned int, class Elements::RResponseMsg &)
	?DispatchL@TInitFallibleMsgModeMsg@Den@@UAEXAAVTInterfaceControl@NetInterfaces@@IAAVRResponseMsg@Elements@@@Z @ 75 NONAME ; void Den::TInitFallibleMsgModeMsg::DispatchL(class NetInterfaces::TInterfaceControl &, unsigned int, class Elements::RResponseMsg &)
	?DispatchL@TQueryCompleteMsg@Den@@UAEXAAVTInterfaceControl@NetInterfaces@@IAAVRResponseMsg@Elements@@@Z @ 76 NONAME ; void Den::TQueryCompleteMsg::DispatchL(class NetInterfaces::TInterfaceControl &, unsigned int, class Elements::RResponseMsg &)
	?DispatchL@TSoftResetMsg@Den@@UAEXAAVTInterfaceControl@NetInterfaces@@IAAVRResponseMsg@Elements@@@Z @ 77 NONAME ; void Den::TSoftResetMsg::DispatchL(class NetInterfaces::TInterfaceControl &, unsigned int, class Elements::RResponseMsg &)
	?DoCreateRedShirt@CCommonPitBoss@Den@@UAEHAAVRThread@@GAAVCCommonWorkerThread@2@@Z @ 78 NONAME ; int Den::CCommonPitBoss::DoCreateRedShirt(class RThread &, unsigned short, class Den::CCommonWorkerThread &)
	?DontCompleteCurrentRequest@CCommonPlayer@Den@@QAEXXZ @ 79 NONAME ; void Den::CCommonPlayer::DontCompleteCurrentRequest(void)
	?DontCompleteCurrentRequest@CWorkerSession@Den@@QAEXXZ @ 80 NONAME ; void Den::CWorkerSession::DontCompleteCurrentRequest(void)
	?DontCompleteCurrentRequest@CWorkerSubSession@Den@@QBEXXZ @ 81 NONAME ; void Den::CWorkerSubSession::DontCompleteCurrentRequest(void) const
	?Duplicate@RSafeMessage@Den@@QAEXABV12@@Z @ 82 NONAME ; void Den::RSafeMessage::Duplicate(class Den::RSafeMessage const &)
	?Enable@CMessageInterceptRegister@Den@@EAEHH@Z @ 83 NONAME ; int Den::CMessageInterceptRegister::Enable(int)
	?Enable@CMessageInterceptRegister@Den@@EAEHXZ @ 84 NONAME ; int Den::CMessageInterceptRegister::Enable(void)
	?FetchSubSessionFromName@CWorkerSubSession@Den@@SAHABV?$TBuf@$0IA@@@VTSubSessInfo@2@ABVCCommonWorkerThread@2@AAPAV12@@Z @ 85 NONAME ; int Den::CWorkerSubSession::FetchSubSessionFromName(class TBuf<128> const &, class Den::TSubSessInfo, class Den::CCommonWorkerThread const &, class Den::CWorkerSubSession * &)
	?Find@CSubSessionIx@Den@@QBEHPAVCWorkerSubSession@2@AAH@Z @ 86 NONAME ; int Den::CSubSessionIx::Find(class Den::CWorkerSubSession *, int &) const
	?FindOptimalDealer@CCommonPitBoss@Den@@QAEHGAAPAVCCommonWorkerDealer@2@@Z @ 87 NONAME ; int Den::CCommonPitBoss::FindOptimalDealer(unsigned short, class Den::CCommonWorkerDealer * &)
	?ForwardMesasge@CCommonObjectBroker@Den@@IAEXABVTRuntimeCtxId@Messages@@ABVTSignalBase@4@ABVTClientType@4@@Z @ 88 NONAME ; void Den::CCommonObjectBroker::ForwardMesasge(class Messages::TRuntimeCtxId const &, class Messages::TSignalBase const &, class Messages::TClientType const &)
	?ForwardMessageL@CWorkerSession@Den@@IAEXABVRMessage2@@AAVCWorkerSubSession@2@@Z @ 89 NONAME ; void Den::CWorkerSession::ForwardMessageL(class RMessage2 const &, class Den::CWorkerSubSession &)
	?ForwardMessageL@CWorkerSession@Den@@IAEXABVRMessage2@@PAVCWorkerSubSession@2@G@Z @ 90 NONAME ; void Den::CWorkerSession::ForwardMessageL(class RMessage2 const &, class Den::CWorkerSubSession *, unsigned short)
	?GetAttribPtr@TAppendActionMsg@Den@@UBEPAEH@Z @ 91 NONAME ; unsigned char * Den::TAppendActionMsg::GetAttribPtr(int) const
	?GetAttribPtr@TAppendExpressionMsg@Den@@UBEPAEH@Z @ 92 NONAME ; unsigned char * Den::TAppendExpressionMsg::GetAttribPtr(int) const
	?GetAttribPtr@TCheckFallibleMsgModeMsg@Den@@UBEPAEH@Z @ 93 NONAME ; unsigned char * Den::TCheckFallibleMsgModeMsg::GetAttribPtr(int) const
	?GetAttribPtr@TDisableMsg@Den@@UBEPAEH@Z @ 94 NONAME ; unsigned char * Den::TDisableMsg::GetAttribPtr(int) const
	?GetAttribPtr@TEnableFallibleMsgModeMsg@Den@@UBEPAEH@Z @ 95 NONAME ; unsigned char * Den::TEnableFallibleMsgModeMsg::GetAttribPtr(int) const
	?GetAttribPtr@TEnableMsg@Den@@UBEPAEH@Z @ 96 NONAME ; unsigned char * Den::TEnableMsg::GetAttribPtr(int) const
	?GetAttribPtr@TInitFallibleMsgModeMsg@Den@@UBEPAEH@Z @ 97 NONAME ; unsigned char * Den::TInitFallibleMsgModeMsg::GetAttribPtr(int) const
	?GetAttribPtr@TQueryCompleteMsg@Den@@UBEPAEH@Z @ 98 NONAME ; unsigned char * Den::TQueryCompleteMsg::GetAttribPtr(int) const
	?GetAttribPtr@TSoftResetMsg@Den@@UBEPAEH@Z @ 99 NONAME ; unsigned char * Den::TSoftResetMsg::GetAttribPtr(int) const
	?GetDealer@CCommonPitBoss@Den@@QAEPAVCCommonDealer@2@G@Z @ 100 NONAME ; class Den::CCommonDealer * Den::CCommonPitBoss::GetDealer(unsigned short)
	?GetDesLengthL@RSafeMessage@Den@@QBEHH@Z @ 101 NONAME ; int Den::RSafeMessage::GetDesLengthL(int) const
	?GetInterfaceControl@CMessageInterceptRegister@Den@@SAAAVTInterfaceControl@NetInterfaces@@XZ @ 102 NONAME ; class NetInterfaces::TInterfaceControl & Den::CMessageInterceptRegister::GetInterfaceControl(void)
	?GetOwnerInfo@CWorkerSession@Den@@QBEXAAVTProcessId@@AAVTUidType@@@Z @ 103 NONAME ; void Den::CWorkerSession::GetOwnerInfo(class TProcessId &, class TUidType &) const
	?GetOwnerInfo@CWorkerSubSession@Den@@QBEXAAVTProcessId@@AAVTUidType@@AAVTThreadId@@@Z @ 104 NONAME ; void Den::CWorkerSubSession::GetOwnerInfo(class TProcessId &, class TUidType &, class TThreadId &) const
	?GetPlayer@CCommonPitBoss@Den@@QAEPAVCCommonPlayer@2@ABVTWorkerIntroductionMsg@2@@Z @ 105 NONAME ; class Den::CCommonPlayer * Den::CCommonPitBoss::GetPlayer(class Den::TWorkerIntroductionMsg const &)
	?GetVDataTable@TAppendActionMsg@Den@@UBEPBUSVDataTableEntry@Meta@@XZ @ 106 NONAME ; struct Meta::SVDataTableEntry const * Den::TAppendActionMsg::GetVDataTable(void) const
	?GetVDataTable@TAppendExpressionMsg@Den@@UBEPBUSVDataTableEntry@Meta@@XZ @ 107 NONAME ; struct Meta::SVDataTableEntry const * Den::TAppendExpressionMsg::GetVDataTable(void) const
	?GetVDataTable@TCheckFallibleMsgModeMsg@Den@@UBEPBUSVDataTableEntry@Meta@@XZ @ 108 NONAME ; struct Meta::SVDataTableEntry const * Den::TCheckFallibleMsgModeMsg::GetVDataTable(void) const
	?GetVDataTable@TDisableMsg@Den@@UBEPBUSVDataTableEntry@Meta@@XZ @ 109 NONAME ; struct Meta::SVDataTableEntry const * Den::TDisableMsg::GetVDataTable(void) const
	?GetVDataTable@TEnableFallibleMsgModeMsg@Den@@UBEPBUSVDataTableEntry@Meta@@XZ @ 110 NONAME ; struct Meta::SVDataTableEntry const * Den::TEnableFallibleMsgModeMsg::GetVDataTable(void) const
	?GetVDataTable@TEnableMsg@Den@@UBEPBUSVDataTableEntry@Meta@@XZ @ 111 NONAME ; struct Meta::SVDataTableEntry const * Den::TEnableMsg::GetVDataTable(void) const
	?GetVDataTable@TInitFallibleMsgModeMsg@Den@@UBEPBUSVDataTableEntry@Meta@@XZ @ 112 NONAME ; struct Meta::SVDataTableEntry const * Den::TInitFallibleMsgModeMsg::GetVDataTable(void) const
	?GetVDataTable@TQueryCompleteMsg@Den@@UBEPBUSVDataTableEntry@Meta@@XZ @ 113 NONAME ; struct Meta::SVDataTableEntry const * Den::TQueryCompleteMsg::GetVDataTable(void) const
	?GetVDataTable@TSoftResetMsg@Den@@UBEPBUSVDataTableEntry@Meta@@XZ @ 114 NONAME ; struct Meta::SVDataTableEntry const * Den::TSoftResetMsg::GetVDataTable(void) const
	?GetVDataTableStatic@TApiExtRespMsg@Den@@SAPBUSVDataTableEntry@Meta@@XZ @ 115 NONAME ; struct Meta::SVDataTableEntry const * Den::TApiExtRespMsg::GetVDataTableStatic(void)
	?GetVDataTableStatic@TApiExtSessionReqMsg@Den@@SAPBUSVDataTableEntry@Meta@@XZ @ 116 NONAME ; struct Meta::SVDataTableEntry const * Den::TApiExtSessionReqMsg::GetVDataTableStatic(void)
	?GetVDataTableStatic@TApiExtSubSessionReqMsg@Den@@SAPBUSVDataTableEntry@Meta@@XZ @ 117 NONAME ; struct Meta::SVDataTableEntry const * Den::TApiExtSubSessionReqMsg::GetVDataTableStatic(void)
	?GetVDataTableStatic@TAppendActionMsg@Den@@SAPBUSVDataTableEntry@Meta@@XZ @ 118 NONAME ; struct Meta::SVDataTableEntry const * Den::TAppendActionMsg::GetVDataTableStatic(void)
	?GetVDataTableStatic@TAppendExpressionMsg@Den@@SAPBUSVDataTableEntry@Meta@@XZ @ 119 NONAME ; struct Meta::SVDataTableEntry const * Den::TAppendExpressionMsg::GetVDataTableStatic(void)
	?GetVDataTableStatic@TCheckFallibleMsgModeMsg@Den@@SAPBUSVDataTableEntry@Meta@@XZ @ 120 NONAME ; struct Meta::SVDataTableEntry const * Den::TCheckFallibleMsgModeMsg::GetVDataTableStatic(void)
	?GetVDataTableStatic@TDisableMsg@Den@@SAPBUSVDataTableEntry@Meta@@XZ @ 121 NONAME ; struct Meta::SVDataTableEntry const * Den::TDisableMsg::GetVDataTableStatic(void)
	?GetVDataTableStatic@TEnableFallibleMsgModeMsg@Den@@SAPBUSVDataTableEntry@Meta@@XZ @ 122 NONAME ; struct Meta::SVDataTableEntry const * Den::TEnableFallibleMsgModeMsg::GetVDataTableStatic(void)
	?GetVDataTableStatic@TEnableMsg@Den@@SAPBUSVDataTableEntry@Meta@@XZ @ 123 NONAME ; struct Meta::SVDataTableEntry const * Den::TEnableMsg::GetVDataTableStatic(void)
	?GetVDataTableStatic@TInitFallibleMsgModeMsg@Den@@SAPBUSVDataTableEntry@Meta@@XZ @ 124 NONAME ; struct Meta::SVDataTableEntry const * Den::TInitFallibleMsgModeMsg::GetVDataTableStatic(void)
	?GetVDataTableStatic@TIpcExtensionRoutingMessageBase@Den@@SAPBUSVDataTableEntry@Meta@@XZ @ 125 NONAME ; struct Meta::SVDataTableEntry const * Den::TIpcExtensionRoutingMessageBase::GetVDataTableStatic(void)
	?GetVDataTableStatic@TIpcExtensionRoutingMessageFromSession@Den@@SAPBUSVDataTableEntry@Meta@@XZ @ 126 NONAME ; struct Meta::SVDataTableEntry const * Den::TIpcExtensionRoutingMessageFromSession::GetVDataTableStatic(void)
	?GetVDataTableStatic@TIpcExtensionRoutingMessageFromSubSession@Den@@SAPBUSVDataTableEntry@Meta@@XZ @ 127 NONAME ; struct Meta::SVDataTableEntry const * Den::TIpcExtensionRoutingMessageFromSubSession::GetVDataTableStatic(void)
	?GetVDataTableStatic@TQueryCompleteMsg@Den@@SAPBUSVDataTableEntry@Meta@@XZ @ 128 NONAME ; struct Meta::SVDataTableEntry const * Den::TQueryCompleteMsg::GetVDataTableStatic(void)
	?GetVDataTableStatic@TSoftResetMsg@Den@@SAPBUSVDataTableEntry@Meta@@XZ @ 129 NONAME ; struct Meta::SVDataTableEntry const * Den::TSoftResetMsg::GetVDataTableStatic(void)
	?HandleWorkerCleanupCompletionByPeer@CCommonPitBoss@Den@@QAEXGG@Z @ 130 NONAME ; void Den::CCommonPitBoss::HandleWorkerCleanupCompletionByPeer(unsigned short, unsigned short)
	?HardReset@CMessageInterceptRegister@Den@@EAEHXZ @ 131 NONAME ; int Den::CMessageInterceptRegister::HardReset(void)
	?IncProlongBindingLife@CCommonWorkerThread@Den@@QAEXXZ @ 132 NONAME ; void Den::CCommonWorkerThread::IncProlongBindingLife(void)
	?InitL@TInitFallibleMsgModeMsg@Den@@QAEXAAV?$RArray@VTMessageId@TNodeSignal@Messages@@@@@Z @ 133 NONAME ; void Den::TInitFallibleMsgModeMsg::InitL(class RArray<class Messages::TNodeSignal::TMessageId> &)
	?IsDisconnectListEmpty@CWorkerSession@Den@@QBEHXZ @ 134 NONAME ; int Den::CWorkerSession::IsDisconnectListEmpty(void) const
	?IsEligible@CCommonWorkerDealer@Den@@QAEHVTProcessId@@@Z @ 135 NONAME ; int Den::CCommonWorkerDealer::IsEligible(class TProcessId)
	?IsSessionIpcExtensionSupported@CWorkerSession@Den@@IAEPAVTIpcExtensionRoutingMessageFromSession@2@HAAVTDes8@@@Z @ 136 NONAME ; class Den::TIpcExtensionRoutingMessageFromSession * Den::CWorkerSession::IsSessionIpcExtensionSupported(int, class TDes8 &)
	?IsShuttingDown@CCommonPitBoss@Den@@QBEHXZ @ 137 NONAME ; int Den::CCommonPitBoss::IsShuttingDown(void) const
	?IsSubSessionIpcExtensionSupported@CWorkerSubSession@Den@@IAEPAVTIpcExtensionRoutingMessageFromSubSession@2@HAAVTDes8@@@Z @ 138 NONAME ; class Den::TIpcExtensionRoutingMessageFromSubSession * Den::CWorkerSubSession::IsSubSessionIpcExtensionSupported(int, class TDes8 &)
	?LogSubSession@CWorkerSession@Den@@SAXPAV12@PAVCWorkerSubSession@2@HPAX@Z @ 139 NONAME ; void Den::CWorkerSession::LogSubSession(class Den::CWorkerSession *, class Den::CWorkerSubSession *, int, void *)
	?MaybeCompleteUnbinding@CCommonWorkerThread@Den@@IAEXGH@Z @ 140 NONAME ; void Den::CCommonWorkerThread::MaybeCompleteUnbinding(unsigned short)
	?MaybeCompleteUnbindings@CCommonWorkerThread@Den@@QAEHXZ @ 141 NONAME ; int Den::CCommonWorkerThread::MaybeCompleteUnbindings(void)
	?MaybeSetPlayerShutdownComplete@CCommonPlayer@Den@@QAEXH@Z @ 142 NONAME ; void Den::CCommonPlayer::MaybeSetPlayerShutdownComplete(int)
	?MaybeSwitch@THeapSwitcher@Den@@AAEXAAVCCommonPitBoss@2@G@Z @ 143 NONAME ; void Den::THeapSwitcher::MaybeSwitch(class Den::CCommonPitBoss &, unsigned short)
	?MaybeSwitchHeap@CCommonPitBoss@Den@@QAEPAVRAllocator@@G@Z @ 144 NONAME ; class RAllocator * Den::CCommonPitBoss::MaybeSwitchHeap(unsigned short)
	?MaybeTriggerThreadShutdownCallback@CCommonWorkerThread@Den@@QAEXXZ @ 145 NONAME ; void Den::CCommonWorkerThread::MaybeTriggerThreadShutdownCallback(void)
	?ModuleConfigurationComplete@CCommonPitBoss@Den@@QBEHXZ @ 146 NONAME ; int Den::CCommonPitBoss::ModuleConfigurationComplete(void) const
	?NewInstanceL@CExtItfMsgPluginInfo@Den@@SAPAV12@ABUSTypeId@Meta@@@Z @ 147 NONAME ; class Den::CExtItfMsgPluginInfo * Den::CExtItfMsgPluginInfo::NewInstanceL(struct Meta::STypeId const &)
	?NewL@CCommonDealer@Den@@SAPAV12@PAVCCommonServer@2@@Z @ 148 NONAME ; class Den::CCommonDealer * Den::CCommonDealer::NewL(class Den::CCommonServer *)
	?NewL@CCommonWorkerDealer@Den@@SAPAV12@PAVCCommonServer@2@@Z @ 149 NONAME ; class Den::CCommonWorkerDealer * Den::CCommonWorkerDealer::NewL(class Den::CCommonServer *)
	?NewL@CPattern@Den@@SAPAV12@ABVRExpressionList@2@ABVTAction@2@@Z @ 150 NONAME ; class Den::CPattern * Den::CPattern::NewL(class Den::RExpressionList const &, class Den::TAction const &)
	?NewL@CShutdownWatchDog@Den@@SAPAV12@PAVCCommonWorkerThread@2@ABVTCallBack@@@Z @ 151 NONAME ; class Den::CShutdownWatchDog * Den::CShutdownWatchDog::NewL(class Den::CCommonWorkerThread *, class TCallBack const &)
	?NewL@CWorkerRootServChannelHandler@Den@@SAPAV12@UTMsgQueuesTAG@?$RCFChannelBase@VTCFMessage@CommsFW@@$00@CommsFW@@0PAVCCommonWorkerThread@2@@Z @ 152 NONAME ; class Den::CWorkerRootServChannelHandler * Den::CWorkerRootServChannelHandler::NewL(struct CommsFW::RCFChannelBase<class CommsFW::TCFMessage, 1>::TMsgQueuesTAG, struct CommsFW::RCFChannelBase<class CommsFW::TCFMessage, 1>::TMsgQueuesTAG, class Den::CCommonWorkerThread *)
	?NewL@TApiExtRespMsg@Den@@SAPAV12@ABUSTypeId@Meta@@@Z @ 153 NONAME ; class Den::TApiExtRespMsg * Den::TApiExtRespMsg::NewL(struct Meta::STypeId const &)
	?NewL@TApiExtRespMsg@Den@@SAPAV12@ABVTDesC8@@@Z @ 154 NONAME ; class Den::TApiExtRespMsg * Den::TApiExtRespMsg::NewL(class TDesC8 const &)
	?NewL@TCheckFallibleMsgModeResponseMsg@Den@@SAPAV12@XZ @ 155 NONAME ; class Den::TCheckFallibleMsgModeResponseMsg * Den::TCheckFallibleMsgModeResponseMsg::NewL(void)
	?NewSessionL@CCommonServer@Den@@MBEPAVCSession2@@ABVTVersion@@ABVRMessage2@@@Z @ 156 NONAME ; class CSession2 * Den::CCommonServer::NewSessionL(class TVersion const &, class RMessage2 const &) const
	?NodeId@CCommonObjectBroker@Den@@UBEABVTNodeId@Messages@@XZ @ 157 NONAME ABSENT ; class Messages::TNodeId const & Den::CCommonObjectBroker::NodeId(void) const
	?NotifySubSessionDestroyed@CCommonSessionProxy@Den@@QAEXXZ @ 158 NONAME ; void Den::CCommonSessionProxy::NotifySubSessionDestroyed(void)
	?OnCPMsConfigured@CCommonPitBoss@Den@@UAEXXZ @ 159 NONAME ; void Den::CCommonPitBoss::OnCPMsConfigured(void)
	?OnDispatchLeave@CCommonWorkerThread@Den@@UAEXABVTCFMessage@CommsFW@@GH@Z @ 160 NONAME ; void Den::CCommonWorkerThread::OnDispatchLeave(class CommsFW::TCFMessage const &, unsigned short, int)
	?OnPeerDeath@CCommonPitBoss@Den@@UAEXG@Z @ 161 NONAME ; void Den::CCommonPitBoss::OnPeerDeath(unsigned short)
	?Open@RApiExtSessionBase@Den@@IAEHAAVRExtendableSessionBase@2@H@Z @ 162 NONAME ; int Den::RApiExtSessionBase::Open(class Den::RExtendableSessionBase &, int)
	?Open@RApiExtSubSessionBase@Den@@IAEHAAVRExtendableSubSessionBase@2@H@Z @ 163 NONAME ; int Den::RApiExtSubSessionBase::Open(class Den::RExtendableSubSessionBase &, int)
	?OpenSessionIpcExtensionL@CWorkerSession@Den@@IAEXABVRSafeMessage@2@ABVTApiExtIdentification@2@@Z @ 164 NONAME ; void Den::CWorkerSession::OpenSessionIpcExtensionL(class Den::RSafeMessage const &, class Den::TApiExtIdentification const &)
	?OpenSubSessionIpcExtensionL@CWorkerSubSession@Den@@IAEXABVRSafeMessage@2@ABVTApiExtIdentification@2@@Z @ 165 NONAME ; void Den::CWorkerSubSession::OpenSubSessionIpcExtensionL(class Den::RSafeMessage const &, class Den::TApiExtIdentification const &)
	?OrphanSubSessions@CWorkerSession@Den@@IAEXXZ @ 166 NONAME ABSENT ; void Den::CWorkerSession::OrphanSubSessions(void)
	?PanicClient@CCommonPlayer@Den@@QAEXABVTDesC16@@H@Z @ 167 NONAME ; void Den::CCommonPlayer::PanicClient(class TDesC16 const &, int)
	?PanicClient@CCommonPlayer@Den@@QAEXH@Z @ 168 NONAME ; void Den::CCommonPlayer::PanicClient(int)
	?PanicClient@CWorkerSubSession@Den@@IAEXABVTDesC16@@H@Z @ 169 NONAME ; void Den::CWorkerSubSession::PanicClient(class TDesC16 const &, int)
	?PanicClient@CWorkerSubSession@Den@@IAEXH@Z @ 170 NONAME ; void Den::CWorkerSubSession::PanicClient(int)
	?PanicClient@RSafeMessage@Den@@QBEXABVTDesC16@@H@Z @ 171 NONAME ; void Den::RSafeMessage::PanicClient(class TDesC16 const &, int) const
	?ParkIfIndeterminateRequest@CWorkerSession@Den@@IAEXABVRMessage2@@H@Z @ 172 NONAME ; void Den::CWorkerSession::ParkIfIndeterminateRequest(class RMessage2 const &, int)
	?ParkRequest@CCommonDealer@Den@@QBEHPAVCWorkerSession@2@ABVRMessage2@@W4TParkReason@12@@Z @ 173 NONAME ; int Den::CCommonDealer::ParkRequest(class Den::CWorkerSession *, class RMessage2 const &, enum Den::CCommonDealer::TParkReason) const
	?PeerWorkerExiting@CCommonPitBoss@Den@@QAEXG@Z @ 174 NONAME ; void Den::CCommonPitBoss::PeerWorkerExiting(unsigned short)
	?PostMessage@CCommonPitBoss@Den@@QAEXGAAVTCFMessage@CommsFW@@@Z @ 175 NONAME ; void Den::CCommonPitBoss::PostMessage(unsigned short, class CommsFW::TCFMessage &)
	?PostMessage@CCommonWorkerThread@Den@@QAEXGAAVTCFMessage@CommsFW@@@Z @ 176 NONAME ; void Den::CCommonWorkerThread::PostMessage(unsigned short, class CommsFW::TCFMessage &)
	?PostMortemCleanupThreadEntry@CCommonWorkerThread@Den@@SAHPAX@Z @ 177 NONAME ; int Den::CCommonWorkerThread::PostMortemCleanupThreadEntry(void *)
	?Printf@Logging@Den@@SAXHABVTDesC8@@V?$TRefByValue@$$CBVTDesC8@@@@ZZ @ 178 NONAME ; void Den::Logging::Printf(int, class TDesC8 const &, class TRefByValue<class TDesC8 const >, ...)
	?Printf@Logging@Den@@SAXHABVTDesC8@@W4TLogEntryType@12@V?$TRefByValue@$$CBVTDesC8@@@@AAY00PAC@Z @ 179 NONAME ; void Den::Logging::Printf(int, class TDesC8 const &, enum Den::Logging::TLogEntryType, class TRefByValue<class TDesC8 const >, signed char * [1] &)
	?Printf@Logging@Den@@SAXHABVTDesC8@@W4TLogEntryType@12@V?$TRefByValue@$$CBVTDesC8@@@@ZZ @ 180 NONAME ; void Den::Logging::Printf(int, class TDesC8 const &, enum Den::Logging::TLogEntryType, class TRefByValue<class TDesC8 const >, ...)
	?ProcessConfigurationComplete@CCommonDealer@Den@@QAEXW4TConfigurationCompletionType@2@@Z @ 181 NONAME ; void Den::CCommonDealer::ProcessConfigurationComplete(enum Den::TConfigurationCompletionType)
	?ProcessMessageL@CCommonPlayer@Den@@QAEXABVRSafeMessage@2@PAVCWorkerSubSession@2@@Z @ 182 NONAME ; void Den::CCommonPlayer::ProcessMessageL(class Den::RSafeMessage const &, class Den::CWorkerSubSession *)
	?ProcessSubSessions@CWorkerSession@Den@@QAEXGP6AXPAV12@PAVCWorkerSubSession@2@HPAX@Z2@Z @ 183 NONAME ; void Den::CWorkerSession::ProcessSubSessions(unsigned short, void (*)(class Den::CWorkerSession *, class Den::CWorkerSubSession *, int, void *), void *)
	?ProcessWorkerIntroductionL@CCommonPitBoss@Den@@QAEXABVTWorkerIntroductionMsg@2@@Z @ 184 NONAME ; void Den::CCommonPitBoss::ProcessWorkerIntroductionL(class Den::TWorkerIntroductionMsg const &)
	?QueryComplete@CMessageInterceptRegister@Den@@EAEHXZ @ 185 NONAME ; int Den::CMessageInterceptRegister::QueryComplete(void)
	?QueryMessageInterceptL@CMessageInterceptRegister@Den@@EAEXABVTEventSummaryTriple@2@@Z @ 186 NONAME ; void Den::CMessageInterceptRegister::QueryMessageInterceptL(class Den::TEventSummaryTriple const &)
	?RThreadRef@CCommonPitBoss@Den@@QBEABVRThread@@G@Z @ 187 NONAME ; class RThread const & Den::CCommonPitBoss::RThreadRef(unsigned short) const
	?Read@RSafeMessage@Den@@QBEHHAAVTDes16@@H@Z @ 188 NONAME ; int Den::RSafeMessage::Read(int, class TDes16 &, int) const
	?Read@RSafeMessage@Den@@QBEHHAAVTDes8@@H@Z @ 189 NONAME ; int Den::RSafeMessage::Read(int, class TDes8 &, int) const
	?ReadL@RSafeMessage@Den@@QBEXHAAVTDes16@@H@Z @ 190 NONAME ; void Den::RSafeMessage::ReadL(int, class TDes16 &, int) const
	?ReadL@RSafeMessage@Den@@QBEXHAAVTDes8@@H@Z @ 191 NONAME ; void Den::RSafeMessage::ReadL(int, class TDes8 &, int) const
	?RegisterMessagesAtDestinationL@TIpcExtensionRoutingMessageBase@Den@@QAEXAAVAIpcExtensionInterfaceBase@2@@Z @ 192 NONAME ; void Den::TIpcExtensionRoutingMessageBase::RegisterMessagesAtDestinationL(class Den::AIpcExtensionInterfaceBase &)
	?RegisterNewNode@CMessageInterceptRegister@Den@@EAEHABVTNodeSpecifier@2@@Z @ 193 NONAME ; int Den::CMessageInterceptRegister::RegisterNewNode(class Den::TNodeSpecifier const &)
	?Remove@CSubSessionIx@Den@@QAEPAVCWorkerSubSession@2@H@Z @ 194 NONAME ; class Den::CWorkerSubSession * Den::CSubSessionIx::Remove(int)
	?RemoveEligiblePid@CCommonWorkerDealer@Den@@QAEXVTProcessId@@@Z @ 195 NONAME ; void Den::CCommonWorkerDealer::RemoveEligiblePid(class TProcessId)
	?RemoveSubSession@CCommonPitBoss@Den@@QAEXHPAVCWorkerSession@2@@Z @ 196 NONAME ; void Den::CCommonPitBoss::RemoveSubSession(int, class Den::CWorkerSession *)
	?Replace@CSubSessionIx@Den@@QAEPAVCWorkerSubSession@2@HPAV32@@Z @ 197 NONAME ; class Den::CWorkerSubSession * Den::CSubSessionIx::Replace(int, class Den::CWorkerSubSession *)
	?ResetHandle@RSafeMessage@Den@@QAEXXZ @ 198 NONAME ; void Den::RSafeMessage::ResetHandle(void)
	?ResolvePlayerRoleToId@CCommonPitBoss@Den@@QBEHABVTPlayerRole@2@AAG@Z @ 199 NONAME ; int Den::CCommonPitBoss::ResolvePlayerRoleToId(class Den::TPlayerRole const &, unsigned short &) const
	?ResolveWorkerNameToId@CCommonPitBoss@Den@@QBEHABVTDesC8@@AAG@Z @ 200 NONAME ; int Den::CCommonPitBoss::ResolveWorkerNameToId(class TDesC8 const &, unsigned short &) const
	?RevertToOwnHeap@THeapSwitcher@Den@@QAEXXZ @ 201 NONAME ; void Den::THeapSwitcher::RevertToOwnHeap(void)
	?SafeMessage@CWorkerSubSession@Den@@QBEABVRSafeMessage@2@XZ @ 202 NONAME ; class Den::RSafeMessage const & Den::CWorkerSubSession::SafeMessage(void) const
	?Send@CWorkerRootServChannelHandler@Den@@QAEHABVTCFMessage@CommsFW@@@Z @ 203 NONAME ; int Den::CWorkerRootServChannelHandler::Send(class CommsFW::TCFMessage const &)
	?Send@RApiExtSessionBase@Den@@IBEXAAVTApiExtReqMsg@2@AAVTDes8@@AAVTRequestStatus@@@Z @ 204 NONAME ; void Den::RApiExtSessionBase::Send(class Den::TApiExtReqMsg &, class TDes8 &, class TRequestStatus &) const
	?Send@RApiExtSessionBase@Den@@IBEXAAVTApiExtReqMsg@2@AAVTRequestStatus@@@Z @ 205 NONAME ; void Den::RApiExtSessionBase::Send(class Den::TApiExtReqMsg &, class TRequestStatus &) const
	?Send@RApiExtSubSessionBase@Den@@IBEXAAVTApiExtReqMsg@2@AAVTDes8@@AAVTRequestStatus@@@Z @ 206 NONAME ; void Den::RApiExtSubSessionBase::Send(class Den::TApiExtReqMsg &, class TDes8 &, class TRequestStatus &) const
	?Send@RApiExtSubSessionBase@Den@@IBEXAAVTApiExtReqMsg@2@AAVTRequestStatus@@@Z @ 207 NONAME ; void Den::RApiExtSubSessionBase::Send(class Den::TApiExtReqMsg &, class TRequestStatus &) const
	?SendIntroMessage@CCommonWorkerThread@Den@@IAEXABV?$TBuf8@$0CA@@@G@Z @ 208 NONAME ; void Den::CCommonWorkerThread::SendIntroMessage(class TBuf8<32> const &, unsigned short)
	?SendReceive@RApiExtSessionBase@Den@@IBEXAAVTApiExtReqMsg@2@AAVTDes8@@1AAVTRequestStatus@@@Z @ 209 NONAME ; void Den::RApiExtSessionBase::SendReceive(class Den::TApiExtReqMsg &, class TDes8 &, class TDes8 &, class TRequestStatus &) const
	?SendReceive@RApiExtSessionBase@Den@@IBEXAAVTApiExtReqMsg@2@AAVTDes8@@AAVTRequestStatus@@@Z @ 210 NONAME ; void Den::RApiExtSessionBase::SendReceive(class Den::TApiExtReqMsg &, class TDes8 &, class TRequestStatus &) const
	?SendReceive@RApiExtSubSessionBase@Den@@IBEXAAVTApiExtReqMsg@2@AAVTDes8@@1AAVTRequestStatus@@@Z @ 211 NONAME ; void Den::RApiExtSubSessionBase::SendReceive(class Den::TApiExtReqMsg &, class TDes8 &, class TDes8 &, class TRequestStatus &) const
	?SendReceive@RApiExtSubSessionBase@Den@@IBEXAAVTApiExtReqMsg@2@AAVTDes8@@AAVTRequestStatus@@@Z @ 212 NONAME ; void Den::RApiExtSubSessionBase::SendReceive(class Den::TApiExtReqMsg &, class TDes8 &, class TRequestStatus &) const
	?SendReceiveSessionIpcExtensionL@CWorkerSession@Den@@IAEXABVRSafeMessage@2@ABVTApiExtIdentification@2@@Z @ 213 NONAME ; void Den::CWorkerSession::SendReceiveSessionIpcExtensionL(class Den::RSafeMessage const &, class Den::TApiExtIdentification const &)
	?SendReceiveSubSessionIpcExtensionL@CWorkerSubSession@Den@@IAEXABVRSafeMessage@2@ABVTApiExtIdentification@2@@Z @ 214 NONAME ; void Den::CWorkerSubSession::SendReceiveSubSessionIpcExtensionL(class Den::RSafeMessage const &, class Den::TApiExtIdentification const &)
	?ServerName@CCommonDealer@Den@@QBEABVTDesC16@@XZ @ 215 NONAME ; class TDesC16 const & Den::CCommonDealer::ServerName(void) const
	?SessionCloseResp@CWorkerSession@Den@@QAEXG@Z @ 216 NONAME ; void Den::CWorkerSession::SessionCloseResp(unsigned short)
	?SessionShutdownComplete@CCommonPitBoss@Den@@QAEXXZ @ 217 NONAME ; void Den::CCommonPitBoss::SessionShutdownComplete(void)
	?SessionShutdownComplete@CCommonWorkerThread@Den@@QAEXXZ @ 218 NONAME ; void Den::CCommonWorkerThread::SessionShutdownComplete(void)
	?SetDealerShutdownComplete@CCommonWorkerThread@Den@@QAEXH@Z @ 219 NONAME ; void Den::CCommonWorkerThread::SetDealerShutdownComplete(int)
	?SetFailNextForAllHeaps@CCommonPitBoss@Den@@QAEXH@Z @ 220 NONAME ; void Den::CCommonPitBoss::SetFailNextForAllHeaps(int)
	?SetPlayerShutdownComplete@CCommonWorkerThread@Den@@QAEXH@Z @ 221 NONAME ; void Den::CCommonWorkerThread::SetPlayerShutdownComplete(int)
	?SetReturn@CCommonPlayer@Den@@QAEXH@Z @ 222 NONAME ; void Den::CCommonPlayer::SetReturn(int)
	?SetReturn@CWorkerSession@Den@@QAEXH@Z @ 223 NONAME ; void Den::CWorkerSession::SetReturn(int)
	?SetReturn@CWorkerSubSession@Den@@QBEXH@Z @ 224 NONAME ; void Den::CWorkerSubSession::SetReturn(int) const
	?SetShuttingDown@CCommonWorkerThread@Den@@QAEXXZ @ 225 NONAME ; void Den::CCommonWorkerThread::SetShuttingDown(void)
	?SetUniqueId@CWorkerSubSession@Den@@QAEXABI@Z @ 226 NONAME ; void Den::CWorkerSubSession::SetUniqueId(unsigned int const &)
	?Shutdown@CShutdownWatchDog@Den@@QAEXH@Z @ 227 NONAME ; void Den::CShutdownWatchDog::Shutdown(int)
	?ShuttingDown@CCommonWorkerThread@Den@@QBEHXZ @ 228 NONAME ; int Den::CCommonWorkerThread::ShuttingDown(void) const
	?SoftReset@CMessageInterceptRegister@Den@@EAEHXZ @ 229 NONAME ; int Den::CMessageInterceptRegister::SoftReset(void)
	?StoreOwnerInfo@CWorkerSubSession@Den@@QAEXXZ @ 230 NONAME ; void Den::CWorkerSubSession::StoreOwnerInfo(void)
	?SubSession@CCommonPlayer@Den@@QBEPAVCWorkerSubSession@2@ABI@Z @ 231 NONAME ; class Den::CWorkerSubSession * Den::CCommonPlayer::SubSession(unsigned int const &) const
	?SubSessionFromHandle@CWorkerSession@Den@@IBEPAVCWorkerSubSession@2@IVTSubSessInfo@2@@Z @ 232 NONAME ; class Den::CWorkerSubSession * Den::CWorkerSession::SubSessionFromHandle(unsigned int, class Den::TSubSessInfo) const
	?TestFailNextForAllHeaps@CCommonPitBoss@Den@@QBEHXZ @ 233 NONAME ; int Den::CCommonPitBoss::TestFailNextForAllHeaps(void) const
	?TestImmediateShutdownPresent@CCommonPitBoss@Den@@QBEHXZ @ 234 NONAME ; int Den::CCommonPitBoss::TestImmediateShutdownPresent(void) const
	?UpdateWorkerInfo@CCommonObjectBroker@Den@@QAEXGABVTClientType@Messages@@ABVTNodeId@4@@Z @ 235 NONAME ; void Den::CCommonObjectBroker::UpdateWorkerInfo(unsigned short, class Messages::TClientType const &, class Messages::TNodeId const &)
	?WorkerDealer@CCommonWorkerThread@Den@@QBEPAVCCommonWorkerDealer@2@XZ @ 236 NONAME ; class Den::CCommonWorkerDealer * Den::CCommonWorkerThread::WorkerDealer(void) const
	?WorkerExists@CCommonPitBoss@Den@@QBEHG@Z @ 237 NONAME ; int Den::CCommonPitBoss::WorkerExists(unsigned short) const
	?Write@RSafeMessage@Den@@QBEHHABV?$TPckg@K@@H@Z @ 238 NONAME ; int Den::RSafeMessage::Write(int, class TPckg<unsigned long> const &, int) const
	??0TAppendActionMsg@Den@@QAE@ABVTAction@1@@Z @ 239 NONAME ; Den::TAppendActionMsg::TAppendActionMsg(class Den::TAction const &)
	??0TAppendActionMsg@Den@@QAE@XZ @ 240 NONAME ; Den::TAppendActionMsg::TAppendActionMsg(void)
	??0TAppendExpressionMsg@Den@@QAE@ABVTEventExpression@1@@Z @ 241 NONAME ; Den::TAppendExpressionMsg::TAppendExpressionMsg(class Den::TEventExpression const &)
	??0TAppendExpressionMsg@Den@@QAE@XZ @ 242 NONAME ; Den::TAppendExpressionMsg::TAppendExpressionMsg(void)
	??0TCheckFallibleMsgModeMsg@Den@@QAE@XZ @ 243 NONAME ; Den::TCheckFallibleMsgModeMsg::TCheckFallibleMsgModeMsg(void)
	??0TCheckFallibleMsgModeResponseMsg@Den@@QAE@XZ @ 244 NONAME ; Den::TCheckFallibleMsgModeResponseMsg::TCheckFallibleMsgModeResponseMsg(void)
	??0TDisableMsg@Den@@QAE@XZ @ 245 NONAME ; Den::TDisableMsg::TDisableMsg(void)
	??0TEnableFallibleMsgModeMsg@Den@@QAE@H@Z @ 246 NONAME ; Den::TEnableFallibleMsgModeMsg::TEnableFallibleMsgModeMsg(int)
	??0TEnableFallibleMsgModeMsg@Den@@QAE@XZ @ 247 NONAME ; Den::TEnableFallibleMsgModeMsg::TEnableFallibleMsgModeMsg(void)
	??0TEnableMsg@Den@@QAE@XZ @ 248 NONAME ; Den::TEnableMsg::TEnableMsg(void)
	??0TInitFallibleMsgModeMsg@Den@@QAE@XZ @ 249 NONAME ; Den::TInitFallibleMsgModeMsg::TInitFallibleMsgModeMsg(void)
	??0TQueryCompleteMsg@Den@@QAE@XZ @ 250 NONAME ; Den::TQueryCompleteMsg::TQueryCompleteMsg(void)
	??0TSoftResetMsg@Den@@QAE@XZ @ 251 NONAME ; Den::TSoftResetMsg::TSoftResetMsg(void)
	?GetAttribPtr@TCheckFallibleMsgModeResponseMsg@Den@@UBEPAEH@Z @ 252 NONAME ; unsigned char * Den::TCheckFallibleMsgModeResponseMsg::GetAttribPtr(int) const
	?GetVDataTable@TCheckFallibleMsgModeResponseMsg@Den@@UBEPBUSVDataTableEntry@Meta@@XZ @ 253 NONAME ; struct Meta::SVDataTableEntry const * Den::TCheckFallibleMsgModeResponseMsg::GetVDataTable(void) const
	?GetVDataTableStatic@TCheckFallibleMsgModeResponseMsg@Den@@SAPBUSVDataTableEntry@Meta@@XZ @ 254 NONAME ; struct Meta::SVDataTableEntry const * Den::TCheckFallibleMsgModeResponseMsg::GetVDataTableStatic(void)
	?Write@RSafeMessage@Den@@QBEHHABVTDesC16@@H@Z @ 255 NONAME ; int Den::RSafeMessage::Write(int, class TDesC16 const &, int) const
	?Write@RSafeMessage@Den@@QBEHHABVTDesC8@@H@Z @ 256 NONAME ; int Den::RSafeMessage::Write(int, class TDesC8 const &, int) const
	?WriteL@RSafeMessage@Den@@QBEXHABV?$TPckg@K@@H@Z @ 257 NONAME ; void Den::RSafeMessage::WriteL(int, class TPckg<unsigned long> const &, int) const
	?WriteL@RSafeMessage@Den@@QBEXHABVTDesC16@@H@Z @ 258 NONAME ; void Den::RSafeMessage::WriteL(int, class TDesC16 const &, int) const
	?WriteL@RSafeMessage@Den@@QBEXHABVTDesC8@@H@Z @ 259 NONAME ; void Den::RSafeMessage::WriteL(int, class TDesC8 const &, int) const
	?GetDesMaxLengthL@RSafeMessage@Den@@QBEHH@Z @ 260 NONAME ; int Den::RSafeMessage::GetDesMaxLengthL(int) const
	?ShouldCompleteCurrentRequest@CCommonPlayer@Den@@QBEHXZ @ 261 NONAME ; int Den::CCommonPlayer::ShouldCompleteCurrentRequest(void) const
	?Send@RApiExtSessionBase@Den@@IBEXAAVTApiExtReqMsg@2@ABVRHandleBase@@AAVTRequestStatus@@@Z @ 262 NONAME ; void Den::RApiExtSessionBase::Send(class Den::TApiExtReqMsg &, class RHandleBase const &, class TRequestStatus &) const
	?Send@RApiExtSubSessionBase@Den@@IBEXAAVTApiExtReqMsg@2@ABVRHandleBase@@AAVTRequestStatus@@@Z @ 263 NONAME ; void Den::RApiExtSubSessionBase::Send(class Den::TApiExtReqMsg &, class RHandleBase const &, class TRequestStatus &) const


