EXPORTS
	??0CT_LbsTestPsyBase@@IAE@PAVMPositionerStatus@@@Z @ 1 NONAME ; CT_LbsTestPsyBase::CT_LbsTestPsyBase(class MPositionerStatus *)
	??1CT_LbsTestPsyBase@@MAE@XZ @ 2 NONAME ; CT_LbsTestPsyBase::~CT_LbsTestPsyBase(void)
	?CancelNotifyPositionUpdate@CT_LbsTestPsyBase@@UAEXPAVTRequestStatus@@@Z @ 3 NONAME ; void CT_LbsTestPsyBase::CancelNotifyPositionUpdate(class TRequestStatus *)
	?CheckMaxAge@CT_LbsTestPsyBase@@MAEHPAVTPositionInfo@@@Z @ 4 NONAME ; int CT_LbsTestPsyBase::CheckMaxAge(class TPositionInfo *)
	?ClearTPositionSatelliteInfo@CT_LbsTestPsyBase@@IAEXAAVTPositionSatelliteInfo@@@Z @ 5 NONAME ; void CT_LbsTestPsyBase::ClearTPositionSatelliteInfo(class TPositionSatelliteInfo &)
	?CompleteRequest@CT_LbsTestPsyBase@@IAEXHH@Z @ 6 NONAME ; void CT_LbsTestPsyBase::CompleteRequest(int, int)
	?ConstructL@CT_LbsTestPsyBase@@IAEXXZ @ 7 NONAME ; void CT_LbsTestPsyBase::ConstructL(void)
	?DoCancel@CT_LbsTestPsyBase@@MAEXXZ @ 8 NONAME ; void CT_LbsTestPsyBase::DoCancel(void)
	?FindStatus@CT_LbsTestPsyBase@@QBEHPAVTRequestStatus@@@Z @ 9 NONAME ; int CT_LbsTestPsyBase::FindStatus(class TRequestStatus *) const
	?InstanceL@CT_LbsTestPsyBase@@SAPAV1@PAVMPositionerStatus@@@Z @ 10 NONAME ; class CT_LbsTestPsyBase * CT_LbsTestPsyBase::InstanceL(class MPositionerStatus *)
	?NotifyPositionUpdate@CT_LbsTestPsyBase@@UAEXPAVTPositionInfo@@PAVTRequestStatus@@@Z @ 11 NONAME ; void CT_LbsTestPsyBase::NotifyPositionUpdate(class TPositionInfo *, class TRequestStatus *)
	?Release@CT_LbsTestPsyBase@@QAEXXZ @ 12 NONAME ; void CT_LbsTestPsyBase::Release(void)
	?ReportStatus@CT_LbsTestPsyBase@@QAEXHH@Z @ 13 NONAME ; void CT_LbsTestPsyBase::ReportStatus(int, int)
	?RequestsStatusCount@CT_LbsTestPsyBase@@QBEHXZ @ 14 NONAME ; int CT_LbsTestPsyBase::RequestsStatusCount(void) const
	?RunError@CT_LbsTestPsyBase@@MAEHH@Z @ 15 NONAME ; int CT_LbsTestPsyBase::RunError(int)
	?RunL@CT_LbsTestPsyBase@@MAEXXZ @ 16 NONAME ; void CT_LbsTestPsyBase::RunL(void)
	?SetAddressGenericInfoL@CT_LbsTestPsyBase@@MAEXAAVHPositionGenericInfo@@@Z @ 17 NONAME ; void CT_LbsTestPsyBase::SetAddressGenericInfoL(class HPositionGenericInfo &)
	?SetBuildingGenericInfoL@CT_LbsTestPsyBase@@MAEXAAVHPositionGenericInfo@@@Z @ 18 NONAME ; void CT_LbsTestPsyBase::SetBuildingGenericInfoL(class HPositionGenericInfo &)
	?SetCapabilities@CT_LbsTestPsyBase@@QAEXABK@Z @ 19 NONAME ; void CT_LbsTestPsyBase::SetCapabilities(unsigned long const &)
	?SetCompassGenericInfoL@CT_LbsTestPsyBase@@MAEXAAVHPositionGenericInfo@@@Z @ 20 NONAME ; void CT_LbsTestPsyBase::SetCompassGenericInfoL(class HPositionGenericInfo &)
	?SetDirectionGenericInfoL@CT_LbsTestPsyBase@@MAEXAAVHPositionGenericInfo@@@Z @ 21 NONAME ; void CT_LbsTestPsyBase::SetDirectionGenericInfoL(class HPositionGenericInfo &)
	?SetMaxAge@CT_LbsTestPsyBase@@QAEXABVTTime@@@Z @ 22 NONAME ; void CT_LbsTestPsyBase::SetMaxAge(class TTime const &)
	?SetMediaGenericInfoL@CT_LbsTestPsyBase@@MAEXAAVHPositionGenericInfo@@@Z @ 23 NONAME ; void CT_LbsTestPsyBase::SetMediaGenericInfoL(class HPositionGenericInfo &)
	?SetModuleId@CT_LbsTestPsyBase@@QAEXABVTUid@@@Z @ 24 NONAME ; void CT_LbsTestPsyBase::SetModuleId(class TUid const &)
	?SetNMEAGenericInfoL@CT_LbsTestPsyBase@@MAEXAAVHPositionGenericInfo@@@Z @ 25 NONAME ; void CT_LbsTestPsyBase::SetNMEAGenericInfoL(class HPositionGenericInfo &)
	?SetPositionInfoL@CT_LbsTestPsyBase@@IAEXPAVTPositionInfo@@ABH@Z @ 26 NONAME ; void CT_LbsTestPsyBase::SetPositionInfoL(class TPositionInfo *, int const &)
	?SetRequestsHandling@CT_LbsTestPsyBase@@QAEXABW4TRequestsHandling@1@@Z @ 27 NONAME ; void CT_LbsTestPsyBase::SetRequestsHandling(enum CT_LbsTestPsyBase::TRequestsHandling const &)
	?SetSatelliteGenericInfoL@CT_LbsTestPsyBase@@MAEXAAVHPositionGenericInfo@@ABH@Z @ 28 NONAME ; void CT_LbsTestPsyBase::SetSatelliteGenericInfoL(class HPositionGenericInfo &, int const &)
	?SetSpeedGenericInfoL@CT_LbsTestPsyBase@@MAEXAAVHPositionGenericInfo@@@Z @ 29 NONAME ; void CT_LbsTestPsyBase::SetSpeedGenericInfoL(class HPositionGenericInfo &)
	?SetSupportedClasses@CT_LbsTestPsyBase@@QAEXABK@Z @ 30 NONAME ; void CT_LbsTestPsyBase::SetSupportedClasses(unsigned long const &)
	?SetTPositionCourseInfo@CT_LbsTestPsyBase@@MAEXAAVTPositionCourseInfo@@@Z @ 31 NONAME ; void CT_LbsTestPsyBase::SetTPositionCourseInfo(class TPositionCourseInfo &)
	?SetTPositionInfo@CT_LbsTestPsyBase@@MAEXAAVTPositionInfo@@ABH@Z @ 32 NONAME ; void CT_LbsTestPsyBase::SetTPositionInfo(class TPositionInfo &, int const &)
	?SetTPositionSatelliteInfo@CT_LbsTestPsyBase@@MAEXAAVTPositionSatelliteInfo@@ABH@Z @ 33 NONAME ; void CT_LbsTestPsyBase::SetTPositionSatelliteInfo(class TPositionSatelliteInfo &, int const &)
	?SetTimerDelay@CT_LbsTestPsyBase@@QAEXABVTTimeIntervalMicroSeconds@@@Z @ 34 NONAME ; void CT_LbsTestPsyBase::SetTimerDelay(class TTimeIntervalMicroSeconds const &)
	?SetUpdateType@CT_LbsTestPsyBase@@QAEXABK@Z @ 35 NONAME ; void CT_LbsTestPsyBase::SetUpdateType(unsigned long const &)
	?Trace@CT_LbsTestPsyBase@@SAXV?$TBuf8@$0CI@@@@Z @ 36 NONAME ; void CT_LbsTestPsyBase::Trace(class TBuf8<40>)

