EXPORTS
	_ZN3Den10TEnableMsg9DispatchLERN13NetInterfaces17TInterfaceControlEjRN8Elements12RResponseMsgE @ 1 NONAME
	_ZN3Den11TDisableMsg9DispatchLERN13NetInterfaces17TInterfaceControlEjRN8Elements12RResponseMsgE @ 2 NONAME
	_ZN3Den12RSafeMessage11ResetHandleEv @ 3 NONAME
	_ZN3Den12RSafeMessage5AdoptERS0_ @ 4 NONAME
	_ZN3Den12RSafeMessage9DuplicateERKS0_ @ 5 NONAME
	_ZN3Den12RSafeMessageD1Ev @ 6 NONAME
	_ZN3Den12RSafeMessageD2Ev @ 7 NONAME
	_ZN3Den13CCommonDealer10ConstructLEv @ 8 NONAME
	_ZN3Den13CCommonDealer13DeleteSessionEPNS_14CWorkerSessionE @ 9 NONAME
	_ZN3Den13CCommonDealer17CleanupDeadWorkerEt @ 10 NONAME
	_ZN3Den13CCommonDealer28ProcessConfigurationCompleteENS_28TConfigurationCompletionTypeE @ 11 NONAME
	_ZN3Den13CCommonDealer4NewLEPNS_13CCommonServerE @ 12 NONAME
	_ZN3Den13CCommonDealerC1EPNS_13CCommonServerE @ 13 NONAME
	_ZN3Den13CCommonDealerC2EPNS_13CCommonServerE @ 14 NONAME
	_ZN3Den13CCommonDealerD0Ev @ 15 NONAME
	_ZN3Den13CCommonDealerD1Ev @ 16 NONAME
	_ZN3Den13CCommonDealerD2Ev @ 17 NONAME
	_ZN3Den13CCommonPlayer11PanicClientERK7TDesC16i @ 18 NONAME
	_ZN3Den13CCommonPlayer11PanicClientEi @ 19 NONAME
	_ZN3Den13CCommonPlayer15ProcessMessageLERKNS_12RSafeMessageEPNS_17CWorkerSubSessionE @ 20 NONAME
	_ZN3Den13CCommonPlayer17CleanupDeadWorkerEt @ 21 NONAME
	_ZN3Den13CCommonPlayer20CurrentSessionProxyLEv @ 22 NONAME
	_ZN3Den13CCommonPlayer26DontCompleteCurrentRequestEv @ 23 NONAME
	_ZN3Den13CCommonPlayer30MaybeSetPlayerShutdownCompleteEi @ 24 NONAME
	_ZN3Den13CCommonPlayer9SetReturnEi @ 25 NONAME
	_ZN3Den13CCommonPlayerC2EPNS_19CCommonWorkerThreadENS_11TPlayerRoleE @ 26 NONAME
	_ZN3Den13CCommonPlayerD0Ev @ 27 NONAME
	_ZN3Den13CCommonPlayerD1Ev @ 28 NONAME
	_ZN3Den13CCommonPlayerD2Ev @ 29 NONAME
	_ZN3Den13CCommonServer11CanShutdownEv @ 30 NONAME
	_ZN3Den13CCommonServerC2EiPNS_19CCommonWorkerThreadERKN13CPolicyServer7TPolicyEN8CServer211TServerTypeERK7TDesC16 @ 31 NONAME
	_ZN3Den13CCommonServerD0Ev @ 32 NONAME
	_ZN3Den13CCommonServerD1Ev @ 33 NONAME
	_ZN3Den13CCommonServerD2Ev @ 34 NONAME
	_ZN3Den13CSubSessionIx6RemoveEi @ 35 NONAME
	_ZN3Den13CSubSessionIx7ReplaceEiPNS_17CWorkerSubSessionE @ 36 NONAME
	_ZN3Den13CSubSessionIxD0Ev @ 37 NONAME
	_ZN3Den13CSubSessionIxD1Ev @ 38 NONAME
	_ZN3Den13CSubSessionIxD2Ev @ 39 NONAME
	_ZN3Den13THeapSwitcher11MaybeSwitchERNS_14CCommonPitBossEt @ 40 NONAME
	_ZN3Den13THeapSwitcher15RevertToOwnHeapEv @ 41 NONAME
	_ZN3Den13THeapSwitcherC1ERNS_14CCommonPitBossERKN8Messages7TNodeIdE @ 42 NONAME
	_ZN3Den13THeapSwitcherC1ERNS_14CCommonPitBossEt @ 43 NONAME
	_ZN3Den13THeapSwitcherC2ERNS_14CCommonPitBossERKN8Messages7TNodeIdE @ 44 NONAME
	_ZN3Den13THeapSwitcherC2ERNS_14CCommonPitBossEt @ 45 NONAME
	_ZN3Den13THeapSwitcherD1Ev @ 46 NONAME
	_ZN3Den13THeapSwitcherD2Ev @ 47 NONAME
	_ZN3Den13TSoftResetMsg9DispatchLERN13NetInterfaces17TInterfaceControlEjRN8Elements12RResponseMsgE @ 48 NONAME
	_ZN3Den14CCommonPitBoss10ConstructLEv @ 49 NONAME
	_ZN3Den14CCommonPitBoss11OnPeerDeathEt @ 50 NONAME
	_ZN3Den14CCommonPitBoss11PostMessageEtRN7CommsFW10TCFMessageE @ 51 NONAME
	_ZN3Den14CCommonPitBoss13AddSubSessionEPNS_17CWorkerSubSessionEPNS_14CWorkerSessionERi @ 52 NONAME
	_ZN3Den14CCommonPitBoss15MaybeSwitchHeapEt @ 53 NONAME
	_ZN3Den14CCommonPitBoss16DoCreateRedShirtER7RThreadtRNS_19CCommonWorkerThreadE @ 54 NONAME
	_ZN3Den14CCommonPitBoss16OnCPMsConfiguredEv @ 55 NONAME
	_ZN3Den14CCommonPitBoss16RemoveSubSessionEiPNS_14CWorkerSessionE @ 56 NONAME
	_ZN3Den14CCommonPitBoss17FindOptimalDealerEtRPNS_19CCommonWorkerDealerE @ 57 NONAME
	_ZN3Den14CCommonPitBoss17PeerWorkerExitingEt @ 58 NONAME
	_ZN3Den14CCommonPitBoss19BindMessageReceivedERK5TBuf8ILi32EEt @ 59 NONAME
	_ZN3Den14CCommonPitBoss22SetFailNextForAllHeapsEi @ 60 NONAME
	_ZN3Den14CCommonPitBoss23SessionShutdownCompleteEv @ 61 NONAME
	_ZN3Den14CCommonPitBoss26ProcessWorkerIntroductionLERKNS_22TWorkerIntroductionMsgE @ 62 NONAME
	_ZN3Den14CCommonPitBoss30BroadcastConfigurationCompleteENS_28TConfigurationCompletionTypeE @ 63 NONAME
	_ZN3Den14CCommonPitBoss35HandleWorkerCleanupCompletionByPeerEtt @ 64 NONAME
	_ZN3Den14CCommonPitBoss9GetDealerEt @ 65 NONAME
	_ZN3Den14CCommonPitBoss9GetPlayerERKNS_22TWorkerIntroductionMsgE @ 66 NONAME
	_ZN3Den14CCommonPitBossC2EPNS_19CCommonWorkerThreadE @ 67 NONAME
	_ZN3Den14CCommonPitBossD0Ev @ 68 NONAME
	_ZN3Den14CCommonPitBossD1Ev @ 69 NONAME
	_ZN3Den14CCommonPitBossD2Ev @ 70 NONAME
	_ZN3Den14CWorkerSession10ConstructLE10TProcessId @ 71 NONAME
	_ZN3Den14CWorkerSession10DisconnectERK9RMessage2 @ 72 NONAME
	_ZN3Den14CWorkerSession13LogSubSessionEPS0_PNS_17CWorkerSubSessionEiPv @ 73 NONAME
	_ZN3Den14CWorkerSession15ForwardMessageLERK9RMessage2PNS_17CWorkerSubSessionEt @ 74 NONAME
	_ZN3Den14CWorkerSession15ForwardMessageLERK9RMessage2RNS_17CWorkerSubSessionE @ 75 NONAME
	_ZN3Den14CWorkerSession16SessionCloseRespEt @ 76 NONAME
	_ZN3Den14CWorkerSession17OrphanSubSessionsEv @ 77 NONAME ABSENT
	_ZN3Den14CWorkerSession18ProcessSubSessionsEtPFvPS0_PNS_17CWorkerSubSessionEiPvES4_ @ 78 NONAME
	_ZN3Den14CWorkerSession24CloseSessionIpcExtensionERKNS_12RSafeMessageERKNS_21TApiExtIdentificationE @ 79 NONAME
	_ZN3Den14CWorkerSession24OpenSessionIpcExtensionLERKNS_12RSafeMessageERKNS_21TApiExtIdentificationE @ 80 NONAME
	_ZN3Den14CWorkerSession26DontCompleteCurrentRequestEv @ 81 NONAME
	_ZN3Den14CWorkerSession26ParkIfIndeterminateRequestERK9RMessage2i @ 82 NONAME
	_ZN3Den14CWorkerSession28CloseAllSessionIpcExtensionsEv @ 83 NONAME
	_ZN3Den14CWorkerSession30IsSessionIpcExtensionSupportedEiR5TDes8 @ 84 NONAME
	_ZN3Den14CWorkerSession31SendReceiveSessionIpcExtensionLERKNS_12RSafeMessageERKNS_21TApiExtIdentificationE @ 85 NONAME
	_ZN3Den14CWorkerSession9SetReturnEi @ 86 NONAME
	_ZN3Den14CWorkerSessionC2E8TUidTypej @ 87 NONAME
	_ZN3Den14CWorkerSessionD0Ev @ 88 NONAME
	_ZN3Den14CWorkerSessionD1Ev @ 89 NONAME
	_ZN3Den14CWorkerSessionD2Ev @ 90 NONAME
	_ZN3Den14TApiExtRespMsg19GetVDataTableStaticEv @ 91 NONAME
	_ZN3Den14TApiExtRespMsg4NewLERK6TDesC8 @ 92 NONAME
	_ZN3Den14TApiExtRespMsg4NewLERKN4Meta7STypeIdE @ 93 NONAME
	_ZN3Den16TAppendActionMsg9DispatchLERN13NetInterfaces17TInterfaceControlEjRN8Elements12RResponseMsgE @ 94 NONAME
	_ZN3Den17CShutdownWatchDog4NewLEPNS_19CCommonWorkerThreadERK9TCallBack @ 95 NONAME
	_ZN3Den17CShutdownWatchDog8ShutdownEi @ 96 NONAME
	_ZN3Den17CWorkerSubSession10ConstructLEv @ 97 NONAME
	_ZN3Den17CWorkerSubSession11PanicClientERK7TDesC16i @ 98 NONAME
	_ZN3Den17CWorkerSubSession11PanicClientEi @ 99 NONAME
	_ZN3Den17CWorkerSubSession11SetUniqueIdERKj @ 100 NONAME
	_ZN3Den17CWorkerSubSession14StoreOwnerInfoEv @ 101 NONAME
	_ZN3Den17CWorkerSubSession15CompleteMessageERK9RMessage2i @ 102 NONAME
	_ZN3Den17CWorkerSubSession21ComposeSubSessionNameEPKS0_R4TBufILi128EE @ 103 NONAME
	_ZN3Den17CWorkerSubSession23FetchSubSessionFromNameERK4TBufILi128EENS_12TSubSessInfoERKNS_19CCommonWorkerThreadERPS0_ @ 104 NONAME
	_ZN3Den17CWorkerSubSession27CloseSubSessionIpcExtensionERKNS_12RSafeMessageERKNS_21TApiExtIdentificationE @ 105 NONAME
	_ZN3Den17CWorkerSubSession27OpenSubSessionIpcExtensionLERKNS_12RSafeMessageERKNS_21TApiExtIdentificationE @ 106 NONAME
	_ZN3Den17CWorkerSubSession31CloseAllSubSessionIpcExtensionsEv @ 107 NONAME
	_ZN3Den17CWorkerSubSession33IsSubSessionIpcExtensionSupportedEiR5TDes8 @ 108 NONAME
	_ZN3Den17CWorkerSubSession34SendReceiveSubSessionIpcExtensionLERKNS_12RSafeMessageERKNS_21TApiExtIdentificationE @ 109 NONAME
	_ZN3Den17CWorkerSubSessionC2EPNS_14CWorkerSessionEPNS_13CCommonPlayerEj @ 110 NONAME
	_ZN3Den17CWorkerSubSessionD0Ev @ 111 NONAME
	_ZN3Den17CWorkerSubSessionD1Ev @ 112 NONAME
	_ZN3Den17CWorkerSubSessionD2Ev @ 113 NONAME
	_ZN3Den17TQueryCompleteMsg9DispatchLERN13NetInterfaces17TInterfaceControlEjRN8Elements12RResponseMsgE @ 114 NONAME
	_ZN3Den18RApiExtSessionBase4OpenERNS_22RExtendableSessionBaseEi @ 115 NONAME
	_ZN3Den18RApiExtSessionBase5CloseEv @ 116 NONAME
	_ZN3Den19CCommonObjectBroker14ForwardMesasgeERKN8Messages13TRuntimeCtxIdERKNS1_11TSignalBaseERKNS1_11TClientTypeE @ 117 NONAME
	_ZN3Den19CCommonObjectBroker16UpdateWorkerInfoEtRKN8Messages11TClientTypeERKNS1_7TNodeIdE @ 118 NONAME
	_ZN3Den19CCommonObjectBrokerC2Ev @ 119 NONAME
	_ZN3Den19CCommonObjectBrokerD0Ev @ 120 NONAME
	_ZN3Den19CCommonObjectBrokerD1Ev @ 121 NONAME
	_ZN3Den19CCommonObjectBrokerD2Ev @ 122 NONAME
	_ZN3Den19CCommonSessionProxy25NotifySubSessionDestroyedEv @ 123 NONAME
	_ZN3Den19CCommonSessionProxyC1EPNS_14CWorkerSessionERNS_13CCommonPlayerE @ 124 NONAME
	_ZN3Den19CCommonSessionProxyC2EPNS_14CWorkerSessionERNS_13CCommonPlayerE @ 125 NONAME
	_ZN3Den19CCommonSessionProxyD0Ev @ 126 NONAME
	_ZN3Den19CCommonSessionProxyD1Ev @ 127 NONAME
	_ZN3Den19CCommonSessionProxyD2Ev @ 128 NONAME
	_ZN3Den19CCommonWorkerDealer10ConstructLEv @ 129 NONAME
	_ZN3Den19CCommonWorkerDealer10IsEligibleE10TProcessId @ 130 NONAME
	_ZN3Den19CCommonWorkerDealer15AddEligiblePidLE10TProcessId @ 131 NONAME
	_ZN3Den19CCommonWorkerDealer17RemoveEligiblePidE10TProcessId @ 132 NONAME
	_ZN3Den19CCommonWorkerDealer4NewLEPNS_13CCommonServerE @ 133 NONAME
	_ZN3Den19CCommonWorkerDealerC1EPNS_13CCommonServerE @ 134 NONAME
	_ZN3Den19CCommonWorkerDealerC2EPNS_13CCommonServerE @ 135 NONAME
	_ZN3Den19CCommonWorkerDealerD0Ev @ 136 NONAME
	_ZN3Den19CCommonWorkerDealerD1Ev @ 137 NONAME
	_ZN3Den19CCommonWorkerDealerD2Ev @ 138 NONAME
	_ZN3Den19CCommonWorkerThread10ConstructLERN7CommsFW13TCFModuleInfoERNS_17CShutdownWatchDogE @ 139 NONAME
	_ZN3Den19CCommonWorkerThread11PostMessageEtRN7CommsFW10TCFMessageE @ 140 NONAME
	_ZN3Den19CCommonWorkerThread12DecodePeerIdEPKN7CommsFW19TCFSubModuleAddressES4_Rt @ 141 NONAME
	_ZN3Den19CCommonWorkerThread12DeleteHBufC8EPv @ 142 NONAME
	_ZN3Den19CCommonWorkerThread13DestroyDealerEv @ 143 NONAME
	_ZN3Den19CCommonWorkerThread13DestroyPlayerEv @ 144 NONAME
	_ZN3Den19CCommonWorkerThread14DetermineRoleLEP6HBufC8RiS3_RNS_11TPlayerRoleE @ 145 NONAME
	_ZN3Den19CCommonWorkerThread15OnDispatchLeaveERKN7CommsFW10TCFMessageEti @ 146 NONAME
	_ZN3Den19CCommonWorkerThread16SendIntroMessageERK5TBuf8ILi32EEt @ 147 NONAME
	_ZN3Den19CCommonWorkerThread20CompleteSessionCloseEPNS_14CWorkerSessionE @ 148 NONAME
	_ZN3Den19CCommonWorkerThread21DecProlongBindingLifeEv @ 149 NONAME
	_ZN3Den19CCommonWorkerThread21IncProlongBindingLifeEv @ 150 NONAME
	_ZN3Den19CCommonWorkerThread22MaybeCompleteUnbindingEti @ 151 NONAME
	_ZN3Den19CCommonWorkerThread23MaybeCompleteUnbindingsEv @ 152 NONAME
	_ZN3Den19CCommonWorkerThread25SetDealerShutdownCompleteEi @ 153 NONAME
	_ZN3Den19CCommonWorkerThread25SetPlayerShutdownCompleteEi @ 154 NONAME
	_ZN3Den19CCommonWorkerThread28PostMortemCleanupThreadEntryEPv @ 155 NONAME
	_ZN3Den19CCommonWorkerThread34MaybeTriggerThreadShutdownCallbackEv @ 156 NONAME
	_ZN3Den19CCommonWorkerThread9DispatchLERKN7CommsFW10TCFMessageEt @ 157 NONAME
	_ZN3Den19CCommonWorkerThreadC2Ev @ 158 NONAME
	_ZN3Den19CCommonWorkerThreadD0Ev @ 159 NONAME
	_ZN3Den19CCommonWorkerThreadD1Ev @ 160 NONAME
	_ZN3Den19CCommonWorkerThreadD2Ev @ 161 NONAME
	_ZN3Den20CExtItfMsgPluginInfo12NewInstanceLERKN4Meta7STypeIdE @ 162 NONAME
	_ZN3Den20CExtItfMsgPluginInfoD0Ev @ 163 NONAME
	_ZN3Den20CExtItfMsgPluginInfoD1Ev @ 164 NONAME
	_ZN3Den20CExtItfMsgPluginInfoD2Ev @ 165 NONAME
	_ZN3Den20TApiExtSessionReqMsg19GetVDataTableStaticEv @ 166 NONAME
	_ZN3Den20TAppendExpressionMsg9DispatchLERN13NetInterfaces17TInterfaceControlEjRN8Elements12RResponseMsgE @ 167 NONAME
	_ZN3Den21RApiExtSubSessionBase4OpenERNS_25RExtendableSubSessionBaseEi @ 168 NONAME
	_ZN3Den21RApiExtSubSessionBase5CloseEv @ 169 NONAME
	_ZN3Den23TApiExtSubSessionReqMsg19GetVDataTableStaticEv @ 170 NONAME
	_ZN3Den23TInitFallibleMsgModeMsg5InitLER6RArrayIN8Messages11TNodeSignal10TMessageIdEE @ 171 NONAME
	_ZN3Den23TInitFallibleMsgModeMsg9DispatchLERN13NetInterfaces17TInterfaceControlEjRN8Elements12RResponseMsgE @ 172 NONAME
	_ZN3Den24TCheckFallibleMsgModeMsg9DispatchLERN13NetInterfaces17TInterfaceControlEjRN8Elements12RResponseMsgE @ 173 NONAME
	_ZN3Den25CMessageInterceptRegister12AppendActionERKNS_7TActionE @ 174 NONAME
	_ZN3Den25CMessageInterceptRegister13AppendPatternEPKNS_8CPatternE @ 175 NONAME
	_ZN3Den25CMessageInterceptRegister13CheckFinishedEv @ 176 NONAME
	_ZN3Den25CMessageInterceptRegister13QueryCompleteEv @ 177 NONAME
	_ZN3Den25CMessageInterceptRegister15RegisterNewNodeERKNS_14TNodeSpecifierE @ 178 NONAME
	_ZN3Den25CMessageInterceptRegister16AppendExpressionERKNS_16TEventExpressionE @ 179 NONAME
	_ZN3Den25CMessageInterceptRegister19GetInterfaceControlEv @ 180 NONAME
	_ZN3Den25CMessageInterceptRegister22QueryMessageInterceptLERKNS_19TEventSummaryTripleE @ 181 NONAME
	_ZN3Den25CMessageInterceptRegister6EnableEi @ 182 NONAME
	_ZN3Den25CMessageInterceptRegister6EnableEv @ 183 NONAME
	_ZN3Den25CMessageInterceptRegister9HardResetEv @ 184 NONAME
	_ZN3Den25CMessageInterceptRegister9SoftResetEv @ 185 NONAME
	_ZN3Den25TEnableFallibleMsgModeMsg9DispatchLERN13NetInterfaces17TInterfaceControlEjRN8Elements12RResponseMsgE @ 186 NONAME
	_ZN3Den26AIpcExtensionInterfaceBaseC2Ev @ 187 NONAME
	_ZN3Den29CWorkerRootServChannelHandler4NewLEN7CommsFW14RCFChannelBaseINS1_10TCFMessageELi1EE13TMsgQueuesTAGES5_PNS_19CCommonWorkerThreadE @ 188 NONAME
	_ZN3Den29CWorkerRootServChannelHandler4SendERKN7CommsFW10TCFMessageE @ 189 NONAME
	_ZN3Den31TIpcExtensionRoutingMessageBase19GetVDataTableStaticEv @ 190 NONAME
	_ZN3Den31TIpcExtensionRoutingMessageBase30RegisterMessagesAtDestinationLERNS_26AIpcExtensionInterfaceBaseE @ 191 NONAME
	_ZN3Den31TIpcExtensionRoutingMessageBase31DeregisterMessagesAtDestinationERNS_26AIpcExtensionInterfaceBaseE @ 192 NONAME
	_ZN3Den32TCheckFallibleMsgModeResponseMsg4NewLEv @ 193 NONAME
	_ZN3Den38TIpcExtensionRoutingMessageFromSession19GetVDataTableStaticEv @ 194 NONAME
	_ZN3Den41TIpcExtensionRoutingMessageFromSubSession19GetVDataTableStaticEv @ 195 NONAME
	_ZN3Den7Logging6PrintfEiRK6TDesC811TRefByValueIS2_Ez @ 196 NONAME
	_ZN3Den7Logging6PrintfEiRK6TDesC8NS0_13TLogEntryTypeE11TRefByValueIS2_ERSt9__va_list @ 197 NONAME
	_ZN3Den7Logging6PrintfEiRK6TDesC8NS0_13TLogEntryTypeE11TRefByValueIS2_Ez @ 198 NONAME
	_ZN3Den8CPattern4NewLERKNS_15RExpressionListERKNS_7TActionE @ 199 NONAME
	_ZNK3Den12RSafeMessage11PanicClientERK7TDesC16i @ 200 NONAME
	_ZNK3Den12RSafeMessage13GetDesLengthLEi @ 201 NONAME
	_ZNK3Den12RSafeMessage4ReadEiR5TDes8i @ 202 NONAME
	_ZNK3Den12RSafeMessage4ReadEiR6TDes16i @ 203 NONAME
	_ZNK3Den12RSafeMessage5ReadLEiR5TDes8i @ 204 NONAME
	_ZNK3Den12RSafeMessage5ReadLEiR6TDes16i @ 205 NONAME
	_ZNK3Den12RSafeMessage5WriteEiRK5TPckgImEi @ 206 NONAME
	_ZNK3Den12RSafeMessage5WriteEiRK6TDesC8i @ 207 NONAME
	_ZNK3Den12RSafeMessage5WriteEiRK7TDesC16i @ 208 NONAME
	_ZNK3Den12RSafeMessage6WriteLEiRK5TPckgImEi @ 209 NONAME
	_ZNK3Den12RSafeMessage6WriteLEiRK6TDesC8i @ 210 NONAME
	_ZNK3Den12RSafeMessage6WriteLEiRK7TDesC16i @ 211 NONAME
	_ZNK3Den12RSafeMessage8CompleteEi @ 212 NONAME
	_ZNK3Den13CCommonDealer10ServerNameEv @ 213 NONAME
	_ZNK3Den13CCommonDealer11ParkRequestEPNS_14CWorkerSessionERK9RMessage2NS0_11TParkReasonE @ 214 NONAME
	_ZNK3Den13CCommonPlayer10SubSessionERKj @ 215 NONAME
	_ZNK3Den13CCommonServer11NewSessionLERK8TVersionRK9RMessage2 @ 216 NONAME
	_ZNK3Den13CSubSessionIx2AtEi @ 217 NONAME
	_ZNK3Den13CSubSessionIx2AtEiNS_12TSubSessInfoE @ 218 NONAME
	_ZNK3Den13CSubSessionIx4FindEPNS_17CWorkerSubSessionERi @ 219 NONAME
	_ZNK3Den14CCommonPitBoss10RThreadRefEt @ 220 NONAME
	_ZNK3Den14CCommonPitBoss12WorkerExistsEt @ 221 NONAME
	_ZNK3Den14CCommonPitBoss14IsShuttingDownEv @ 222 NONAME
	_ZNK3Den14CCommonPitBoss21ResolvePlayerRoleToIdERKNS_11TPlayerRoleERt @ 223 NONAME
	_ZNK3Den14CCommonPitBoss21ResolveWorkerNameToIdERK6TDesC8Rt @ 224 NONAME
	_ZNK3Den14CCommonPitBoss23TestFailNextForAllHeapsEv @ 225 NONAME
	_ZNK3Den14CCommonPitBoss27ModuleConfigurationCompleteEv @ 226 NONAME
	_ZNK3Den14CCommonPitBoss28TestImmediateShutdownPresentEv @ 227 NONAME
	_ZNK3Den14CWorkerSession12GetOwnerInfoER10TProcessIdR8TUidType @ 228 NONAME
	_ZNK3Den14CWorkerSession20SubSessionFromHandleEjNS_12TSubSessInfoE @ 229 NONAME
	_ZNK3Den14CWorkerSession21IsDisconnectListEmptyEv @ 230 NONAME
	_ZNK3Den17CWorkerSubSession11SafeMessageEv @ 231 NONAME
	_ZNK3Den17CWorkerSubSession12GetOwnerInfoER10TProcessIdR8TUidTypeR9TThreadId @ 232 NONAME
	_ZNK3Den17CWorkerSubSession26DontCompleteCurrentRequestEv @ 233 NONAME
	_ZNK3Den17CWorkerSubSession9SetReturnEi @ 234 NONAME
	_ZNK3Den18RApiExtSessionBase11SendReceiveERNS_13TApiExtReqMsgER5TDes8R14TRequestStatus @ 235 NONAME
	_ZNK3Den18RApiExtSessionBase11SendReceiveERNS_13TApiExtReqMsgER5TDes8S4_R14TRequestStatus @ 236 NONAME
	_ZNK3Den18RApiExtSessionBase4SendERNS_13TApiExtReqMsgER14TRequestStatus @ 237 NONAME
	_ZNK3Den18RApiExtSessionBase4SendERNS_13TApiExtReqMsgER5TDes8R14TRequestStatus @ 238 NONAME
	_ZNK3Den19CCommonObjectBroker6NodeIdEv @ 239 NONAME ABSENT
	_ZNK3Den19CCommonWorkerThread12ShuttingDownEv @ 240 NONAME
	_ZNK3Den19CCommonWorkerThread12WorkerDealerEv @ 241 NONAME
	_ZNK3Den21RApiExtSubSessionBase11SendReceiveERNS_13TApiExtReqMsgER5TDes8R14TRequestStatus @ 242 NONAME
	_ZNK3Den21RApiExtSubSessionBase11SendReceiveERNS_13TApiExtReqMsgER5TDes8S4_R14TRequestStatus @ 243 NONAME
	_ZNK3Den21RApiExtSubSessionBase4SendERNS_13TApiExtReqMsgER14TRequestStatus @ 244 NONAME
	_ZNK3Den21RApiExtSubSessionBase4SendERNS_13TApiExtReqMsgER5TDes8R14TRequestStatus @ 245 NONAME
	_ZTIN3Den10TEnableMsgE @ 246 NONAME
	_ZTIN3Den11TDisableMsgE @ 247 NONAME
	_ZTIN3Den13CCommonDealerE @ 248 NONAME
	_ZTIN3Den13CCommonPlayerE @ 249 NONAME
	_ZTIN3Den13CCommonServerE @ 250 NONAME
	_ZTIN3Den13CSubSessionIxE @ 251 NONAME
	_ZTIN3Den13TSoftResetMsgE @ 252 NONAME
	_ZTIN3Den14CCommonPitBossE @ 253 NONAME
	_ZTIN3Den14CWorkerSessionE @ 254 NONAME
	_ZTIN3Den16TAppendActionMsgE @ 255 NONAME
	_ZTIN3Den17CWorkerSubSessionE @ 256 NONAME
	_ZTIN3Den17TQueryCompleteMsgE @ 257 NONAME
	_ZTIN3Den19CCommonObjectBrokerE @ 258 NONAME
	_ZTIN3Den19CCommonSessionProxyE @ 259 NONAME
	_ZTIN3Den19CCommonWorkerThreadE @ 260 NONAME
	_ZTIN3Den20CExtItfMsgPluginInfoE @ 261 NONAME
	_ZTIN3Den20TAppendExpressionMsgE @ 262 NONAME
	_ZTIN3Den23TInitFallibleMsgModeMsgE @ 263 NONAME
	_ZTIN3Den24TCheckFallibleMsgModeMsgE @ 264 NONAME
	_ZTIN3Den25CMessageInterceptRegisterE @ 265 NONAME
	_ZTIN3Den25TEnableFallibleMsgModeMsgE @ 266 NONAME
	_ZTIN3Den32TCheckFallibleMsgModeResponseMsgE @ 267 NONAME
	_ZTIN3Den8CPatternE @ 268 NONAME
	_ZTIN4Meta11TMetaVarLenI5TBuf8ILi1024EEEE @ 269 NONAME
	_ZTIN4Meta12TMetaVarLen8I5TBuf8ILi1024EEEE @ 270 NONAME
	_ZTIN4Meta5TMetaIN3Den16TEventExpressionEEE @ 271 NONAME
	_ZTIN4Meta5TMetaIN3Den7TActionEEE @ 272 NONAME
	_ZTIN4Meta5TMetaIiEE @ 273 NONAME
	_ZTVN3Den10TEnableMsgE @ 274 NONAME
	_ZTVN3Den11TDisableMsgE @ 275 NONAME
	_ZTVN3Den13CCommonDealerE @ 276 NONAME
	_ZTVN3Den13CCommonPlayerE @ 277 NONAME
	_ZTVN3Den13CCommonServerE @ 278 NONAME
	_ZTVN3Den13CSubSessionIxE @ 279 NONAME
	_ZTVN3Den13TSoftResetMsgE @ 280 NONAME
	_ZTVN3Den14CCommonPitBossE @ 281 NONAME
	_ZTVN3Den14CWorkerSessionE @ 282 NONAME
	_ZTVN3Den16TAppendActionMsgE @ 283 NONAME
	_ZTVN3Den17CWorkerSubSessionE @ 284 NONAME
	_ZTVN3Den17TQueryCompleteMsgE @ 285 NONAME
	_ZTVN3Den19CCommonObjectBrokerE @ 286 NONAME
	_ZTVN3Den19CCommonSessionProxyE @ 287 NONAME
	_ZTVN3Den19CCommonWorkerThreadE @ 288 NONAME
	_ZTVN3Den20CExtItfMsgPluginInfoE @ 289 NONAME
	_ZTVN3Den20TAppendExpressionMsgE @ 290 NONAME
	_ZTVN3Den23TInitFallibleMsgModeMsgE @ 291 NONAME
	_ZTVN3Den24TCheckFallibleMsgModeMsgE @ 292 NONAME
	_ZTVN3Den25CMessageInterceptRegisterE @ 293 NONAME
	_ZTVN3Den25TEnableFallibleMsgModeMsgE @ 294 NONAME
	_ZTVN3Den32TCheckFallibleMsgModeResponseMsgE @ 295 NONAME
	_ZTVN3Den8CPatternE @ 296 NONAME
	_ZTVN4Meta11TMetaVarLenI5TBuf8ILi1024EEEE @ 297 NONAME
	_ZTVN4Meta12TMetaVarLen8I5TBuf8ILi1024EEEE @ 298 NONAME
	_ZTVN4Meta5TMetaIN3Den16TEventExpressionEEE @ 299 NONAME
	_ZTVN4Meta5TMetaIN3Den7TActionEEE @ 300 NONAME
	_ZTVN4Meta5TMetaIiEE @ 301 NONAME
	_ZThn16_N3Den25CMessageInterceptRegister13CheckFinishedEv @ 302 NONAME
	_ZThn16_N3Den25CMessageInterceptRegister6EnableEi @ 303 NONAME
	_ZThn4_N3Den14CCommonPitBoss11OnPeerDeathEt @ 304 NONAME
	_ZThn4_N3Den19CCommonWorkerThread15OnDispatchLeaveERKN7CommsFW10TCFMessageEti @ 305 NONAME
	_ZThn4_N3Den19CCommonWorkerThread9DispatchLERKN7CommsFW10TCFMessageEt @ 306 NONAME
	_ZThn4_NK3Den19CCommonObjectBroker6NodeIdEv @ 307 NONAME ABSENT
	_ZThn56_N3Den25CMessageInterceptRegister15RegisterNewNodeERKNS_14TNodeSpecifierE @ 308 NONAME
	_ZThn56_N3Den25CMessageInterceptRegister22QueryMessageInterceptLERKNS_19TEventSummaryTripleE @ 309 NONAME
	_ZThn8_N3Den14CCommonPitBoss16OnCPMsConfiguredEv @ 310 NONAME
	_ZThn8_N3Den25CMessageInterceptRegister12AppendActionERKNS_7TActionE @ 311 NONAME
	_ZThn8_N3Den25CMessageInterceptRegister13AppendPatternEPKNS_8CPatternE @ 312 NONAME
	_ZThn8_N3Den25CMessageInterceptRegister13QueryCompleteEv @ 313 NONAME
	_ZThn8_N3Den25CMessageInterceptRegister16AppendExpressionERKNS_16TEventExpressionE @ 314 NONAME
	_ZThn8_N3Den25CMessageInterceptRegister6EnableEv @ 315 NONAME
	_ZThn8_N3Den25CMessageInterceptRegister9HardResetEv @ 316 NONAME
	_ZThn8_N3Den25CMessageInterceptRegister9SoftResetEv @ 317 NONAME
	_ZN3Den10TEnableMsg19GetVDataTableStaticEv @ 318 NONAME
	_ZN3Den10TEnableMsgC1Ev @ 319 NONAME
	_ZN3Den10TEnableMsgC2Ev @ 320 NONAME
	_ZN3Den11TDisableMsg19GetVDataTableStaticEv @ 321 NONAME
	_ZN3Den11TDisableMsgC1Ev @ 322 NONAME
	_ZN3Den11TDisableMsgC2Ev @ 323 NONAME
	_ZN3Den13TSoftResetMsg19GetVDataTableStaticEv @ 324 NONAME
	_ZN3Den13TSoftResetMsgC1Ev @ 325 NONAME
	_ZN3Den13TSoftResetMsgC2Ev @ 326 NONAME
	_ZN3Den16TAppendActionMsg19GetVDataTableStaticEv @ 327 NONAME
	_ZN3Den16TAppendActionMsgC1ERKNS_7TActionE @ 328 NONAME
	_ZN3Den16TAppendActionMsgC1Ev @ 329 NONAME
	_ZN3Den16TAppendActionMsgC2ERKNS_7TActionE @ 330 NONAME
	_ZN3Den16TAppendActionMsgC2Ev @ 331 NONAME
	_ZN3Den17TQueryCompleteMsg19GetVDataTableStaticEv @ 332 NONAME
	_ZN3Den17TQueryCompleteMsgC1Ev @ 333 NONAME
	_ZN3Den17TQueryCompleteMsgC2Ev @ 334 NONAME
	_ZN3Den19CCommonWorkerThread15SetShuttingDownEv @ 335 NONAME
	_ZN3Den19CCommonWorkerThread23SessionShutdownCompleteEv @ 336 NONAME
	_ZN3Den20TAppendExpressionMsg19GetVDataTableStaticEv @ 337 NONAME
	_ZN3Den20TAppendExpressionMsgC1ERKNS_16TEventExpressionE @ 338 NONAME
	_ZN3Den20TAppendExpressionMsgC1Ev @ 339 NONAME
	_ZN3Den20TAppendExpressionMsgC2ERKNS_16TEventExpressionE @ 340 NONAME
	_ZN3Den20TAppendExpressionMsgC2Ev @ 341 NONAME
	_ZN3Den23TInitFallibleMsgModeMsg19GetVDataTableStaticEv @ 342 NONAME
	_ZN3Den23TInitFallibleMsgModeMsgC1Ev @ 343 NONAME
	_ZN3Den23TInitFallibleMsgModeMsgC2Ev @ 344 NONAME
	_ZN3Den24TCheckFallibleMsgModeMsg19GetVDataTableStaticEv @ 345 NONAME
	_ZN3Den24TCheckFallibleMsgModeMsgC1Ev @ 346 NONAME
	_ZN3Den24TCheckFallibleMsgModeMsgC2Ev @ 347 NONAME
	_ZN3Den25TEnableFallibleMsgModeMsg19GetVDataTableStaticEv @ 348 NONAME
	_ZN3Den25TEnableFallibleMsgModeMsgC1Ei @ 349 NONAME
	_ZN3Den25TEnableFallibleMsgModeMsgC1Ev @ 350 NONAME
	_ZN3Den25TEnableFallibleMsgModeMsgC2Ei @ 351 NONAME
	_ZN3Den25TEnableFallibleMsgModeMsgC2Ev @ 352 NONAME
	_ZN3Den32TCheckFallibleMsgModeResponseMsg19GetVDataTableStaticEv @ 353 NONAME
	_ZN3Den32TCheckFallibleMsgModeResponseMsgC1Ev @ 354 NONAME
	_ZN3Den32TCheckFallibleMsgModeResponseMsgC2Ev @ 355 NONAME
	_ZNK3Den10TEnableMsg12GetAttribPtrEi @ 356 NONAME
	_ZNK3Den10TEnableMsg13GetVDataTableEv @ 357 NONAME
	_ZNK3Den11TDisableMsg12GetAttribPtrEi @ 358 NONAME
	_ZNK3Den11TDisableMsg13GetVDataTableEv @ 359 NONAME
	_ZNK3Den13TSoftResetMsg12GetAttribPtrEi @ 360 NONAME
	_ZNK3Den13TSoftResetMsg13GetVDataTableEv @ 361 NONAME
	_ZNK3Den16TAppendActionMsg12GetAttribPtrEi @ 362 NONAME
	_ZNK3Den16TAppendActionMsg13GetVDataTableEv @ 363 NONAME
	_ZNK3Den17TQueryCompleteMsg12GetAttribPtrEi @ 364 NONAME
	_ZNK3Den17TQueryCompleteMsg13GetVDataTableEv @ 365 NONAME
	_ZNK3Den20TAppendExpressionMsg12GetAttribPtrEi @ 366 NONAME
	_ZNK3Den20TAppendExpressionMsg13GetVDataTableEv @ 367 NONAME
	_ZNK3Den23TInitFallibleMsgModeMsg12GetAttribPtrEi @ 368 NONAME
	_ZNK3Den23TInitFallibleMsgModeMsg13GetVDataTableEv @ 369 NONAME
	_ZNK3Den24TCheckFallibleMsgModeMsg12GetAttribPtrEi @ 370 NONAME
	_ZNK3Den24TCheckFallibleMsgModeMsg13GetVDataTableEv @ 371 NONAME
	_ZNK3Den25TEnableFallibleMsgModeMsg12GetAttribPtrEi @ 372 NONAME
	_ZNK3Den25TEnableFallibleMsgModeMsg13GetVDataTableEv @ 373 NONAME
	_ZNK3Den32TCheckFallibleMsgModeResponseMsg12GetAttribPtrEi @ 374 NONAME
	_ZNK3Den32TCheckFallibleMsgModeResponseMsg13GetVDataTableEv @ 375 NONAME
	_ZNK3Den12RSafeMessage16GetDesMaxLengthLEi @ 376 NONAME
	_ZNK3Den13CCommonPlayer28ShouldCompleteCurrentRequestEv @ 377 NONAME
	_ZNK3Den18RApiExtSessionBase4SendERNS_13TApiExtReqMsgERK11RHandleBaseR14TRequestStatus @ 378 NONAME
	_ZNK3Den21RApiExtSubSessionBase4SendERNS_13TApiExtReqMsgERK11RHandleBaseR14TRequestStatus @ 379 NONAME

