EXPORTS
	_ZN13COmxInputPort10ConstructLEiP18COmxProcessingUnit @ 1 NONAME
	_ZN13COmxInputPort12MipConfigureERK9TPuConfig @ 2 NONAME
	_ZN13COmxInputPort12MipGetConfigER9TPuConfig @ 3 NONAME
	_ZN13COmxInputPort12MipUseBufferER10CMMFBuffer @ 4 NONAME
	_ZN13COmxInputPort12MipWriteDataER10CMMFBuffer @ 5 NONAME
	_ZN13COmxInputPort13MipFreeBufferEP10CMMFBuffer @ 6 NONAME
	_ZN13COmxInputPort13MipInitializeEv @ 7 NONAME
	_ZN13COmxInputPort14MipSetObserverERK21MMdfInputPortObserver @ 8 NONAME
	_ZN13COmxInputPort15MipCreateBufferEi @ 9 NONAME
	_ZN13COmxInputPort16MipRestartTunnelEv @ 10 NONAME
	_ZN13COmxInputPort16MipTunnelRequestERK14MMdfOutputPortR12TTunnelFlagsR13TSupplierType @ 11 NONAME
	_ZN13COmxInputPort18MipCustomInterfaceE4TUid @ 12 NONAME
	_ZN13COmxInputPort19MipDisconnectTunnelEv @ 13 NONAME
	_ZN13COmxInputPort24MipCreateCustomInterfaceE4TUid @ 14 NONAME
	_ZN13COmxInputPortC1Ev @ 15 NONAME
	_ZN13COmxInputPortC2Ev @ 16 NONAME
	_ZN13COmxInputPortD0Ev @ 17 NONAME
	_ZN13COmxInputPortD1Ev @ 18 NONAME
	_ZN13COmxInputPortD2Ev @ 19 NONAME
	_ZN14COmxOutputPort10ConstructLEiP18COmxProcessingUnit @ 20 NONAME
	_ZN14COmxOutputPort11MopReadDataER10CMMFBuffer @ 21 NONAME
	_ZN14COmxOutputPort12MopConfigureERK9TPuConfig @ 22 NONAME
	_ZN14COmxOutputPort12MopGetConfigER9TPuConfig @ 23 NONAME
	_ZN14COmxOutputPort12MopUseBufferER10CMMFBuffer @ 24 NONAME
	_ZN14COmxOutputPort13MopFreeBufferEP10CMMFBuffer @ 25 NONAME
	_ZN14COmxOutputPort13MopInitializeEv @ 26 NONAME
	_ZN14COmxOutputPort14MopSetObserverERK22MMdfOutputPortObserver @ 27 NONAME
	_ZN14COmxOutputPort15MopCreateBufferEi @ 28 NONAME
	_ZN14COmxOutputPort16MopRestartTunnelEv @ 29 NONAME
	_ZN14COmxOutputPort16MopTunnelRequestERK13MMdfInputPortR12TTunnelFlagsR13TSupplierType @ 30 NONAME
	_ZN14COmxOutputPort18MopCustomInterfaceE4TUid @ 31 NONAME
	_ZN14COmxOutputPort19MopDisconnectTunnelEv @ 32 NONAME
	_ZN14COmxOutputPort24MopCreateCustomInterfaceE4TUid @ 33 NONAME
	_ZN14COmxOutputPortC1Ev @ 34 NONAME
	_ZN14COmxOutputPortC2Ev @ 35 NONAME
	_ZN14COmxOutputPortD0Ev @ 36 NONAME
	_ZN14COmxOutputPortD1Ev @ 37 NONAME
	_ZN14COmxOutputPortD2Ev @ 38 NONAME
	_ZN18COmxProcessingUnit10ConstructLERK6TDesC8RK26MMdfProcessingUnitObserver @ 39 NONAME
	_ZN18COmxProcessingUnit10InitializeEv @ 40 NONAME
	_ZN18COmxProcessingUnit10SetPuStateE20TProcessingUnitState @ 41 NONAME
	_ZN18COmxProcessingUnit12AddInputPortEP13MMdfInputPort @ 42 NONAME
	_ZN18COmxProcessingUnit12OmxUseBufferEP10CMMFBufferm @ 43 NONAME
	_ZN18COmxProcessingUnit13AddOutputPortEP14MMdfOutputPort @ 44 NONAME
	_ZN18COmxProcessingUnit13GetInputPortsER13RPointerArrayI13MMdfInputPortE @ 45 NONAME
	_ZN18COmxProcessingUnit13OmxFreeBufferEP10CMMFBuffer @ 46 NONAME
	_ZN18COmxProcessingUnit14GetOutputPortsER13RPointerArrayI14MMdfOutputPortE @ 47 NONAME
	_ZN18COmxProcessingUnit14OmxSendCommandE15OMX_COMMANDTYPEmPv @ 48 NONAME
	_ZN18COmxProcessingUnit15CustomInterfaceE4TUid @ 49 NONAME
	_ZN18COmxProcessingUnit15OmxGetParameterE13OMX_INDEXTYPEPv @ 50 NONAME
	_ZN18COmxProcessingUnit15OmxSetParameterE13OMX_INDEXTYPEPv @ 51 NONAME
	_ZN18COmxProcessingUnit16MopcEventHandlerEPv13OMX_EVENTTYPEmmS0_ @ 52 NONAME
	_ZN18COmxProcessingUnit17OmxFillThisBufferEP10CMMFBufferP23MOmxOutputPortCallbacks @ 53 NONAME
	_ZN18COmxProcessingUnit18OmxAllocateBufferLEmm @ 54 NONAME
	_ZN18COmxProcessingUnit18OmxEmptyThisBufferEPK10CMMFBufferP22MOmxInputPortCallbacks @ 55 NONAME
	_ZN18COmxProcessingUnit21CreateCustomInterfaceE4TUid @ 56 NONAME
	_ZN18COmxProcessingUnit4StopEv @ 57 NONAME
	_ZN18COmxProcessingUnit5PauseEv @ 58 NONAME
	_ZN18COmxProcessingUnit5StateEv @ 59 NONAME
	_ZN18COmxProcessingUnit6CreateERK26MMdfProcessingUnitObserver @ 60 NONAME
	_ZN18COmxProcessingUnit7ExecuteEv @ 61 NONAME
	_ZN18COmxProcessingUnit8ObserverEv @ 62 NONAME
	_ZN18COmxProcessingUnit9ConfigureERK9TPuConfig @ 63 NONAME
	_ZN18COmxProcessingUnit9GetConfigER9TPuConfig @ 64 NONAME
	_ZN18COmxProcessingUnitC1Ev @ 65 NONAME
	_ZN18COmxProcessingUnitC2Ev @ 66 NONAME
	_ZN18COmxProcessingUnitD0Ev @ 67 NONAME
	_ZN18COmxProcessingUnitD1Ev @ 68 NONAME
	_ZN18COmxProcessingUnitD2Ev @ 69 NONAME
	_ZNK13COmxInputPort13MipBufferSizeEv @ 70 NONAME
	_ZNK13COmxInputPort14MipIsTunnelledEv @ 71 NONAME
	_ZNK13COmxInputPort8MipIndexEv @ 72 NONAME
	_ZNK13COmxInputPort8ObserverEv @ 73 NONAME
	_ZNK13COmxInputPort9ComponentEv @ 74 NONAME
	_ZNK14COmxOutputPort13MopBufferSizeEv @ 75 NONAME
	_ZNK14COmxOutputPort14MopIsTunnelledEv @ 76 NONAME
	_ZNK14COmxOutputPort8MopIndexEv @ 77 NONAME
	_ZNK14COmxOutputPort8ObserverEv @ 78 NONAME
	_ZNK14COmxOutputPort9ComponentEv @ 79 NONAME
	_ZTI13COmxCallbacks @ 80 NONAME ; #<TI>#
	_ZTI13COmxInputPort @ 81 NONAME ; #<TI>#
	_ZTI14COmxOutputPort @ 82 NONAME ; #<TI>#
	_ZTI17COmxBufferManager @ 83 NONAME ; #<TI>#
	_ZTI18COmxProcessingUnit @ 84 NONAME ; #<TI>#
	_ZTIN13COmxInputPort5CBodyE @ 85 NONAME ; #<TI>#
	_ZTIN14COmxOutputPort5CBodyE @ 86 NONAME ; #<TI>#
	_ZTIN17COmxBufferManager10COmxBufferE @ 87 NONAME ; #<TI>#
	_ZTIN18COmxProcessingUnit5CBodyE @ 88 NONAME ; #<TI>#
	_ZTV13COmxCallbacks @ 89 NONAME ; #<VT>#
	_ZTV13COmxInputPort @ 90 NONAME ; #<VT>#
	_ZTV14COmxOutputPort @ 91 NONAME ; #<VT>#
	_ZTV17COmxBufferManager @ 92 NONAME ; #<VT>#
	_ZTV18COmxProcessingUnit @ 93 NONAME ; #<VT>#
	_ZTVN13COmxInputPort5CBodyE @ 94 NONAME ; #<VT>#
	_ZTVN14COmxOutputPort5CBodyE @ 95 NONAME ; #<VT>#
	_ZTVN17COmxBufferManager10COmxBufferE @ 96 NONAME ; #<VT>#
	_ZTVN18COmxProcessingUnit5CBodyE @ 97 NONAME ; #<VT>#
	_ZThn4_N13COmxInputPort12MipConfigureERK9TPuConfig @ 98 NONAME ; #<thunk>#
	_ZThn4_N13COmxInputPort12MipGetConfigER9TPuConfig @ 99 NONAME ; #<thunk>#
	_ZThn4_N13COmxInputPort12MipUseBufferER10CMMFBuffer @ 100 NONAME ; #<thunk>#
	_ZThn4_N13COmxInputPort12MipWriteDataER10CMMFBuffer @ 101 NONAME ; #<thunk>#
	_ZThn4_N13COmxInputPort13MipFreeBufferEP10CMMFBuffer @ 102 NONAME ; #<thunk>#
	_ZThn4_N13COmxInputPort13MipInitializeEv @ 103 NONAME ; #<thunk>#
	_ZThn4_N13COmxInputPort14MipSetObserverERK21MMdfInputPortObserver @ 104 NONAME ; #<thunk>#
	_ZThn4_N13COmxInputPort15MipCreateBufferEi @ 105 NONAME ; #<thunk>#
	_ZThn4_N13COmxInputPort16MipRestartTunnelEv @ 106 NONAME ; #<thunk>#
	_ZThn4_N13COmxInputPort16MipTunnelRequestERK14MMdfOutputPortR12TTunnelFlagsR13TSupplierType @ 107 NONAME ; #<thunk>#
	_ZThn4_N13COmxInputPort18MipCustomInterfaceE4TUid @ 108 NONAME ; #<thunk>#
	_ZThn4_N13COmxInputPort19MipDisconnectTunnelEv @ 109 NONAME ; #<thunk>#
	_ZThn4_N13COmxInputPort24MipCreateCustomInterfaceE4TUid @ 110 NONAME ; #<thunk>#
	_ZThn4_N14COmxOutputPort11MopReadDataER10CMMFBuffer @ 111 NONAME ; #<thunk>#
	_ZThn4_N14COmxOutputPort12MopConfigureERK9TPuConfig @ 112 NONAME ; #<thunk>#
	_ZThn4_N14COmxOutputPort12MopGetConfigER9TPuConfig @ 113 NONAME ; #<thunk>#
	_ZThn4_N14COmxOutputPort12MopUseBufferER10CMMFBuffer @ 114 NONAME ; #<thunk>#
	_ZThn4_N14COmxOutputPort13MopFreeBufferEP10CMMFBuffer @ 115 NONAME ; #<thunk>#
	_ZThn4_N14COmxOutputPort13MopInitializeEv @ 116 NONAME ; #<thunk>#
	_ZThn4_N14COmxOutputPort14MopSetObserverERK22MMdfOutputPortObserver @ 117 NONAME ; #<thunk>#
	_ZThn4_N14COmxOutputPort15MopCreateBufferEi @ 118 NONAME ; #<thunk>#
	_ZThn4_N14COmxOutputPort16MopRestartTunnelEv @ 119 NONAME ; #<thunk>#
	_ZThn4_N14COmxOutputPort16MopTunnelRequestERK13MMdfInputPortR12TTunnelFlagsR13TSupplierType @ 120 NONAME ; #<thunk>#
	_ZThn4_N14COmxOutputPort18MopCustomInterfaceE4TUid @ 121 NONAME ; #<thunk>#
	_ZThn4_N14COmxOutputPort19MopDisconnectTunnelEv @ 122 NONAME ; #<thunk>#
	_ZThn4_N14COmxOutputPort24MopCreateCustomInterfaceE4TUid @ 123 NONAME ; #<thunk>#
	_ZThn4_NK13COmxInputPort13MipBufferSizeEv @ 124 NONAME ; #<thunk>#
	_ZThn4_NK13COmxInputPort14MipIsTunnelledEv @ 125 NONAME ; #<thunk>#
	_ZThn4_NK13COmxInputPort8MipIndexEv @ 126 NONAME ; #<thunk>#
	_ZThn4_NK14COmxOutputPort13MopBufferSizeEv @ 127 NONAME ; #<thunk>#
	_ZThn4_NK14COmxOutputPort14MopIsTunnelledEv @ 128 NONAME ; #<thunk>#
	_ZThn4_NK14COmxOutputPort8MopIndexEv @ 129 NONAME ; #<thunk>#
	_ZThn8_N18COmxProcessingUnit16MopcEventHandlerEPv13OMX_EVENTTYPEmmS0_ @ 130 NONAME ; #<thunk>#
	_ZN14COmxOutputPort21MipoWriteDataCompleteEPK13MMdfInputPortP10CMMFBufferi @ 131 NONAME
	_ZN14COmxOutputPort25MipoRestartTunnelCompleteEPK13MMdfInputPorti @ 132 NONAME
	_ZN14COmxOutputPort28MipoDisconnectTunnelCompleteEPK13MMdfInputPorti @ 133 NONAME
	_ZThn8_N14COmxOutputPort21MipoWriteDataCompleteEPK13MMdfInputPortP10CMMFBufferi @ 134 NONAME ; #<thunk>#
	_ZThn8_N14COmxOutputPort25MipoRestartTunnelCompleteEPK13MMdfInputPorti @ 135 NONAME ; #<thunk>#
	_ZThn8_N14COmxOutputPort28MipoDisconnectTunnelCompleteEPK13MMdfInputPorti @ 136 NONAME ; #<thunk>#

