EXPORTS
	?SetError@TLbsModuleUpdateItem@@QAEXH@Z @ 1 NONAME ; void TLbsModuleUpdateItem::SetError(int)
	?Compare_ModuleStatus@T_LbsUtils@@QAEHAAVTPositionModuleStatus@@0@Z @ 2 NONAME ; int T_LbsUtils::Compare_ModuleStatus(class TPositionModuleStatus &, class TPositionModuleStatus &)
	?WaitForModuleToRequestAssistanceDataL@T_LbsUtils@@QAEXXZ @ 3 NONAME ; void T_LbsUtils::WaitForModuleToRequestAssistanceDataL(void)
	?GetConfigured_ModuleUpdateOptionsL@T_LbsUtils@@QAEXABVTDesC16@@0AAVTPositionUpdateOptions@@@Z @ 4 NONAME ; void T_LbsUtils::GetConfigured_ModuleUpdateOptionsL(class TDesC16 const &, class TDesC16 const &, class TPositionUpdateOptions &)
	?SetTimer@CT_LbsTimerUtils@@QAEXABVTTime@@@Z @ 5 NONAME ; void CT_LbsTimerUtils::SetTimer(class TTime const &)
	?Compare_LogBase@T_LbsUtils@@QAEHABVCLbsLogEvent@@0@Z @ 6 NONAME ; int T_LbsUtils::Compare_LogBase(class CLbsLogEvent const &, class CLbsLogEvent const &)
	?Compare_ExternalLocateLog@T_LbsUtils@@QAEHABVCLbsExternalLocateLogEvent@@0@Z @ 7 NONAME ; int T_LbsUtils::Compare_ExternalLocateLog(class CLbsExternalLocateLogEvent const &, class CLbsExternalLocateLogEvent const &)
	??0TLbsModuleUpdateItem@@QAE@XZ @ 8 NONAME ; TLbsModuleUpdateItem::TLbsModuleUpdateItem(void)
	?GetConfigured_UpdateArrayL@T_LbsUtils@@QAEXABVTDesC16@@0AAV?$RPointerArray@VTLbsModuleUpdateItem@@@@@Z @ 9 NONAME ; void T_LbsUtils::GetConfigured_UpdateArrayL(class TDesC16 const &, class TDesC16 const &, class RPointerArray<class TLbsModuleUpdateItem> &)
	?ResetIntegrationModulesCountOfCancelsL@T_LbsUtils@@QAEXXZ @ 10 NONAME ; void T_LbsUtils::ResetIntegrationModulesCountOfCancelsL(void)
	?NewL@CT_LbsAGpsHandler@@SAPAV1@PAVMT_ResponseObserver@@@Z @ 11 NONAME ; class CT_LbsAGpsHandler * CT_LbsAGpsHandler::NewL(class MT_ResponseObserver *)
	?GetAGpsModuleIdL@T_LbsUtils@@QAE?AVTUid@@AAVRPositionServer@@@Z @ 12 NONAME ; class TUid T_LbsUtils::GetAGpsModuleIdL(class RPositionServer &)
	??0T_LbsUtils@@QAE@XZ @ 13 NONAME ; T_LbsUtils::T_LbsUtils(void)
	?NewL@CT_LbsAsyncWaiter@@SAPAV1@XZ @ 14 NONAME ; class CT_LbsAsyncWaiter * CT_LbsAsyncWaiter::NewL(void)
	?SetPosition@TLbsModuleUpdateItem@@QAEXABVTPositionExtendedSatelliteInfo@@@Z @ 15 NONAME ; void TLbsModuleUpdateItem::SetPosition(class TPositionExtendedSatelliteInfo const &)
	?ResetAndDestroy_PosInfoArr@T_LbsUtils@@QAEXAAV?$RPointerArray@X@@@Z @ 16 NONAME ; void T_LbsUtils::ResetAndDestroy_PosInfoArr(class RPointerArray<void> &)
	?OverWrite@CT_Dumper@@SAXXZ @ 17 NONAME ; void CT_Dumper::OverWrite(void)
	?Compare_NetworkLocateLog@T_LbsUtils@@QAEHABVCLbsNetworkLocateLogEvent@@0@Z @ 18 NONAME ; int T_LbsUtils::Compare_NetworkLocateLog(class CLbsNetworkLocateLogEvent const &, class CLbsNetworkLocateLogEvent const &)
	?Compare_PosInfo@T_LbsUtils@@QAEHABVTPositionInfoBase@@0@Z @ 19 NONAME ; int T_LbsUtils::Compare_PosInfo(class TPositionInfoBase const &, class TPositionInfoBase const &)
	?Compare_PosInfoArr@T_LbsUtils@@QAEHAAV?$RPointerArray@X@@0W4TComparisonAccuracyType@1@@Z @ 20 NONAME ; int T_LbsUtils::Compare_PosInfoArr(class RPointerArray<void> &, class RPointerArray<void> &, enum T_LbsUtils::TComparisonAccuracyType)
	?SetTimer@CT_LbsTimerUtils@@QAEXVTTimeIntervalMicroSeconds32@@@Z @ 21 NONAME ; void CT_LbsTimerUtils::SetTimer(class TTimeIntervalMicroSeconds32)
	?SendRequestSetAllModuleOptions@CT_LbsAGpsHandler@@QAEXXZ @ 22 NONAME ; void CT_LbsAGpsHandler::SendRequestSetAllModuleOptions(void)
	?SendRequestForcedUpdate@CT_LbsAGpsHandler@@QAEXXZ @ 23 NONAME ; void CT_LbsAGpsHandler::SendRequestForcedUpdate(void)
	?Compare_ModuleUpdateOptions@@YAHAAVTPositionUpdateOptions@@0@Z @ 24 NONAME ; int Compare_ModuleUpdateOptions(class TPositionUpdateOptions &, class TPositionUpdateOptions &)
	?SendRequestError@CT_LbsAGpsHandler@@QAEXH@Z @ 25 NONAME ; void CT_LbsAGpsHandler::SendRequestError(int)
	??1CT_AgpsModuleEventListener@@UAE@XZ @ 26 NONAME ; CT_AgpsModuleEventListener::~CT_AgpsModuleEventListener(void)
	?SetDelay@TLbsModuleUpdateItem@@QAEXH@Z @ 27 NONAME ; void TLbsModuleUpdateItem::SetDelay(int)
	?GetBadModuleId@T_LbsUtils@@QAE?AVTUid@@XZ @ 28 NONAME ; class TUid T_LbsUtils::GetBadModuleId(void)
	?Compare_PosInfoArr@T_LbsUtils@@QAEHAAV?$RPointerArray@X@@0@Z @ 29 NONAME ; int T_LbsUtils::Compare_PosInfoArr(class RPointerArray<void> &, class RPointerArray<void> &)
	?SetMeasurement@TLbsModuleUpdateItem@@QAEXABVTPositionGpsMeasurementInfo@@@Z @ 30 NONAME ; void TLbsModuleUpdateItem::SetMeasurement(class TPositionGpsMeasurementInfo const &)
	?SendRequestTimeOutMsg@CT_LbsAGpsHandler@@QAEXABVTTimeIntervalMicroSeconds@@@Z @ 31 NONAME ; void CT_LbsAGpsHandler::SendRequestTimeOutMsg(class TTimeIntervalMicroSeconds const &)
	?GetConfigured_ClientDetailsL@T_LbsUtils@@QAEXABVTDesC16@@0AAV?$RArray@VTCTClientDetails@@@@@Z @ 32 NONAME ; void T_LbsUtils::GetConfigured_ClientDetailsL(class TDesC16 const &, class TDesC16 const &, class RArray<class TCTClientDetails> &)
	?Position@TLbsModuleUpdateItem@@QBEABVTPositionExtendedSatelliteInfo@@XZ @ 33 NONAME ; class TPositionExtendedSatelliteInfo const & TLbsModuleUpdateItem::Position(void) const
	?StartAndWait@CT_LbsAsyncWaiter@@QAEXXZ @ 34 NONAME ; void CT_LbsAsyncWaiter::StartAndWait(void)
	?Write@CT_Dumper@@SAXV?$TRefByValue@$$CBVTDesC16@@@@ZZ @ 35 NONAME ; void CT_Dumper::Write(class TRefByValue<class TDesC16 const >, ...)
	?NewL@CT_LbsTimerUtils@@SAPAV1@PAVMT_LbsTimerUtilsObserver@@H@Z @ 36 NONAME ; class CT_LbsTimerUtils * CT_LbsTimerUtils::NewL(class MT_LbsTimerUtilsObserver *, int)
	?Create_ModuleInfoL@T_LbsUtils@@QAEXVTUid@@AAVTPositionModuleInfo@@@Z @ 37 NONAME ; void T_LbsUtils::Create_ModuleInfoL(class TUid, class TPositionModuleInfo &)
	?NewL@CT_AgpsModuleEventListener@@SAPAV1@AAVMT_AgpsModuleEventHandler@@@Z @ 38 NONAME ; class CT_AgpsModuleEventListener * CT_AgpsModuleEventListener::NewL(class MT_AgpsModuleEventHandler &)
	?CancelTimer@CT_LbsTimerUtils@@QAEXXZ @ 39 NONAME ; void CT_LbsTimerUtils::CancelTimer(void)
	?Compare_TransmitLocationLog@T_LbsUtils@@QAEHABVCLbsTransmitLocationLogEvent@@0@Z @ 40 NONAME ; int T_LbsUtils::Compare_TransmitLocationLog(class CLbsTransmitLocationLogEvent const &, class CLbsTransmitLocationLogEvent const &)
	?Error@TLbsModuleUpdateItem@@QBEHXZ @ 41 NONAME ; int TLbsModuleUpdateItem::Error(void) const
	?VerifySimpleAssistanceData@T_LbsUtils@@QAEHAAVRUEPositioningGpsReferenceTimeReader@@@Z @ 42 NONAME ; int T_LbsUtils::VerifySimpleAssistanceData(class RUEPositioningGpsReferenceTimeReader &)
	?Compare_AssistanceDataLog@T_LbsUtils@@QAEHABVCLbsAssistanceDataLogEvent@@0@Z @ 43 NONAME ; int T_LbsUtils::Compare_AssistanceDataLog(class CLbsAssistanceDataLogEvent const &, class CLbsAssistanceDataLogEvent const &)
	??1CT_LbsTimerUtils@@UAE@XZ @ 44 NONAME ; CT_LbsTimerUtils::~CT_LbsTimerUtils(void)
	?Compare_SelfLocateLog@T_LbsUtils@@QAEHABVCLbsSelfLocateLogEvent@@0@Z @ 45 NONAME ; int T_LbsUtils::Compare_SelfLocateLog(class CLbsSelfLocateLogEvent const &, class CLbsSelfLocateLogEvent const &)
	?SendRequestModuleOption@CT_LbsAGpsHandler@@QAEXW4TLbsHybridModuleOptions@@H@Z @ 46 NONAME ; void CT_LbsAGpsHandler::SendRequestModuleOption(enum TLbsHybridModuleOptions, int)
	?GetExpected_ModuleModes@T_LbsUtils@@QAEXABVTDesC16@@0AAV?$RPointerArray@VTLbsGpsOptions@@@@@Z @ 47 NONAME ; void T_LbsUtils::GetExpected_ModuleModes(class TDesC16 const &, class TDesC16 const &, class RPointerArray<class TLbsGpsOptions> &)
	?GetNetworkModuleIdL@T_LbsUtils@@QAE?AVTUid@@AAVRPositionServer@@@Z @ 48 NONAME ; class TUid T_LbsUtils::GetNetworkModuleIdL(class RPositionServer &)
	?Compare_PosInfo@T_LbsUtils@@QAEHABVTPositionInfoBase@@0W4TComparisonAccuracyType@1@@Z @ 49 NONAME ; int T_LbsUtils::Compare_PosInfo(class TPositionInfoBase const &, class TPositionInfoBase const &, enum T_LbsUtils::TComparisonAccuracyType)
	?IntegrationModulesCountOfCancelsL@T_LbsUtils@@QAEIXZ @ 50 NONAME ; unsigned int T_LbsUtils::IntegrationModulesCountOfCancelsL(void)
	?Result@CT_LbsAsyncWaiter@@QBEHXZ @ 51 NONAME ; int CT_LbsAsyncWaiter::Result(void) const
	?SendRequestUpdateInitMsg@CT_LbsAGpsHandler@@QAEXABVTDesC16@@0@Z @ 52 NONAME ; void CT_LbsAGpsHandler::SendRequestUpdateInitMsg(class TDesC16 const &, class TDesC16 const &)
	?Verify_PositionIsValid@T_LbsUtils@@QAEHAAVTPositionInfo@@@Z @ 53 NONAME ; int T_LbsUtils::Verify_PositionIsValid(class TPositionInfo &)
	?SendRequestClearAllModuleOptions@CT_LbsAGpsHandler@@QAEXXZ @ 54 NONAME ; void CT_LbsAGpsHandler::SendRequestClearAllModuleOptions(void)
	?CreateTestPropertiesL@T_LbsUtils@@QAEXXZ @ 55 NONAME ; void T_LbsUtils::CreateTestPropertiesL(void)
	?Delay@TLbsModuleUpdateItem@@QBEHXZ @ 56 NONAME ; int TLbsModuleUpdateItem::Delay(void) const
	?GetConfigured_ModuleStatusL@T_LbsUtils@@QAEXABVTDesC16@@0AAVTPositionModuleStatus@@AAH@Z @ 57 NONAME ; void T_LbsUtils::GetConfigured_ModuleStatusL(class TDesC16 const &, class TDesC16 const &, class TPositionModuleStatus &, int &)
	?IncrementIntegrationModulesCountOfCancels@T_LbsUtils@@QAEXXZ @ 58 NONAME ; void T_LbsUtils::IncrementIntegrationModulesCountOfCancels(void)
	?GetConfigured_PosInfosL@T_LbsUtils@@QAEXABVTDesC16@@0AAV?$RPointerArray@X@@@Z @ 59 NONAME ; void T_LbsUtils::GetConfigured_PosInfosL(class TDesC16 const &, class TDesC16 const &, class RPointerArray<void> &)
	?NotifyModuleOfConfigChangeL@T_LbsUtils@@QAEXABVTModuleDataIn@@@Z @ 60 NONAME ; void T_LbsUtils::NotifyModuleOfConfigChangeL(class TModuleDataIn const &)
	?Compare_ModuleInfo@T_LbsUtils@@QAEHAAVTPositionModuleInfo@@0@Z @ 61 NONAME ; int T_LbsUtils::Compare_ModuleInfo(class TPositionModuleInfo &, class TPositionModuleInfo &)
	?Compare_PositionQuality@T_LbsUtils@@QAEHAAVTPositionQuality@@0@Z @ 62 NONAME ; int T_LbsUtils::Compare_PositionQuality(class TPositionQuality &, class TPositionQuality &)
	?Measurement@TLbsModuleUpdateItem@@QBEABVTPositionGpsMeasurementInfo@@XZ @ 63 NONAME ; class TPositionGpsMeasurementInfo const & TLbsModuleUpdateItem::Measurement(void) const
	??1T_LbsUtils@@QAE@XZ @ 64 NONAME ; T_LbsUtils::~T_LbsUtils(void)
	?SendImmediateMeasurementsMsg@CT_LbsAGpsHandler@@QAEXABH@Z @ 65 NONAME ; void CT_LbsAGpsHandler::SendImmediateMeasurementsMsg(int const &)

