EXPORTS ??0CCommPrinterPort@@IAE@XZ @1 NONAME
EXPORTS ??0TOutputHandshake@@QAE@XZ @2 NONAME
EXPORTS ??0TSerialPrinterPortConfig@@QAE@XZ @3 NONAME
EXPORTS ??1CCommPrinterPort@@UAE@XZ @4 NONAME
EXPORTS ??1CFilePrinterPort@@UAE@XZ @5 NONAME
EXPORTS ??1CIrdaPrinterPort@@UAE@XZ @6 NONAME
EXPORTS ??1CParallelPrinterPort@@UAE@XZ @7 NONAME
EXPORTS ??1CSerialPrinterPort@@UAE@XZ @8 NONAME
EXPORTS ?Cancel@CCommPrinterPort@@UAEXXZ @9 NONAME
EXPORTS ?Config@CSerialPrinterPort@@QAE?AVTSerialPrinterPortConfig@@XZ @10 NONAME
EXPORTS ?ConstructL@CCommPrinterPort@@IAEXABVTDesC16@@0ABVTSerialPrinterPortConfig@@W4TFifo@@@Z @11 NONAME
EXPORTS ?ExternalizeL@TOutputHandshake@@QBEXAAVRWriteStream@@@Z @12 NONAME
EXPORTS ?ExternalizeL@TSerialPrinterPortConfig@@QBEXAAVRWriteStream@@@Z @13 NONAME
EXPORTS ?InternalizeL@TOutputHandshake@@QAEXAAVRReadStream@@@Z @14 NONAME
EXPORTS ?InternalizeL@TSerialPrinterPortConfig@@QAEXAAVRReadStream@@@Z @15 NONAME
EXPORTS ?NewL@CCommPrinterPort@@SAPAV1@ABVTDesC16@@0ABVTSerialPrinterPortConfig@@W4TFifo@@@Z @16 NONAME
EXPORTS ?NewL@CFilePrinterPort@@SAPAV1@ABVTDesC16@@@Z @17 NONAME
EXPORTS ?NewL@CIrdaPrinterPort@@SAPAV1@XZ @18 NONAME
EXPORTS ?NewL@CParallelPrinterPort@@SAPAV1@ABVTDesC16@@@Z @19 NONAME
EXPORTS ?NewL@CSerialPrinterPort@@SAPAV1@ABVTDesC16@@ABVTSerialPrinterPortConfig@@@Z @20 NONAME
EXPORTS ?WriteRequest@CCommPrinterPort@@UAEXABVTDesC8@@AAVTRequestStatus@@@Z @21 NONAME
	??1CEpocConnectPort@@UAE@XZ @ 22 NONAME ; public: virtual __thiscall CEpocConnectPort::~CEpocConnectPort(void)
	?NewL@CEpocConnectPort@@SAPAV1@XZ @ 23 NONAME ; public: static class CEpocConnectPort * __cdecl CEpocConnectPort::NewL(void)

