EXPORTS
	??0CFbsDrvControl@@IAE@PAVCPdrDevice@@PAVCPrinterPort@@@Z @ 1 NONAME ; protected: __thiscall CFbsDrvControl::CFbsDrvControl(class CPdrDevice *,class CPrinterPort *)
	??0CFbsDrvDevice@@QAE@XZ @ 2 NONAME ; public: __thiscall CFbsDrvDevice::CFbsDrvDevice(void)
	??0CMetafileDevice@@IAE@PAVCGraphicsDevice@@@Z @ 3 NONAME ; protected: __thiscall CMetafileDevice::CMetafileDevice(class CGraphicsDevice *)
	??0CMetafileGc@@IAE@PAVCMetafileDevice@@H@Z @ 4 NONAME ; protected: __thiscall CMetafileGc::CMetafileGc(class CMetafileDevice *,int)
	??0CMetafilePlayback@@IAE@PAVCGraphicsDevice@@@Z @ 5 NONAME ; protected: __thiscall CMetafilePlayback::CMetafilePlayback(class CGraphicsDevice *)
	??0CPageTextEntry@@QAE@ABVTPoint@@HHPAVHBufC8@@PAVTTextFormat@@@Z @ 6 NONAME ; public: __thiscall CPageTextEntry::CPageTextEntry(class TPoint const &,int,int,class HBufC8 *,class TTextFormat *)
	??0CPdrControl@@IAE@PAVCPdrDevice@@PAVCPrinterPort@@@Z @ 7 NONAME ; protected: __thiscall CPdrControl::CPdrControl(class CPdrDevice *,class CPrinterPort *)
	??0CPdrDevice@@IAE@XZ @ 8 NONAME ; protected: __thiscall CPdrDevice::CPdrDevice(void)
	??0CPdrModelInfo@@QAE@XZ @ 9 NONAME ; public: __thiscall CPdrModelInfo::CPdrModelInfo(void)
	??0CPdrResources@@QAE@XZ @ 10 NONAME ; public: __thiscall CPdrResources::CPdrResources(void)
	??0TTextFormat@@QAE@W4TFontUnderline@@W4TFontStrikethrough@@ABVTRgb@@ABVTDesC8@@ABVTFontStyle@@@Z @ 11 NONAME ; public: __thiscall TTextFormat::TTextFormat(enum TFontUnderline,enum TFontStrikethrough,class TRgb const &,class TDesC8 const &,class TFontStyle const &)
	??0TTextFormat@@QAE@XZ @ 12 NONAME ; public: __thiscall TTextFormat::TTextFormat(void)
	??1CBandedDevice@@UAE@XZ @ 13 NONAME ; public: virtual __thiscall CBandedDevice::~CBandedDevice(void)
	??1CFbsDrvControl@@UAE@XZ @ 14 NONAME ; public: virtual __thiscall CFbsDrvControl::~CFbsDrvControl(void)
	??1CFbsDrvDevice@@UAE@XZ @ 15 NONAME ; public: virtual __thiscall CFbsDrvDevice::~CFbsDrvDevice(void)
	??1CMetafileDevice@@UAE@XZ @ 16 NONAME ; public: virtual __thiscall CMetafileDevice::~CMetafileDevice(void)
	??1CMetafileGc@@UAE@XZ @ 17 NONAME ; public: virtual __thiscall CMetafileGc::~CMetafileGc(void)
	??1CMetafilePlayback@@UAE@XZ @ 18 NONAME ; public: virtual __thiscall CMetafilePlayback::~CMetafilePlayback(void)
	??1CPageBuffer@@UAE@XZ @ 19 NONAME ; public: virtual __thiscall CPageBuffer::~CPageBuffer(void)
	??1CPageText@@UAE@XZ @ 20 NONAME ; public: virtual __thiscall CPageText::~CPageText(void)
	??1CPageTextEntry@@UAE@XZ @ 21 NONAME ; public: virtual __thiscall CPageTextEntry::~CPageTextEntry(void)
	??1CPdrControl@@UAE@XZ @ 22 NONAME ; public: virtual __thiscall CPdrControl::~CPdrControl(void)
	??1CPdrDevice@@UAE@XZ @ 23 NONAME ; public: virtual __thiscall CPdrDevice::~CPdrDevice(void)
	??1CPdrGc@@UAE@XZ @ 24 NONAME ; public: virtual __thiscall CPdrGc::~CPdrGc(void)
	??1CPdrModelInfo@@UAE@XZ @ 25 NONAME ; public: virtual __thiscall CPdrModelInfo::~CPdrModelInfo(void)
	??1CPdrResources@@UAE@XZ @ 26 NONAME ; public: virtual __thiscall CPdrResources::~CPdrResources(void)
	??1CPdrTypefaceStore@@UAE@XZ @ 27 NONAME ; public: virtual __thiscall CPdrTypefaceStore::~CPdrTypefaceStore(void)
	??8TTextFormat@@QBEHABV0@@Z @ 28 NONAME ; public: int __thiscall TTextFormat::operator==(class TTextFormat const &)const 
	??ACPageText@@QAEPAVCPageTextEntry@@H@Z @ 29 NONAME ; public: class CPageTextEntry * __thiscall CPageText::operator[](int)
	?AbortPrint@CPdrControl@@UAEXXZ @ 30 NONAME ; public: virtual void __thiscall CPdrControl::AbortPrint(void)
	?AddBytesL@CPageBuffer@@QAEXABVTDesC8@@@Z @ 31 NONAME ; public: void __thiscall CPageBuffer::AddBytesL(class TDesC8 const &)
	?AddEntryL@CPageText@@QAEXABVTPoint@@W4TFontUnderline@@W4TFontStrikethrough@@ABVTRgb@@PBVCInfoFont@@ABVTDesC16@@@Z @ 32 NONAME ; public: void __thiscall CPageText::AddEntryL(class TPoint const &,enum TFontUnderline,enum TFontStrikethrough,class TRgb const &,class CInfoFont const *,class TDesC16 const &)
	?DoAscentInPixels@CInfoFont@@EBEHXZ @ 33 NONAME ; int CInfoFont::DoAscentInPixels(void) const
	?BandRect@CBandedDevice@@QBE?AVTRect@@XZ @ 34 NONAME ; public: class TRect  __thiscall CBandedDevice::BandRect(void)const 
	?BandsPerPage@CPdrControl@@UAEHXZ @ 35 NONAME ; public: virtual int __thiscall CPdrControl::BandsPerPage(void)
	?DoBaselineOffsetInPixels@CInfoFont@@EBEHXZ @ 36 NONAME ; int CInfoFont::DoBaselineOffsetInPixels(void) const
	?CancelClippingRect@CMetafileGc@@UAEXXZ @ 37 NONAME ; public: virtual void __thiscall CMetafileGc::CancelClippingRect(void)
	?CancelClippingRect@CPdrGc@@UAEXXZ @ 38 NONAME ; public: virtual void __thiscall CPdrGc::CancelClippingRect(void)
	?DoCharWidthInPixels@CInfoFont@@EBEHVTChar@@@Z @ 39 NONAME ; int CInfoFont::DoCharWidthInPixels(class TChar) const
	?CloseWriteStream@CPageBuffer@@QAEXXZ @ 40 NONAME ; public: void __thiscall CPageBuffer::CloseWriteStream(void)
	?CommandL@CPdrControl@@MAEXH@Z @ 41 NONAME ; protected: virtual void __thiscall CPdrControl::CommandL(int)
	?CommandString@CInfoFont@@QBE?AVTPtrC8@@XZ @ 42 NONAME ; public: class TPtrC8  __thiscall CInfoFont::CommandString(void)const 
	?CompressBuffer@CFbsDrvControl@@IAEHXZ @ 43 NONAME ; protected: int __thiscall CFbsDrvControl::CompressBuffer(void)
	?ConstructL@CFbsDrvControl@@IAEXAAVCStreamStore@@VTStreamId@@@Z @ 44 NONAME ; protected: void __thiscall CFbsDrvControl::ConstructL(class CStreamStore &,class TStreamId)
	?ConstructL@CPdrControl@@IAEXAAVCStreamStore@@VTStreamId@@@Z @ 45 NONAME ; protected: void __thiscall CPdrControl::ConstructL(class CStreamStore &,class TStreamId)
	?CreateContext@CBandedDevice@@UAEHAAPAVCGraphicsContext@@@Z @ 46 NONAME ; public: virtual int __thiscall CBandedDevice::CreateContext(class CGraphicsContext * &)
	?CreateContext@CFbsDrvDevice@@UAEHAAPAVCGraphicsContext@@@Z @ 47 NONAME ; public: virtual int __thiscall CFbsDrvDevice::CreateContext(class CGraphicsContext * &)
	?CreateContext@CMetafileDevice@@UAEHAAPAVCGraphicsContext@@@Z @ 48 NONAME ; public: virtual int __thiscall CMetafileDevice::CreateContext(class CGraphicsContext * &)
	?CreateContext@CPdrControl@@QAEHAAPAVCGraphicsContext@@@Z @ 49 NONAME ; public: int __thiscall CPdrControl::CreateContext(class CGraphicsContext * &)
	?CreateControlL@CFbsDrvDevice@@UAEXPAVCPrinterPort@@@Z @ 50 NONAME ; public: virtual void __thiscall CFbsDrvDevice::CreateControlL(class CPrinterPort *)
	?CreateWriteStreamL@CPageBuffer@@QAEAAVRWriteStream@@XZ @ 51 NONAME ; public: class RWriteStream & __thiscall CPageBuffer::CreateWriteStreamL(void)
	?Device@CMetafileGc@@UBEPAVCGraphicsDevice@@XZ @ 52 NONAME ; public: virtual class CGraphicsDevice * __thiscall CMetafileGc::Device(void)const 
	?Device@CPdrGc@@UBEPAVCGraphicsDevice@@XZ @ 53 NONAME ; public: virtual class CGraphicsDevice * __thiscall CPdrGc::Device(void)const 
	?DiscardBrushPattern@CMetafileGc@@UAEXXZ @ 54 NONAME ; public: virtual void __thiscall CMetafileGc::DiscardBrushPattern(void)
	?DiscardBrushPattern@CPdrGc@@UAEXXZ @ 55 NONAME ; public: virtual void __thiscall CPdrGc::DiscardBrushPattern(void)
	?DiscardFont@CMetafileGc@@UAEXXZ @ 56 NONAME ; public: virtual void __thiscall CMetafileGc::DiscardFont(void)
	?DiscardFont@CPdrGc@@UAEXXZ @ 57 NONAME ; public: virtual void __thiscall CPdrGc::DiscardFont(void)
	?DisplayMode@CBandedDevice@@UBE?AW4TDisplayMode@@XZ @ 58 NONAME ; public: virtual enum TDisplayMode  __thiscall CBandedDevice::DisplayMode(void)const 
	?DisplayMode@CMetafileDevice@@UBE?AW4TDisplayMode@@XZ @ 59 NONAME ; public: virtual enum TDisplayMode  __thiscall CMetafileDevice::DisplayMode(void)const 
	?DisplayMode@CPdrDevice@@UBE?AW4TDisplayMode@@XZ @ 60 NONAME ; public: virtual enum TDisplayMode  __thiscall CPdrDevice::DisplayMode(void)const 
	?DoQueueEndPrintL@CPdrControl@@MAEXXZ @ 61 NONAME ; protected: virtual void __thiscall CPdrControl::DoQueueEndPrintL(void)
	?DoQueueGetBandL@CPdrControl@@MAEXXZ @ 62 NONAME ; protected: virtual void __thiscall CPdrControl::DoQueueGetBandL(void)
	?DrawArc@CMetafileGc@@UAEXABVTRect@@ABVTPoint@@1@Z @ 63 NONAME ; public: virtual void __thiscall CMetafileGc::DrawArc(class TRect const &,class TPoint const &,class TPoint const &)
	?DrawArc@CPdrGc@@UAEXABVTRect@@ABVTPoint@@1@Z @ 64 NONAME ; public: virtual void __thiscall CPdrGc::DrawArc(class TRect const &,class TPoint const &,class TPoint const &)
	?DrawBitmap@CMetafileGc@@UAEXABVTPoint@@PBVCFbsBitmap@@@Z @ 65 NONAME ; public: virtual void __thiscall CMetafileGc::DrawBitmap(class TPoint const &,class CFbsBitmap const *)
	?DrawBitmap@CMetafileGc@@UAEXABVTRect@@PBVCFbsBitmap@@0@Z @ 66 NONAME ; public: virtual void __thiscall CMetafileGc::DrawBitmap(class TRect const &,class CFbsBitmap const *,class TRect const &)
	?DrawBitmap@CMetafileGc@@UAEXABVTRect@@PBVCFbsBitmap@@@Z @ 67 NONAME ; public: virtual void __thiscall CMetafileGc::DrawBitmap(class TRect const &,class CFbsBitmap const *)
	?DrawBitmap@CPdrGc@@UAEXABVTPoint@@PBVCFbsBitmap@@@Z @ 68 NONAME ; public: virtual void __thiscall CPdrGc::DrawBitmap(class TPoint const &,class CFbsBitmap const *)
	?DrawBitmap@CPdrGc@@UAEXABVTRect@@PBVCFbsBitmap@@0@Z @ 69 NONAME ; public: virtual void __thiscall CPdrGc::DrawBitmap(class TRect const &,class CFbsBitmap const *,class TRect const &)
	?DrawBitmap@CPdrGc@@UAEXABVTRect@@PBVCFbsBitmap@@@Z @ 70 NONAME ; public: virtual void __thiscall CPdrGc::DrawBitmap(class TRect const &,class CFbsBitmap const *)
	?DrawEllipse@CMetafileGc@@UAEXABVTRect@@@Z @ 71 NONAME ; public: virtual void __thiscall CMetafileGc::DrawEllipse(class TRect const &)
	?DrawEllipse@CPdrGc@@UAEXABVTRect@@@Z @ 72 NONAME ; public: virtual void __thiscall CPdrGc::DrawEllipse(class TRect const &)
	?DrawL@CMetafilePlayback@@QAEXAAVRReadStream@@@Z @ 73 NONAME ; public: void __thiscall CMetafilePlayback::DrawL(class RReadStream &)
	?DrawLine@CMetafileGc@@UAEXABVTPoint@@0@Z @ 74 NONAME ; public: virtual void __thiscall CMetafileGc::DrawLine(class TPoint const &,class TPoint const &)
	?DrawLine@CPdrGc@@UAEXABVTPoint@@0@Z @ 75 NONAME ; public: virtual void __thiscall CPdrGc::DrawLine(class TPoint const &,class TPoint const &)
	?DrawLineBy@CMetafileGc@@UAEXABVTPoint@@@Z @ 76 NONAME ; public: virtual void __thiscall CMetafileGc::DrawLineBy(class TPoint const &)
	?DrawLineBy@CPdrGc@@UAEXABVTPoint@@@Z @ 77 NONAME ; public: virtual void __thiscall CPdrGc::DrawLineBy(class TPoint const &)
	?DrawLineTo@CMetafileGc@@UAEXABVTPoint@@@Z @ 78 NONAME ; public: virtual void __thiscall CMetafileGc::DrawLineTo(class TPoint const &)
	?DrawLineTo@CPdrGc@@UAEXABVTPoint@@@Z @ 79 NONAME ; public: virtual void __thiscall CPdrGc::DrawLineTo(class TPoint const &)
	?DrawPie@CMetafileGc@@UAEXABVTRect@@ABVTPoint@@1@Z @ 80 NONAME ; public: virtual void __thiscall CMetafileGc::DrawPie(class TRect const &,class TPoint const &,class TPoint const &)
	?DrawPie@CPdrGc@@UAEXABVTRect@@ABVTPoint@@1@Z @ 81 NONAME ; public: virtual void __thiscall CPdrGc::DrawPie(class TRect const &,class TPoint const &,class TPoint const &)
	?DrawPolyLine@CMetafileGc@@UAEXPBV?$CArrayFix@VTPoint@@@@@Z @ 82 NONAME ; public: virtual void __thiscall CMetafileGc::DrawPolyLine(class CArrayFix<class TPoint> const *)
	?DrawPolyLine@CMetafileGc@@UAEXPBVTPoint@@H@Z @ 83 NONAME ; public: virtual void __thiscall CMetafileGc::DrawPolyLine(class TPoint const *,int)
	?DrawPolyLine@CPdrGc@@UAEXPBV?$CArrayFix@VTPoint@@@@@Z @ 84 NONAME ; public: virtual void __thiscall CPdrGc::DrawPolyLine(class CArrayFix<class TPoint> const *)
	?DrawPolyLine@CPdrGc@@UAEXPBVTPoint@@H@Z @ 85 NONAME ; public: virtual void __thiscall CPdrGc::DrawPolyLine(class TPoint const *,int)
	?DrawPolygon@CMetafileGc@@UAEHPBV?$CArrayFix@VTPoint@@@@W4TFillRule@CGraphicsContext@@@Z @ 86 NONAME ; public: virtual int __thiscall CMetafileGc::DrawPolygon(class CArrayFix<class TPoint> const *,enum CGraphicsContext::TFillRule)
	?DrawPolygon@CMetafileGc@@UAEHPBVTPoint@@HW4TFillRule@CGraphicsContext@@@Z @ 87 NONAME ; public: virtual int __thiscall CMetafileGc::DrawPolygon(class TPoint const *,int,enum CGraphicsContext::TFillRule)
	?DrawPolygon@CPdrGc@@UAEHPBV?$CArrayFix@VTPoint@@@@W4TFillRule@CGraphicsContext@@@Z @ 88 NONAME ; public: virtual int __thiscall CPdrGc::DrawPolygon(class CArrayFix<class TPoint> const *,enum CGraphicsContext::TFillRule)
	?DrawPolygon@CPdrGc@@UAEHPBVTPoint@@HW4TFillRule@CGraphicsContext@@@Z @ 89 NONAME ; public: virtual int __thiscall CPdrGc::DrawPolygon(class TPoint const *,int,enum CGraphicsContext::TFillRule)
	?DrawRect@CMetafileGc@@UAEXABVTRect@@@Z @ 90 NONAME ; public: virtual void __thiscall CMetafileGc::DrawRect(class TRect const &)
	?DrawRect@CPdrGc@@UAEXABVTRect@@@Z @ 91 NONAME ; public: virtual void __thiscall CPdrGc::DrawRect(class TRect const &)
	?DrawRoundRect@CMetafileGc@@UAEXABVTRect@@ABVTSize@@@Z @ 92 NONAME ; public: virtual void __thiscall CMetafileGc::DrawRoundRect(class TRect const &,class TSize const &)
	?DrawRoundRect@CPdrGc@@UAEXABVTRect@@ABVTSize@@@Z @ 93 NONAME ; public: virtual void __thiscall CPdrGc::DrawRoundRect(class TRect const &,class TSize const &)
	?DrawText@CMetafileGc@@UAEXABVTDesC16@@ABVTPoint@@@Z @ 94 NONAME ; public: virtual void __thiscall CMetafileGc::DrawText(class TDesC16 const &,class TPoint const &)
	?DrawText@CMetafileGc@@UAEXABVTDesC16@@ABVTRect@@HW4TTextAlign@CGraphicsContext@@H@Z @ 95 NONAME ; public: virtual void __thiscall CMetafileGc::DrawText(class TDesC16 const &,class TRect const &,int,enum CGraphicsContext::TTextAlign,int)
	?DrawText@CPdrGc@@UAEXABVTDesC16@@ABVTPoint@@@Z @ 96 NONAME ; public: virtual void __thiscall CPdrGc::DrawText(class TDesC16 const &,class TPoint const &)
	?DrawText@CPdrGc@@UAEXABVTDesC16@@ABVTRect@@HW4TTextAlign@CGraphicsContext@@H@Z @ 97 NONAME ; public: virtual void __thiscall CPdrGc::DrawText(class TDesC16 const &,class TRect const &,int,enum CGraphicsContext::TTextAlign,int)
	?DrawTextL@CPdrControl@@UAEXABVTPoint@@W4TFontUnderline@@W4TFontStrikethrough@@ABVTRgb@@PBVCInfoFont@@ABVTDesC16@@@Z @ 98 NONAME ; public: virtual void __thiscall CPdrControl::DrawTextL(class TPoint const &,enum TFontUnderline,enum TFontStrikethrough,class TRgb const &,class CInfoFont const *,class TDesC16 const &)
	?EndOfStreamL@CMetafileDevice@@QAEXXZ @ 99 NONAME ; public: void __thiscall CMetafileDevice::EndOfStreamL(void)
	?Flags@CPdrDevice@@QBEHXZ @ 100 NONAME ; public: int __thiscall CPdrDevice::Flags(void)const 
	?FontHeightInTwips@CBandedDevice@@UBEHHH@Z @ 101 NONAME ; public: virtual int __thiscall CBandedDevice::FontHeightInTwips(int,int)const 
	?FontHeightInTwips@CFbsDrvDevice@@UBEHHH@Z @ 102 NONAME ; public: virtual int __thiscall CFbsDrvDevice::FontHeightInTwips(int,int)const 
	?FontHeightInTwips@CMetafileDevice@@UBEHHH@Z @ 103 NONAME ; public: virtual int __thiscall CMetafileDevice::FontHeightInTwips(int,int)const 
	?FontHeightInTwips@CPdrDevice@@UBEHHH@Z @ 104 NONAME ; public: virtual int __thiscall CPdrDevice::FontHeightInTwips(int,int)const 
	?FontHeightInTwips@CPdrTypefaceStore@@UBEHHH@Z @ 105 NONAME ; public: virtual int __thiscall CPdrTypefaceStore::FontHeightInTwips(int,int)const 
	?DoFontSpecInTwips@CInfoFont@@EBE?AVTFontSpec@@XZ @ 106 NONAME ; class TFontSpec CInfoFont::DoFontSpecInTwips(void) const
	?FullOriginToBandOrigin@CBandedDevice@@QBE?AVTPoint@@ABV2@@Z @ 107 NONAME ; public: class TPoint  __thiscall CBandedDevice::FullOriginToBandOrigin(class TPoint const &)const 
	?GetNearestFontInTwips@CBandedDevice@@UAEHAAPAVCFont@@ABVTFontSpec@@@Z @ 108 NONAME ; public: virtual int __thiscall CBandedDevice::GetNearestFontInTwips(class CFont * &,class TFontSpec const &)
	?GetNearestFontInTwips@CFbsDrvDevice@@UAEHAAPAVCFont@@ABVTFontSpec@@@Z @ 109 NONAME ; public: virtual int __thiscall CFbsDrvDevice::GetNearestFontInTwips(class CFont * &,class TFontSpec const &)
	?GetNearestFontInTwips@CMetafileDevice@@UAEHAAPAVCFont@@ABVTFontSpec@@@Z @ 110 NONAME ; public: virtual int __thiscall CMetafileDevice::GetNearestFontInTwips(class CFont * &,class TFontSpec const &)
	?GetNearestFontInTwips@CPdrDevice@@UAEHAAPAVCFont@@ABVTFontSpec@@@Z @ 111 NONAME ; public: virtual int __thiscall CPdrDevice::GetNearestFontInTwips(class CFont * &,class TFontSpec const &)
	?GetNearestFontInTwips@CPdrTypefaceStore@@UAEHAAPAVCFont@@ABVTFontSpec@@@Z @ 112 NONAME ; public: virtual int __thiscall CPdrTypefaceStore::GetNearestFontInTwips(class CFont * &,class TFontSpec const &)
	?GetPalette@CBandedDevice@@UBEHAAPAVCPalette@@@Z @ 113 NONAME ; public: virtual int __thiscall CBandedDevice::GetPalette(class CPalette * &)const 
	?GetPalette@CMetafileDevice@@UBEHAAPAVCPalette@@@Z @ 114 NONAME ; public: virtual int __thiscall CMetafileDevice::GetPalette(class CPalette * &)const 
	?GetPalette@CPdrDevice@@UBEHAAPAVCPalette@@@Z @ 115 NONAME ; public: virtual int __thiscall CPdrDevice::GetPalette(class CPalette * &)const 
	?DoHeightInPixels@CInfoFont@@EBEHXZ @ 116 NONAME ; int CInfoFont::DoHeightInPixels(void) const
	?HorizontalPixelsToTwips@CBandedDevice@@UBEHH@Z @ 117 NONAME ; public: virtual int __thiscall CBandedDevice::HorizontalPixelsToTwips(int)const 
	?HorizontalPixelsToTwips@CMetafileDevice@@UBEHH@Z @ 118 NONAME ; public: virtual int __thiscall CMetafileDevice::HorizontalPixelsToTwips(int)const 
	?HorizontalPixelsToTwips@CPdrDevice@@UBEHH@Z @ 119 NONAME ; public: virtual int __thiscall CPdrDevice::HorizontalPixelsToTwips(int)const 
	?HorizontalTwipsToPixels@CBandedDevice@@UBEHH@Z @ 120 NONAME ; public: virtual int __thiscall CBandedDevice::HorizontalTwipsToPixels(int)const 
	?HorizontalTwipsToPixels@CMetafileDevice@@UBEHH@Z @ 121 NONAME ; public: virtual int __thiscall CMetafileDevice::HorizontalTwipsToPixels(int)const 
	?HorizontalTwipsToPixels@CPdrDevice@@UBEHH@Z @ 122 NONAME ; public: virtual int __thiscall CPdrDevice::HorizontalTwipsToPixels(int)const 
	?InternalizeL@CPdrModelInfo@@QAEXAAVRReadStream@@@Z @ 123 NONAME ; public: void __thiscall CPdrModelInfo::InternalizeL(class RReadStream &)
	?InternalizeL@TTypefaceFontsEntry@@QAEXAAVRReadStream@@@Z @ 124 NONAME ; public: void __thiscall TTypefaceFontsEntry::InternalizeL(class RReadStream &)
	?IsGraphicsBand@CPdrControl@@QBEHXZ @ 125 NONAME ; public: int __thiscall CPdrControl::IsGraphicsBand(void)const 
	?KPixelSizeInTwips@CFbsDrvDevice@@UBE?AVTSize@@XZ @ 126 NONAME ; public: virtual class TSize  __thiscall CFbsDrvDevice::KPixelSizeInTwips(void)const 
	?KPixelSizeInTwips@CPdrDevice@@MBE?AVTSize@@XZ @ 127 NONAME ; protected: virtual class TSize  __thiscall CPdrDevice::KPixelSizeInTwips(void)const 
	?LoadTypeFaceList@CFbsDrvDevice@@QAEXXZ @ 128 NONAME ; public: void __thiscall CFbsDrvDevice::LoadTypeFaceList(void)
	?DoMaxCharWidthInPixels@CInfoFont@@EBEHXZ @ 129 NONAME ; int CInfoFont::DoMaxCharWidthInPixels(void) const
	?DoMaxNormalCharWidthInPixels@CInfoFont@@EBEHXZ @ 130 NONAME ; int CInfoFont::DoMaxNormalCharWidthInPixels(void) const
	?Model@CPdrDevice@@UBE?AVTPrinterModelEntry@@XZ @ 131 NONAME ; public: virtual class TPrinterModelEntry  __thiscall CPdrDevice::Model(void)const 
	?MoveBy@CMetafileGc@@UAEXABVTPoint@@@Z @ 132 NONAME ; public: virtual void __thiscall CMetafileGc::MoveBy(class TPoint const &)
	?MoveBy@CPdrGc@@UAEXABVTPoint@@@Z @ 133 NONAME ; public: virtual void __thiscall CPdrGc::MoveBy(class TPoint const &)
	?MoveByL@CPdrControl@@MAEXABVTPoint@@@Z @ 134 NONAME ; protected: virtual void __thiscall CPdrControl::MoveByL(class TPoint const &)
	?MoveTo@CMetafileGc@@UAEXABVTPoint@@@Z @ 135 NONAME ; public: virtual void __thiscall CMetafileGc::MoveTo(class TPoint const &)
	?MoveTo@CPdrGc@@UAEXABVTPoint@@@Z @ 136 NONAME ; public: virtual void __thiscall CPdrGc::MoveTo(class TPoint const &)
	?MoveToL@CPdrControl@@MAEXABVTPoint@@@Z @ 137 NONAME ; protected: virtual void __thiscall CPdrControl::MoveToL(class TPoint const &)
	?NewL@CBandedDevice@@SAPAV1@VTRect@@VTSize@@W4TDisplayMode@@W4TBandingDirection@@H@Z @ 138 NONAME ; public: static class CBandedDevice * __cdecl CBandedDevice::NewL(class TRect,class TSize,enum TDisplayMode,enum TBandingDirection,int)
	?NewL@CFbsDrvControl@@SAPAV1@PAVCPdrDevice@@PAVCPrinterPort@@AAVCStreamStore@@VTStreamId@@@Z @ 139 NONAME ; public: static class CFbsDrvControl * __cdecl CFbsDrvControl::NewL(class CPdrDevice *,class CPrinterPort *,class CStreamStore &,class TStreamId)
	?NewL@CMetafileDevice@@SAPAV1@PAVCGraphicsDevice@@@Z @ 140 NONAME ; public: static class CMetafileDevice * __cdecl CMetafileDevice::NewL(class CGraphicsDevice *)
	?NewL@CMetafilePlayback@@SAPAV1@PAVCGraphicsDevice@@@Z @ 141 NONAME ; public: static class CMetafilePlayback * __cdecl CMetafilePlayback::NewL(class CGraphicsDevice *)
	?NewL@CPageBuffer@@SAPAV1@PAVCPrinterPort@@@Z @ 142 NONAME ; public: static class CPageBuffer * __cdecl CPageBuffer::NewL(class CPrinterPort *)
	?NewL@CPageBuffer@@SAPAV1@PAVCPrinterPort@@H@Z @ 143 NONAME ; public: static class CPageBuffer * __cdecl CPageBuffer::NewL(class CPrinterPort *,int)
	?NewL@CPageText@@SAPAV1@XZ @ 144 NONAME ; public: static class CPageText * __cdecl CPageText::NewL(void)
	?NewL@CPdrTypefaceStore@@SAPAV1@AAVCStreamStore@@HPAVTTypefaceFontsEntry@@W4TPageOrientation@TPageSpec@@HPAVCPdrDevice@@@Z @ 145 NONAME ; public: static class CPdrTypefaceStore * __cdecl CPdrTypefaceStore::NewL(class CStreamStore &,int,class TTypefaceFontsEntry *,enum TPageSpec::TPageOrientation,int,class CPdrDevice *)
	?NextBand@CBandedDevice@@QAEHXZ @ 146 NONAME ; public: int __thiscall CBandedDevice::NextBand(void)
	?NumBands@CBandedDevice@@QBEHXZ @ 147 NONAME ; public: int __thiscall CBandedDevice::NumBands(void)const 
	?NumEntries@CPageText@@QAEHXZ @ 148 NONAME ; public: int __thiscall CPageText::NumEntries(void)
	?NumTypefaces@CBandedDevice@@UBEHXZ @ 149 NONAME ; public: virtual int __thiscall CBandedDevice::NumTypefaces(void)const 
	?NumTypefaces@CFbsDrvDevice@@UBEHXZ @ 150 NONAME ; public: virtual int __thiscall CFbsDrvDevice::NumTypefaces(void)const 
	?NumTypefaces@CMetafileDevice@@UBEHXZ @ 151 NONAME ; public: virtual int __thiscall CMetafileDevice::NumTypefaces(void)const 
	?NumTypefaces@CPdrDevice@@UBEHXZ @ 152 NONAME ; public: virtual int __thiscall CPdrDevice::NumTypefaces(void)const 
	?NumTypefaces@CPdrTypefaceStore@@UBEHXZ @ 153 NONAME ; public: virtual int __thiscall CPdrTypefaceStore::NumTypefaces(void)const 
	?OffsetInPixels@CPdrDevice@@QAE?AVTPoint@@XZ @ 154 NONAME ; public: class TPoint  __thiscall CPdrDevice::OffsetInPixels(void)
	?OutputBandL@CFbsDrvControl@@MAEXXZ @ 155 NONAME ; protected: virtual void __thiscall CFbsDrvControl::OutputBandL(void)
	?OutputTextL@CPdrControl@@MAEXABVTPoint@@HABVTTextFormat@@ABVTDesC8@@@Z @ 156 NONAME ; protected: virtual void __thiscall CPdrControl::OutputTextL(class TPoint const &,int,class TTextFormat const &,class TDesC8 const &)
	?PaletteAttributes@CBandedDevice@@UBEXAAH0@Z @ 157 NONAME ; public: virtual void __thiscall CBandedDevice::PaletteAttributes(int &,int &)const 
	?PaletteAttributes@CMetafileDevice@@UBEXAAH0@Z @ 158 NONAME ; public: virtual void __thiscall CMetafileDevice::PaletteAttributes(int &,int &)const 
	?PaletteAttributes@CPdrDevice@@UBEXAAH0@Z @ 159 NONAME ; public: virtual void __thiscall CPdrDevice::PaletteAttributes(int &,int &)const 
	?Plot@CMetafileGc@@UAEXABVTPoint@@@Z @ 160 NONAME ; public: virtual void __thiscall CMetafileGc::Plot(class TPoint const &)
	?Plot@CPdrGc@@UAEXABVTPoint@@@Z @ 161 NONAME ; public: virtual void __thiscall CPdrGc::Plot(class TPoint const &)
	?PrintablePageInPixels@CPdrDevice@@UBE?AVTRect@@XZ @ 162 NONAME ; public: virtual class TRect  __thiscall CPdrDevice::PrintablePageInPixels(void)const 
	?QueueEndPrint@CPdrControl@@UAEXAAVTRequestStatus@@@Z @ 163 NONAME ; public: virtual void __thiscall CPdrControl::QueueEndPrint(class TRequestStatus &)
	?QueueGetBand@CPdrControl@@UAE?AW4TMoreOnPage@CPrinterControl@@AAVTRequestStatus@@AAVTBandAttributes@@@Z @ 164 NONAME ; public: virtual enum CPrinterControl::TMoreOnPage  __thiscall CPdrControl::QueueGetBand(class TRequestStatus &,class TBandAttributes &)
	?ReleaseFont@CBandedDevice@@UAEXPAVCFont@@@Z @ 165 NONAME ; public: virtual void __thiscall CBandedDevice::ReleaseFont(class CFont *)
	?ReleaseFont@CFbsDrvDevice@@UAEXPAVCFont@@@Z @ 166 NONAME ; public: virtual void __thiscall CFbsDrvDevice::ReleaseFont(class CFont *)
	?ReleaseFont@CMetafileDevice@@UAEXPAVCFont@@@Z @ 167 NONAME ; public: virtual void __thiscall CMetafileDevice::ReleaseFont(class CFont *)
	?ReleaseFont@CPdrDevice@@UAEXPAVCFont@@@Z @ 168 NONAME ; public: virtual void __thiscall CPdrDevice::ReleaseFont(class CFont *)
	?Reserved_1@CFbsDrvControl@@EAEXXZ @ 169 NONAME ; private: virtual void __thiscall CFbsDrvControl::Reserved_1(void)
	?Reserved_1@CFbsDrvDevice@@EAEXXZ @ 170 NONAME ; private: virtual void __thiscall CFbsDrvDevice::Reserved_1(void)
	?Reset@CBandedDevice@@QAEXXZ @ 171 NONAME ; public: void __thiscall CBandedDevice::Reset(void)
	?Reset@CMetafileGc@@UAEXXZ @ 172 NONAME ; public: virtual void __thiscall CMetafileGc::Reset(void)
	?Reset@CPageText@@QAEXXZ @ 173 NONAME ; public: void __thiscall CPageText::Reset(void)
	?Reset@CPdrGc@@UAEXXZ @ 174 NONAME ; public: virtual void __thiscall CPdrGc::Reset(void)
	?ResourceString@CPdrResources@@QBE?AVTPtrC8@@H@Z @ 175 NONAME ; public: class TPtrC8  __thiscall CPdrResources::ResourceString(int)const 
	?RestoreL@CPdrResources@@QAEXAAVCStreamStore@@VTStreamId@@@Z @ 176 NONAME ; public: void __thiscall CPdrResources::RestoreL(class CStreamStore &,class TStreamId)
	?SelectPageSpecInTwips@CPdrDevice@@UAEXABVTPageSpec@@@Z @ 177 NONAME ; public: virtual void __thiscall CPdrDevice::SelectPageSpecInTwips(class TPageSpec const &)
	?SetBrushColor@CMetafileGc@@UAEXABVTRgb@@@Z @ 178 NONAME ; public: virtual void __thiscall CMetafileGc::SetBrushColor(class TRgb const &)
	?SetBrushColor@CPdrGc@@UAEXABVTRgb@@@Z @ 179 NONAME ; public: virtual void __thiscall CPdrGc::SetBrushColor(class TRgb const &)
	?SetBrushOrigin@CMetafileGc@@UAEXABVTPoint@@@Z @ 180 NONAME ; public: virtual void __thiscall CMetafileGc::SetBrushOrigin(class TPoint const &)
	?SetBrushOrigin@CPdrGc@@UAEXABVTPoint@@@Z @ 181 NONAME ; public: virtual void __thiscall CPdrGc::SetBrushOrigin(class TPoint const &)
	?SetBrushStyle@CMetafileGc@@UAEXW4TBrushStyle@CGraphicsContext@@@Z @ 182 NONAME ; public: virtual void __thiscall CMetafileGc::SetBrushStyle(enum CGraphicsContext::TBrushStyle)
	?SetBrushStyle@CPdrGc@@UAEXW4TBrushStyle@CGraphicsContext@@@Z @ 183 NONAME ; public: virtual void __thiscall CPdrGc::SetBrushStyle(enum CGraphicsContext::TBrushStyle)
	?SetCharJustification@CMetafileGc@@UAEXHH@Z @ 184 NONAME ; public: virtual void __thiscall CMetafileGc::SetCharJustification(int,int)
	?SetCharJustification@CPdrGc@@UAEXHH@Z @ 185 NONAME ; public: virtual void __thiscall CPdrGc::SetCharJustification(int,int)
	?SetClippingRect@CMetafileGc@@UAEXABVTRect@@@Z @ 186 NONAME ; public: virtual void __thiscall CMetafileGc::SetClippingRect(class TRect const &)
	?SetClippingRect@CPdrGc@@UAEXABVTRect@@@Z @ 187 NONAME ; public: virtual void __thiscall CPdrGc::SetClippingRect(class TRect const &)
	?SetDrawMode@CMetafileGc@@UAEXW4TDrawMode@CGraphicsContext@@@Z @ 188 NONAME ; public: virtual void __thiscall CMetafileGc::SetDrawMode(enum CGraphicsContext::TDrawMode)
	?SetDrawMode@CPdrGc@@UAEXW4TDrawMode@CGraphicsContext@@@Z @ 189 NONAME ; public: virtual void __thiscall CPdrGc::SetDrawMode(enum CGraphicsContext::TDrawMode)
	?SetFontPostureL@CPdrControl@@MAEXW4TFontPosture@@@Z @ 190 NONAME ; protected: virtual void __thiscall CPdrControl::SetFontPostureL(enum TFontPosture)
	?SetFontStrokeWeightL@CPdrControl@@MAEXW4TFontStrokeWeight@@@Z @ 191 NONAME ; protected: virtual void __thiscall CPdrControl::SetFontStrokeWeightL(enum TFontStrokeWeight)
	?SetModel@CFbsDrvDevice@@UAEHABVTPrinterModelHeader@@AAVCStreamStore@@@Z @ 192 NONAME ; public: virtual int __thiscall CFbsDrvDevice::SetModel(class TPrinterModelHeader const &,class CStreamStore &)
	?SetModel@CPdrDevice@@UAEHABVTPrinterModelHeader@@AAVCStreamStore@@@Z @ 193 NONAME ; public: virtual int __thiscall CPdrDevice::SetModel(class TPrinterModelHeader const &,class CStreamStore &)
	?SetOrigin@CMetafileGc@@UAEXABVTPoint@@@Z @ 194 NONAME ; public: virtual void __thiscall CMetafileGc::SetOrigin(class TPoint const &)
	?SetOrigin@CPdrGc@@UAEXABVTPoint@@@Z @ 195 NONAME ; public: virtual void __thiscall CPdrGc::SetOrigin(class TPoint const &)
	?SetPageOrientation@CPdrTypefaceStore@@QAEXW4TPageOrientation@TPageSpec@@@Z @ 196 NONAME ; public: void __thiscall CPdrTypefaceStore::SetPageOrientation(enum TPageSpec::TPageOrientation)
	?SetPageOrientationL@CPdrControl@@MAEXXZ @ 197 NONAME ; protected: virtual void __thiscall CPdrControl::SetPageOrientationL(void)
	?SetPageSizeL@CFbsDrvControl@@MAEXXZ @ 198 NONAME ; protected: virtual void __thiscall CFbsDrvControl::SetPageSizeL(void)
	?SetPageSizeL@CPdrControl@@MAEXXZ @ 199 NONAME ; protected: virtual void __thiscall CPdrControl::SetPageSizeL(void)
	?SetPalette@CBandedDevice@@UAEXPAVCPalette@@@Z @ 200 NONAME ; public: virtual void __thiscall CBandedDevice::SetPalette(class CPalette *)
	?SetPalette@CMetafileDevice@@UAEXPAVCPalette@@@Z @ 201 NONAME ; public: virtual void __thiscall CMetafileDevice::SetPalette(class CPalette *)
	?SetPalette@CPdrDevice@@UAEXPAVCPalette@@@Z @ 202 NONAME ; public: virtual void __thiscall CPdrDevice::SetPalette(class CPalette *)
	?SetPenColor@CMetafileGc@@UAEXABVTRgb@@@Z @ 203 NONAME ; public: virtual void __thiscall CMetafileGc::SetPenColor(class TRgb const &)
	?SetPenColor@CPdrGc@@UAEXABVTRgb@@@Z @ 204 NONAME ; public: virtual void __thiscall CPdrGc::SetPenColor(class TRgb const &)
	?SetPenSize@CMetafileGc@@UAEXABVTSize@@@Z @ 205 NONAME ; public: virtual void __thiscall CMetafileGc::SetPenSize(class TSize const &)
	?SetPenSize@CPdrGc@@UAEXABVTSize@@@Z @ 206 NONAME ; public: virtual void __thiscall CPdrGc::SetPenSize(class TSize const &)
	?SetPenStyle@CMetafileGc@@UAEXW4TPenStyle@CGraphicsContext@@@Z @ 207 NONAME ; public: virtual void __thiscall CMetafileGc::SetPenStyle(enum CGraphicsContext::TPenStyle)
	?SetPenStyle@CPdrGc@@UAEXW4TPenStyle@CGraphicsContext@@@Z @ 208 NONAME ; public: virtual void __thiscall CPdrGc::SetPenStyle(enum CGraphicsContext::TPenStyle)
	?SetStrikethroughStyle@CMetafileGc@@UAEXW4TFontStrikethrough@@@Z @ 209 NONAME ; public: virtual void __thiscall CMetafileGc::SetStrikethroughStyle(enum TFontStrikethrough)
	?SetStrikethroughStyle@CPdrGc@@UAEXW4TFontStrikethrough@@@Z @ 210 NONAME ; public: virtual void __thiscall CPdrGc::SetStrikethroughStyle(enum TFontStrikethrough)
	?SetTextColorL@CPdrControl@@MAEXABVTRgb@@@Z @ 211 NONAME ; protected: virtual void __thiscall CPdrControl::SetTextColorL(class TRgb const &)
	?SetUnderlineStyle@CMetafileGc@@UAEXW4TFontUnderline@@@Z @ 212 NONAME ; public: virtual void __thiscall CMetafileGc::SetUnderlineStyle(enum TFontUnderline)
	?SetUnderlineStyle@CPdrGc@@UAEXW4TFontUnderline@@@Z @ 213 NONAME ; public: virtual void __thiscall CPdrGc::SetUnderlineStyle(enum TFontUnderline)
	?SetWordJustification@CMetafileGc@@UAEXHH@Z @ 214 NONAME ; public: virtual void __thiscall CMetafileGc::SetWordJustification(int,int)
	?SetWordJustification@CPdrGc@@UAEXHH@Z @ 215 NONAME ; public: virtual void __thiscall CPdrGc::SetWordJustification(int,int)
	?SizeInPixels@CBandedDevice@@UBE?AVTSize@@XZ @ 216 NONAME ; public: virtual class TSize  __thiscall CBandedDevice::SizeInPixels(void)const 
	?SizeInPixels@CMetafileDevice@@UBE?AVTSize@@XZ @ 217 NONAME ; public: virtual class TSize  __thiscall CMetafileDevice::SizeInPixels(void)const 
	?SizeInPixels@CPdrDevice@@UBE?AVTSize@@XZ @ 218 NONAME ; public: virtual class TSize  __thiscall CPdrDevice::SizeInPixels(void)const 
	?SizeInTwips@CBandedDevice@@UBE?AVTSize@@XZ @ 219 NONAME ; public: virtual class TSize  __thiscall CBandedDevice::SizeInTwips(void)const 
	?SizeInTwips@CMetafileDevice@@UBE?AVTSize@@XZ @ 220 NONAME ; public: virtual class TSize  __thiscall CMetafileDevice::SizeInTwips(void)const 
	?SizeInTwips@CPdrDevice@@UBE?AVTSize@@XZ @ 221 NONAME ; public: virtual class TSize  __thiscall CPdrDevice::SizeInTwips(void)const 
	?StartFlush@CPageBuffer@@QAEXAAVTRequestStatus@@@Z @ 222 NONAME ; public: void __thiscall CPageBuffer::StartFlush(class TRequestStatus &)
	?StartOutputStreamL@CMetafileDevice@@QAEXAAVRWriteStream@@@Z @ 223 NONAME ; public: void __thiscall CMetafileDevice::StartOutputStreamL(class RWriteStream &)
	?DoTextCount@CInfoFont@@EBEHABVTDesC16@@H@Z @ 224 NONAME ; int CInfoFont::DoTextCount(class TDesC16 const &, int) const
	?DoTextCount@CInfoFont@@EBEHABVTDesC16@@HAAH@Z @ 225 NONAME ; int CInfoFont::DoTextCount(class TDesC16 const &, int, int &) const
	?DoTextWidthInPixels@CInfoFont@@EBEHABVTDesC16@@@Z @ 226 NONAME ; int CInfoFont::DoTextWidthInPixels(class TDesC16 const &) const
	?TopTextPos@CPageTextEntry@@QAE?AVTPoint@@XZ @ 227 NONAME ; public: class TPoint  __thiscall CPageTextEntry::TopTextPos(void)
	?TransformBuffer@CFbsDrvControl@@IAEHXZ @ 228 NONAME ; protected: int __thiscall CFbsDrvControl::TransformBuffer(void)
	?TranslateStringL@CInfoFont@@QBEPAVHBufC8@@ABVTDesC16@@@Z @ 229 NONAME ; public: class HBufC8 * __thiscall CInfoFont::TranslateStringL(class TDesC16 const &)const 
	?DoTypeUid@CInfoFont@@EBE?AVTUid@@XZ @ 230 NONAME ; class TUid CInfoFont::DoTypeUid(void) const
	?TypefaceSupport@CBandedDevice@@UBEXAAVTTypefaceSupport@@H@Z @ 231 NONAME ; public: virtual void __thiscall CBandedDevice::TypefaceSupport(class TTypefaceSupport &,int)const 
	?TypefaceSupport@CFbsDrvDevice@@UBEXAAVTTypefaceSupport@@H@Z @ 232 NONAME ; public: virtual void __thiscall CFbsDrvDevice::TypefaceSupport(class TTypefaceSupport &,int)const 
	?TypefaceSupport@CMetafileDevice@@UBEXAAVTTypefaceSupport@@H@Z @ 233 NONAME ; public: virtual void __thiscall CMetafileDevice::TypefaceSupport(class TTypefaceSupport &,int)const 
	?TypefaceSupport@CPdrDevice@@UBEXAAVTTypefaceSupport@@H@Z @ 234 NONAME ; public: virtual void __thiscall CPdrDevice::TypefaceSupport(class TTypefaceSupport &,int)const 
	?TypefaceSupport@CPdrTypefaceStore@@UBEXAAVTTypefaceSupport@@H@Z @ 235 NONAME ; public: virtual void __thiscall CPdrTypefaceStore::TypefaceSupport(class TTypefaceSupport &,int)const 
	?UseBrushPattern@CMetafileGc@@UAEXPBVCFbsBitmap@@@Z @ 236 NONAME ; public: virtual void __thiscall CMetafileGc::UseBrushPattern(class CFbsBitmap const *)
	?UseBrushPattern@CPdrGc@@UAEXPBVCFbsBitmap@@@Z @ 237 NONAME ; public: virtual void __thiscall CPdrGc::UseBrushPattern(class CFbsBitmap const *)
	?UseFont@CMetafileGc@@UAEXPBVCFont@@@Z @ 238 NONAME ; public: virtual void __thiscall CMetafileGc::UseFont(class CFont const *)
	?UseFont@CPdrGc@@UAEXPBVCFont@@@Z @ 239 NONAME ; public: virtual void __thiscall CPdrGc::UseFont(class CFont const *)
	?UseGcL@CMetafileDevice@@QAEXH@Z @ 240 NONAME ; public: void __thiscall CMetafileDevice::UseGcL(int)
	?VerticalPixelsToTwips@CBandedDevice@@UBEHH@Z @ 241 NONAME ; public: virtual int __thiscall CBandedDevice::VerticalPixelsToTwips(int)const 
	?VerticalPixelsToTwips@CMetafileDevice@@UBEHH@Z @ 242 NONAME ; public: virtual int __thiscall CMetafileDevice::VerticalPixelsToTwips(int)const 
	?VerticalPixelsToTwips@CPdrDevice@@UBEHH@Z @ 243 NONAME ; public: virtual int __thiscall CPdrDevice::VerticalPixelsToTwips(int)const 
	?VerticalTwipsToPixels@CBandedDevice@@UBEHH@Z @ 244 NONAME ; public: virtual int __thiscall CBandedDevice::VerticalTwipsToPixels(int)const 
	?VerticalTwipsToPixels@CMetafileDevice@@UBEHH@Z @ 245 NONAME ; public: virtual int __thiscall CMetafileDevice::VerticalTwipsToPixels(int)const 
	?VerticalTwipsToPixels@CPdrDevice@@UBEHH@Z @ 246 NONAME ; public: virtual int __thiscall CPdrDevice::VerticalTwipsToPixels(int)const 
	?WriteStream@CMetafileDevice@@QAEAAVRWriteStream@@XZ @ 247 NONAME ; public: class RWriteStream & __thiscall CMetafileDevice::WriteStream(void)
	?AllCharsInFontRepertoire@CInfoFont@@QBEHABVTDesC16@@AAH1@Z @ 248 NONAME ; public: int __thiscall CInfoFont::AllCharsInFontRepertoire(class TDesC16 const &,int &,int &)const 
	?RepertoireContains@CInfoFont@@QBEHVTChar@@@Z @ 249 NONAME ; public: int __thiscall CInfoFont::RepertoireContains(class TChar)const
	?LoadTypeFaceListL@CFbsDrvDevice@@QAEXXZ @ 250 NONAME ; public: void __thiscall  CFbsDrvDevice::LoadTypeFaceListL(void)
	?DrawTextL@CPdrGc@@QAEXABVTDesC16@@ABVTPoint@@@Z @ 251 NONAME ; public: void __thiscall CPdrGc::DrawTextL(class  TDesC16 const &,class TPoint const &)
	?SetModelL@CFbsDrvDevice@@QAEHABVTPrinterModelHeader@@AAVCStreamStore@@@Z @ 252 NONAME ; public: int __thiscall  CFbsDrvDevice::SetModelL(class TPrinterModelHeader const &,class CStreamStore &)
	?GetNearestFontToDesignHeightInTwips@CBandedDevice@@UAEHAAPAVCFont@@ABVTFontSpec@@@Z @ 253 NONAME ; int CBandedDevice::GetNearestFontToDesignHeightInTwips(class CFont * &, class TFontSpec const &)
	?GetNearestFontToDesignHeightInTwips@CMetafileDevice@@UAEHAAPAVCFont@@ABVTFontSpec@@@Z @ 254 NONAME ; int CMetafileDevice::GetNearestFontToDesignHeightInTwips(class CFont * &, class TFontSpec const &)
	?GetNearestFontToDesignHeightInTwips@CPdrTypefaceStore@@UAEHAAPAVCFont@@ABVTFontSpec@@@Z @ 255 NONAME ; int CPdrTypefaceStore::GetNearestFontToDesignHeightInTwips(class CFont * &, class TFontSpec const &)
	?GetNearestFontToMaxHeightInTwips@CBandedDevice@@UAEHAAPAVCFont@@ABVTFontSpec@@H@Z @ 256 NONAME ; int CBandedDevice::GetNearestFontToMaxHeightInTwips(class CFont * &, class TFontSpec const &, int)
	?GetNearestFontToMaxHeightInTwips@CMetafileDevice@@UAEHAAPAVCFont@@ABVTFontSpec@@H@Z @ 257 NONAME ; int CMetafileDevice::GetNearestFontToMaxHeightInTwips(class CFont * &, class TFontSpec const &, int)
	?GetNearestFontToMaxHeightInTwips@CPdrTypefaceStore@@UAEHAAPAVCFont@@ABVTFontSpec@@H@Z @ 258 NONAME ; int CPdrTypefaceStore::GetNearestFontToMaxHeightInTwips(class CFont * &, class TFontSpec const &, int)
	?GetNearestFontToDesignHeightInTwips@CPdrDevice@@UAEHAAPAVCFont@@ABVTFontSpec@@@Z @ 259 NONAME ; int CPdrDevice::GetNearestFontToDesignHeightInTwips(class CFont * &, class TFontSpec const &)
	?GetNearestFontToMaxHeightInTwips@CPdrDevice@@UAEHAAPAVCFont@@ABVTFontSpec@@H@Z @ 260 NONAME ; int CPdrDevice::GetNearestFontToMaxHeightInTwips(class CFont * &, class TFontSpec const &, int)
	?GetNearestFontToDesignHeightInTwips@CFbsDrvDevice@@UAEHAAPAVCFont@@ABVTFontSpec@@@Z @ 261 NONAME ; int CFbsDrvDevice::GetNearestFontToDesignHeightInTwips(class CFont * &, class TFontSpec const &)
	?DrawBitmapMasked@CMetafileGc@@UAEXABVTRect@@PBVCFbsBitmap@@01H@Z @ 262 NONAME ; void CMetafileGc::DrawBitmapMasked(class TRect const &, class CFbsBitmap const *, class TRect const &, class CFbsBitmap const *, int)
	?DrawBitmapMasked@CPdrGc@@UAEXABVTRect@@PBVCFbsBitmap@@01H@Z @ 263 NONAME ; void CPdrGc::DrawBitmapMasked(class TRect const &, class CFbsBitmap const *, class TRect const &, class CFbsBitmap const *, int)
	?DrawBitmapMasked@CMetafileGc@@UAEXABVTRect@@PBVCWsBitmap@@01H@Z @ 264 NONAME ; void CMetafileGc::DrawBitmapMasked(class TRect const &, class CWsBitmap const *, class TRect const &, class CWsBitmap const *, int)
	?DrawBitmapMasked@CPdrGc@@UAEXABVTRect@@PBVCWsBitmap@@01H@Z @ 265 NONAME ; void CPdrGc::DrawBitmapMasked(class TRect const &, class CWsBitmap const *, class TRect const &, class CWsBitmap const *, int)
	?CancelClippingRegion@CMetafileGc@@UAEXXZ @ 266 NONAME ; void CMetafileGc::CancelClippingRegion(void)
	?CancelClippingRegion@CPdrGc@@UAEXXZ @ 267 NONAME ; void CPdrGc::CancelClippingRegion(void)
	?MapColors@CMetafileGc@@UAEXABVTRect@@PBVTRgb@@HH@Z @ 268 NONAME ; void CMetafileGc::MapColors(class TRect const &, class TRgb const *, int, int)
	?MapColors@CPdrGc@@UAEXABVTRect@@PBVTRgb@@HH@Z @ 269 NONAME ; void CPdrGc::MapColors(class TRect const &, class TRgb const *, int, int)
	?SetClippingRegion@CMetafileGc@@UAEHABVTRegion@@@Z @ 270 NONAME ; int CMetafileGc::SetClippingRegion(class TRegion const &)
	?SetClippingRegion@CPdrGc@@UAEHABVTRegion@@@Z @ 271 NONAME ; int CPdrGc::SetClippingRegion(class TRegion const &)
	?AlphaBlendBitmaps@CMetafileGc@@QAEHABVTPoint@@PBVCFbsBitmap@@ABVTRect@@10@Z @ 272 NONAME ; int CMetafileGc::AlphaBlendBitmaps(class TPoint const &, class CFbsBitmap const *, class TRect const &, class CFbsBitmap const *, class TPoint const &)
	?AlphaBlendBitmaps@CMetafileGc@@QAEHABVTPoint@@PBVCWsBitmap@@ABVTRect@@10@Z @ 273 NONAME ; int CMetafileGc::AlphaBlendBitmaps(class TPoint const &, class CWsBitmap const *, class TRect const &, class CWsBitmap const *, class TPoint const &)
	?AlphaBlendBitmaps@CPdrGc@@QAEHABVTPoint@@PBVCFbsBitmap@@ABVTRect@@10@Z @ 274 NONAME ; int CPdrGc::AlphaBlendBitmaps(class TPoint const &, class CFbsBitmap const *, class TRect const &, class CFbsBitmap const *, class TPoint const &)
	?AlphaBlendBitmaps@CPdrGc@@QAEHABVTPoint@@PBVCWsBitmap@@ABVTRect@@10@Z @ 275 NONAME ; int CPdrGc::AlphaBlendBitmaps(class TPoint const &, class CWsBitmap const *, class TRect const &, class CWsBitmap const *, class TPoint const &)
	?DrawTextVertical@CMetafileGc@@UAEXABVTDesC16@@ABVTPoint@@H@Z @ 276 NONAME ; void CMetafileGc::DrawTextVertical(class TDesC16 const &, class TPoint const &, int)
	?DrawTextVertical@CMetafileGc@@UAEXABVTDesC16@@ABVTRect@@HHW4TTextAlign@CGraphicsContext@@H@Z @ 277 NONAME ; void CMetafileGc::DrawTextVertical(class TDesC16 const &, class TRect const &, int, int, enum CGraphicsContext::TTextAlign, int)
	?DrawTextVertical@CPdrGc@@UAEXABVTDesC16@@ABVTPoint@@H@Z @ 278 NONAME ; void CPdrGc::DrawTextVertical(class TDesC16 const &, class TPoint const &, int)
	?DrawTextVertical@CPdrGc@@UAEXABVTDesC16@@ABVTRect@@HHW4TTextAlign@CGraphicsContext@@H@Z @ 279 NONAME ; void CPdrGc::DrawTextVertical(class TDesC16 const &, class TRect const &, int, int, enum CGraphicsContext::TTextAlign, int)
