EXPORTS
	_ZN13RConsoleProxy10ReadCancelEv @ 1 NONAME
	_ZN13RConsoleProxy11ClearScreenER14TRequestStatus @ 2 NONAME
	_ZN13RConsoleProxy11ClearScreenEv @ 3 NONAME
	_ZN13RConsoleProxy15SetCursorHeightEi @ 4 NONAME
	_ZN13RConsoleProxy15SetCursorHeightEiR14TRequestStatus @ 5 NONAME
	_ZN13RConsoleProxy15SetCursorPosAbsERK6TPoint @ 6 NONAME
	_ZN13RConsoleProxy15SetCursorPosAbsERK6TPointR14TRequestStatus @ 7 NONAME
	_ZN13RConsoleProxy15SetCursorPosRelERK6TPoint @ 8 NONAME
	_ZN13RConsoleProxy15SetCursorPosRelERK6TPointR14TRequestStatus @ 9 NONAME
	_ZN13RConsoleProxy16ClearToEndOfLineER14TRequestStatus @ 10 NONAME
	_ZN13RConsoleProxy16ClearToEndOfLineEv @ 11 NONAME
	_ZN13RConsoleProxy4ReadER14TRequestStatus @ 12 NONAME
	_ZN13RConsoleProxy5WriteERK7TDesC16 @ 13 NONAME
	_ZN13RConsoleProxy5WriteERK7TDesC16R14TRequestStatus @ 14 NONAME
	_ZN13RConsoleProxy6CreateERK7TDesC165TSize @ 15 NONAME
	_ZN13RConsoleProxy6CreateERK7TDesC165TSizeR14TRequestStatus @ 16 NONAME
	_ZN13RConsoleProxy6ServerER8RServer2 @ 17 NONAME
	_ZN13RConsoleProxy7ConnectE8RServer2 @ 18 NONAME
	_ZN13RConsoleProxy7ConnectEPFP12CConsoleBasevERK7TDesC16iiiR8RServer2R7RThread @ 19 NONAME
	_ZN13RConsoleProxy7ConnectEPFP19CConsoleProxyServerPvES2_RK7TDesC16iiiR8RServer2R7RThread @ 20 NONAME
	_ZN13RConsoleProxy7ConnectERK7TDesC16S2_ @ 21 NONAME
	_ZN13RConsoleProxy8SetTitleERK7TDesC16 @ 22 NONAME
	_ZN13RConsoleProxy8SetTitleERK7TDesC16R14TRequestStatus @ 23 NONAME
	_ZN19CConsoleProxyServer10ConstructLERK7TDesC16 @ 24 NONAME
	_ZN19CConsoleProxyServer20ShutdownTimerExpiredEv @ 25 NONAME
	_ZN19CConsoleProxyServer4NewLERK7TDesC16iPFP12CConsoleBasevE @ 26 NONAME
	_ZN19CConsoleProxyServerC1EPFP12CConsoleBasevEi @ 27 NONAME
	_ZN19CConsoleProxyServerC2EPFP12CConsoleBasevEi @ 28 NONAME
	_ZN19CConsoleProxyServerD0Ev @ 29 NONAME
	_ZN19CConsoleProxyServerD1Ev @ 30 NONAME
	_ZN19CConsoleProxyServerD2Ev @ 31 NONAME
	_ZN20CConsoleProxySession12ReadCompleteEi @ 32 NONAME
	_ZN20CConsoleProxySession19InstantiateConsoleLEv @ 33 NONAME
	_ZN20CConsoleProxySession8ServiceLERK9RMessage2 @ 34 NONAME
	_ZN20CConsoleProxySessionC1EP15MProxiedConsole @ 35 NONAME
	_ZN20CConsoleProxySessionC1EPFP12CConsoleBasevE @ 36 NONAME
	_ZN20CConsoleProxySessionC2EP15MProxiedConsole @ 37 NONAME
	_ZN20CConsoleProxySessionC2EPFP12CConsoleBasevE @ 38 NONAME
	_ZN20CConsoleProxySessionD0Ev @ 39 NONAME
	_ZN20CConsoleProxySessionD1Ev @ 40 NONAME
	_ZN20CConsoleProxySessionD2Ev @ 41 NONAME
	_ZNK13RConsoleProxy10GetKeyCodeER8TKeyCode @ 42 NONAME
	_ZNK13RConsoleProxy13GetScreenSizeER5TPckgI5TSizeER14TRequestStatus @ 43 NONAME
	_ZNK13RConsoleProxy13GetScreenSizeER5TSize @ 44 NONAME
	_ZNK13RConsoleProxy15GetKeyModifiersERj @ 45 NONAME
	_ZNK13RConsoleProxy9CursorPosER5TPckgI6TPointER14TRequestStatus @ 46 NONAME
	_ZNK13RConsoleProxy9CursorPosER6TPoint @ 47 NONAME
	_ZNK19CConsoleProxyServer11NewSessionLERK8TVersionRK9RMessage2 @ 48 NONAME
	_ZTI19CConsoleProxyServer @ 49 NONAME ; #<TI>#
	_ZTI20CConsoleProxySession @ 50 NONAME ; #<TI>#
	_ZTV19CConsoleProxyServer @ 51 NONAME ; #<VT>#
	_ZTV20CConsoleProxySession @ 52 NONAME ; #<VT>#
	_ZN20CConsoleProxySession7CreateLEv @ 53 NONAME
	_ZN13CConsoleProxy10ConstructLERK13RConsoleProxy @ 54 NONAME
	_ZN13CConsoleProxy10Extension_EjRPvS0_ @ 55 NONAME
	_ZN13CConsoleProxy10ReadCancelEv @ 56 NONAME
	_ZN13CConsoleProxy11ClearScreenEv @ 57 NONAME
	_ZN13CConsoleProxy15SetCursorHeightEi @ 58 NONAME
	_ZN13CConsoleProxy15SetCursorPosAbsERK6TPoint @ 59 NONAME
	_ZN13CConsoleProxy15SetCursorPosRelERK6TPoint @ 60 NONAME
	_ZN13CConsoleProxy16ClearToEndOfLineEv @ 61 NONAME
	_ZN13CConsoleProxy4NewLERK13RConsoleProxy @ 62 NONAME
	_ZN13CConsoleProxy4ReadER14TRequestStatus @ 63 NONAME
	_ZN13CConsoleProxy5WriteERK7TDesC16 @ 64 NONAME
	_ZN13CConsoleProxy6CreateERK7TDesC165TSize @ 65 NONAME
	_ZN13CConsoleProxy8SetTitleERK7TDesC16 @ 66 NONAME
	_ZN13CConsoleProxyC1Ev @ 67 NONAME
	_ZN13CConsoleProxyC2Ev @ 68 NONAME
	_ZN13CConsoleProxyD0Ev @ 69 NONAME
	_ZN13CConsoleProxyD1Ev @ 70 NONAME
	_ZN13CConsoleProxyD2Ev @ 71 NONAME
	_ZNK13CConsoleProxy10ScreenSizeEv @ 72 NONAME
	_ZNK13CConsoleProxy12KeyModifiersEv @ 73 NONAME
	_ZNK13CConsoleProxy7KeyCodeEv @ 74 NONAME
	_ZNK13CConsoleProxy9CursorPosEv @ 75 NONAME
	_ZTI13CConsoleProxy @ 76 NONAME ; #<TI>#
	_ZTV13CConsoleProxy @ 77 NONAME ; #<VT>#
	_ZN13RConsoleProxy4ReadER5TPckgI8TKeyCodeERS0_IjER14TRequestStatus @ 78 NONAME
	_ZN20CConsoleProxySession9DoCreateLERK7TDesC16RK5TSize @ 79 NONAME
	_ZN20CConsoleProxySession15ConsoleCreatedLEP15MProxiedConsole @ 80 NONAME
	_ZN15MProxiedConsole8DefaultLEP12CConsoleBase @ 81 NONAME
	_ZN13RConsoleProxy13SetAttributesEjN17ConsoleAttributes6TColorES1_R14TRequestStatus @ 82 NONAME
	_ZN13RConsoleProxy13IsConstructedERi @ 83 NONAME

