EXPORTS
	_ZN13CLcfRequestor4NewLEv @ 1 NONAME
	_ZN13CLcfRequestor5NewLCEv @ 2 NONAME
	_ZN13CLcfRequestorC1ERKS_ @ 3 NONAME
	_ZN13CLcfRequestorC2ERKS_ @ 4 NONAME
	_ZN13CLcfRequestorD0Ev @ 5 NONAME
	_ZN13CLcfRequestorD1Ev @ 6 NONAME
	_ZN13CLcfRequestorD2Ev @ 7 NONAME
	_ZN13CLcfRequestoraSERKS_ @ 8 NONAME
	_ZN19CLcfNotifierManager12ResetPluginLEv @ 9 NONAME
	_ZN19CLcfNotifierManager14ClearAllInputLEv @ 10 NONAME
	_ZN19CLcfNotifierManager14ResetRequestedEv @ 11 NONAME
	_ZN19CLcfNotifierManager15ClearAllOutputLEv @ 12 NONAME
	_ZN19CLcfNotifierManager15GetDiagnosticsLEiRP21CLcfPluginDiagnostics @ 13 NONAME
	_ZN19CLcfNotifierManager15NbOfDiagnosticsEv @ 14 NONAME
	_ZN19CLcfNotifierManager17ControlDataExistsEv @ 15 NONAME
	_ZN19CLcfNotifierManager18AppendDiagnosticsLEPK21CLcfPluginDiagnostics @ 16 NONAME
	_ZN19CLcfNotifierManager18SetCompletionCodeLE20TLcfPluginAnswerType19TLcfCompletionStyleiiid @ 17 NONAME
	_ZN19CLcfNotifierManager19GetCompletionAnswerER19TLcfCompletionStyleRiS2_ @ 18 NONAME
	_ZN19CLcfNotifierManager21GetLatestDiagnosticsLERP21CLcfPluginDiagnostics @ 19 NONAME
	_ZN19CLcfNotifierManager22GetNotificationAnswerLEiR16TLcfPluginAnswerRd @ 20 NONAME
	_ZN19CLcfNotifierManager22GetVerificationAnswerLEiR16TLcfPluginAnswerRd @ 21 NONAME
	_ZN19CLcfNotifierManager22SetNotificationAnswerLEi16TLcfPluginAnswerd @ 22 NONAME
	_ZN19CLcfNotifierManager22SetVerificationAnswerLEi16TLcfPluginAnswerd @ 23 NONAME
	_ZN19CLcfNotifierManager23ClearAllInputAndOutputLEv @ 24 NONAME
	_ZN19CLcfNotifierManager26SetNextNotificationAnswerLE16TLcfPluginAnswerd @ 25 NONAME
	_ZN19CLcfNotifierManager26SetNextVerificationAnswerLE16TLcfPluginAnswerd @ 26 NONAME
	_ZN19CLcfNotifierManager29SetDefaultNotificationAnswerLE16TLcfPluginAnswerd @ 27 NONAME
	_ZN19CLcfNotifierManager29SetDefaultVerificationAnswerLE16TLcfPluginAnswerd @ 28 NONAME
	_ZN19CLcfNotifierManager4NewLEi @ 29 NONAME
	_ZN19CLcfNotifierManager5NewLCEi @ 30 NONAME
	_ZN19CLcfNotifierManagerD0Ev @ 31 NONAME
	_ZN19CLcfNotifierManagerD1Ev @ 32 NONAME
	_ZN19CLcfNotifierManagerD2Ev @ 33 NONAME
	_ZN21CLcfPluginDiagnostics12SetRequestIdEi @ 34 NONAME
	_ZN21CLcfPluginDiagnostics13SetExitReasonE20TLcfPluginExitReason @ 35 NONAME
	_ZN21CLcfPluginDiagnostics14AddRequestorLDEP13CLcfRequestor @ 36 NONAME
	_ZN21CLcfPluginDiagnostics24SetIsVerificationRequestEi @ 37 NONAME
	_ZN21CLcfPluginDiagnostics4NewLEv @ 38 NONAME
	_ZN21CLcfPluginDiagnostics5NewLCEv @ 39 NONAME
	_ZN21CLcfPluginDiagnosticsD0Ev @ 40 NONAME
	_ZN21CLcfPluginDiagnosticsD1Ev @ 41 NONAME
	_ZN21CLcfPluginDiagnosticsD2Ev @ 42 NONAME
	_ZNK21CLcfPluginDiagnostics10ExitReasonEv @ 43 NONAME
	_ZNK21CLcfPluginDiagnostics10RequestorLEi @ 44 NONAME
	_ZNK21CLcfPluginDiagnostics11RequestorLCEi @ 45 NONAME
	_ZNK21CLcfPluginDiagnostics18NumberOfRequestorsEv @ 46 NONAME
	_ZNK21CLcfPluginDiagnostics19VerificationRequestEv @ 47 NONAME
	_ZNK21CLcfPluginDiagnostics9RequestIdEv @ 48 NONAME
	_ZTI13CLcfRequestor @ 49 NONAME ; #<TI>#
	_ZTI19CLcfNotifierManager @ 50 NONAME ; #<TI>#
	_ZTI21CLcfPluginDiagnostics @ 51 NONAME ; #<TI>#
	_ZTV13CLcfRequestor @ 52 NONAME ; #<VT>#
	_ZTV19CLcfNotifierManager @ 53 NONAME ; #<VT>#
	_ZTV21CLcfPluginDiagnostics @ 54 NONAME ; #<VT>#

