EXPORTS
	_ZN13CMockSYEngine10ConstructLEv @ 1 NONAME
	_ZN13CMockSYEngine10LogRequestEiRK17MMockSyEngineDatai @ 2 NONAME
	_ZN13CMockSYEngine13DoQueueEventLENS_12TMockSYEvent10TEventTypeEiP6HBufC8iii @ 3 NONAME
	_ZN13CMockSYEngine13LogCompletionEiRK6TDesC8i @ 4 NONAME
	_ZN13CMockSYEngine14LogExpectErrorEiRK17MMockSyEngineDataiRK6TDesC8i @ 5 NONAME
	_ZN13CMockSYEngine15ExecuteCommandLEiR17MMockSyEngineData @ 6 NONAME
	_ZN13CMockSYEngine3LogERK7TDesC16 @ 7 NONAME
	_ZN13CMockSYEngine5ResetEv @ 8 NONAME
	_ZN13CMockSYEngine7FailureEv @ 9 NONAME
	_ZN13CMockSYEngineC2Ev @ 10 NONAME
	_ZN13CMockSYEngineD0Ev @ 11 NONAME
	_ZN13CMockSYEngineD1Ev @ 12 NONAME
	_ZN13CMockSYEngineD2Ev @ 13 NONAME
	_ZN13CMockSYServer4NewLERK7TDesC16iR13CMockSYEngine @ 14 NONAME
	_ZN7RMockSY10DoCompleteEiiiRK6TDesC8 @ 15 NONAME
	_ZN7RMockSY14GetNextLogLineER6TDes16 @ 16 NONAME
	_ZN7RMockSY16NotifyTerminatedER14TRequestStatus @ 17 NONAME
	_ZN7RMockSY7ConnectEv @ 18 NONAME
	_ZN7RMockSY8DoExpectEiiiRK6TDesC8 @ 19 NONAME
	_ZN7RMockSY9GetStatusERiS0_S0_ @ 20 NONAME
	_ZTI13CMockSYEngine @ 21 NONAME
	_ZTI13CMockSYServer @ 22 NONAME
	_ZTI14CMockSYSession @ 23 NONAME
	_ZTI15CRotatingStrBuf @ 24 NONAME
	_ZTV13CMockSYEngine @ 25 NONAME
	_ZTV13CMockSYServer @ 26 NONAME
	_ZTV14CMockSYSession @ 27 NONAME
	_ZTV15CRotatingStrBuf @ 28 NONAME
	_ZN13CMockSYEngine15ExecuteCommandLEiR17MMockSyEngineDatai @ 29 NONAME
	_ZN13CMockSYEngine22CanIgnoreUnexpectedIpcEi @ 30 NONAME
	_ZN13CMockSYEngine21CheckAndUpdateTransIdEhi @ 31 NONAME
	_ZN7RMockSY15PauseCompletionEv @ 32 NONAME
	_ZN7RMockSY16ResumeCompletionEv @ 33 NONAME

