EXPORTS
	_ZN9Factories12CFactoryBase10ConstructLERK4TUid @ 1 NONAME
	_ZN9Factories12CFactoryBase10ConstructLEv @ 2 NONAME
	_ZN9Factories12CFactoryBase14SignalCreationERNS_14AFactoryObjectE @ 3 NONAME
	_ZN9Factories12CFactoryBase14SignalDeletionERNS_14AFactoryObjectE @ 4 NONAME
	_ZN9Factories12CFactoryBase17AddManagedObjectLERNS_14AFactoryObjectE @ 5 NONAME
	_ZN9Factories12CFactoryBase17RegisterNotifierLERKNS_14IFactoryNotifyE @ 6 NONAME
	_ZN9Factories12CFactoryBase18DeRegisterNotifierERKNS_14IFactoryNotifyE @ 7 NONAME
	_ZN9Factories12CFactoryBase19RemoveManagedObjectERNS_14AFactoryObjectE @ 8 NONAME
	_ZN9Factories12CFactoryBase25ManagedObjectBeingDeletedERNS_14AFactoryObjectE @ 9 NONAME
	_ZN9Factories12CFactoryBase4NewLERK4TUidRNS_17CFactoryContainerE @ 10 NONAME
	_ZN9Factories12CFactoryBase4NewLERK6TDesC8RK4TUidRNS_17CFactoryContainerE @ 11 NONAME
	_ZN9Factories12CFactoryBaseC1E4TUidRNS_17CFactoryContainerE @ 12 NONAME
	_ZN9Factories12CFactoryBaseC2E4TUidRNS_17CFactoryContainerE @ 13 NONAME
	_ZN9Factories12CFactoryBaseD0Ev @ 14 NONAME
	_ZN9Factories12CFactoryBaseD1Ev @ 15 NONAME
	_ZN9Factories12CFactoryBaseD2Ev @ 16 NONAME
	_ZN9Factories14AFactoryObject11DeleteMeNowEv @ 17 NONAME
	_ZN9Factories14AFactoryObject17MarkMeForDeletionEv @ 18 NONAME
	_ZN9Factories14AFactoryObjectC1ERNS_12CFactoryBaseE @ 19 NONAME
	_ZN9Factories14AFactoryObjectC2ERNS_12CFactoryBaseE @ 20 NONAME
	_ZN9Factories14AFactoryObjectD0Ev @ 21 NONAME
	_ZN9Factories14AFactoryObjectD1Ev @ 22 NONAME
	_ZN9Factories14AFactoryObjectD2Ev @ 23 NONAME
	_ZN9Factories17CFactoryContainer17RegisterNotifierLE4TUidRKNS_14IFactoryNotifyE @ 24 NONAME
	_ZN9Factories17CFactoryContainer26FetchNodeInterfaceControlLEi @ 25 NONAME
	_ZN9Factories17CFactoryContainer4AddLERNS_12CFactoryBaseE @ 26 NONAME
	_ZN9Factories17CFactoryContainerC1Ev @ 27 NONAME
	_ZN9Factories17CFactoryContainerC2Ev @ 28 NONAME
	_ZN9Factories17CFactoryContainerD0Ev @ 29 NONAME
	_ZN9Factories17CFactoryContainerD1Ev @ 30 NONAME
	_ZN9Factories17CFactoryContainerD2Ev @ 31 NONAME
	_ZN9Factories21CFactoryContainerNodeC2Ev @ 32 NONAME
	_ZN9Factories21CFactoryContainerNodeD0Ev @ 33 NONAME
	_ZN9Factories21CFactoryContainerNodeD1Ev @ 34 NONAME
	_ZN9Factories21CFactoryContainerNodeD2Ev @ 35 NONAME
	_ZNK9Factories12CFactoryBase10FindObjectERNS_13MFactoryQueryE @ 36 NONAME
	_ZNK9Factories12CFactoryBase3UidEv @ 37 NONAME
	_ZNK9Factories17CFactoryContainer10FindObjectERNS_13MFactoryQueryE @ 38 NONAME
	_ZNK9Factories17CFactoryContainer11FindFactoryE4TUid @ 39 NONAME
	_ZNK9Factories17CFactoryContainer7FactoryEi @ 40 NONAME
	_ZTIN9Factories12CFactoryBaseE @ 41 NONAME
	_ZTIN9Factories14AFactoryObjectE @ 42 NONAME
	_ZTIN9Factories17CFactoryContainerE @ 43 NONAME
	_ZTIN9Factories21CFactoryContainerNodeE @ 44 NONAME
	_ZTVN9Factories12CFactoryBaseE @ 45 NONAME
	_ZTVN9Factories14AFactoryObjectE @ 46 NONAME
	_ZTVN9Factories17CFactoryContainerE @ 47 NONAME
	_ZTVN9Factories21CFactoryContainerNodeE @ 48 NONAME
	_ZN9Factories12CFactoryBase20InterfaceStateChangeERK6TDesC8 @ 49 NONAME

