EXPORTS
	??0RPhCltIhf@@QAE@XZ @ 1 NONAME ; RPhCltIhf::RPhCltIhf(void)
	??0RPhCltResourceFile@@QAE@XZ @ 2 NONAME ; RPhCltResourceFile::RPhCltResourceFile(void)
	??0RPhCltServer@@QAE@XZ @ 3 NONAME ; RPhCltServer::RPhCltServer(void)
	??0RPhCltUssd@@QAE@XZ @ 4 NONAME ; RPhCltUssd::RPhCltUssd(void)
	??1CPhCltCallNotify@@UAE@XZ @ 5 NONAME ; CPhCltCallNotify::~CPhCltCallNotify(void)
	??1CPhCltExtPhoneDialData@@UAE@XZ @ 6 NONAME ; CPhCltExtPhoneDialData::~CPhCltExtPhoneDialData(void)
	??1CPhCltUssd@@UAE@XZ @ 7 NONAME ; CPhCltUssd::~CPhCltUssd(void)
	??1CPhCltUssdSatClient@@UAE@XZ @ 8 NONAME ; CPhCltUssdSatClient::~CPhCltUssdSatClient(void)
	?AllowMatch@CPhCltExtPhoneDialData@@QBEHXZ @ 9 NONAME ; int CPhCltExtPhoneDialData::AllowMatch(void) const
	?AppStarting@RPhCltUssd@@IAEHXZ @ 10 NONAME ; int RPhCltUssd::AppStarting(void)
	?AppTerminating@RPhCltUssd@@IAEHW4TPhCltUssdAppExitReason@@@Z @ 11 NONAME ; int RPhCltUssd::AppTerminating(enum TPhCltUssdAppExitReason)
	?AppToBackground@RPhCltUssd@@IAEHXZ @ 12 NONAME ; int RPhCltUssd::AppToBackground(void)
	?AppToForeground@RPhCltUssd@@IAEHXZ @ 13 NONAME ; int RPhCltUssd::AppToForeground(void)
	?Bearer@CPhCltExtPhoneDialData@@QBEABV?$TBuf8@$0O@@@XZ @ 14 NONAME ; class TBuf8<14> const & CPhCltExtPhoneDialData::Bearer(void) const
	?CalculatePackageSize@CPhCltExtPhoneDialData@@QBEHXZ @ 15 NONAME ; int CPhCltExtPhoneDialData::CalculatePackageSize(void) const
	?CallType@CPhCltExtPhoneDialData@@QBE?AW4TPhCltCallType@@XZ @ 16 NONAME ; enum TPhCltCallType CPhCltExtPhoneDialData::CallType(void) const
	?CancelNotifyCallAttempt@CPhCltCallNotify@@QBEXXZ @ 17 NONAME ; void CPhCltCallNotify::CancelNotifyCallAttempt(void) const
	?CancelNotifyEmergencyCall@CPhCltCallNotify@@QBEXXZ @ 18 NONAME ; void CPhCltCallNotify::CancelNotifyEmergencyCall(void) const
	?CancelSend@RPhCltUssd@@QAEXXZ @ 19 NONAME ; void RPhCltUssd::CancelSend(void)
	?Close@CPhCltCallNotify@@QAEXXZ @ 20 NONAME ; void CPhCltCallNotify::Close(void)
	?Close@RPhCltIhf@@QAEXXZ @ 21 NONAME ; void RPhCltIhf::Close(void)
	?Close@RPhCltResourceFile@@QAEXXZ @ 22 NONAME ; void RPhCltResourceFile::Close(void)
	?Close@RPhCltUssd@@QAEXXZ @ 23 NONAME ; void RPhCltUssd::Close(void)
	?Connect@RPhCltServer@@QAEHH@Z @ 24 NONAME ; int RPhCltServer::Connect(int)
	?ContactLink@CPhCltExtPhoneDialData@@QBEABVTDesC8@@XZ @ 25 NONAME ; class TDesC8 const & CPhCltExtPhoneDialData::ContactLink(void) const
	?CreateAll@RPhCltServer@@QAEXAAVTRequestStatus@@@Z @ 26 NONAME ; void RPhCltServer::CreateAll(class TRequestStatus &)
	?EndOtherCalls@CPhCltExtPhoneDialData@@QBEHXZ @ 27 NONAME ; int CPhCltExtPhoneDialData::EndOtherCalls(void) const
	?InitiateCall@CPhCltExtPhoneDialData@@QBEHXZ @ 28 NONAME ; int CPhCltExtPhoneDialData::InitiateCall(void) const
	?IsValidChar@PhCltUtils@@SAHVTChar@@@Z @ 29 NONAME ; int PhCltUtils::IsValidChar(class TChar)
	?Name@CPhCltExtPhoneDialData@@QBEABV?$TBuf@$0DC@@@XZ @ 30 NONAME ; class TBuf<50> const & CPhCltExtPhoneDialData::Name(void) const
	?NewL@CPhCltCallNotify@@SAPAV1@XZ @ 31 NONAME ; class CPhCltCallNotify * CPhCltCallNotify::NewL(void)
	?NewL@CPhCltEmergencyCall@@SAPAV1@PAVMPhCltEmergencyCallObserver@@@Z @ 32 NONAME ; class CPhCltEmergencyCall * CPhCltEmergencyCall::NewL(class MPhCltEmergencyCallObserver *)
	?NewL@CPhCltExtPhoneBase@@SAPAV1@PAVMPhCltExtPhoneObserver@@@Z @ 33 NONAME ; class CPhCltExtPhoneBase * CPhCltExtPhoneBase::NewL(class MPhCltExtPhoneObserver *)
	?NewL@CPhCltExtPhoneDialData@@SAPAV1@ABVTDesC8@@@Z @ 34 NONAME ; class CPhCltExtPhoneDialData * CPhCltExtPhoneDialData::NewL(class TDesC8 const &)
	?NewL@CPhCltExtPhoneDialData@@SAPAV1@XZ @ 35 NONAME ; class CPhCltExtPhoneDialData * CPhCltExtPhoneDialData::NewL(void)
	?NewL@CPhCltUssd@@SAPAV1@H@Z @ 36 NONAME ; class CPhCltUssd * CPhCltUssd::NewL(int)
	?NewL@CPhCltUssdSatClient@@SAPAV1@H@Z @ 37 NONAME ; class CPhCltUssdSatClient * CPhCltUssdSatClient::NewL(int)
	?NewLC@CPhCltExtPhoneDialData@@SAPAV1@ABVTDesC8@@@Z @ 38 NONAME ; class CPhCltExtPhoneDialData * CPhCltExtPhoneDialData::NewLC(class TDesC8 const &)
	?NewLC@CPhCltExtPhoneDialData@@SAPAV1@XZ @ 39 NONAME ; class CPhCltExtPhoneDialData * CPhCltExtPhoneDialData::NewLC(void)
	?NotifyCallAttempt@CPhCltCallNotify@@QAEXAAVTRequestStatus@@AAVCPhCltExtPhoneDialData@@@Z @ 40 NONAME ; void CPhCltCallNotify::NotifyCallAttempt(class TRequestStatus &, class CPhCltExtPhoneDialData &)
	?NotifyEmergencyCall@CPhCltCallNotify@@QAEXAAVTRequestStatus@@AAVTDesC16@@@Z @ 41 NONAME ; void CPhCltCallNotify::NotifyEmergencyCall(class TRequestStatus &, class TDesC16 &)
	?Open@CPhCltCallNotify@@QAEHAAVRPhCltServer@@@Z @ 42 NONAME ; int CPhCltCallNotify::Open(class RPhCltServer &)
	?Open@RPhCltIhf@@QAEHAAVRPhCltServer@@H@Z @ 43 NONAME ; int RPhCltIhf::Open(class RPhCltServer &, int)
	?Open@RPhCltUssd@@QAEHAAVRPhCltServer@@@Z @ 44 NONAME ; int RPhCltUssd::Open(class RPhCltServer &)
	?OpenL@RPhCltResourceFile@@QAEXAAVCCoeEnv@@@Z @ 45 NONAME ; void RPhCltResourceFile::OpenL(class CCoeEnv &)
	?PackLC@CPhCltExtPhoneDialData@@QAEPAVHBufC8@@XZ @ 46 NONAME ; class HBufC8 * CPhCltExtPhoneDialData::PackLC(void)
	?Redial@CPhCltExtPhoneDialData@@QBEHXZ @ 47 NONAME ; int CPhCltExtPhoneDialData::Redial(void) const
	?RedialMaximumDuration@CPhCltExtPhoneDialData@@QBE?BVTTimeIntervalSeconds@@XZ @ 48 NONAME ; class TTimeIntervalSeconds const CPhCltExtPhoneDialData::RedialMaximumDuration(void) const
	?RemoveInvalidChars@PhCltUtils@@SAXAAVTDes16@@@Z @ 49 NONAME ; void PhCltUtils::RemoveInvalidChars(class TDes16 &)
	?RemoveURIPrefixdAndDomainChars@PhCltUtils@@SAXAAVTDes16@@@Z @ 50 NONAME ; void PhCltUtils::RemoveURIPrefixdAndDomainChars(class TDes16 &)
	?RespondClient@CPhCltCallNotify@@QAEHH@Z @ 51 NONAME ; int CPhCltCallNotify::RespondClient(int)
	?RespondEmergencyToClient@CPhCltCallNotify@@QAEHH@Z @ 52 NONAME ; int CPhCltCallNotify::RespondEmergencyToClient(int)
	?SATCall@CPhCltExtPhoneDialData@@QBEHXZ @ 53 NONAME ; int CPhCltExtPhoneDialData::SATCall(void) const
	?SendKeyPressed@CPhCltExtPhoneDialData@@QBEHXZ @ 54 NONAME ; int CPhCltExtPhoneDialData::SendKeyPressed(void) const
	?SendSatMessage@CPhCltUssdSatClient@@QAEHABVTDesC16@@EAAVTDes16@@AAHAAE@Z @ 55 NONAME ; int CPhCltUssdSatClient::SendSatMessage(class TDesC16 const &, unsigned char, class TDes16 &, int &, unsigned char &)
	?SendSatMessageCancel@CPhCltUssdSatClient@@QAEXXZ @ 56 NONAME ; void CPhCltUssdSatClient::SendSatMessageCancel(void)
	?SendUssd@CPhCltUssd@@QAEHABVTDesC16@@@Z @ 57 NONAME ; int CPhCltUssd::SendUssd(class TDesC16 const &)
	?SendUssd@CPhCltUssd@@QAEHABVTDesC8@@@Z @ 58 NONAME ; int CPhCltUssd::SendUssd(class TDesC8 const &)
	?SendUssd@CPhCltUssd@@QAEHABVTDesC8@@E@Z @ 59 NONAME ; int CPhCltUssd::SendUssd(class TDesC8 const &, unsigned char)
	?SendUssd@RPhCltUssd@@QAEXAAVTRequestStatus@@ABVTDesC8@@1@Z @ 60 NONAME ; void RPhCltUssd::SendUssd(class TRequestStatus &, class TDesC8 const &, class TDesC8 const &)
	?SendUssdCancel@CPhCltUssd@@QAEXXZ @ 61 NONAME ; void CPhCltUssd::SendUssdCancel(void)
	?SetAllowMatch@CPhCltExtPhoneDialData@@QAEXH@Z @ 62 NONAME ; void CPhCltExtPhoneDialData::SetAllowMatch(int)
	?SetBearerL@CPhCltExtPhoneDialData@@QAEXABV?$TBuf8@$0O@@@@Z @ 63 NONAME ; void CPhCltExtPhoneDialData::SetBearerL(class TBuf8<14> const &)
	?SetCallType@CPhCltExtPhoneDialData@@QAEXW4TPhCltCallType@@@Z @ 64 NONAME ; void CPhCltExtPhoneDialData::SetCallType(enum TPhCltCallType)
	?SetContactLinkL@CPhCltExtPhoneDialData@@QAEXABVTDesC8@@@Z @ 65 NONAME ; void CPhCltExtPhoneDialData::SetContactLinkL(class TDesC8 const &)
	?SetEndOtherCalls@CPhCltExtPhoneDialData@@QAEXH@Z @ 66 NONAME ; void CPhCltExtPhoneDialData::SetEndOtherCalls(int)
	?SetIhfMode@RPhCltIhf@@QAEHHH@Z @ 67 NONAME ; int RPhCltIhf::SetIhfMode(int, int)
	?SetIhfModeFromPhone@RPhCltIhf@@QAEHHH@Z @ 68 NONAME ; int RPhCltIhf::SetIhfModeFromPhone(int, int)
	?SetInitiateCall@CPhCltExtPhoneDialData@@QAEXH@Z @ 69 NONAME ; void CPhCltExtPhoneDialData::SetInitiateCall(int)
	?SetNameL@CPhCltExtPhoneDialData@@QAEXABV?$TBuf@$0DC@@@@Z @ 70 NONAME ; void CPhCltExtPhoneDialData::SetNameL(class TBuf<50> const &)
	?SetRedial@CPhCltExtPhoneDialData@@QAEXH@Z @ 71 NONAME ; void CPhCltExtPhoneDialData::SetRedial(int)
	?SetRedialMaximumDuration@CPhCltExtPhoneDialData@@QAEXVTTimeIntervalSeconds@@@Z @ 72 NONAME ; void CPhCltExtPhoneDialData::SetRedialMaximumDuration(class TTimeIntervalSeconds)
	?SetSATCall@CPhCltExtPhoneDialData@@QAEXH@Z @ 73 NONAME ; void CPhCltExtPhoneDialData::SetSATCall(int)
	?SetSendKeyPressed@CPhCltExtPhoneDialData@@QAEXH@Z @ 74 NONAME ; void CPhCltExtPhoneDialData::SetSendKeyPressed(int)
	?SetShowNumber@CPhCltExtPhoneDialData@@QAEXH@Z @ 75 NONAME ; void CPhCltExtPhoneDialData::SetShowNumber(int)
	?SetSubAddressL@CPhCltExtPhoneDialData@@QAEXABV?$TBuf@$0BF@@@@Z @ 76 NONAME ; void CPhCltExtPhoneDialData::SetSubAddressL(class TBuf<21> const &)
	?SetTelephoneNumber@CPhCltExtPhoneDialData@@QAEXABV?$TBuf@$0GE@@@@Z @ 77 NONAME ; void CPhCltExtPhoneDialData::SetTelephoneNumber(class TBuf<100> const &)
	?SetWindowGroup@CPhCltExtPhoneDialData@@QAEXH@Z @ 78 NONAME ; void CPhCltExtPhoneDialData::SetWindowGroup(int)
	?ShowNumber@CPhCltExtPhoneDialData@@QBEHXZ @ 79 NONAME ; int CPhCltExtPhoneDialData::ShowNumber(void) const
	?StartUssdEditor@RPhCltUssd@@QBEHXZ @ 80 NONAME ; int RPhCltUssd::StartUssdEditor(void) const
	?SubAddress@CPhCltExtPhoneDialData@@QBEABV?$TBuf@$0BF@@@XZ @ 81 NONAME ; class TBuf<21> const & CPhCltExtPhoneDialData::SubAddress(void) const
	?TelephoneNumber@CPhCltExtPhoneDialData@@QBEABV?$TBuf@$0GE@@@XZ @ 82 NONAME ; class TBuf<100> const & CPhCltExtPhoneDialData::TelephoneNumber(void) const
	?WindowGroup@CPhCltExtPhoneDialData@@QBEHXZ @ 83 NONAME ; int CPhCltExtPhoneDialData::WindowGroup(void) const
	?ServiceId@CPhCltExtPhoneDialData@@QBEKXZ @ 84 NONAME ; unsigned long CPhCltExtPhoneDialData::ServiceId(void) const
	?SetServiceId@CPhCltExtPhoneDialData@@QAEXK@Z @ 85 NONAME ; void CPhCltExtPhoneDialData::SetServiceId(unsigned long)
	?SetUUIL@CPhCltExtPhoneDialData@@QAEXABVTDesC16@@@Z @ 86 NONAME ; void CPhCltExtPhoneDialData::SetUUIL(class TDesC16 const &)
	?UUI@CPhCltExtPhoneDialData@@QBEABVTDesC16@@XZ @ 87 NONAME ; class TDesC16 const & CPhCltExtPhoneDialData::UUI(void) const

