EXPORTS
	??0RPhCltCallNotify@@QAE@XZ @ 1 NONAME ; RPhCltCallNotify::RPhCltCallNotify(void)
	??0RPhCltEmergencyNumber@@QAE@XZ @ 2 NONAME ; RPhCltEmergencyNumber::RPhCltEmergencyNumber(void)
	??0RPhCltIhf@@QAE@XZ @ 3 NONAME ; RPhCltIhf::RPhCltIhf(void)
	??0RPhCltResourceFile@@QAE@XZ @ 4 NONAME ; RPhCltResourceFile::RPhCltResourceFile(void)
	??0RPhCltServer@@QAE@XZ @ 5 NONAME ; RPhCltServer::RPhCltServer(void)
	??0TPhCltExtPhoneDialData@@QAE@ABV?$TBuf@$0DC@@@ABV?$TBuf@$0GE@@@JH@Z @ 6 NONAME ; TPhCltExtPhoneDialData::TPhCltExtPhoneDialData(class TBuf<50> const &, class TBuf<100> const &, long, int)
	??0TPhCltExtPhoneDialData@@QAE@ABV?$TBuf@$0GE@@@H@Z @ 7 NONAME ; TPhCltExtPhoneDialData::TPhCltExtPhoneDialData(class TBuf<100> const &, int)
	??0TPhCltExtPhoneDialData@@QAE@ABV?$TBuf@$0GE@@@J@Z @ 8 NONAME ; TPhCltExtPhoneDialData::TPhCltExtPhoneDialData(class TBuf<100> const &, long)
	??0TPhCltExtPhoneDialData@@QAE@ABV?$TBuf@$0GE@@@JH@Z @ 9 NONAME ; TPhCltExtPhoneDialData::TPhCltExtPhoneDialData(class TBuf<100> const &, long, int)
	??0TPhCltExtPhoneDialData@@QAE@XZ @ 10 NONAME ; TPhCltExtPhoneDialData::TPhCltExtPhoneDialData(void)
	??1CPhCltEmergencyTelNumber@@UAE@XZ @ 11 NONAME ; CPhCltEmergencyTelNumber::~CPhCltEmergencyTelNumber(void)
	??1CPhCltUssdSatClient@@UAE@XZ @ 12 NONAME ; CPhCltUssdSatClient::~CPhCltUssdSatClient(void)
	?AllowMatch@TPhCltExtPhoneDialData@@QBEHXZ @ 13 NONAME ; int TPhCltExtPhoneDialData::AllowMatch(void) const
	?AsIPCStruct@TPhCltExtPhoneDialData@@QBEXAAVTPhCltCallArgs@@@Z @ 14 NONAME ; void TPhCltExtPhoneDialData::AsIPCStruct(class TPhCltCallArgs &) const
	?Bearer@TPhCltExtPhoneDialData@@QBEABV?$TBuf8@$0O@@@XZ @ 15 NONAME ; class TBuf8<14> const & TPhCltExtPhoneDialData::Bearer(void) const
	?CallType@TPhCltExtPhoneDialData@@QBE?AW4TPhCltCallType@@XZ @ 16 NONAME ; enum TPhCltCallType TPhCltExtPhoneDialData::CallType(void) const
	?CancelNotifyCallAttempt@RPhCltCallNotify@@QBEXXZ @ 17 NONAME ; void RPhCltCallNotify::CancelNotifyCallAttempt(void) const
	?CancelNotifyComHandCommand@RPhCltCallNotify@@QBEXXZ @ 18 NONAME ; void RPhCltCallNotify::CancelNotifyComHandCommand(void) const
	?Close@RPhCltCallNotify@@QAEXXZ @ 19 NONAME ; void RPhCltCallNotify::Close(void)
	?Close@RPhCltEmergencyNumber@@QAEXXZ @ 20 NONAME ; void RPhCltEmergencyNumber::Close(void)
	?Close@RPhCltIhf@@QAEXXZ @ 21 NONAME ; void RPhCltIhf::Close(void)
	?Close@RPhCltResourceFile@@QAEXXZ @ 22 NONAME ; void RPhCltResourceFile::Close(void)
	?Connect@RPhCltServer@@QAEHH@Z @ 23 NONAME ; int RPhCltServer::Connect(int)
	?ContactId@TPhCltExtPhoneDialData@@QBEJXZ @ 24 NONAME ; long TPhCltExtPhoneDialData::ContactId(void) const
	?CreateAll@RPhCltServer@@QAEXAAVTRequestStatus@@@Z @ 25 NONAME ; void RPhCltServer::CreateAll(class TRequestStatus &)
	?DialData@CPhCltDialer@@QAEAAVTPhCltExtPhoneDialData@@XZ @ 26 NONAME ; class TPhCltExtPhoneDialData & CPhCltDialer::DialData(void)
	?Emergency@TPhCltExtPhoneDialData@@QBEHXZ @ 27 NONAME ; int TPhCltExtPhoneDialData::Emergency(void) const
	?EndOtherCalls@TPhCltExtPhoneDialData@@QBEHXZ @ 28 NONAME ; int TPhCltExtPhoneDialData::EndOtherCalls(void) const
	?ExecuteLD@CPhCltDialer@@QAEXXZ @ 29 NONAME ; void CPhCltDialer::ExecuteLD(void)
	?ExternalizeL@CPhCltEmergencyTelNumber@@QBEXAAVRWriteStream@@@Z @ 30 NONAME ; void CPhCltEmergencyTelNumber::ExternalizeL(class RWriteStream &) const
	?InternalizeL@CPhCltEmergencyTelNumber@@QAEXAAVRReadStream@@@Z @ 31 NONAME ; void CPhCltEmergencyTelNumber::InternalizeL(class RReadStream &)
	?IsEmergencyPhoneNumber@RPhCltEmergencyNumber@@QAEHAAV?$TBuf@$0GE@@@AAHW4TPhCltEmergencyNumberQueryMode@@@Z @ 32 NONAME ; int RPhCltEmergencyNumber::IsEmergencyPhoneNumber(class TBuf<100> &, int &, enum TPhCltEmergencyNumberQueryMode)
	?IsEmergenyPhoneNumber@RPhCltEmergencyNumber@@QAEHABV?$TBuf@$0GE@@@AAHW4TPhCltEmergencyNumberQueryMode@@@Z @ 33 NONAME ; int RPhCltEmergencyNumber::IsEmergenyPhoneNumber(class TBuf<100> const &, int &, enum TPhCltEmergencyNumberQueryMode)
	?IsValidChar@PhCltUtils@@SAHVTChar@@@Z @ 34 NONAME ; int PhCltUtils::IsValidChar(class TChar)
	?MCC@CPhCltEmergencyTelNumber@@QBEGXZ @ 35 NONAME ; unsigned short CPhCltEmergencyTelNumber::MCC(void) const
	?MNC@CPhCltEmergencyTelNumber@@QBEGXZ @ 36 NONAME ; unsigned short CPhCltEmergencyTelNumber::MNC(void) const
	?Name@TPhCltExtPhoneDialData@@QBEABV?$TBuf@$0DC@@@XZ @ 37 NONAME ; class TBuf<50> const & TPhCltExtPhoneDialData::Name(void) const
	?NewL@CPhCltCommandHandler@@SAPAV1@XZ @ 38 NONAME ; class CPhCltCommandHandler * CPhCltCommandHandler::NewL(void)
	?NewL@CPhCltDialer@@SAPAV1@XZ @ 39 NONAME ; class CPhCltDialer * CPhCltDialer::NewL(void)
	?NewL@CPhCltExtPhoneBase@@SAPAV1@PAVMPhCltExtPhoneObserver@@@Z @ 40 NONAME ; class CPhCltExtPhoneBase * CPhCltExtPhoneBase::NewL(class MPhCltExtPhoneObserver *)
	?NewL@CPhCltImageHandler@@SAPAV1@XZ @ 41 NONAME ; class CPhCltImageHandler * CPhCltImageHandler::NewL(void)
	?NewL@CPhCltMessenger@@SAPAV1@ABVTUid@@ABH@Z @ 42 NONAME ; class CPhCltMessenger * CPhCltMessenger::NewL(class TUid const &, int const &)
	?NewL@CPhCltUssd@@SAPAV1@H@Z @ 43 NONAME ; class CPhCltUssd * CPhCltUssd::NewL(int)
	?NewL@CPhCltUssdInt@@SAPAV1@H@Z @ 44 NONAME ; class CPhCltUssdInt * CPhCltUssdInt::NewL(int)
	?NewL@CPhCltUssdSatClient@@SAPAV1@H@Z @ 45 NONAME ; class CPhCltUssdSatClient * CPhCltUssdSatClient::NewL(int)
	?NewLC@CPhCltEmergencyTelNumber@@SAPAV1@XZ @ 46 NONAME ; class CPhCltEmergencyTelNumber * CPhCltEmergencyTelNumber::NewLC(void)
	?NotifyCallAttempt@RPhCltCallNotify@@QAEXAAVTRequestStatus@@AAVTDes8@@@Z @ 47 NONAME ; void RPhCltCallNotify::NotifyCallAttempt(class TRequestStatus &, class TDes8 &)
	?NotifyComHandCommand@RPhCltCallNotify@@QAEXAAVTRequestStatus@@AAVTDes8@@@Z @ 48 NONAME ; void RPhCltCallNotify::NotifyComHandCommand(class TRequestStatus &, class TDes8 &)
	?NumberType@TPhCltExtPhoneDialData@@QBEHXZ @ 49 NONAME ; int TPhCltExtPhoneDialData::NumberType(void) const
	?Open@RPhCltCallNotify@@QAEHAAVRPhCltServer@@@Z @ 50 NONAME ; int RPhCltCallNotify::Open(class RPhCltServer &)
	?Open@RPhCltEmergencyNumber@@QAEHAAVRPhCltServer@@@Z @ 51 NONAME ; int RPhCltEmergencyNumber::Open(class RPhCltServer &)
	?Open@RPhCltIhf@@QAEHAAVRPhCltServer@@H@Z @ 52 NONAME ; int RPhCltIhf::Open(class RPhCltServer &, int)
	?OpenL@RPhCltResourceFile@@QAEXAAVCCoeEnv@@@Z @ 53 NONAME ; void RPhCltResourceFile::OpenL(class CCoeEnv &)
	?Redial@TPhCltExtPhoneDialData@@QBEHXZ @ 54 NONAME ; int TPhCltExtPhoneDialData::Redial(void) const
	?RedialMaximumDuration@TPhCltExtPhoneDialData@@QBE?AVTTimeIntervalSeconds@@XZ @ 55 NONAME ; class TTimeIntervalSeconds TPhCltExtPhoneDialData::RedialMaximumDuration(void) const
	?RemoveInvalidChars@PhCltUtils@@SAXAAVTDes16@@@Z @ 56 NONAME ; void PhCltUtils::RemoveInvalidChars(class TDes16 &)
	?RemoveURIPrefixdAndDomainChars@PhCltUtils@@SAXAAVTDes16@@@Z @ 57 NONAME ; void PhCltUtils::RemoveURIPrefixdAndDomainChars(class TDes16 &)
	?RespondClient@RPhCltCallNotify@@QAEHH@Z @ 58 NONAME ; int RPhCltCallNotify::RespondClient(int)
	?RespondComHandClient@RPhCltCallNotify@@QAEHH@Z @ 59 NONAME ; int RPhCltCallNotify::RespondComHandClient(int)
	?ReturnToNumberEntryOnFailure@TPhCltExtPhoneDialData@@QBEHXZ @ 60 NONAME ; int TPhCltExtPhoneDialData::ReturnToNumberEntryOnFailure(void) const
	?SATCall@TPhCltExtPhoneDialData@@QBEHXZ @ 61 NONAME ; int TPhCltExtPhoneDialData::SATCall(void) const
	?SendKeyPressed@TPhCltExtPhoneDialData@@QBEHXZ @ 62 NONAME ; int TPhCltExtPhoneDialData::SendKeyPressed(void) const
	?SendSatMessage@CPhCltUssdSatClient@@QAEHABVTDesC16@@EAAVTDes16@@AAHAAE@Z @ 63 NONAME ; int CPhCltUssdSatClient::SendSatMessage(class TDesC16 const &, unsigned char, class TDes16 &, int &, unsigned char &)
	?SendSatMessageCancel@CPhCltUssdSatClient@@QAEXXZ @ 64 NONAME ; void CPhCltUssdSatClient::SendSatMessageCancel(void)
	?SetAllowMatch@TPhCltExtPhoneDialData@@QAEXH@Z @ 65 NONAME ; void TPhCltExtPhoneDialData::SetAllowMatch(int)
	?SetBearer@TPhCltExtPhoneDialData@@QAEXABV?$TBuf8@$0O@@@@Z @ 66 NONAME ; void TPhCltExtPhoneDialData::SetBearer(class TBuf8<14> const &)
	?SetCallType@TPhCltExtPhoneDialData@@QAEXW4TPhCltCallType@@@Z @ 67 NONAME ; void TPhCltExtPhoneDialData::SetCallType(enum TPhCltCallType)
	?SetContactId@TPhCltExtPhoneDialData@@QAEXJ@Z @ 68 NONAME ; void TPhCltExtPhoneDialData::SetContactId(long)
	?SetEmergency@TPhCltExtPhoneDialData@@QAEXH@Z @ 69 NONAME ; void TPhCltExtPhoneDialData::SetEmergency(int)
	?SetEndOtherCalls@TPhCltExtPhoneDialData@@QAEXH@Z @ 70 NONAME ; void TPhCltExtPhoneDialData::SetEndOtherCalls(int)
	?SetIhfMode@RPhCltIhf@@QAEHHH@Z @ 71 NONAME ; int RPhCltIhf::SetIhfMode(int, int)
	?SetIhfModeFromPhone@RPhCltIhf@@QAEHHH@Z @ 72 NONAME ; int RPhCltIhf::SetIhfModeFromPhone(int, int)
	?SetL@CPhCltEmergencyTelNumber@@QAEXABV?$TBuf@$0GE@@@GG@Z @ 73 NONAME ; void CPhCltEmergencyTelNumber::SetL(class TBuf<100> const &, unsigned short, unsigned short)
	?SetName@TPhCltExtPhoneDialData@@QAEXABV?$TBuf@$0DC@@@@Z @ 74 NONAME ; void TPhCltExtPhoneDialData::SetName(class TBuf<50> const &)
	?SetNumberType@TPhCltExtPhoneDialData@@QAEXH@Z @ 75 NONAME ; void TPhCltExtPhoneDialData::SetNumberType(int)
	?SetRedial@TPhCltExtPhoneDialData@@QAEXH@Z @ 76 NONAME ; void TPhCltExtPhoneDialData::SetRedial(int)
	?SetRedialMaximumDuration@TPhCltExtPhoneDialData@@QAEXVTTimeIntervalSeconds@@@Z @ 77 NONAME ; void TPhCltExtPhoneDialData::SetRedialMaximumDuration(class TTimeIntervalSeconds)
	?SetReturnToNumberEntryOnFailure@TPhCltExtPhoneDialData@@QAEXH@Z @ 78 NONAME ; void TPhCltExtPhoneDialData::SetReturnToNumberEntryOnFailure(int)
	?SetSATCall@TPhCltExtPhoneDialData@@QAEXH@Z @ 79 NONAME ; void TPhCltExtPhoneDialData::SetSATCall(int)
	?SetSendKeyPressed@TPhCltExtPhoneDialData@@QAEXH@Z @ 80 NONAME ; void TPhCltExtPhoneDialData::SetSendKeyPressed(int)
	?SetShowNumber@TPhCltExtPhoneDialData@@QAEXH@Z @ 81 NONAME ; void TPhCltExtPhoneDialData::SetShowNumber(int)
	?SetSubAddress@TPhCltExtPhoneDialData@@QAEXABV?$TBuf@$0BF@@@@Z @ 82 NONAME ; void TPhCltExtPhoneDialData::SetSubAddress(class TBuf<21> const &)
	?SetTelephoneNumber@TPhCltExtPhoneDialData@@QAEXABV?$TBuf@$0GE@@@@Z @ 83 NONAME ; void TPhCltExtPhoneDialData::SetTelephoneNumber(class TBuf<100> const &)
	?SetWindowGroup@TPhCltExtPhoneDialData@@QAEXH@Z @ 84 NONAME ; void TPhCltExtPhoneDialData::SetWindowGroup(int)
	?ShowNumber@TPhCltExtPhoneDialData@@QBEHXZ @ 85 NONAME ; int TPhCltExtPhoneDialData::ShowNumber(void) const
	?SubAddress@TPhCltExtPhoneDialData@@QBEABV?$TBuf@$0BF@@@XZ @ 86 NONAME ; class TBuf<21> const & TPhCltExtPhoneDialData::SubAddress(void) const
	?TelNumber@CPhCltEmergencyTelNumber@@QBEABVTDesC16@@XZ @ 87 NONAME ; class TDesC16 const & CPhCltEmergencyTelNumber::TelNumber(void) const
	?TelephoneNumber@TPhCltExtPhoneDialData@@QBEABV?$TBuf@$0GE@@@XZ @ 88 NONAME ; class TBuf<100> const & TPhCltExtPhoneDialData::TelephoneNumber(void) const
	?WindowGroupId@TPhCltExtPhoneDialData@@QBEHXZ @ 89 NONAME ; int TPhCltExtPhoneDialData::WindowGroupId(void) const

