EXPORTS
	??1CLbsLocationInfo@@UAE@XZ @ 1 NONAME ; CLbsLocationInfo::~CLbsLocationInfo(void)
	?SetMobileNetworkCode@CLbsWcdmaCellInfo@@QAEXH@Z @ 2 NONAME ; void CLbsWcdmaCellInfo::SetMobileNetworkCode(int)
	?SetMobileCountryCode@CLbsWcdmaCellInfo@@QAEXH@Z @ 3 NONAME ; void CLbsWcdmaCellInfo::SetMobileCountryCode(int)
	??1CLbsWlanInfo@@UAE@XZ @ 4 NONAME ; CLbsWlanInfo::~CLbsWlanInfo(void)
	??1CLbsAreaInfoBase@@UAE@XZ @ 5 NONAME ; CLbsAreaInfoBase::~CLbsAreaInfoBase(void)
	?MobileCountryCode@CLbsGsmCellInfo@@QBEHXZ @ 6 NONAME ; int CLbsGsmCellInfo::MobileCountryCode(void) const
	?ScramblingCode@CLbsWcdmaCellInfo@@QBEHXZ @ 7 NONAME ; int CLbsWcdmaCellInfo::ScramblingCode(void) const
	?Bsic@TLbsGsmNeighbourCellInfo@@QBEHXZ @ 8 NONAME ; int TLbsGsmNeighbourCellInfo::Bsic(void) const
	?AddNeighbouringCellInfoL@CLbsGsmCellInfo@@QAEXPAVTLbsGsmNeighbourCellInfo@@@Z @ 9 NONAME ; void CLbsGsmCellInfo::AddNeighbouringCellInfoL(class TLbsGsmNeighbourCellInfo *)
	?SetCellId@CLbsGsmCellInfo@@QAEXH@Z @ 10 NONAME ; void CLbsGsmCellInfo::SetCellId(int)
	?ScramblingCode@TLbsWcdmaNeighbourCellInfo@@QBEHXZ @ 11 NONAME ; int TLbsWcdmaNeighbourCellInfo::ScramblingCode(void) const
	?Pathloss@TLbsWcdmaNeighbourCellInfo@@QBEHXZ @ 12 NONAME ; int TLbsWcdmaNeighbourCellInfo::Pathloss(void) const
	?GetMacAddress@CLbsWlanInfo@@QBEXAAVTDes8@@@Z @ 13 NONAME ; void CLbsWlanInfo::GetMacAddress(class TDes8 &) const
	?NewL@CLbsWcdmaCellInfo@@SAPAV1@XZ @ 14 NONAME ; class CLbsWcdmaCellInfo * CLbsWcdmaCellInfo::NewL(void)
	?SetUniqueCellId@CLbsWcdmaCellInfo@@QAEXH@Z @ 15 NONAME ; void CLbsWcdmaCellInfo::SetUniqueCellId(int)
	?SetSignalStrength@CLbsWlanInfo@@QAEXH@Z @ 16 NONAME ; void CLbsWlanInfo::SetSignalStrength(int)
	?AddNeighbouringCellInfoL@CLbsWcdmaCellInfo@@QAEXPAVTLbsWcdmaNeighbourCellInfo@@@Z @ 17 NONAME ; void CLbsWcdmaCellInfo::AddNeighbouringCellInfoL(class TLbsWcdmaNeighbourCellInfo *)
	?NewL@CLbsLocationInfo@@SAPAV1@XZ @ 18 NONAME ; class CLbsLocationInfo * CLbsLocationInfo::NewL(void)
	?GetNeighbouringCellInfoL@CLbsWcdmaCellInfo@@QBEXAAV?$RArray@VTLbsWcdmaNeighbourCellInfo@@@@@Z @ 19 NONAME ; void CLbsWcdmaCellInfo::GetNeighbouringCellInfoL(class RArray<class TLbsWcdmaNeighbourCellInfo> &) const
	?GetAreaInfoL@CLbsLocationInfo@@QAEXAAV?$RPointerArray@VCLbsAreaInfoBase@@@@K@Z @ 20 NONAME ; void CLbsLocationInfo::GetAreaInfoL(class RPointerArray<class CLbsAreaInfoBase> &, unsigned long)
	??0TLbsWcdmaNeighbourCellInfo@@QAE@HHHH@Z @ 21 NONAME ; TLbsWcdmaNeighbourCellInfo::TLbsWcdmaNeighbourCellInfo(int, int, int, int)
	?AddAreaInfoL@CLbsLocationInfo@@QAEXPAVCLbsAreaInfoBase@@@Z @ 22 NONAME ; void CLbsLocationInfo::AddAreaInfoL(class CLbsAreaInfoBase *)
	??0TLbsWcdmaNeighbourCellInfo@@QAE@XZ @ 23 NONAME ; TLbsWcdmaNeighbourCellInfo::TLbsWcdmaNeighbourCellInfo(void)
	?NewL@CLbsGsmCellInfo@@SAPAV1@HHHH@Z @ 24 NONAME ; class CLbsGsmCellInfo * CLbsGsmCellInfo::NewL(int, int, int, int)
	?Type@CLbsLocationInfoBase@@UAEKXZ @ 25 NONAME ; unsigned long CLbsLocationInfoBase::Type(void)
	?SetMacAddress@CLbsWlanInfo@@QAEXABVTDesC8@@@Z @ 26 NONAME ; void CLbsWlanInfo::SetMacAddress(class TDesC8 const &)
	?NewLC@CLbsLocationInfo@@SAPAV1@XZ @ 27 NONAME ; class CLbsLocationInfo * CLbsLocationInfo::NewLC(void)
	?SetRxLevel@TLbsGsmNeighbourCellInfo@@QAEXH@Z @ 28 NONAME ; void TLbsGsmNeighbourCellInfo::SetRxLevel(int)
	?ExternaliseL@CLbsLocationInfoBase@@QBEXAAVRWriteStream@@@Z @ 29 NONAME ; void CLbsLocationInfoBase::ExternaliseL(class RWriteStream &) const
	??1CLbsWcdmaCellInfo@@UAE@XZ @ 30 NONAME ; CLbsWcdmaCellInfo::~CLbsWcdmaCellInfo(void)
	?RxLevel@CLbsGsmCellInfo@@QBEHXZ @ 31 NONAME ; int CLbsGsmCellInfo::RxLevel(void) const
	?Arfcn@TLbsGsmNeighbourCellInfo@@QBEHXZ @ 32 NONAME ; int TLbsGsmNeighbourCellInfo::Arfcn(void) const
	?CellId@CLbsGsmCellInfo@@QBEHXZ @ 33 NONAME ; int CLbsGsmCellInfo::CellId(void) const
	?Type@CLbsLocationInfo@@MAEKXZ @ 34 NONAME ; unsigned long CLbsLocationInfo::Type(void)
	??1CLbsGsmCellInfo@@UAE@XZ @ 35 NONAME ; CLbsGsmCellInfo::~CLbsGsmCellInfo(void)
	?SetArfcn@TLbsGsmNeighbourCellInfo@@QAEXH@Z @ 36 NONAME ; void TLbsGsmNeighbourCellInfo::SetArfcn(int)
	?TimingAdvance@CLbsGsmCellInfo@@QBEHXZ @ 37 NONAME ; int CLbsGsmCellInfo::TimingAdvance(void) const
	?ResetNeighbouringCellInfo@CLbsGsmCellInfo@@QAEXXZ @ 38 NONAME ; void CLbsGsmCellInfo::ResetNeighbouringCellInfo(void)
	?NewL@CLbsWcdmaCellInfo@@SAPAV1@HHH@Z @ 39 NONAME ; class CLbsWcdmaCellInfo * CLbsWcdmaCellInfo::NewL(int, int, int)
	?InternaliseL@CLbsLocationInfoBase@@QAEXAAVRReadStream@@@Z @ 40 NONAME ; void CLbsLocationInfoBase::InternaliseL(class RReadStream &)
	??0TLbsGsmNeighbourCellInfo@@QAE@HHH@Z @ 41 NONAME ; TLbsGsmNeighbourCellInfo::TLbsGsmNeighbourCellInfo(int, int, int)
	?SignalStrength@TLbsWcdmaNeighbourCellInfo@@QBEHXZ @ 42 NONAME ; int TLbsWcdmaNeighbourCellInfo::SignalStrength(void) const
	?MobileNetworkCode@CLbsGsmCellInfo@@QBEHXZ @ 43 NONAME ; int CLbsGsmCellInfo::MobileNetworkCode(void) const
	?SetRxLevel@CLbsGsmCellInfo@@QAEXH@Z @ 44 NONAME ; void CLbsGsmCellInfo::SetRxLevel(int)
	?GetLocality@CLbsPositionInfo@@QBEXAAVTLocality@@@Z @ 45 NONAME ; void CLbsPositionInfo::GetLocality(class TLocality &) const
	?ExternaliseL@CLbsAreaInfoBase@@QAEXAAVRWriteStream@@@Z @ 46 NONAME ; void CLbsAreaInfoBase::ExternaliseL(class RWriteStream &)
	?SetScramblingCode@CLbsWcdmaCellInfo@@QAEXH@Z @ 47 NONAME ; void CLbsWcdmaCellInfo::SetScramblingCode(int)
	?MobileCountryCode@CLbsWcdmaCellInfo@@QBEHXZ @ 48 NONAME ; int CLbsWcdmaCellInfo::MobileCountryCode(void) const
	?RxLevel@TLbsGsmNeighbourCellInfo@@QBEHXZ @ 49 NONAME ; int TLbsGsmNeighbourCellInfo::RxLevel(void) const
	?SetScramblingCode@TLbsWcdmaNeighbourCellInfo@@QAEXH@Z @ 50 NONAME ; void TLbsWcdmaNeighbourCellInfo::SetScramblingCode(int)
	?SetLocationAreaCode@CLbsGsmCellInfo@@QAEXH@Z @ 51 NONAME ; void CLbsGsmCellInfo::SetLocationAreaCode(int)
	?SignalStrength@CLbsWlanInfo@@QBEHXZ @ 52 NONAME ; int CLbsWlanInfo::SignalStrength(void) const
	?SetTimingAdvance@CLbsGsmCellInfo@@QAEXH@Z @ 53 NONAME ; void CLbsGsmCellInfo::SetTimingAdvance(int)
	?GetNeighbouringCellInfoL@CLbsGsmCellInfo@@QBEXAAV?$RArray@VTLbsGsmNeighbourCellInfo@@@@@Z @ 54 NONAME ; void CLbsGsmCellInfo::GetNeighbouringCellInfoL(class RArray<class TLbsGsmNeighbourCellInfo> &) const
	?SetSignalStrength@TLbsWcdmaNeighbourCellInfo@@QAEXH@Z @ 55 NONAME ; void TLbsWcdmaNeighbourCellInfo::SetSignalStrength(int)
	?NewL@CLbsWlanInfo@@SAPAV1@XZ @ 56 NONAME ; class CLbsWlanInfo * CLbsWlanInfo::NewL(void)
	?SetPathloss@TLbsWcdmaNeighbourCellInfo@@QAEXH@Z @ 57 NONAME ; void TLbsWcdmaNeighbourCellInfo::SetPathloss(int)
	??0TLbsGsmNeighbourCellInfo@@QAE@XZ @ 58 NONAME ; TLbsGsmNeighbourCellInfo::TLbsGsmNeighbourCellInfo(void)
	?NewL@CLbsGsmCellInfo@@SAPAV1@XZ @ 59 NONAME ; class CLbsGsmCellInfo * CLbsGsmCellInfo::NewL(void)
	?ResetAreaInfo@CLbsLocationInfo@@QAEXK@Z @ 60 NONAME ; void CLbsLocationInfo::ResetAreaInfo(unsigned long)
	?SetBsic@TLbsGsmNeighbourCellInfo@@QAEXH@Z @ 61 NONAME ; void TLbsGsmNeighbourCellInfo::SetBsic(int)
	?SetMobileCountryCode@CLbsGsmCellInfo@@QAEXH@Z @ 62 NONAME ; void CLbsGsmCellInfo::SetMobileCountryCode(int)
	?UniqueCellId@CLbsWcdmaCellInfo@@QBEHXZ @ 63 NONAME ; int CLbsWcdmaCellInfo::UniqueCellId(void) const
	?SetLocality@CLbsPositionInfo@@QAEXABVTLocality@@@Z @ 64 NONAME ; void CLbsPositionInfo::SetLocality(class TLocality const &)
	?UniqueCellId@TLbsWcdmaNeighbourCellInfo@@QBEHXZ @ 65 NONAME ; int TLbsWcdmaNeighbourCellInfo::UniqueCellId(void) const
	?LocationAreaCode@CLbsGsmCellInfo@@QBEHXZ @ 66 NONAME ; int CLbsGsmCellInfo::LocationAreaCode(void) const
	?NewL@CLbsWlanInfo@@SAPAV1@ABV?$TBuf8@$0BC@@@H@Z @ 67 NONAME ; class CLbsWlanInfo * CLbsWlanInfo::NewL(class TBuf8<18> const &, int)
	?NewL@CLbsPositionInfo@@SAPAV1@XZ @ 68 NONAME ; class CLbsPositionInfo * CLbsPositionInfo::NewL(void)
	?NewL@CLbsPositionInfo@@SAPAV1@ABVTLocality@@@Z @ 69 NONAME ; class CLbsPositionInfo * CLbsPositionInfo::NewL(class TLocality const &)
	?InternaliseL@CLbsAreaInfoBase@@QAEXAAVRReadStream@@@Z @ 70 NONAME ; void CLbsAreaInfoBase::InternaliseL(class RReadStream &)
	?SetMobileNetworkCode@CLbsGsmCellInfo@@QAEXH@Z @ 71 NONAME ; void CLbsGsmCellInfo::SetMobileNetworkCode(int)
	??1CLbsPositionInfo@@UAE@XZ @ 72 NONAME ; CLbsPositionInfo::~CLbsPositionInfo(void)
	?Type@CLbsAreaInfoBase@@UAEKXZ @ 73 NONAME ; unsigned long CLbsAreaInfoBase::Type(void)
	??1CLbsLocationInfoBase@@UAE@XZ @ 74 NONAME ; CLbsLocationInfoBase::~CLbsLocationInfoBase(void)
	?SetUniqueCellId@TLbsWcdmaNeighbourCellInfo@@QAEXH@Z @ 75 NONAME ; void TLbsWcdmaNeighbourCellInfo::SetUniqueCellId(int)
	?MobileNetworkCode@CLbsWcdmaCellInfo@@QBEHXZ @ 76 NONAME ; int CLbsWcdmaCellInfo::MobileNetworkCode(void) const
	?ResetNeighbouringCellInfo@CLbsWcdmaCellInfo@@QAEXXZ @ 77 NONAME ; void CLbsWcdmaCellInfo::ResetNeighbouringCellInfo(void)
	?NewL@CLbsPositionInfo@@SAPAV1@ABV1@@Z @ 78 NONAME ; class CLbsPositionInfo * CLbsPositionInfo::NewL(class CLbsPositionInfo const &)
	?NewL@CLbsGsmCellInfo@@SAPAV1@ABV1@@Z @ 79 NONAME ; class CLbsGsmCellInfo * CLbsGsmCellInfo::NewL(class CLbsGsmCellInfo const &)
	?NewL@CLbsWcdmaCellInfo@@SAPAV1@ABV1@@Z @ 80 NONAME ; class CLbsWcdmaCellInfo * CLbsWcdmaCellInfo::NewL(class CLbsWcdmaCellInfo const &)
	?NewL@CLbsWlanInfo@@SAPAV1@ABV1@@Z @ 81 NONAME ; class CLbsWlanInfo * CLbsWlanInfo::NewL(class CLbsWlanInfo const &)
	?SetSignalStrength@CLbsWcdmaCellInfo@@QAEXH@Z @ 82 NONAME ; void CLbsWcdmaCellInfo::SetSignalStrength(int)
	?SignalStrength@CLbsWcdmaCellInfo@@QBEHXZ @ 83 NONAME ; int CLbsWcdmaCellInfo::SignalStrength(void) const
	?LocalAreaCode@CLbsWcdmaCellInfo@@QBEHXZ @ 84 NONAME ; int CLbsWcdmaCellInfo::LocalAreaCode(void) const
	?NewL@CLbsWcdmaCellInfo@@SAPAV1@HHHH@Z @ 85 NONAME ; class CLbsWcdmaCellInfo * CLbsWcdmaCellInfo::NewL(int, int, int, int)
	?SetLocalAreaCode@CLbsWcdmaCellInfo@@QAEXH@Z @ 86 NONAME ; void CLbsWcdmaCellInfo::SetLocalAreaCode(int)

