EXPORTS
	_ZN14CCoreHCIPlugin4NewLE4TUid @ 1 NONAME
	_ZN14CCoreHCIPlugin4NewLEv @ 2 NONAME
	_ZN14CCoreHCIPluginC2Ev @ 3 NONAME
	_ZN14CCoreHCIPluginD0Ev @ 4 NONAME
	_ZN14CCoreHCIPluginD1Ev @ 5 NONAME
	_ZN14CCoreHCIPluginD2Ev @ 6 NONAME
	_ZN15THCIClockOffsetC1Et @ 7 NONAME
	_ZN15THCIClockOffsetC1Ev @ 8 NONAME
	_ZN15THCIClockOffsetC2Et @ 9 NONAME
	_ZN15THCIClockOffsetC2Ev @ 10 NONAME
	_ZN15THCIClockOffsetaSEt @ 11 NONAME
	_ZN17CHctlAclDataFrame14SetDataPayloadERK6TDesC8 @ 12 NONAME
	_ZN17CHctlAclDataFrame18PacketBoundaryFlagERK6TDesC8 @ 13 NONAME
	_ZN17CHctlAclDataFrame19PacketBroadcastFlagERK6TDesC8 @ 14 NONAME
	_ZN17CHctlAclDataFrame4NewLEthh @ 15 NONAME
	_ZN17CHctlAclDataFrame8SetFlagsE22TAclPacketBoundaryFlag23TAclPacketBroadcastFlag @ 16 NONAME
	_ZN17CHctlCommandFrame10PutBytes16Et @ 17 NONAME
	_ZN17CHctlCommandFrame10PutBytes24Em @ 18 NONAME
	_ZN17CHctlCommandFrame10PutBytes32Em @ 19 NONAME
	_ZN17CHctlCommandFrame10PutBytes32Emh @ 20 NONAME
	_ZN17CHctlCommandFrame10PutDevAddrERK10TBTDevAddr @ 21 NONAME
	_ZN17CHctlCommandFrame10PutLinkKeyERK8TPckgBufI11TLinkKeyV10E @ 22 NONAME
	_ZN17CHctlCommandFrame12ResetCommandEv @ 23 NONAME
	_ZN17CHctlCommandFrame15FinaliseCommandEv @ 24 NONAME
	_ZN17CHctlCommandFrame15PutPaddedStringERK6TDesC8i @ 25 NONAME
	_ZN17CHctlCommandFrame19PutConnectionHandleE20THCIConnectionHandle @ 26 NONAME
	_ZN17CHctlCommandFrame31PutAFHHostChannelClassificationERK6TDesC8 @ 27 NONAME
	_ZN17CHctlCommandFrame4NewLEhh @ 28 NONAME
	_ZN17CHctlCommandFrame7PutByteEh @ 29 NONAME
	_ZN17CHctlCommandFrame9PutStringERK6TDesC8 @ 30 NONAME
	_ZN17CHctlCommandFrame9SetOpcodeEt @ 31 NONAME
	_ZN17THCIReservedOctetC1Eh @ 32 NONAME
	_ZN17THCIReservedOctetC1Ev @ 33 NONAME
	_ZN17THCIReservedOctetC2Eh @ 34 NONAME
	_ZN17THCIReservedOctetC2Ev @ 35 NONAME
	_ZN17THCIReservedOctetaSEh @ 36 NONAME
	_ZN18CHctlDataFrameBase16ConnectionHandleERK6TDesC8 @ 37 NONAME
	_ZN18CHctlDataFrameBase19SetConnectionHandleEt @ 38 NONAME
	_ZN20THCIConnectionHandleC1Et @ 39 NONAME
	_ZN20THCIConnectionHandleC1Ev @ 40 NONAME
	_ZN20THCIConnectionHandleC2Et @ 41 NONAME
	_ZN20THCIConnectionHandleC2Ev @ 42 NONAME
	_ZN20THCIConnectionHandleaSEt @ 43 NONAME
	_ZN25CHctlSynchronousDataFrame4NewLEhhh @ 44 NONAME
	_ZN25THCINumOfCompletedPacketsC1Et @ 45 NONAME
	_ZN25THCINumOfCompletedPacketsC1Ev @ 46 NONAME
	_ZN25THCINumOfCompletedPacketsC2Et @ 47 NONAME
	_ZN25THCINumOfCompletedPacketsC2Ev @ 48 NONAME
	_ZN25THCINumOfCompletedPacketsaSEt @ 49 NONAME
	_ZN26THCIPageScanRepetitionModeC1Eh @ 50 NONAME
	_ZN26THCIPageScanRepetitionModeC1Ev @ 51 NONAME
	_ZN26THCIPageScanRepetitionModeC2Eh @ 52 NONAME
	_ZN26THCIPageScanRepetitionModeC2Ev @ 53 NONAME
	_ZN26THCIPageScanRepetitionModeaSEh @ 54 NONAME
	_ZN8THCIRssiC1Eh @ 55 NONAME
	_ZN8THCIRssiC1Ev @ 56 NONAME
	_ZN8THCIRssiC2Eh @ 57 NONAME
	_ZN8THCIRssiC2Ev @ 58 NONAME
	_ZN8THCIRssiaSEh @ 59 NONAME
	_ZNK15THCIClockOffset11ClockOffsetEv @ 60 NONAME
	_ZNK15THCIClockOffsetcvtEv @ 61 NONAME
	_ZNK17CHctlAclDataFrame16ConnectionHandleEv @ 62 NONAME
	_ZNK17CHctlCommandFrame11HCTLPayloadEv @ 63 NONAME
	_ZNK17THCIReservedOctet13ReservedOctetEv @ 64 NONAME
	_ZNK17THCIReservedOctetcvhEv @ 65 NONAME
	_ZNK18CHctlDataFrameBase11HCTLPayloadEv @ 66 NONAME
	_ZNK20THCIConnectionHandle10ConnHandleEv @ 67 NONAME
	_ZNK20THCIConnectionHandlecvtEv @ 68 NONAME
	_ZNK25THCINumOfCompletedPackets21NumOfCompletedPacketsEv @ 69 NONAME
	_ZNK25THCINumOfCompletedPacketscvtEv @ 70 NONAME
	_ZNK26THCIPageScanRepetitionMode22PageScanRepetitionModeEv @ 71 NONAME
	_ZNK26THCIPageScanRepetitionModecvhEv @ 72 NONAME
	_ZNK8THCIRssi4RssiEv @ 73 NONAME
	_ZNK8THCIRssicvhEv @ 74 NONAME
	_ZTI14CCoreHCIPlugin @ 75 NONAME ; #<TI>#
	_ZTV14CCoreHCIPlugin @ 76 NONAME ; #<VT>#
	_ZN17CHctlCommandFrame20PutSimplePairingHashERK5TBuf8ILi16EE @ 77 NONAME
	_ZN17CHctlCommandFrame26PutSimplePairingRandomizerERK5TBuf8ILi16EE @ 78 NONAME
	_ZN8THCIRssiC1Ea @ 79 NONAME
	_ZN8THCIRssiC2Ea @ 80 NONAME
	_ZN8THCIRssiaSEa @ 81 NONAME
	_ZNK8THCIRssi4RSSIEv @ 82 NONAME

