EXPORTS
	_Z13NewTestSuiteLv @ 1 NONAME
	_ZTI18CTestSuiteDevVideo @ 2 NONAME DATA 12 ; #<TI>#
	_ZTI21RTestDevVideoPlayStop @ 3 NONAME DATA 12 ; #<TI>#
	_ZTI22RTestDevVideoPlayAlloc @ 4 NONAME DATA 12 ; #<TI>#
	_ZTI22RTestDevVideoPlayPause @ 5 NONAME DATA 12 ; #<TI>#
	_ZTI23RTestDevVideoPlaySimple @ 6 NONAME DATA 12 ; #<TI>#
	_ZTI23RTestDevVideoRecordStop @ 7 NONAME DATA 12 ; #<TI>#
	_ZTI24RTestDevVideoRecordAlloc @ 8 NONAME DATA 12 ; #<TI>#
	_ZTI24RTestDevVideoRecordPause @ 9 NONAME DATA 12 ; #<TI>#
	_ZTI25RTestDevVideoPlayUidHwDev @ 10 NONAME DATA 12 ; #<TI>#
	_ZTI25RTestDevVideoRecordSimple @ 11 NONAME DATA 12 ; #<TI>#
	_ZTI25RTestStepDevVideoPlayBase @ 12 NONAME DATA 32 ; #<TI>#
	_ZTI26RTestDevVideoPlayConfHwDev @ 13 NONAME DATA 12 ; #<TI>#
	_ZTI27RTestDevVideoRecordUidHwDev @ 14 NONAME DATA 12 ; #<TI>#
	_ZTI27RTestStepDevVideoRecordBase @ 15 NONAME DATA 32 ; #<TI>#
	_ZTI28RTestDevVideoPlayCorruptFile @ 16 NONAME DATA 12 ; #<TI>#
	_ZTI28RTestDevVideoPlayDecoderInfo @ 17 NONAME DATA 12 ; #<TI>#
	_ZTI28RTestDevVideoRecordConfHwDev @ 18 NONAME DATA 12 ; #<TI>#
	_ZTI30RTestDevVideoListVideoDecoders @ 19 NONAME DATA 12 ; #<TI>#
	_ZTI30RTestDevVideoListVideoEncoders @ 20 NONAME DATA 12 ; #<TI>#
	_ZTI30RTestDevVideoRecordEncoderInfo @ 21 NONAME DATA 12 ; #<TI>#
	_ZTI31RTestDevVideoRecordRecordingPos @ 22 NONAME DATA 12 ; #<TI>#
	_ZTI33RTestDevVideoPlayWithoutVideoType @ 23 NONAME DATA 12 ; #<TI>#
	_ZTI34RTestDevVideoPlayDecodePlaybackPos @ 24 NONAME DATA 12 ; #<TI>#
	_ZTI35RTestDevVideoListVideoPreProcessors @ 25 NONAME DATA 12 ; #<TI>#
	_ZTI35RTestDevVideoRecordWithoutVideoType @ 26 NONAME DATA 12 ; #<TI>#
	_ZTI36RTestDevVideoListVideoPostProcessors @ 27 NONAME DATA 12 ; #<TI>#
	_ZTV18CTestSuiteDevVideo @ 28 NONAME DATA 28 ; #<VT>#
	_ZTV21RTestDevVideoPlayStop @ 29 NONAME DATA 136 ; #<VT>#
	_ZTV22RTestDevVideoPlayAlloc @ 30 NONAME DATA 136 ; #<VT>#
	_ZTV22RTestDevVideoPlayPause @ 31 NONAME DATA 136 ; #<VT>#
	_ZTV23RTestDevVideoPlaySimple @ 32 NONAME DATA 136 ; #<VT>#
	_ZTV23RTestDevVideoRecordStop @ 33 NONAME DATA 88 ; #<VT>#
	_ZTV24RTestDevVideoRecordAlloc @ 34 NONAME DATA 88 ; #<VT>#
	_ZTV24RTestDevVideoRecordPause @ 35 NONAME DATA 88 ; #<VT>#
	_ZTV25RTestDevVideoPlayUidHwDev @ 36 NONAME DATA 136 ; #<VT>#
	_ZTV25RTestDevVideoRecordSimple @ 37 NONAME DATA 88 ; #<VT>#
	_ZTV25RTestStepDevVideoPlayBase @ 38 NONAME DATA 136 ; #<VT>#
	_ZTV26RTestDevVideoPlayConfHwDev @ 39 NONAME DATA 136 ; #<VT>#
	_ZTV27RTestDevVideoRecordUidHwDev @ 40 NONAME DATA 88 ; #<VT>#
	_ZTV27RTestStepDevVideoRecordBase @ 41 NONAME DATA 88 ; #<VT>#
	_ZTV28RTestDevVideoPlayCorruptFile @ 42 NONAME DATA 136 ; #<VT>#
	_ZTV28RTestDevVideoPlayDecoderInfo @ 43 NONAME DATA 136 ; #<VT>#
	_ZTV28RTestDevVideoRecordConfHwDev @ 44 NONAME DATA 88 ; #<VT>#
	_ZTV30RTestDevVideoListVideoDecoders @ 45 NONAME DATA 136 ; #<VT>#
	_ZTV30RTestDevVideoListVideoEncoders @ 46 NONAME DATA 88 ; #<VT>#
	_ZTV30RTestDevVideoRecordEncoderInfo @ 47 NONAME DATA 88 ; #<VT>#
	_ZTV31RTestDevVideoRecordRecordingPos @ 48 NONAME DATA 88 ; #<VT>#
	_ZTV33RTestDevVideoPlayWithoutVideoType @ 49 NONAME DATA 136 ; #<VT>#
	_ZTV34RTestDevVideoPlayDecodePlaybackPos @ 50 NONAME DATA 136 ; #<VT>#
	_ZTV35RTestDevVideoListVideoPreProcessors @ 51 NONAME DATA 88 ; #<VT>#
	_ZTV35RTestDevVideoRecordWithoutVideoType @ 52 NONAME DATA 88 ; #<VT>#
	_ZTV36RTestDevVideoListVideoPostProcessors @ 53 NONAME DATA 136 ; #<VT>#

