EXPORTS
	??0RLbsNetSim@@QAE@XZ @ 1 NONAME ; RLbsNetSim::RLbsNetSim(void)
	??0RLbsNetSimTest@@QAE@XZ @ 2 NONAME ; RLbsNetSimTest::RLbsNetSimTest(void)
	??1RLbsNetSim@@QAE@XZ @ 3 NONAME ; RLbsNetSim::~RLbsNetSim(void)
	??1RLbsNetSimTest@@QAE@XZ @ 4 NONAME ; RLbsNetSimTest::~RLbsNetSimTest(void)
	?CancelNetworkLocationRequest@RLbsNetSimTest@@QAEXXZ @ 5 NONAME ; void RLbsNetSimTest::CancelNetworkLocationRequest(void)
	?CancelNetworkPrivacyRequest@RLbsNetSimTest@@QAEXXZ @ 6 NONAME ; void RLbsNetSimTest::CancelNetworkPrivacyRequest(void)
	?ClearAssistanceDataFilters@RLbsNetSimTest@@QAEHXZ @ 7 NONAME ; int RLbsNetSimTest::ClearAssistanceDataFilters(void)
	?Close@RLbsNetSim@@QAEXXZ @ 8 NONAME ; void RLbsNetSim::Close(void)
	?Close@RLbsNetSimTest@@QAEXXZ @ 9 NONAME ; void RLbsNetSimTest::Close(void)
	?ConnectL@RLbsNetSim@@QAEHPAVMLbsNetSimObserver@@@Z @ 10 NONAME ; int RLbsNetSim::ConnectL(class MLbsNetSimObserver *)
	?ConnectL@RLbsNetSimTest@@QAEHPAVMLbsNetSimTestObserver@@@Z @ 11 NONAME ; int RLbsNetSimTest::ConnectL(class MLbsNetSimTestObserver *)
	?MeasurementControlFailureL@RLbsNetSim@@QAEXH@Z @ 12 NONAME ; void RLbsNetSim::MeasurementControlFailureL(int)
	?MeasurementReportLocationL@RLbsNetSim@@QAEXABVTPositionInfoBase@@@Z @ 13 NONAME ; void RLbsNetSim::MeasurementReportLocationL(class TPositionInfoBase const &)
	?MeasurementReportLocationRequestMoreAssistanceDataL@RLbsNetSim@@QAEXABK@Z @ 14 NONAME ; void RLbsNetSim::MeasurementReportLocationRequestMoreAssistanceDataL(unsigned long const &)
	?Next@RLbsNetSimTest@@QAEHH@Z @ 15 NONAME ; int RLbsNetSimTest::Next(int)
	?RegisterLcsMoLrL@RLbsNetSim@@QAEXABVTDesC16@@@Z @ 16 NONAME ; void RLbsNetSim::RegisterLcsMoLrL(class TDesC16 const &)
	?ReleaseLcsLocationNotificationL@RLbsNetSim@@QAEXABW4TLbsPrivacyResponse@CLbsNetworkProtocolBase@@@Z @ 17 NONAME ; void RLbsNetSim::ReleaseLcsLocationNotificationL(enum CLbsNetworkProtocolBase::TLbsPrivacyResponse const &)
	?ReleaseLcsMoLrL@RLbsNetSim@@QAEXH@Z @ 18 NONAME ; void RLbsNetSim::ReleaseLcsMoLrL(int)
	?SetAssistanceDataProvider@RLbsNetSimTest@@QAEHVTUid@@@Z @ 19 NONAME ; int RLbsNetSimTest::SetAssistanceDataProvider(class TUid)
	?SetDefaultAssitanceDataFilter@RLbsNetSimTest@@QAEHAAK@Z @ 20 NONAME ; int RLbsNetSimTest::SetDefaultAssitanceDataFilter(unsigned long &)
	?SetEmergenyStatus@RLbsNetSimTest@@QAEHH@Z @ 21 NONAME ; int RLbsNetSimTest::SetEmergenyStatus(int)
	?SetMoreAssitanceDataFilter@RLbsNetSimTest@@QAEHAAK@Z @ 22 NONAME ; int RLbsNetSimTest::SetMoreAssitanceDataFilter(unsigned long &)
	?SetQuality@RLbsNetSimTest@@QAEHAAVTLbsNetPosRequestQuality@@@Z @ 23 NONAME ; int RLbsNetSimTest::SetQuality(class TLbsNetPosRequestQuality &)
	?SetReferenceLocation@RLbsNetSimTest@@QAEHAAVTDesC8@@@Z @ 24 NONAME ; int RLbsNetSimTest::SetReferenceLocation(class TDesC8 &)
	?SetReferenceLocation@RLbsNetSimTest@@QAEHAAVTPosition@@@Z @ 25 NONAME ; int RLbsNetSimTest::SetReferenceLocation(class TPosition &)
	?SetResponseError@RLbsNetSimTest@@QAEHJH@Z @ 26 NONAME ; int RLbsNetSimTest::SetResponseError(long, int)
	?SetResponseTime@RLbsNetSimTest@@QAEHJH@Z @ 27 NONAME ; int RLbsNetSimTest::SetResponseTime(long, int)
	?SetRoamingStatus@RLbsNetSimTest@@QAEHH@Z @ 28 NONAME ; int RLbsNetSimTest::SetRoamingStatus(int)
	?SetStepMode@RLbsNetSimTest@@QAEHH@Z @ 29 NONAME ; int RLbsNetSimTest::SetStepMode(int)
	?StartNetworkLocationRequest@RLbsNetSimTest@@QAEXXZ @ 30 NONAME ; void RLbsNetSimTest::StartNetworkLocationRequest(void)
	?StartNetworkPrivacyRequest@RLbsNetSimTest@@QAEXVTLbsNetPosRequestPrivacy@@AAVTLbsExternalRequestInfo@@@Z @ 31 NONAME ; void RLbsNetSimTest::StartNetworkPrivacyRequest(class TLbsNetPosRequestPrivacy, class TLbsExternalRequestInfo &)
	?SendResetAssistanceData@RLbsNetSimTest@@QAEHK@Z @ 32 NONAME ; int RLbsNetSimTest::SendResetAssistanceData(unsigned long)

