EXPORTS
	??0RPacketContext@@QAE@XZ @ 1 NONAME ; public: __thiscall RPacketContext::RPacketContext(void)
	??0RPacketQoS@@QAE@XZ @ 2 NONAME ; public: __thiscall RPacketQoS::RPacketQoS(void)
	??0RPacketService@@QAE@XZ @ 3 NONAME ; public: __thiscall RPacketService::RPacketService(void)
	??0TContextConfigCDMA@RPacketContext@@QAE@XZ @ 4 NONAME ; public: __thiscall RPacketContext::TContextConfigCDMA::TContextConfigCDMA(void)
	??0TContextConfigGPRS@RPacketContext@@QAE@XZ @ 5 NONAME ; public: __thiscall RPacketContext::TContextConfigGPRS::TContextConfigGPRS(void)
	??0TQoSCDMA2000Negotiated@RPacketQoS@@QAE@XZ @ 6 NONAME ; public: __thiscall RPacketQoS::TQoSCDMA2000Negotiated::TQoSCDMA2000Negotiated(void)
	??0TQoSCDMA2000Requested@RPacketQoS@@QAE@XZ @ 7 NONAME ; public: __thiscall RPacketQoS::TQoSCDMA2000Requested::TQoSCDMA2000Requested(void)
	??0TQoSCapsCDMA2000@RPacketQoS@@QAE@XZ @ 8 NONAME ; public: __thiscall RPacketQoS::TQoSCapsCDMA2000::TQoSCapsCDMA2000(void)
	??0TQoSCapsGPRS@RPacketQoS@@QAE@XZ @ 9 NONAME ; public: __thiscall RPacketQoS::TQoSCapsGPRS::TQoSCapsGPRS(void)
	??0TQoSGPRSNegotiated@RPacketQoS@@QAE@XZ @ 10 NONAME ; public: __thiscall RPacketQoS::TQoSGPRSNegotiated::TQoSGPRSNegotiated(void)
	??0TQoSGPRSRequested@RPacketQoS@@QAE@XZ @ 11 NONAME ; public: __thiscall RPacketQoS::TQoSGPRSRequested::TQoSGPRSRequested(void)
	?Activate@RPacketContext@@QBEXAAVTRequestStatus@@@Z @ 12 NONAME ; public: void __thiscall RPacketContext::Activate(class TRequestStatus &)const 
	?Attach@RPacketService@@QBEXAAVTRequestStatus@@@Z @ 13 NONAME ; public: void __thiscall RPacketService::Attach(class TRequestStatus &)const 
	?Close@RPacketContext@@QAEXXZ @ 14 NONAME ; public: void __thiscall RPacketContext::Close(void)
	?Close@RPacketQoS@@QAEXXZ @ 15 NONAME ; public: void __thiscall RPacketQoS::Close(void)
	?Close@RPacketService@@QAEXXZ @ 16 NONAME ; public: void __thiscall RPacketService::Close(void)
	?ConstructL@RPacketContext@@MAEXXZ @ 17 NONAME ; protected: virtual void __thiscall RPacketContext::ConstructL(void)
	?ConstructL@RPacketQoS@@MAEXXZ @ 18 NONAME ; protected: virtual void __thiscall RPacketQoS::ConstructL(void)
	?ConstructL@RPacketService@@MAEXXZ @ 19 NONAME ; protected: virtual void __thiscall RPacketService::ConstructL(void)
	?Deactivate@RPacketContext@@QBEXAAVTRequestStatus@@@Z @ 20 NONAME ; public: void __thiscall RPacketContext::Deactivate(class TRequestStatus &)const 
	?Delete@RPacketContext@@QBEXAAVTRequestStatus@@@Z @ 21 NONAME ; public: void __thiscall RPacketContext::Delete(class TRequestStatus &)const 
	?Destruct@RPacketContext@@MAEXXZ @ 22 NONAME ; protected: virtual void __thiscall RPacketContext::Destruct(void)
	?Destruct@RPacketQoS@@MAEXXZ @ 23 NONAME ; protected: virtual void __thiscall RPacketQoS::Destruct(void)
	?Destruct@RPacketService@@MAEXXZ @ 24 NONAME ; protected: virtual void __thiscall RPacketService::Destruct(void)
	?Detach@RPacketService@@QBEXAAVTRequestStatus@@@Z @ 25 NONAME ; public: void __thiscall RPacketService::Detach(class TRequestStatus &)const 
	?EnumerateContexts@RPacketService@@QBEXAAVTRequestStatus@@AAH1@Z @ 26 NONAME ; public: void __thiscall RPacketService::EnumerateContexts(class TRequestStatus &,int &,int &)const 
	?GetAttachMode@RPacketService@@QBEHAAW4TAttachMode@1@@Z @ 27 NONAME ; public: int __thiscall RPacketService::GetAttachMode(enum RPacketService::TAttachMode &)const 
	?GetConfig@RPacketContext@@QBEXAAVTRequestStatus@@AAVTDes8@@@Z @ 28 NONAME ; public: void __thiscall RPacketContext::GetConfig(class TRequestStatus &,class TDes8 &)const 
	?GetConnectionSpeed@RPacketContext@@QBEXAAVTRequestStatus@@AAI@Z @ 29 NONAME ; public: void __thiscall RPacketContext::GetConnectionSpeed(class TRequestStatus &,unsigned int &)const 
	?GetContextInfo@RPacketService@@QBEXAAVTRequestStatus@@HAAUTContextInfo@1@@Z @ 30 NONAME ; public: void __thiscall RPacketService::GetContextInfo(class TRequestStatus &,int,struct RPacketService::TContextInfo &)const 
	?GetDataVolumeTransferred@RPacketContext@@QBEHAAUTDataVolume@1@@Z @ 31 NONAME ; public: int __thiscall RPacketContext::GetDataVolumeTransferred(struct RPacketContext::TDataVolume &)const 
	?GetDefaultContextParams@RPacketService@@QBEHAAVTDes8@@@Z @ 32 NONAME ; public: int __thiscall RPacketService::GetDefaultContextParams(class TDes8 &)const 
	?GetDynamicCaps@RPacketService@@QBEHAAI@Z @ 33 NONAME ; public: int __thiscall RPacketService::GetDynamicCaps(unsigned int &)const 
	?GetLastErrorCause@RPacketContext@@QBEHAAH@Z @ 34 NONAME ; public: int __thiscall RPacketContext::GetLastErrorCause(int &)const 
	?GetMSClass@RPacketService@@QBEXAAVTRequestStatus@@AAW4TMSClass@1@1@Z @ 35 NONAME ; public: void __thiscall RPacketService::GetMSClass(class TRequestStatus &,enum RPacketService::TMSClass &,enum RPacketService::TMSClass &)const 
	?GetNtwkRegStatus@RPacketService@@QBEXAAVTRequestStatus@@AAW4TRegistrationStatus@1@@Z @ 36 NONAME ; public: void __thiscall RPacketService::GetNtwkRegStatus(class TRequestStatus &,enum RPacketService::TRegistrationStatus &)const 
	?GetProfileCapabilities@RPacketQoS@@QBEXAAVTRequestStatus@@AAVTDes8@@@Z @ 37 NONAME ; public: void __thiscall RPacketQoS::GetProfileCapabilities(class TRequestStatus &,class TDes8 &)const 
	?GetProfileParameters@RPacketQoS@@QBEXAAVTRequestStatus@@AAVTDes8@@@Z @ 38 NONAME ; public: void __thiscall RPacketQoS::GetProfileParameters(class TRequestStatus &,class TDes8 &)const 
	?GetStaticCaps@RPacketService@@QBEHAAIW4TProtocolType@RPacketContext@@@Z @ 39 NONAME ; public: int __thiscall RPacketService::GetStaticCaps(unsigned int &,enum RPacketContext::TProtocolType)const 
	?GetStatus@RPacketContext@@QBEHAAW4TContextStatus@1@@Z @ 40 NONAME ; public: int __thiscall RPacketContext::GetStatus(enum RPacketContext::TContextStatus &)const 
	?GetStatus@RPacketService@@QBEHAAW4TStatus@1@@Z @ 41 NONAME ; public: int __thiscall RPacketService::GetStatus(enum RPacketService::TStatus &)const 
	?LoanCommPort@RPacketContext@@QBEXAAVTRequestStatus@@AAUTCommPort@RCall@@@Z @ 42 NONAME ; public: void __thiscall RPacketContext::LoanCommPort(class TRequestStatus &,struct RCall::TCommPort &)const 
	?NotifyChangeOfNtwkRegStatus@RPacketService@@QBEXAAVTRequestStatus@@AAW4TRegistrationStatus@1@@Z @ 43 NONAME ; public: void __thiscall RPacketService::NotifyChangeOfNtwkRegStatus(class TRequestStatus &,enum RPacketService::TRegistrationStatus &)const 
	?NotifyConfigChanged@RPacketContext@@QBEXAAVTRequestStatus@@AAVTDes8@@@Z @ 44 NONAME ; public: void __thiscall RPacketContext::NotifyConfigChanged(class TRequestStatus &,class TDes8 &)const 
	?NotifyConnectionSpeedChange@RPacketContext@@QBEXAAVTRequestStatus@@AAI@Z @ 45 NONAME ; public: void __thiscall RPacketContext::NotifyConnectionSpeedChange(class TRequestStatus &,unsigned int &)const 
	?NotifyContextActivationRequested@RPacketService@@QBEXAAVTRequestStatus@@AAVTDes8@@@Z @ 46 NONAME ; public: void __thiscall RPacketService::NotifyContextActivationRequested(class TRequestStatus &,class TDes8 &)const 
	?NotifyContextAdded@RPacketService@@QBEXAAVTRequestStatus@@AAVTDes16@@@Z @ 47 NONAME ; public: void __thiscall RPacketService::NotifyContextAdded(class TRequestStatus &,class TDes16 &)const 
	?NotifyDataTransferred@RPacketContext@@QBEXAAVTRequestStatus@@AAUTDataVolume@1@II@Z @ 48 NONAME ; public: void __thiscall RPacketContext::NotifyDataTransferred(class TRequestStatus &,struct RPacketContext::TDataVolume &,unsigned int,unsigned int)const 
	?NotifyDynamicCapsChange@RPacketService@@QBEXAAVTRequestStatus@@AAI@Z @ 49 NONAME ; public: void __thiscall RPacketService::NotifyDynamicCapsChange(class TRequestStatus &,unsigned int &)const 
	?NotifyMSClassChange@RPacketService@@QBEXAAVTRequestStatus@@AAW4TMSClass@1@@Z @ 50 NONAME ; public: void __thiscall RPacketService::NotifyMSClassChange(class TRequestStatus &,enum RPacketService::TMSClass &)const 
	?NotifyProfileChanged@RPacketQoS@@QBEXAAVTRequestStatus@@AAVTDes8@@@Z @ 51 NONAME ; public: void __thiscall RPacketQoS::NotifyProfileChanged(class TRequestStatus &,class TDes8 &)const 
	?NotifyStatusChange@RPacketContext@@QAEXAAVTRequestStatus@@AAW4TContextStatus@1@@Z @ 52 NONAME ; public: void __thiscall RPacketContext::NotifyStatusChange(class TRequestStatus &,enum RPacketContext::TContextStatus &)
	?NotifyStatusChange@RPacketService@@QBEXAAVTRequestStatus@@AAW4TStatus@1@@Z @ 53 NONAME ; public: void __thiscall RPacketService::NotifyStatusChange(class TRequestStatus &,enum RPacketService::TStatus &)const 
	?Open@RPacketService@@QAEHAAVRPhone@@@Z @ 54 NONAME ; public: int __thiscall RPacketService::Open(class RPhone &)
	?OpenExistingContext@RPacketContext@@QAEHAAVRPacketService@@ABVTDesC16@@@Z @ 55 NONAME ; public: int __thiscall RPacketContext::OpenExistingContext(class RPacketService &,class TDesC16 const &)
	?OpenExistingQoS@RPacketQoS@@QAEHAAVRPacketContext@@ABVTDesC16@@@Z @ 56 NONAME ; public: int __thiscall RPacketQoS::OpenExistingQoS(class RPacketContext &,class TDesC16 const &)
	?OpenNewContext@RPacketContext@@QAEHAAVRPacketService@@AAVTDes16@@@Z @ 57 NONAME ; public: int __thiscall RPacketContext::OpenNewContext(class RPacketService &,class TDes16 &)
	?OpenNewQoS@RPacketQoS@@QAEHAAVRPacketContext@@AAVTDes16@@@Z @ 58 NONAME ; public: int __thiscall RPacketQoS::OpenNewQoS(class RPacketContext &,class TDes16 &)
	?RecoverCommPort@RPacketContext@@QBEXAAVTRequestStatus@@@Z @ 59 NONAME ; public: void __thiscall RPacketContext::RecoverCommPort(class TRequestStatus &)const 
	?RejectActivationRequest@RPacketService@@QBEXAAVTRequestStatus@@@Z @ 60 NONAME ; public: void __thiscall RPacketService::RejectActivationRequest(class TRequestStatus &)const 
	?SetAttachMode@RPacketService@@QBEHW4TAttachMode@1@@Z @ 61 NONAME ; public: int __thiscall RPacketService::SetAttachMode(enum RPacketService::TAttachMode)const 
	?SetConfig@RPacketContext@@QBEXAAVTRequestStatus@@ABVTDesC8@@@Z @ 62 NONAME ; public: void __thiscall RPacketContext::SetConfig(class TRequestStatus &,class TDesC8 const &)const 
	?SetDefaultContextParams@RPacketService@@QBEHABVTDesC8@@@Z @ 63 NONAME ; public: int __thiscall RPacketService::SetDefaultContextParams(class TDesC8 const &)const 
	?SetMSClass@RPacketService@@QBEXAAVTRequestStatus@@W4TMSClass@1@@Z @ 64 NONAME ; public: void __thiscall RPacketService::SetMSClass(class TRequestStatus &,enum RPacketService::TMSClass)const 
	?SetProfileParameters@RPacketQoS@@QBEXAAVTRequestStatus@@AAVTDes8@@@Z @ 65 NONAME ; public: void __thiscall RPacketQoS::SetProfileParameters(class TRequestStatus &,class TDes8 &)const 
	?GetPreferredBearer@RPacketService@@QBEHAAW4TPreferredBearer@1@@Z @ 66 NONAME ; public: int __thiscall RPacketService::GetPreferredBearer(enum RPacketService::TPreferredBearer &)const 
	?GetProfileName@RPacketContext@@QBEHAAV?$TBuf@$0IA@@@@Z @ 67 NONAME ; public: int __thiscall RPacketContext::GetProfileName(class TBuf<128> &)const 
	?SetPreferredBearer@RPacketService@@QBEXAAVTRequestStatus@@W4TPreferredBearer@1@@Z @ 68 NONAME ; public: void __thiscall RPacketService::SetPreferredBearer(class TRequestStatus &,enum RPacketService::TPreferredBearer)const 
	??0TDataChannelV2@RPacketContext@@QAE@XZ @ 69 NONAME ; public: __thiscall RPacketContext::TDataChannelV2::TDataChannelV2(void)
	??0TNifInfoV2@RPacketService@@QAE@XZ @ 70 NONAME ; public: __thiscall RPacketService::TNifInfoV2::TNifInfoV2(void)
	??0TPacketFilterV2@RPacketContext@@QAE@XZ @ 71 NONAME ; public: __thiscall RPacketContext::TPacketFilterV2::TPacketFilterV2(void)
	??0TQoSCapsR99_R4@RPacketQoS@@QAE@XZ @ 72 NONAME ; public: __thiscall RPacketQoS::TQoSCapsR99_R4::TQoSCapsR99_R4(void)
	??0TQoSR99_R4Negotiated@RPacketQoS@@QAE@XZ @ 73 NONAME ; public: __thiscall RPacketQoS::TQoSR99_R4Negotiated::TQoSR99_R4Negotiated(void)
	??0TQoSR99_R4Requested@RPacketQoS@@QAE@XZ @ 74 NONAME ; public: __thiscall RPacketQoS::TQoSR99_R4Requested::TQoSR99_R4Requested(void)
	?AddPacketFilter@RPacketContext@@QBEXAAVTRequestStatus@@ABVTDesC8@@@Z @ 75 NONAME ; public: void __thiscall RPacketContext::AddPacketFilter(class TRequestStatus &,class TDesC8 const &)const 
	?EnumerateContextsInNif@RPacketService@@QBEXAAVTRequestStatus@@ABVTDesC16@@AAH@Z @ 76 NONAME ; public: void __thiscall RPacketService::EnumerateContextsInNif(class TRequestStatus &,class TDesC16 const &,int &)const 
	?EnumerateNifs@RPacketService@@QBEXAAVTRequestStatus@@AAH@Z @ 77 NONAME ; public: void __thiscall RPacketService::EnumerateNifs(class TRequestStatus &,int &)const 
	?EnumeratePacketFilters@RPacketContext@@QBEXAAVTRequestStatus@@AAH@Z @ 78 NONAME ; public: void __thiscall RPacketContext::EnumeratePacketFilters(class TRequestStatus &,int &)const 
	?ExtensionId@TPacketBase@@QBEHXZ @ 79 NONAME ; public: int __thiscall TPacketBase::ExtensionId(void)const 
	?GetAttachMode@RPacketService@@QBEXAAVTRequestStatus@@AAW4TAttachMode@1@@Z @ 80 NONAME ; public: void __thiscall RPacketService::GetAttachMode(class TRequestStatus &,enum RPacketService::TAttachMode &)const 
	?GetContextNameInNif@RPacketService@@QBEXAAVTRequestStatus@@ABVTDesC16@@HAAVTDes16@@@Z @ 81 NONAME ; public: void __thiscall RPacketService::GetContextNameInNif(class TRequestStatus &,class TDesC16 const &,int,class TDes16 &)const 
	?GetCurrentReleaseMode@RPacketService@@QBEXAAVTRequestStatus@@AAW4TPacketReleaseMode@1@@Z @ 82 NONAME ; public: void __thiscall RPacketService::GetCurrentReleaseMode(class TRequestStatus &,enum RPacketService::TPacketReleaseMode &)const 
	?GetDataVolumeTransferred@RPacketContext@@QBEXAAVTRequestStatus@@AAUTDataVolume@1@@Z @ 83 NONAME ; public: void __thiscall RPacketContext::GetDataVolumeTransferred(class TRequestStatus &,struct RPacketContext::TDataVolume &)const 
	?GetDefaultContextParams@RPacketService@@QBEXAAVTRequestStatus@@AAVTDes8@@@Z @ 84 NONAME ; public: void __thiscall RPacketService::GetDefaultContextParams(class TRequestStatus &,class TDes8 &)const 
	?GetNifInfo@RPacketService@@QBEXAAVTRequestStatus@@HAAVTDes8@@@Z @ 85 NONAME ; public: void __thiscall RPacketService::GetNifInfo(class TRequestStatus &,int,class TDes8 &)const 
	?GetPacketFilterInfo@RPacketContext@@QBEXAAVTRequestStatus@@HAAVTDes8@@@Z @ 86 NONAME ; public: void __thiscall RPacketContext::GetPacketFilterInfo(class TRequestStatus &,int,class TDes8 &)const 
	?InitialiseContext@RPacketContext@@QBEXAAVTRequestStatus@@AAVTDes8@@@Z @ 87 NONAME ; public: void __thiscall RPacketContext::InitialiseContext(class TRequestStatus &,class TDes8 &)const 
	?ModifyActiveContext@RPacketContext@@QBEXAAVTRequestStatus@@@Z @ 88 NONAME ; public: void __thiscall RPacketContext::ModifyActiveContext(class TRequestStatus &)const 
	?NotifyReleaseModeChange@RPacketService@@QBEXAAVTRequestStatus@@AAW4TPacketReleaseMode@1@@Z @ 89 NONAME ; public: void __thiscall RPacketService::NotifyReleaseModeChange(class TRequestStatus &,enum RPacketService::TPacketReleaseMode &)const 
	?OpenNewSecondaryContext@RPacketContext@@QAEHAAVRPacketService@@ABVTDesC16@@AAVTDes16@@@Z @ 90 NONAME ; public: int __thiscall RPacketContext::OpenNewSecondaryContext(class RPacketService &,class TDesC16 const &,class TDes16 &)
	?RemovePacketFilter@RPacketContext@@QBEXAAVTRequestStatus@@H@Z @ 91 NONAME ; public: void __thiscall RPacketContext::RemovePacketFilter(class TRequestStatus &,int)const 
	?SetAttachMode@RPacketService@@QBEXAAVTRequestStatus@@W4TAttachMode@1@@Z @ 92 NONAME ; public: void __thiscall RPacketService::SetAttachMode(class TRequestStatus &,enum RPacketService::TAttachMode)const 
	?SetDefaultContextParams@RPacketService@@QBEXAAVTRequestStatus@@ABVTDesC8@@@Z @ 93 NONAME ; public: void __thiscall RPacketService::SetDefaultContextParams(class TRequestStatus &,class TDesC8 const &)const 
	??0TContextConfigR99_R4@RPacketContext@@QAE@XZ @ 94 NONAME ; public: __thiscall RPacketContext::TContextConfigR99_R4::TContextConfigR99_R4(void)
	?GetDnsInfo@RPacketContext@@QBEXAAVTRequestStatus@@AAVTDes8@@@Z @ 95 NONAME ; public: void __thiscall RPacketContext::GetDnsInfo(class TRequestStatus &,class TDes8 &)const 
	??0TDnsInfoV2@RPacketContext@@QAE@XZ @ 96 NONAME ; public: __thiscall RPacketContext::TDnsInfoV2::TDnsInfoV2(void)
	?NotifyAttachModeChange@RPacketService@@QBEXAAVTRequestStatus@@AAW4TAttachMode@1@@Z @ 97 NONAME ; public: void __thiscall RPacketService::NotifyAttachModeChange(class TRequestStatus &,enum RPacketService::TAttachMode &)const 
	?GetPreferredBearer@RPacketService@@QBEXAAVTRequestStatus@@AAW4TPreferredBearer@1@@Z @ 98 NONAME ; public: void __thiscall RPacketService::GetPreferredBearer(class TRequestStatus &,enum RPacketService::TPreferredBearer &)const 
	?CreateNewTFT@RPacketContext@@QBEXAAVTRequestStatus@@H@Z @ 99 NONAME ; public: void __thiscall RPacketContext::CreateNewTFT(class TRequestStatus &,int)const 
	?DeleteTFT@RPacketContext@@QBEXAAVTRequestStatus@@@Z @ 100 NONAME ; public: void __thiscall RPacketContext::DeleteTFT(class TRequestStatus &)const 
	?DeactivateNIF@RPacketService@@QBEXAAVTRequestStatus@@ABVTDesC16@@@Z @ 101 NONAME ; public: void __thiscall RPacketService::DeactivateNIF(class TRequestStatus &,class TDesC16 const &)const 
	??0TPacketFilterV3@RPacketContext@@QAE@W4TPacketFilterType@1@@Z @ 102 NONAME ; public: __thiscall RPacketContext::TPacketFilterV3::TPacketFilterV3(enum TPacketFilterV3::TPacketFilterType)
	??0TQoSR5Negotiated@RPacketQoS@@QAE@XZ @ 103 NONAME ; public: __thiscall RPacketQoS::TQoSR5Negotiated::TQoSR5Negotiated(void)
	??0TQoSR5Requested@RPacketQoS@@QAE@XZ @ 104 NONAME ; public: __thiscall RPacketQoS::TQoSR5Requested::TQoSR5Requested(void)
	??0TPacketFilterV3@RPacketContext@@QAE@XZ @ 105 NONAME ; RPacketContext::TPacketFilterV3::TPacketFilterV3(void)
	??1CTFTMediaAuthorizationV3@RPacketContext@@UAE@XZ @ 106 NONAME ; RPacketContext::CTFTMediaAuthorizationV3::~CTFTMediaAuthorizationV3(void)
	?AddMediaAuthorizationL@RPacketContext@@QBEXAAVTRequestStatus@@AAVCTFTMediaAuthorizationV3@1@@Z @ 107 NONAME ; void RPacketContext::AddMediaAuthorizationL(class TRequestStatus &, class RPacketContext::CTFTMediaAuthorizationV3 &) const
	?ExtensionId@CTFTMediaAuthorizationV3@RPacketContext@@QBEIXZ @ 108 NONAME ; unsigned int RPacketContext::CTFTMediaAuthorizationV3::ExtensionId(void) const
	?ExternalizeL@CTFTMediaAuthorizationV3@RPacketContext@@UBEXAAPAVHBufC8@@@Z @ 109 NONAME ; void RPacketContext::CTFTMediaAuthorizationV3::ExternalizeL(class HBufC8 * &) const
	?InternalizeL@CTFTMediaAuthorizationV3@RPacketContext@@UAEXAAVTDes8@@@Z @ 110 NONAME ; void RPacketContext::CTFTMediaAuthorizationV3::InternalizeL(class TDes8 &)
	?NewL@CTFTMediaAuthorizationV3@RPacketContext@@SAPAV12@XZ @ 111 NONAME ; class RPacketContext::CTFTMediaAuthorizationV3 * RPacketContext::CTFTMediaAuthorizationV3::NewL(void)
	?RemoveMediaAuthorization@RPacketContext@@QBEXAAVTRequestStatus@@AAV?$TBuf8@$0PP@@@@Z @ 112 NONAME ; void RPacketContext::RemoveMediaAuthorization(class TRequestStatus &, class TBuf8<255> &) const
	?SetDestPortMax@TPacketFilterV3@RPacketContext@@QAEHH@Z @ 113 NONAME ; int RPacketContext::TPacketFilterV3::SetDestPortMax(int)
	?SetDestPortMin@TPacketFilterV3@RPacketContext@@QAEHH@Z @ 114 NONAME ; int RPacketContext::TPacketFilterV3::SetDestPortMin(int)
	?SetFlowLabel@TPacketFilterV3@RPacketContext@@QAEHK@Z @ 115 NONAME ; int RPacketContext::TPacketFilterV3::SetFlowLabel(unsigned long)
	?SetProtocolNumberOrNextHeader@TPacketFilterV3@RPacketContext@@QAEHH@Z @ 116 NONAME ; int RPacketContext::TPacketFilterV3::SetProtocolNumberOrNextHeader(int)
	?SetSPI@TPacketFilterV3@RPacketContext@@QAEHK@Z @ 117 NONAME ; int RPacketContext::TPacketFilterV3::SetSPI(unsigned long)
	?SetSrcAddr@TPacketFilterV3@RPacketContext@@QAEHAAY0BA@E@Z @ 118 NONAME ; int RPacketContext::TPacketFilterV3::SetSrcAddr(unsigned char [16] &)
	?SetSrcAddrSubnetMask@TPacketFilterV3@RPacketContext@@QAEHAAY0BA@E@Z @ 119 NONAME ; int RPacketContext::TPacketFilterV3::SetSrcAddrSubnetMask(unsigned char [16] &)
	?SetSrcPortMax@TPacketFilterV3@RPacketContext@@QAEHH@Z @ 120 NONAME ; int RPacketContext::TPacketFilterV3::SetSrcPortMax(int)
	?SetSrcPortMin@TPacketFilterV3@RPacketContext@@QAEHH@Z @ 121 NONAME ; int RPacketContext::TPacketFilterV3::SetSrcPortMin(int)
	?SetTOSorTrafficClass@TPacketFilterV3@RPacketContext@@QAEHG@Z @ 122 NONAME ; int RPacketContext::TPacketFilterV3::SetTOSorTrafficClass(unsigned short)
	??0TContextConfig_R5@RPacketContext@@QAE@XZ @ 123 NONAME ; RPacketContext::TContextConfig_R5::TContextConfig_R5(void)
	??0TQoSCapsR5@RPacketQoS@@QAE@XZ @ 124 NONAME ; RPacketQoS::TQoSCapsR5::TQoSCapsR5(void)
	??0TProtocolConfigOptionV2@RPacketContext@@QAE@XZ @ 125 NONAME ; RPacketContext::TProtocolConfigOptionV2::TProtocolConfigOptionV2(void)
	??0RPacketMbmsContext@@QAE@XZ @ 126 NONAME ; RPacketMbmsContext::RPacketMbmsContext(void)
	??0TContextConfigMbmsV1@RPacketMbmsContext@@QAE@XZ @ 127 NONAME ; RPacketMbmsContext::TContextConfigMbmsV1::TContextConfigMbmsV1(void)
	??0TMbmsServiceAvailabilityV1@RPacketService@@QAE@XZ @ 128 NONAME ; RPacketService::TMbmsServiceAvailabilityV1::TMbmsServiceAvailabilityV1(void)
	??1CMbmsSession@RPacketMbmsContext@@UAE@XZ @ 129 NONAME ; RPacketMbmsContext::CMbmsSession::~CMbmsSession(void)
	??1CPcktMbmsMonitoredServiceList@@UAE@XZ @ 130 NONAME ; CPcktMbmsMonitoredServiceList::~CPcktMbmsMonitoredServiceList(void)
	??1CRetrievePcktMbmsMonitoredServices@@UAE@XZ @ 131 NONAME ; CRetrievePcktMbmsMonitoredServices::~CRetrievePcktMbmsMonitoredServices(void)
	?Close@RPacketMbmsContext@@QAEXXZ @ 132 NONAME ; void RPacketMbmsContext::Close(void)
	?EnumerateMbmsActiveServiceList@RPacketService@@QBEXAAVTRequestStatus@@AAH1@Z @ 133 NONAME ; void RPacketService::EnumerateMbmsActiveServiceList(class TRequestStatus &, int &, int &) const
	?EnumerateMbmsMonitorServiceList@RPacketService@@QBEXAAVTRequestStatus@@AAH1@Z @ 134 NONAME ; void RPacketService::EnumerateMbmsMonitorServiceList(class TRequestStatus &, int &, int &) const
	?ExtensionId@CMbmsSession@RPacketMbmsContext@@QBEIXZ @ 135 NONAME ; unsigned int RPacketMbmsContext::CMbmsSession::ExtensionId(void) const
	?ExtensionId@TPacketType@@QBEHXZ @ 136 NONAME ; int TPacketType::ExtensionId(void) const
	?ExternalizeL@CMbmsSession@RPacketMbmsContext@@QAEXAAPAVHBufC8@@@Z @ 137 NONAME ; void RPacketMbmsContext::CMbmsSession::ExternalizeL(class HBufC8 * &)
	?GetMbmsNetworkServiceStatus@RPacketService@@QBEXAAVTRequestStatus@@HAAW4TMbmsNetworkServiceStatus@@@Z @ 138 NONAME ; void RPacketService::GetMbmsNetworkServiceStatus(class TRequestStatus &, int, enum TMbmsNetworkServiceStatus &) const
	?InternalizeL@CMbmsSession@RPacketMbmsContext@@QAEXABVTDesC8@@@Z @ 139 NONAME ; void RPacketMbmsContext::CMbmsSession::InternalizeL(class TDesC8 const &)
	?NewL@CMbmsSession@RPacketMbmsContext@@SAPAV12@XZ @ 140 NONAME ; class RPacketMbmsContext::CMbmsSession * RPacketMbmsContext::CMbmsSession::NewL(void)
	?NewL@CPcktMbmsMonitoredServiceList@@SAPAV1@XZ @ 141 NONAME ; class CPcktMbmsMonitoredServiceList * CPcktMbmsMonitoredServiceList::NewL(void)
	?NewL@CRetrievePcktMbmsMonitoredServices@@SAPAV1@AAVRPacketService@@@Z @ 142 NONAME ; class CRetrievePcktMbmsMonitoredServices * CRetrievePcktMbmsMonitoredServices::NewL(class RPacketService &)
	?NewL@CRetrievePcktMbmsSessionList@@SAPAV1@AAVRPacketMbmsContext@@AAVCMbmsSession@2@@Z @ 143 NONAME ; class CRetrievePcktMbmsSessionList * CRetrievePcktMbmsSessionList::NewL(class RPacketMbmsContext &, class RPacketMbmsContext::CMbmsSession &)
	?NotifyMbmsNetworkServiceStatusChange@RPacketService@@QBEXAAVTRequestStatus@@AAW4TMbmsNetworkServiceStatus@@@Z @ 144 NONAME ; void RPacketService::NotifyMbmsNetworkServiceStatusChange(class TRequestStatus &, enum TMbmsNetworkServiceStatus &) const
	?NotifyMbmsServiceAvailabilityChange@RPacketService@@QBEXAAVTRequestStatus@@@Z @ 145 NONAME ; void RPacketService::NotifyMbmsServiceAvailabilityChange(class TRequestStatus &) const
	?OpenNewContext@RPacketMbmsContext@@QAEHAAVRPacketService@@AAVTDes16@@@Z @ 146 NONAME ; int RPacketMbmsContext::OpenNewContext(class RPacketService &, class TDes16 &)
	?RetrieveListL@CRetrievePcktMbmsMonitoredServices@@QAEPAVCPcktMbmsMonitoredServiceList@@XZ @ 147 NONAME ; class CPcktMbmsMonitoredServiceList * CRetrievePcktMbmsMonitoredServices::RetrieveListL(void)
	?Start@CRetrievePcktMbmsMonitoredServices@@QAEXAAVTRequestStatus@@@Z @ 148 NONAME ; void CRetrievePcktMbmsMonitoredServices::Start(class TRequestStatus &)
	?Start@CRetrievePcktMbmsSessionList@@QAEXAAVTRequestStatus@@@Z @ 149 NONAME ; void CRetrievePcktMbmsSessionList::Start(class TRequestStatus &)
	?UpdateMbmsMonitorServiceListL@RPacketService@@QBEXAAVTRequestStatus@@W4TMbmsAction@@PAVCPcktMbmsMonitoredServiceList@@@Z @ 150 NONAME ; void RPacketService::UpdateMbmsMonitorServiceListL(class TRequestStatus &, enum TMbmsAction, class CPcktMbmsMonitoredServiceList *) const
	?UpdateMbmsSessionList@RPacketMbmsContext@@QBEXAAVTRequestStatus@@W4TMbmsAction@@I@Z @ 151 NONAME ; void RPacketMbmsContext::UpdateMbmsSessionList(class TRequestStatus &, enum TMbmsAction, unsigned int) const
	?GetConnectionInfo@RPacketContext@@QBEXAAVTRequestStatus@@AAVTDes8@@@Z @ 152 NONAME ; void RPacketContext::GetConnectionInfo(class TRequestStatus &, class TDes8 &) const
	?NotifyConnectionInfoChange@RPacketContext@@QBEXAAVTRequestStatus@@AAVTDes8@@@Z @ 153 NONAME ; void RPacketContext::NotifyConnectionInfoChange(class TRequestStatus &, class TDes8 &) const
	??0TConnectionInfoV1@RPacketContext@@QAE@XZ @ 154 NONAME ; RPacketContext::TConnectionInfoV1::TConnectionInfoV1(void)

