EXPORTS
	??0CMockSYEngine@@IAE@XZ @ 1 NONAME ; CMockSYEngine::CMockSYEngine(void)
	??1CMockSYEngine@@UAE@XZ @ 2 NONAME ; CMockSYEngine::~CMockSYEngine(void)
	?Connect@RMockSY@@QAEHXZ @ 3 NONAME ; int RMockSY::Connect(void)
	?ConstructL@CMockSYEngine@@MAEXXZ @ 4 NONAME ; void CMockSYEngine::ConstructL(void)
	?DoComplete@RMockSY@@IAEXHHHABVTDesC8@@@Z @ 5 NONAME ; void RMockSY::DoComplete(int, int, int, class TDesC8 const &)
	?DoExpect@RMockSY@@IAEXHHHABVTDesC8@@@Z @ 6 NONAME ; void RMockSY::DoExpect(int, int, int, class TDesC8 const &)
	?DoQueueEventL@CMockSYEngine@@MAEXW4TEventType@TMockSYEvent@1@HPAVHBufC8@@HHH@Z @ 7 NONAME ; void CMockSYEngine::DoQueueEventL(enum CMockSYEngine::TMockSYEvent::TEventType, int, class HBufC8 *, int, int, int)
	?ExecuteCommandL@CMockSYEngine@@QAEHHAAVMMockSyEngineData@@@Z @ 8 NONAME ; int CMockSYEngine::ExecuteCommandL(int, class MMockSyEngineData &)
	?Failure@CMockSYEngine@@MAEXXZ @ 9 NONAME ; void CMockSYEngine::Failure(void)
	?GetNextLogLine@RMockSY@@QAEXAAVTDes16@@@Z @ 10 NONAME ; void RMockSY::GetNextLogLine(class TDes16 &)
	?GetStatus@RMockSY@@QAEXAAH00@Z @ 11 NONAME ; void RMockSY::GetStatus(int &, int &, int &)
	?Log@CMockSYEngine@@MAEXABVTDesC16@@@Z @ 12 NONAME ; void CMockSYEngine::Log(class TDesC16 const &)
	?LogCompletion@CMockSYEngine@@MAEXHABVTDesC8@@H@Z @ 13 NONAME ; void CMockSYEngine::LogCompletion(int, class TDesC8 const &, int)
	?LogExpectError@CMockSYEngine@@MAEXHABVMMockSyEngineData@@HABVTDesC8@@H@Z @ 14 NONAME ; void CMockSYEngine::LogExpectError(int, class MMockSyEngineData const &, int, class TDesC8 const &, int)
	?LogRequest@CMockSYEngine@@MAEXHABVMMockSyEngineData@@H@Z @ 15 NONAME ; void CMockSYEngine::LogRequest(int, class MMockSyEngineData const &, int)
	?NewL@CMockSYServer@@SAPAVCServer2@@ABVTDesC16@@HAAVCMockSYEngine@@@Z @ 16 NONAME ; class CServer2 * CMockSYServer::NewL(class TDesC16 const &, int, class CMockSYEngine &)
	?NotifyTerminated@RMockSY@@QAEXAAVTRequestStatus@@@Z @ 17 NONAME ; void RMockSY::NotifyTerminated(class TRequestStatus &)
	?Reset@CMockSYEngine@@MAEXXZ @ 18 NONAME ; void CMockSYEngine::Reset(void)
	?ExecuteCommandL@CMockSYEngine@@QAEHHAAVMMockSyEngineData@@H@Z @ 19 NONAME ; int CMockSYEngine::ExecuteCommandL(int, class MMockSyEngineData &, int)
	?CanIgnoreUnexpectedIpc@CMockSYEngine@@MAEHH@Z @ 20 NONAME ; int CMockSYEngine::CanIgnoreUnexpectedIpc(int)
	?CheckAndUpdateTransId@CMockSYEngine@@QAEXEH@Z @ 21 NONAME ; void CMockSYEngine::CheckAndUpdateTransId(unsigned char, int)
	?ResumeCompletion@RMockSY@@QAEHXZ @ 22 NONAME ; int RMockSY::ResumeCompletion(void)
	?PauseCompletion@RMockSY@@QAEHXZ @ 23 NONAME ; int RMockSY::PauseCompletion(void)

