EXPORTS
	_ZN10CTelephony10TPhoneIdV1C1Ev @ 1 NONAME
	_ZN10CTelephony10TPhoneIdV1C2Ev @ 2 NONAME
	_ZN10CTelephony11TCallCapsV1C1Ev @ 3 NONAME
	_ZN10CTelephony11TCallCapsV1C2Ev @ 4 NONAME
	_ZN10CTelephony11TCallInfoV1C1Ev @ 5 NONAME
	_ZN10CTelephony11TCallInfoV1C2Ev @ 6 NONAME
	_ZN10CTelephony11TTelAddressC1Ev @ 7 NONAME
	_ZN10CTelephony11TTelAddressC2Ev @ 8 NONAME
	_ZN10CTelephony12TIndicatorV1C1Ev @ 9 NONAME
	_ZN10CTelephony12TIndicatorV1C2Ev @ 10 NONAME
	_ZN10CTelephony13TCallParamsV1C1Ev @ 11 NONAME
	_ZN10CTelephony13TCallParamsV1C2Ev @ 12 NONAME
	_ZN10CTelephony13TCallStatusV1C1Ev @ 13 NONAME
	_ZN10CTelephony13TCallStatusV1C2Ev @ 14 NONAME
	_ZN10CTelephony13TFlightModeV1C1Ev @ 15 NONAME
	_ZN10CTelephony13TFlightModeV1C2Ev @ 16 NONAME
	_ZN10CTelephony14TBatteryInfoV1C1Ev @ 17 NONAME
	_ZN10CTelephony14TBatteryInfoV1C2Ev @ 18 NONAME
	_ZN10CTelephony14TIccLockInfoV1C1Ev @ 19 NONAME
	_ZN10CTelephony14TIccLockInfoV1C2Ev @ 20 NONAME
	_ZN10CTelephony14TNetworkInfoV1C1Ev @ 21 NONAME
	_ZN10CTelephony14TNetworkInfoV1C2Ev @ 22 NONAME
	_ZN10CTelephony14TNetworkNameV1C1Ev @ 23 NONAME
	_ZN10CTelephony14TNetworkNameV1C2Ev @ 24 NONAME
	_ZN10CTelephony15ReceiveDataCallER14TRequestStatusRi @ 25 NONAME
	_ZN10CTelephony15ReceiveDataCallERi @ 26 NONAME
	_ZN10CTelephony15TOperatorNameV1C1Ev @ 27 NONAME
	_ZN10CTelephony15TOperatorNameV1C2Ev @ 28 NONAME
	_ZN10CTelephony15TSubscriberIdV1C1Ev @ 29 NONAME
	_ZN10CTelephony15TSubscriberIdV1C2Ev @ 30 NONAME
	_ZN10CTelephony16FindDeviceStatusERi @ 31 NONAME
	_ZN10CTelephony16TCallSelectionV1C1Ev @ 32 NONAME
	_ZN10CTelephony16TCallSelectionV1C2Ev @ 33 NONAME
	_ZN10CTelephony17EstablishDataCallER14TRequestStatusRiRK7TDesC16 @ 34 NONAME
	_ZN10CTelephony17EstablishDataCallERiRK7TDesC16 @ 35 NONAME
	_ZN10CTelephony17TSignalStrengthV1C1Ev @ 36 NONAME
	_ZN10CTelephony17TSignalStrengthV1C2Ev @ 37 NONAME
	_ZN10CTelephony17TerminateDataCallEv @ 38 NONAME
	_ZN10CTelephony18TIdentityServiceV1C1Ev @ 39 NONAME
	_ZN10CTelephony18TIdentityServiceV1C2Ev @ 40 NONAME
	_ZN10CTelephony18TRemotePartyInfoV1C1Ev @ 41 NONAME
	_ZN10CTelephony18TRemotePartyInfoV1C2Ev @ 42 NONAME
	_ZN10CTelephony21CancelReceiveDataCallEv @ 43 NONAME
	_ZN10CTelephony22TNetworkRegistrationV1C1Ev @ 44 NONAME
	_ZN10CTelephony22TNetworkRegistrationV1C2Ev @ 45 NONAME
	_ZN10CTelephony23CancelEstablishDataCallEv @ 46 NONAME
	_ZN10CTelephony27TCallBarringSupplServicesV1C1Ev @ 47 NONAME
	_ZN10CTelephony27TCallBarringSupplServicesV1C2Ev @ 48 NONAME
	_ZN10CTelephony27TCallWaitingSupplServicesV1C1Ev @ 49 NONAME
	_ZN10CTelephony27TCallWaitingSupplServicesV1C2Ev @ 50 NONAME
	_ZN10CTelephony30TCallForwardingSupplServicesV1C1Ev @ 51 NONAME
	_ZN10CTelephony30TCallForwardingSupplServicesV1C2Ev @ 52 NONAME
	_ZN10CTelephony4NewLEv @ 53 NONAME
	_ZN10CTelephony5NewLCEv @ 54 NONAME
	_ZNK10CTelephony10GetPhoneIdER14TRequestStatusR5TDes8 @ 55 NONAME
	_ZNK10CTelephony11CancelAsyncENS_20TCancellationRequestE @ 56 NONAME
	_ZNK10CTelephony11DialNewCallER14TRequestStatusR5TDes8RK4TBufILi100EERNS_7TCallIdENS_10TPhoneLineE @ 57 NONAME
	_ZNK10CTelephony11GetCallInfoER5TDes8S1_S1_ @ 58 NONAME
	_ZNK10CTelephony11GetLockInfoER14TRequestStatusRKNS_8TIccLockER5TDes8 @ 59 NONAME
	_ZNK10CTelephony12GetIndicatorER14TRequestStatusR5TDes8 @ 60 NONAME
	_ZNK10CTelephony12NotifyChangeER14TRequestStatusRKNS_18TNotificationEventER5TDes8 @ 61 NONAME
	_ZNK10CTelephony12TEtelISVType9VersionIdEv @ 62 NONAME
	_ZNK10CTelephony13GetCallStatusERKNS_7TCallIdER5TDes8 @ 63 NONAME
	_ZNK10CTelephony13GetFlightModeER14TRequestStatusR5TDes8 @ 64 NONAME
	_ZNK10CTelephony13GetLineStatusERKNS_10TPhoneLineER5TDes8 @ 65 NONAME
	_ZNK10CTelephony13SendDTMFTonesER14TRequestStatusRK7TDesC16 @ 66 NONAME
	_ZNK10CTelephony14GetBatteryInfoER14TRequestStatusR5TDes8 @ 67 NONAME
	_ZNK10CTelephony15GetOperatorNameER14TRequestStatusR5TDes8 @ 68 NONAME
	_ZNK10CTelephony15GetSubscriberIdER14TRequestStatusR5TDes8 @ 69 NONAME
	_ZNK10CTelephony17GetSignalStrengthER14TRequestStatusR5TDes8 @ 70 NONAME
	_ZNK10CTelephony18AnswerIncomingCallER14TRequestStatusRNS_7TCallIdENS_10TPhoneLineE @ 71 NONAME
	_ZNK10CTelephony18GetCallDynamicCapsERKNS_7TCallIdER5TDes8 @ 72 NONAME
	_ZNK10CTelephony20GetCallBarringStatusER14TRequestStatusNS_21TCallBarringConditionER5TDes8NS_13TServiceGroupE @ 73 NONAME
	_ZNK10CTelephony20GetCallWaitingStatusER14TRequestStatusR5TDes8NS_13TServiceGroupE @ 74 NONAME
	_ZNK10CTelephony21GetCurrentNetworkInfoER14TRequestStatusR5TDes8 @ 75 NONAME
	_ZNK10CTelephony21GetCurrentNetworkNameER14TRequestStatusR5TDes8 @ 76 NONAME
	_ZNK10CTelephony23GetCallForwardingStatusER14TRequestStatusNS_24TCallForwardingConditionER5TDes8NS_13TServiceGroupE @ 77 NONAME
	_ZNK10CTelephony24GetIdentityServiceStatusER14TRequestStatusRKNS_16TIdentityServiceER5TDes8 @ 78 NONAME
	_ZNK10CTelephony28GetNetworkRegistrationStatusER14TRequestStatusR5TDes8 @ 79 NONAME
	_ZNK10CTelephony4HoldER14TRequestStatusRKNS_7TCallIdE @ 80 NONAME
	_ZNK10CTelephony4SwapER14TRequestStatusRKNS_7TCallIdES4_ @ 81 NONAME
	_ZNK10CTelephony6HangupER14TRequestStatusRKNS_7TCallIdE @ 82 NONAME
	_ZNK10CTelephony6ResumeER14TRequestStatusRKNS_7TCallIdE @ 83 NONAME
	_ZTI10CHangupAct @ 84 NONAME ; #<TI>#
	_ZTI10CResumeAct @ 85 NONAME ; #<TI>#
	_ZTI10CTelephony @ 86 NONAME ; #<TI>#
	_ZTI14CGetPhoneIdAct @ 87 NONAME ; #<TI>#
	_ZTI15CDialNewCallAct @ 88 NONAME ; #<TI>#
	_ZTI16CGetIndicatorAct @ 89 NONAME ; #<TI>#
	_ZTI17CSendDTMFTonesAct @ 90 NONAME ; #<TI>#
	_ZTI18CGetBatteryInfoAct @ 91 NONAME ; #<TI>#
	_ZTI18CGetIccLockInfoAct @ 92 NONAME ; #<TI>#
	_ZTI19CGetOperatorNameAct @ 93 NONAME ; #<TI>#
	_ZTI19CGetSubscriberIdAct @ 94 NONAME ; #<TI>#
	_ZTI19CNotifyIndicatorAct @ 95 NONAME ; #<TI>#
	_ZTI19CTelephonyFunctions @ 96 NONAME ; #<TI>#
	_ZTI20CAsyncRequestBaseAct @ 97 NONAME ; #<TI>#
	_ZTI20CFlightModeChangeAct @ 98 NONAME ; #<TI>#
	_ZTI20CNotifyCallStatusAct @ 99 NONAME ; #<TI>#
	_ZTI20CNotifyLineStatusAct @ 100 NONAME ; #<TI>#
	_ZTI21CCallAnsweredNotifier @ 101 NONAME ABSENT ; #<TI>#
	_ZTI21CDialCompleteNotifier @ 102 NONAME ABSENT ; #<TI>#
	_ZTI21CGetSignalStrengthAct @ 103 NONAME ; #<TI>#
	_ZTI21CNotifyBatteryInfoAct @ 104 NONAME ; #<TI>#
	_ZTI21CNotifyIccLockInfoAct @ 105 NONAME ; #<TI>#
	_ZTI22CAnswerIncomingCallAct @ 106 NONAME ; #<TI>#
	_ZTI24CNotifySignalStrengthAct @ 107 NONAME ; #<TI>#
	_ZTI25CGetCurrentNetworkInfoAct @ 108 NONAME ; #<TI>#
	_ZTI25CGetCurrentNetworkNameAct @ 109 NONAME ; #<TI>#
	_ZTI25CNotifyRemotePartyInfoAct @ 110 NONAME ; #<TI>#
	_ZTI28CGetIdentityServiceStatusAct @ 111 NONAME ; #<TI>#
	_ZTI28CNotifyCurrentNetworkInfoAct @ 112 NONAME ; #<TI>#
	_ZTI32CGetNetworkRegistrationStatusAct @ 113 NONAME ; #<TI>#
	_ZTI33CGetSupplementaryServiceStatusAct @ 114 NONAME ; #<TI>#
	_ZTI35CNotifyNetworkRegistrationStatusAct @ 115 NONAME ; #<TI>#
	_ZTI8CHoldAct @ 116 NONAME ; #<TI>#
	_ZTI8CSwapAct @ 117 NONAME ; #<TI>#
	_ZTV10CHangupAct @ 118 NONAME ; #<VT>#
	_ZTV10CResumeAct @ 119 NONAME ; #<VT>#
	_ZTV10CTelephony @ 120 NONAME ; #<VT>#
	_ZTV14CGetPhoneIdAct @ 121 NONAME ; #<VT>#
	_ZTV15CDialNewCallAct @ 122 NONAME ; #<VT>#
	_ZTV16CGetIndicatorAct @ 123 NONAME ; #<VT>#
	_ZTV17CSendDTMFTonesAct @ 124 NONAME ; #<VT>#
	_ZTV18CGetBatteryInfoAct @ 125 NONAME ; #<VT>#
	_ZTV18CGetIccLockInfoAct @ 126 NONAME ; #<VT>#
	_ZTV19CGetOperatorNameAct @ 127 NONAME ; #<VT>#
	_ZTV19CGetSubscriberIdAct @ 128 NONAME ; #<VT>#
	_ZTV19CNotifyIndicatorAct @ 129 NONAME ; #<VT>#
	_ZTV19CTelephonyFunctions @ 130 NONAME ; #<VT>#
	_ZTV20CAsyncRequestBaseAct @ 131 NONAME ; #<VT>#
	_ZTV20CFlightModeChangeAct @ 132 NONAME ; #<VT>#
	_ZTV20CNotifyCallStatusAct @ 133 NONAME ; #<VT>#
	_ZTV20CNotifyLineStatusAct @ 134 NONAME ; #<VT>#
	_ZTV21CCallAnsweredNotifier @ 135 NONAME ABSENT ; #<VT>#
	_ZTV21CDialCompleteNotifier @ 136 NONAME ABSENT ; #<VT>#
	_ZTV21CGetSignalStrengthAct @ 137 NONAME ; #<VT>#
	_ZTV21CNotifyBatteryInfoAct @ 138 NONAME ; #<VT>#
	_ZTV21CNotifyIccLockInfoAct @ 139 NONAME ; #<VT>#
	_ZTV22CAnswerIncomingCallAct @ 140 NONAME ; #<VT>#
	_ZTV24CNotifySignalStrengthAct @ 141 NONAME ; #<VT>#
	_ZTV25CGetCurrentNetworkInfoAct @ 142 NONAME ; #<VT>#
	_ZTV25CGetCurrentNetworkNameAct @ 143 NONAME ; #<VT>#
	_ZTV25CNotifyRemotePartyInfoAct @ 144 NONAME ; #<VT>#
	_ZTV28CGetIdentityServiceStatusAct @ 145 NONAME ; #<VT>#
	_ZTV28CNotifyCurrentNetworkInfoAct @ 146 NONAME ; #<VT>#
	_ZTV32CGetNetworkRegistrationStatusAct @ 147 NONAME ; #<VT>#
	_ZTV33CGetSupplementaryServiceStatusAct @ 148 NONAME ; #<VT>#
	_ZTV35CNotifyNetworkRegistrationStatusAct @ 149 NONAME ; #<VT>#
	_ZTV8CHoldAct @ 150 NONAME ; #<VT>#
	_ZTV8CSwapAct @ 151 NONAME ; #<VT>#
	_ZN10CTelephony14TNetworkInfoV2C1Ev @ 152 NONAME
	_ZN10CTelephony14TNetworkInfoV2C2Ev @ 153 NONAME
	_ZN10CTelephony14TNetworkNameV2C1Ev @ 154 NONAME
	_ZN10CTelephony14TNetworkNameV2C2Ev @ 155 NONAME
	_ZTI22CNotifyIncomingCallAct @ 156 NONAME DATA 32 ; #<TI>#
	_ZTV22CNotifyIncomingCallAct @ 157 NONAME DATA 76 ; #<VT>#

