EXPORTS
	_ZN6RGavdp11AbortStreamE5TSEID @ 1 NONAME
	_ZN6RGavdp11RegisterSEPER13TAvdtpSEPInfo @ 2 NONAME
	_ZN6RGavdp11StartStreamE5TSEID @ 3 NONAME
	_ZN6RGavdp13SuspendStreamE5TSEID @ 4 NONAME
	_ZN6RGavdp16AddSEPCapabilityERK23TAvdtpServiceCapability @ 5 NONAME
	_ZN6RGavdp18DiscoverRemoteSEPsEv @ 6 NONAME
	_ZN6RGavdp19CreateBearerSocketsE5TSEIDii @ 7 NONAME
	_ZN6RGavdp19SendSecurityControlE5TSEIDRK6TDesC8 @ 8 NONAME
	_ZN6RGavdp22CommitSEPConfigurationEv @ 9 NONAME
	_ZN6RGavdp24BeginConfiguringLocalSEPE5TSEID @ 10 NONAME
	_ZN6RGavdp24GetRemoteSEPCapabilitiesE5TSEIDRK23TAvdtpServiceCategories @ 11 NONAME
	_ZN6RGavdp24MaxSecurityControlLengthEv @ 12 NONAME
	_ZN6RGavdp25BeginConfiguringRemoteSEPE5TSEIDS0_ @ 13 NONAME
	_ZN6RGavdp4OpenER10MGavdpUserR11RSocketServ @ 14 NONAME
	_ZN6RGavdp5CloseEv @ 15 NONAME
	_ZN6RGavdp6CancelEv @ 16 NONAME
	_ZN6RGavdp6ListenEv @ 17 NONAME
	_ZN6RGavdp7ConnectERK10TBTDevAddr @ 18 NONAME
	_ZN6RGavdpC1Ev @ 19 NONAME
	_ZN6RGavdpC2Ev @ 20 NONAME
	_ZN6RGavdp19CreateBearerSocketsE5TSEID @ 21 NONAME
	_ZN6RGavdp8ShutdownEv @ 22 NONAME

