EXPORTS
	?CancelCommand@CMediatorCommandInitiator@@QAEXVTUid@@0H@Z @ 1 NONAME ; void CMediatorCommandInitiator::CancelCommand(class TUid, class TUid, int)
	?GetCategories@CMediatorNotifications@@QAEHVTUid@@AAV?$RArray@VTUid@@@@@Z @ 2 NONAME ; int CMediatorNotifications::GetCategories(class TUid, class RArray<class TUid> &)
	?GetCommands@CMediatorNotifications@@QAEHVTUid@@0AAV?$RArray@VTCommand@MediatorService@@@@@Z @ 3 NONAME ; int CMediatorNotifications::GetCommands(class TUid, class TUid, class RArray<class MediatorService::TCommand> &)
	?GetDomains@CMediatorNotifications@@QAEHAAV?$RArray@VTUid@@@@@Z @ 4 NONAME ; int CMediatorNotifications::GetDomains(class RArray<class TUid> &)
	?GetEvents@CMediatorNotifications@@QAEHVTUid@@0AAV?$RArray@VTEvent@MediatorService@@@@@Z @ 5 NONAME ; int CMediatorNotifications::GetEvents(class TUid, class TUid, class RArray<class MediatorService::TEvent> &)
	?IssueCommand@CMediatorCommandInitiator@@QAEHVTUid@@0HVTVersion@@ABVTDesC8@@@Z @ 6 NONAME ; int CMediatorCommandInitiator::IssueCommand(class TUid, class TUid, int, class TVersion, class TDesC8 const &)
	?IssueResponse@CMediatorCommandResponder@@QAEHVTUid@@0HHABVTDesC8@@@Z @ 7 NONAME ; int CMediatorCommandResponder::IssueResponse(class TUid, class TUid, int, int, class TDesC8 const &)
	?NewL@CMediatorCommandInitiator@@SAPAV1@PAVMMediatorCommandResponseObserver@@@Z @ 8 NONAME ; class CMediatorCommandInitiator * CMediatorCommandInitiator::NewL(class MMediatorCommandResponseObserver *)
	?NewL@CMediatorCommandResponder@@SAPAV1@PAVMMediatorCommandObserver@@@Z @ 9 NONAME ; class CMediatorCommandResponder * CMediatorCommandResponder::NewL(class MMediatorCommandObserver *)
	?NewL@CMediatorEventConsumer@@SAPAV1@PAVMMediatorEventObserver@@@Z @ 10 NONAME ; class CMediatorEventConsumer * CMediatorEventConsumer::NewL(class MMediatorEventObserver *)
	?NewL@CMediatorEventProvider@@SAPAV1@XZ @ 11 NONAME ; class CMediatorEventProvider * CMediatorEventProvider::NewL(void)
	?NewL@CMediatorNotifications@@SAPAV1@XZ @ 12 NONAME ; class CMediatorNotifications * CMediatorNotifications::NewL(void)
	?RaiseEvent@CMediatorEventProvider@@QAEHVTUid@@0HVTVersion@@ABVTDesC8@@@Z @ 13 NONAME ; int CMediatorEventProvider::RaiseEvent(class TUid, class TUid, int, class TVersion, class TDesC8 const &)
	?RegisterCommand@CMediatorCommandResponder@@QAEHVTUid@@0ABV?$RArray@VTCommand@MediatorService@@@@@Z @ 14 NONAME ; int CMediatorCommandResponder::RegisterCommand(class TUid, class TUid, class RArray<class MediatorService::TCommand> const &)
	?RegisterCommand@CMediatorCommandResponder@@QAEHVTUid@@0HVTVersion@@VTCapabilitySet@@H@Z @ 15 NONAME ; int CMediatorCommandResponder::RegisterCommand(class TUid, class TUid, int, class TVersion, class TCapabilitySet, int)
	?RegisterEvent@CMediatorEventProvider@@QAEHVTUid@@0ABV?$RArray@VTEvent@MediatorService@@@@@Z @ 16 NONAME ; int CMediatorEventProvider::RegisterEvent(class TUid, class TUid, class RArray<class MediatorService::TEvent> const &)
	?RegisterEvent@CMediatorEventProvider@@QAEHVTUid@@0HVTVersion@@VTCapabilitySet@@@Z @ 17 NONAME ; int CMediatorEventProvider::RegisterEvent(class TUid, class TUid, int, class TVersion, class TCapabilitySet)
	?RegisterNotificationObserver@CMediatorNotifications@@QAEHPAVMMediatorNotifications@@@Z @ 18 NONAME ; int CMediatorNotifications::RegisterNotificationObserver(class MMediatorNotifications *)
	?SubscribeEvent@CMediatorEventConsumer@@QAEHVTUid@@0ABV?$RArray@VTEvent@MediatorService@@@@@Z @ 19 NONAME ; int CMediatorEventConsumer::SubscribeEvent(class TUid, class TUid, class RArray<class MediatorService::TEvent> const &)
	?SubscribeEvent@CMediatorEventConsumer@@QAEHVTUid@@0HVTVersion@@@Z @ 20 NONAME ; int CMediatorEventConsumer::SubscribeEvent(class TUid, class TUid, int, class TVersion)
	?UnregisterCommand@CMediatorCommandResponder@@QAEHVTUid@@0ABV?$RArray@VTCommand@MediatorService@@@@@Z @ 21 NONAME ; int CMediatorCommandResponder::UnregisterCommand(class TUid, class TUid, class RArray<class MediatorService::TCommand> const &)
	?UnregisterCommand@CMediatorCommandResponder@@QAEHVTUid@@0H@Z @ 22 NONAME ; int CMediatorCommandResponder::UnregisterCommand(class TUid, class TUid, int)
	?UnregisterEvent@CMediatorEventProvider@@QAEHVTUid@@0ABV?$RArray@VTEvent@MediatorService@@@@@Z @ 23 NONAME ; int CMediatorEventProvider::UnregisterEvent(class TUid, class TUid, class RArray<class MediatorService::TEvent> const &)
	?UnregisterEvent@CMediatorEventProvider@@QAEHVTUid@@0H@Z @ 24 NONAME ; int CMediatorEventProvider::UnregisterEvent(class TUid, class TUid, int)
	?UnregisterNotificationObserver@CMediatorNotifications@@QAEHXZ @ 25 NONAME ; int CMediatorNotifications::UnregisterNotificationObserver(void)
	?UnsubscribeEvent@CMediatorEventConsumer@@QAEHVTUid@@0ABV?$RArray@VTEvent@MediatorService@@@@@Z @ 26 NONAME ; int CMediatorEventConsumer::UnsubscribeEvent(class TUid, class TUid, class RArray<class MediatorService::TEvent> const &)
	?UnsubscribeEvent@CMediatorEventConsumer@@QAEHVTUid@@0H@Z @ 27 NONAME ; int CMediatorEventConsumer::UnsubscribeEvent(class TUid, class TUid, int)

