EXPORTS
	_Z10do_vgClearllll @ 1 NONAME
	_Z10do_vgFlushv @ 2 NONAME
	_Z10do_vgGetfv11VGParamTypelPf @ 3 NONAME
	_Z10do_vgGetiv11VGParamTypelPl @ 4 NONAME
	_Z10do_vgScaleff @ 5 NONAME
	_Z10do_vgSetfv11VGParamTypelPKf @ 6 NONAME
	_Z10do_vgSetiv11VGParamTypelPKl @ 7 NONAME
	_Z10do_vgShearff @ 8 NONAME
	_Z10do_vguLinemffff @ 9 NONAME
	_Z10do_vguRectmffff @ 10 NONAME
	_Z11do_vgFinishv @ 11 NONAME
	_Z11do_vgLookupmmPKhS0_S0_S0_9VGbooleanS1_ @ 12 NONAME
	_Z11do_vgRotatef @ 13 NONAME
	_Z12do_eglWaitGLv @ 14 NONAME
	_Z13do_eglBindAPIi @ 15 NONAME
	_Z13do_vgConvolvemmllllPKsff12VGTilingMode @ 16 NONAME
	_Z13do_vgCopyMaskmllllll @ 17 NONAME
	_Z13do_vgDrawPathmm @ 18 NONAME
	_Z13do_vgGetColorm @ 19 NONAME
	_Z13do_vgGetErrorv @ 20 NONAME
	_Z13do_vgGetPaint11VGPaintMode @ 21 NONAME
	_Z13do_vgSetColormm @ 22 NONAME
	_Z13do_vgSetPaintmm @ 23 NONAME
	_Z13do_vguEllipsemffff @ 24 NONAME
	_Z13do_vguPolygonmPKfl9VGboolean @ 25 NONAME
	_Z14do_eglGetErrorv @ 26 NONAME
	_Z14do_eglQueryAPIv @ 27 NONAME
	_Z14do_vgClearPathmm @ 28 NONAME
	_Z14do_vgCopyImagemllmllll9VGboolean @ 29 NONAME
	_Z14do_vgDrawGlyphmmm9VGboolean @ 30 NONAME
	_Z14do_vgDrawImagem @ 31 NONAME
	_Z14do_vgGetMatrixPf @ 32 NONAME
	_Z14do_vgGetParentm @ 33 NONAME
	_Z14do_vgGetPixelsmllllll @ 34 NONAME
	_Z14do_vgGetString10VGStringID @ 35 NONAME
	_Z14do_vgSetPixelsllmllll @ 36 NONAME
	_Z14do_vgTranslateff @ 37 NONAME
	_Z15do_eglTerminatei @ 38 NONAME
	_Z15do_vgAppendPathmm @ 39 NONAME
	_Z15do_vgChildImagemllll @ 40 NONAME
	_Z15do_vgClearGlyphmm @ 41 NONAME
	_Z15do_vgClearImagemllll @ 42 NONAME
	_Z15do_vgCopyPixelsllllll @ 43 NONAME
	_Z15do_vgCreateFontl @ 44 NONAME
	_Z15do_vgCreatePathl14VGPathDatatypeffllm @ 45 NONAME
	_Z15do_vgDrawGlyphsmlPKmPKfS2_m9VGboolean @ 46 NONAME
	_Z15do_vgLoadMatrixPKf @ 47 NONAME
	_Z15do_vgMultMatrixPKf @ 48 NONAME
	_Z15do_vgPathBoundsmPfS_S_S_ @ 49 NONAME
	_Z15do_vgPathLengthmll @ 50 NONAME
	_Z15do_vgReadPixelsPvl13VGImageFormatllll @ 51 NONAME
	_Z15do_vguRoundRectmffffff @ 52 NONAME
	_Z16do_eglGetConfigsiPiiS_ @ 53 NONAME
	_Z16do_eglGetDisplayi @ 54 NONAME
	_Z16do_eglInitializeiPiS_ @ 55 NONAME
	_Z16do_eglWaitClientv @ 56 NONAME
	_Z16do_eglWaitNativei @ 57 NONAME
	_Z16do_vgColorMatrixmmPKf @ 58 NONAME
	_Z16do_vgCreateImage13VGImageFormatllm @ 59 NONAME
	_Z16do_vgCreatePaintv @ 60 NONAME
	_Z16do_vgDestroyFontm @ 61 NONAME
	_Z16do_vgDestroyPathm @ 62 NONAME
	_Z16do_vgWritePixelsPKvl13VGImageFormatllll @ 63 NONAME
	_Z17do_eglCopyBuffersiiPv @ 64 NONAME
	_Z17do_eglMakeCurrentiiii @ 65 NONAME
	_Z17do_eglQueryStringii @ 66 NONAME
	_Z17do_eglSwapBuffersii @ 67 NONAME
	_Z17do_vgDestroyImagem @ 68 NONAME
	_Z17do_vgDestroyPaintm @ 69 NONAME
	_Z17do_vgGaussianBlurmmff12VGTilingMode @ 70 NONAME
	_Z17do_vgImageSubDatamPKvl13VGImageFormatllll @ 71 NONAME
	_Z17do_vgLoadIdentityv @ 72 NONAME
	_Z17do_vgLookupSinglemmPKm14VGImageChannel9VGbooleanS2_ @ 73 NONAME
	_Z17do_vgPaintPatternmm @ 74 NONAME
	_Z17do_vgRenderToMaskmm15VGMaskOperation @ 75 NONAME
	_Z18do_eglBindTexImageiii @ 76 NONAME
	_Z18do_eglChooseConfigiPKiPiiS1_ @ 77 NONAME
	_Z18do_eglQueryContextiiiPi @ 78 NONAME
	_Z18do_eglQuerySurfaceiiiPi @ 79 NONAME
	_Z18do_eglSwapIntervalii @ 80 NONAME
	_Z18do_vgFillMaskLayermllllf @ 81 NONAME
	_Z18do_vgGetParameterfml @ 82 NONAME
	_Z18do_vgGetParameteriml @ 83 NONAME
	_Z18do_vgGetVectorSize11VGParamType @ 84 NONAME
	_Z18do_vgHardwareQuery19VGHardwareQueryTypel @ 85 NONAME
	_Z18do_vgSetParameterfmlf @ 86 NONAME
	_Z18do_vgSetParameterimll @ 87 NONAME
	_Z18do_vgTransformPathmm @ 88 NONAME
	_Z19do_eglCreateContextiiiPKi @ 89 NONAME
	_Z19do_eglReleaseThreadv @ 90 NONAME
	_Z19do_eglSurfaceAttribiiii @ 91 NONAME
	_Z19do_vgAppendPathDatamlPKhPKv @ 92 NONAME
	_Z19do_vgGetParameterfvmllPf @ 93 NONAME
	_Z19do_vgGetParameterivmllPl @ 94 NONAME
	_Z19do_vgPointAlongPathmllfPfS_S_S_ @ 95 NONAME
	_Z19do_vgSetGlyphToPathmmm9VGbooleanPKfS1_ @ 96 NONAME
	_Z19do_vgSetParameterfvmllPKf @ 97 NONAME
	_Z19do_vgSetParameterivmllPKl @ 98 NONAME
	_Z20do_eglDestroyContextii @ 99 NONAME
	_Z20do_eglDestroySurfaceii @ 100 NONAME
	_Z20do_eglGetProcAddressPKc @ 101 NONAME
	_Z20do_vgCreateMaskLayerll @ 102 NONAME
	_Z20do_vgGetImageSubDatamPvl13VGImageFormatllll @ 103 NONAME
	_Z20do_vgInterpolatePathmmmf @ 104 NONAME
	_Z20do_vgSetGlyphToImagemmmPKfS0_ @ 105 NONAME
	_Z21do_eglGetConfigAttribiiiPi @ 106 NONAME
	_Z21do_eglReleaseTexImageiii @ 107 NONAME
	_Z21do_vgDestroyMaskLayerm @ 108 NONAME
	_Z21do_vgModifyPathCoordsmllPKv @ 109 NONAME
	_Z22do_vgSeparableConvolvemmllllPKsS0_ff12VGTilingMode @ 110 NONAME
	_Z23do_eglGetCurrentContextv @ 111 NONAME
	_Z23do_eglGetCurrentDisplayv @ 112 NONAME
	_Z23do_eglGetCurrentSurfacei @ 113 NONAME
	_Z24do_vgGetPathCapabilitiesm @ 114 NONAME
	_Z25do_eglCreatePixmapSurfaceiiPvPKi @ 115 NONAME
	_Z25do_eglCreateWindowSurfaceiiPvPKi @ 116 NONAME
	_Z26do_eglCreatePbufferSurfaceiiPKi @ 117 NONAME
	_Z26do_vgPathTransformedBoundsmPfS_S_S_ @ 118 NONAME
	_Z27do_vgGetParameterVectorSizeml @ 119 NONAME
	_Z27do_vgRemovePathCapabilitiesmm @ 120 NONAME
	_Z27do_vguComputeWarpQuadToQuadffffffffffffffffPf @ 121 NONAME
	_Z29do_vguComputeWarpQuadToSquareffffffffPf @ 122 NONAME
	_Z29do_vguComputeWarpSquareToQuadffffffffPf @ 123 NONAME
	_Z35do_eglCreatePbufferFromClientBufferiiiiPKi @ 124 NONAME
	_Z9do_vgGetf11VGParamType @ 125 NONAME
	_Z9do_vgGeti11VGParamType @ 126 NONAME
	_Z9do_vgMaskm15VGMaskOperationllll @ 127 NONAME
	_Z9do_vgSetf11VGParamTypef @ 128 NONAME
	_Z9do_vgSeti11VGParamTypel @ 129 NONAME
	_Z9do_vguArcmffffff10VGUArcType @ 130 NONAME

