EXPORTS
	_ZN19CHWRMHapticsService15ExecuteMessageLERK9RMessage2 @ 1 NONAME
	_ZN19CHWRMHapticsService4NewLEP25CHWRMHapticsPluginManagerP30CHWRMHapticsReservationHandlerR22CHWRMHapticsCommonDataRK9RMessage2 @ 2 NONAME
	_ZN22CHWRMHapticsCommonData4NewLEv @ 3 NONAME
	_ZN25CHWRMHapticsPluginManager4NewLER22CHWRMHapticsCommonDatai @ 4 NONAME
	_ZN30CHWRMHapticsReservationHandler4NewLERK7TDesC16 @ 5 NONAME
	_ZTI15CHWRMHapticsUid @ 6 NONAME ; #<TI>#
	_ZTI18CHWRMHapticsPolicy @ 7 NONAME ; #<TI>#
	_ZTI19CHWRMHapticsService @ 8 NONAME ; #<TI>#
	_ZTI22CHWRMHapticsCommonData @ 9 NONAME ; #<TI>#
	_ZTI24CHWRMHapticsGenericTimer @ 10 NONAME ; #<TI>#
	_ZTI25CHWRMHapticsPluginManager @ 11 NONAME ; #<TI>#
	_ZTI27CHWRMHapticsTransactionData @ 12 NONAME ; #<TI>#
	_ZTI29CHWRMHapticsPluginRequestData @ 13 NONAME ; #<TI>#
	_ZTI30CHWRMHapticsReservationHandler @ 14 NONAME ; #<TI>#
	_ZTI33CHWRMHapticsPluginTransactionList @ 15 NONAME ; #<TI>#
	_ZTI37CHWRMHapticsPluginTransactionListItem @ 16 NONAME ; #<TI>#
	_ZTIN18CHWRMHapticsPolicy13CPolicyClientE @ 17 NONAME ; #<TI>#
	_ZTV15CHWRMHapticsUid @ 18 NONAME ; #<VT>#
	_ZTV18CHWRMHapticsPolicy @ 19 NONAME ; #<VT>#
	_ZTV19CHWRMHapticsService @ 20 NONAME ; #<VT>#
	_ZTV22CHWRMHapticsCommonData @ 21 NONAME ; #<VT>#
	_ZTV24CHWRMHapticsGenericTimer @ 22 NONAME ; #<VT>#
	_ZTV25CHWRMHapticsPluginManager @ 23 NONAME ; #<VT>#
	_ZTV27CHWRMHapticsTransactionData @ 24 NONAME ; #<VT>#
	_ZTV29CHWRMHapticsPluginRequestData @ 25 NONAME ; #<VT>#
	_ZTV30CHWRMHapticsReservationHandler @ 26 NONAME ; #<VT>#
	_ZTV33CHWRMHapticsPluginTransactionList @ 27 NONAME ; #<VT>#
	_ZTV37CHWRMHapticsPluginTransactionListItem @ 28 NONAME ; #<VT>#
	_ZTVN18CHWRMHapticsPolicy13CPolicyClientE @ 29 NONAME ; #<VT>#

