EXPORTS
	_ZN12CLbsWlanInfo13SetMacAddressERK6TDesC8 @ 1 NONAME
	_ZN12CLbsWlanInfo17SetSignalStrengthEi @ 2 NONAME
	_ZN12CLbsWlanInfo4NewLERK5TBuf8ILi18EEi @ 3 NONAME
	_ZN12CLbsWlanInfo4NewLEv @ 4 NONAME
	_ZN12CLbsWlanInfoD0Ev @ 5 NONAME
	_ZN12CLbsWlanInfoD1Ev @ 6 NONAME
	_ZN12CLbsWlanInfoD2Ev @ 7 NONAME
	_ZN15CLbsGsmCellInfo10SetRxLevelEi @ 8 NONAME
	_ZN15CLbsGsmCellInfo16SetTimingAdvanceEi @ 9 NONAME
	_ZN15CLbsGsmCellInfo19SetLocationAreaCodeEi @ 10 NONAME
	_ZN15CLbsGsmCellInfo20SetMobileCountryCodeEi @ 11 NONAME
	_ZN15CLbsGsmCellInfo20SetMobileNetworkCodeEi @ 12 NONAME
	_ZN15CLbsGsmCellInfo24AddNeighbouringCellInfoLEP24TLbsGsmNeighbourCellInfo @ 13 NONAME
	_ZN15CLbsGsmCellInfo25ResetNeighbouringCellInfoEv @ 14 NONAME
	_ZN15CLbsGsmCellInfo4NewLEiiii @ 15 NONAME
	_ZN15CLbsGsmCellInfo4NewLEv @ 16 NONAME
	_ZN15CLbsGsmCellInfo9SetCellIdEi @ 17 NONAME
	_ZN15CLbsGsmCellInfoD0Ev @ 18 NONAME
	_ZN15CLbsGsmCellInfoD1Ev @ 19 NONAME
	_ZN15CLbsGsmCellInfoD2Ev @ 20 NONAME
	_ZN16CLbsAreaInfoBase12ExternaliseLER12RWriteStream @ 21 NONAME
	_ZN16CLbsAreaInfoBase12InternaliseLER11RReadStream @ 22 NONAME
	_ZN16CLbsAreaInfoBase4TypeEv @ 23 NONAME
	_ZN16CLbsAreaInfoBaseD0Ev @ 24 NONAME
	_ZN16CLbsAreaInfoBaseD1Ev @ 25 NONAME
	_ZN16CLbsAreaInfoBaseD2Ev @ 26 NONAME
	_ZN16CLbsLocationInfo12AddAreaInfoLEP16CLbsAreaInfoBase @ 27 NONAME
	_ZN16CLbsLocationInfo12GetAreaInfoLER13RPointerArrayI16CLbsAreaInfoBaseEm @ 28 NONAME
	_ZN16CLbsLocationInfo13ResetAreaInfoEm @ 29 NONAME
	_ZN16CLbsLocationInfo4NewLEv @ 30 NONAME
	_ZN16CLbsLocationInfo4TypeEv @ 31 NONAME
	_ZN16CLbsLocationInfo5NewLCEv @ 32 NONAME
	_ZN16CLbsLocationInfoD0Ev @ 33 NONAME
	_ZN16CLbsLocationInfoD1Ev @ 34 NONAME
	_ZN16CLbsLocationInfoD2Ev @ 35 NONAME
	_ZN16CLbsPositionInfo11SetLocalityERK9TLocality @ 36 NONAME
	_ZN16CLbsPositionInfo4NewLERK9TLocality @ 37 NONAME
	_ZN16CLbsPositionInfo4NewLEv @ 38 NONAME
	_ZN16CLbsPositionInfoD0Ev @ 39 NONAME
	_ZN16CLbsPositionInfoD1Ev @ 40 NONAME
	_ZN16CLbsPositionInfoD2Ev @ 41 NONAME
	_ZN17CLbsWcdmaCellInfo15SetUniqueCellIdEi @ 42 NONAME
	_ZN17CLbsWcdmaCellInfo17SetScramblingCodeEi @ 43 NONAME
	_ZN17CLbsWcdmaCellInfo20SetMobileCountryCodeEi @ 44 NONAME
	_ZN17CLbsWcdmaCellInfo20SetMobileNetworkCodeEi @ 45 NONAME
	_ZN17CLbsWcdmaCellInfo24AddNeighbouringCellInfoLEP26TLbsWcdmaNeighbourCellInfo @ 46 NONAME
	_ZN17CLbsWcdmaCellInfo25ResetNeighbouringCellInfoEv @ 47 NONAME
	_ZN17CLbsWcdmaCellInfo4NewLEiii @ 48 NONAME
	_ZN17CLbsWcdmaCellInfo4NewLEv @ 49 NONAME
	_ZN17CLbsWcdmaCellInfoD0Ev @ 50 NONAME
	_ZN17CLbsWcdmaCellInfoD1Ev @ 51 NONAME
	_ZN17CLbsWcdmaCellInfoD2Ev @ 52 NONAME
	_ZN20CLbsLocationInfoBase12InternaliseLER11RReadStream @ 53 NONAME
	_ZN20CLbsLocationInfoBase4TypeEv @ 54 NONAME
	_ZN20CLbsLocationInfoBaseD0Ev @ 55 NONAME
	_ZN20CLbsLocationInfoBaseD1Ev @ 56 NONAME
	_ZN20CLbsLocationInfoBaseD2Ev @ 57 NONAME
	_ZN24TLbsGsmNeighbourCellInfo10SetRxLevelEi @ 58 NONAME
	_ZN24TLbsGsmNeighbourCellInfo7SetBsicEi @ 59 NONAME
	_ZN24TLbsGsmNeighbourCellInfo8SetArfcnEi @ 60 NONAME
	_ZN24TLbsGsmNeighbourCellInfoC1Eiii @ 61 NONAME
	_ZN24TLbsGsmNeighbourCellInfoC1Ev @ 62 NONAME
	_ZN24TLbsGsmNeighbourCellInfoC2Eiii @ 63 NONAME
	_ZN24TLbsGsmNeighbourCellInfoC2Ev @ 64 NONAME
	_ZN26TLbsWcdmaNeighbourCellInfo11SetPathlossEi @ 65 NONAME
	_ZN26TLbsWcdmaNeighbourCellInfo15SetUniqueCellIdEi @ 66 NONAME
	_ZN26TLbsWcdmaNeighbourCellInfo17SetScramblingCodeEi @ 67 NONAME
	_ZN26TLbsWcdmaNeighbourCellInfo17SetSignalStrengthEi @ 68 NONAME
	_ZN26TLbsWcdmaNeighbourCellInfoC1Eiiii @ 69 NONAME
	_ZN26TLbsWcdmaNeighbourCellInfoC1Ev @ 70 NONAME
	_ZN26TLbsWcdmaNeighbourCellInfoC2Eiiii @ 71 NONAME
	_ZN26TLbsWcdmaNeighbourCellInfoC2Ev @ 72 NONAME
	_ZNK12CLbsWlanInfo13GetMacAddressER5TDes8 @ 73 NONAME
	_ZNK12CLbsWlanInfo14SignalStrengthEv @ 74 NONAME
	_ZNK15CLbsGsmCellInfo13TimingAdvanceEv @ 75 NONAME
	_ZNK15CLbsGsmCellInfo16LocationAreaCodeEv @ 76 NONAME
	_ZNK15CLbsGsmCellInfo17MobileCountryCodeEv @ 77 NONAME
	_ZNK15CLbsGsmCellInfo17MobileNetworkCodeEv @ 78 NONAME
	_ZNK15CLbsGsmCellInfo24GetNeighbouringCellInfoLER6RArrayI24TLbsGsmNeighbourCellInfoE @ 79 NONAME
	_ZNK15CLbsGsmCellInfo6CellIdEv @ 80 NONAME
	_ZNK15CLbsGsmCellInfo7RxLevelEv @ 81 NONAME
	_ZNK16CLbsPositionInfo11GetLocalityER9TLocality @ 82 NONAME
	_ZNK17CLbsWcdmaCellInfo12UniqueCellIdEv @ 83 NONAME
	_ZNK17CLbsWcdmaCellInfo14ScramblingCodeEv @ 84 NONAME
	_ZNK17CLbsWcdmaCellInfo17MobileCountryCodeEv @ 85 NONAME
	_ZNK17CLbsWcdmaCellInfo17MobileNetworkCodeEv @ 86 NONAME
	_ZNK17CLbsWcdmaCellInfo24GetNeighbouringCellInfoLER6RArrayI26TLbsWcdmaNeighbourCellInfoE @ 87 NONAME
	_ZNK20CLbsLocationInfoBase12ExternaliseLER12RWriteStream @ 88 NONAME
	_ZNK24TLbsGsmNeighbourCellInfo4BsicEv @ 89 NONAME
	_ZNK24TLbsGsmNeighbourCellInfo5ArfcnEv @ 90 NONAME
	_ZNK24TLbsGsmNeighbourCellInfo7RxLevelEv @ 91 NONAME
	_ZNK26TLbsWcdmaNeighbourCellInfo12UniqueCellIdEv @ 92 NONAME
	_ZNK26TLbsWcdmaNeighbourCellInfo14ScramblingCodeEv @ 93 NONAME
	_ZNK26TLbsWcdmaNeighbourCellInfo14SignalStrengthEv @ 94 NONAME
	_ZNK26TLbsWcdmaNeighbourCellInfo8PathlossEv @ 95 NONAME
	_ZN12CLbsWlanInfo4NewLERKS_ @ 96 NONAME
	_ZN15CLbsGsmCellInfo4NewLERKS_ @ 97 NONAME
	_ZN16CLbsPositionInfo4NewLERKS_ @ 98 NONAME
	_ZN17CLbsWcdmaCellInfo4NewLERKS_ @ 99 NONAME
	_ZN17CLbsWcdmaCellInfo17SetSignalStrengthEi @ 100 NONAME
	_ZNK17CLbsWcdmaCellInfo14SignalStrengthEv @ 101 NONAME
	_ZN17CLbsWcdmaCellInfo16SetLocalAreaCodeEi @ 102 NONAME
	_ZN17CLbsWcdmaCellInfo4NewLEiiii @ 103 NONAME
	_ZNK17CLbsWcdmaCellInfo13LocalAreaCodeEv @ 104 NONAME

