EXPORTS
	_ZN15CDosEventSender10FaxMessageEi @ 1 NONAME
	_ZN15CDosEventSender10SimChangedEi @ 2 NONAME
	_ZN15CDosEventSender12EmailMessageEi @ 3 NONAME
	_ZN15CDosEventSender12GeneralEventElPvi @ 4 NONAME
	_ZN15CDosEventSender12PhonePowerOnEv @ 5 NONAME
	_ZN15CDosEventSender12SecurityCodeE21EPSSecurityCodeStatus @ 6 NONAME
	_ZN15CDosEventSender13SimLockStatusE16EPSSimLockStatus @ 7 NONAME
	_ZN15CDosEventSender15VoiceMailStatusE18EPSVoiceMailStatus @ 8 NONAME
	_ZN15CDosEventSender20NotifySelfTestStatusEi @ 9 NONAME
	_ZN15CDosEventSender21CallsForwardingStatusE24EPSCallsForwardingStatus @ 10 NONAME
	_ZN15CDosEventSender21CurrentSimOwnedStatusE27EPSCurrentSimOwnedSimStatus @ 11 NONAME
	_ZN15CDosEventSender22DoMtcInitiatedShutdownEv @ 12 NONAME
	_ZN15CDosEventSender23SimPresentStateChangedLE19TDosSimPresentState @ 13 NONAME
	_ZN15CDosEventSender23SmsStorageStatusChangedE20TDosSmsStorageStatus @ 14 NONAME
	_ZN15CDosEventSender4NewLER10RDosServer @ 15 NONAME
	_ZN15CDosEventSender4NewLEv @ 16 NONAME
	_ZN15CDosEventSender8SimReadyE17EPSSimReadyStatus @ 17 NONAME
	_ZN15CDosEventSender8SimStateE12TDosSimState @ 18 NONAME
	_ZN15CDosEventSenderD0Ev @ 19 NONAME
	_ZN15CDosEventSenderD1Ev @ 20 NONAME
	_ZN15CDosEventSenderD2Ev @ 21 NONAME
	_ZTI15CDosEventSender @ 22 NONAME ; #<TI>#
	_ZTV15CDosEventSender @ 23 NONAME ; #<VT>#

