EXPORTS
	_ZN24CTempEnvironmentalReverb4NewLEP20CEnvironmentalReverb @ 1 NONAME
	_ZN24CTempEnvironmentalReverb6ApplyLEv @ 2 NONAME
	_ZN27CEnvironmentalReverbUtility10GetPresetLEi @ 3 NONAME
	_ZN27CEnvironmentalReverbUtility12ApplyPresetLEi @ 4 NONAME
	_ZN27CEnvironmentalReverbUtility12ResetPresetLEi @ 5 NONAME
	_ZN27CEnvironmentalReverbUtility13CreatePresetLER7TDesC16R20CEnvironmentalReverb @ 6 NONAME
	_ZN27CEnvironmentalReverbUtility13DeletePresetLEi @ 7 NONAME
	_ZN27CEnvironmentalReverbUtility13ModifyPresetLEiR7TDesC16R20CEnvironmentalReverb @ 8 NONAME
	_ZN27CEnvironmentalReverbUtility19EnvironmentalReverbEv @ 9 NONAME
	_ZN27CEnvironmentalReverbUtility27DisableEnvironmentalReverbLEv @ 10 NONAME
	_ZN27CEnvironmentalReverbUtility4NewLEP21CCustomCommandUtility @ 11 NONAME
	_ZN27CEnvironmentalReverbUtility4NewLER12CMMFDevSound @ 12 NONAME
	_ZN27CEnvironmentalReverbUtility4NewLER16MCustomInterface @ 13 NONAME
	_ZN27CEnvironmentalReverbUtility4NewLER20CMdaAudioInputStream @ 14 NONAME
	_ZN27CEnvironmentalReverbUtility4NewLER20CMdaAudioToneUtility @ 15 NONAME
	_ZN27CEnvironmentalReverbUtility4NewLER21CMdaAudioOutputStream @ 16 NONAME
	_ZN27CEnvironmentalReverbUtility4NewLER22CMdaAudioPlayerUtility @ 17 NONAME
	_ZN27CEnvironmentalReverbUtility4NewLER23CMdaAudioConvertUtility @ 18 NONAME
	_ZN27CEnvironmentalReverbUtility4NewLER24CMdaAudioRecorderUtility @ 19 NONAME
	_ZN27CEnvironmentalReverbUtility7PresetsEv @ 20 NONAME
	_ZNK27CEnvironmentalReverbUtility25NumberOfPreDefinedPresetsEv @ 21 NONAME
	_ZTI24CTempEnvironmentalReverb @ 22 NONAME ; #<TI>#
	_ZTI27CEnvironmentalReverbUtility @ 23 NONAME ; #<TI>#
	_ZTV24CTempEnvironmentalReverb @ 24 NONAME ; #<VT>#
	_ZTV27CEnvironmentalReverbUtility @ 25 NONAME ; #<VT>#
	_ZN27CEnvironmentalReverbUtility4NewLER18CMidiClientUtility @ 26 NONAME
	_ZN24CTempEnvironmentalReverb7EnableLEv @ 27 NONAME
	_ZN24CTempEnvironmentalReverb8DisableLEv @ 28 NONAME
	_ZNK24CTempEnvironmentalReverb10IsEnforcedEv @ 29 NONAME
	_ZNK24CTempEnvironmentalReverb9IsEnabledEv @ 30 NONAME
	_ZN24CTempEnvironmentalReverb8EnforceLEi @ 31 NONAME
	_ZNK24CTempEnvironmentalReverb16HaveUpdateRightsEv @ 32 NONAME
	_ZN27CEnvironmentalReverbUtility4NewLER17CDrmPlayerUtility @ 33 NONAME
	_ZN27CEnvironmentalReverbUtility4NewLER19CVideoPlayerUtility @ 34 NONAME

