EXPORTS
	_Z22NewTestSuiteRootServerv @ 1 NONAME ; NewTestSuiteRootServer(void)
	_ZTI18CRootServerTest1_1 @ 2 NONAME ; #<TI>#
	_ZTI18CRootServerTest1_2 @ 3 NONAME ; #<TI>#
	_ZTI18CRootServerTest2_1 @ 4 NONAME ; #<TI>#
	_ZTI18CRootServerTest2_2 @ 5 NONAME ; #<TI>#
	_ZTI18CRootServerTest2_3 @ 6 NONAME ; #<TI>#
	_ZTI18CRootServerTest3_2 @ 7 NONAME ; #<TI>#
	_ZTI18CRootServerTest3_3 @ 8 NONAME ; #<TI>#
	_ZTI18CRootServerTest3_4 @ 9 NONAME ; #<TI>#
	_ZTI18CRootServerTest3_5 @ 10 NONAME ; #<TI>#
	_ZTI18CRootServerTest3_6 @ 11 NONAME ; #<TI>#
	_ZTI18CRootServerTest3_7 @ 12 NONAME ; #<TI>#
	_ZTI18CRootServerTest3_8 @ 13 NONAME ; #<TI>#
	_ZTI18CRootServerTest3_9 @ 14 NONAME ; #<TI>#
	_ZTI18CRootServerTest4_1 @ 15 NONAME ; #<TI>#
	_ZTI18CRootServerTest5_1 @ 16 NONAME ; #<TI>#
	_ZTI18CRootServerTest5_2 @ 17 NONAME ; #<TI>#
	_ZTI18CRootServerTest5_3 @ 18 NONAME ; #<TI>#
	_ZTI18CRootServerTest5_4 @ 19 NONAME ; #<TI>#
	_ZTI18CRootServerTest5_5 @ 20 NONAME ; #<TI>#
	_ZTI18CRootServerTest5_6 @ 21 NONAME ; #<TI>#
	_ZTI18CRootServerTest5_7 @ 22 NONAME ; #<TI>#
	_ZTI18CRootServerTest5_8 @ 23 NONAME ; #<TI>#
	_ZTI18CRootServerTest6_1 @ 24 NONAME ; #<TI>#
	_ZTI18CRootServerTest6_2 @ 25 NONAME ; #<TI>#
	_ZTI18CRootServerTest6_3 @ 26 NONAME ; #<TI>#
	_ZTI18CRootServerTest6_4 @ 27 NONAME ; #<TI>#
	_ZTI18CRootServerTest6_5 @ 28 NONAME ; #<TI>#
	_ZTI18CRootServerTest6_6 @ 29 NONAME ; #<TI>#
	_ZTI18CRootServerTest6_7 @ 30 NONAME ; #<TI>#
	_ZTI18CRootServerTest6_8 @ 31 NONAME ; #<TI>#
	_ZTI18CRootServerTest6_9 @ 32 NONAME ; #<TI>#
	_ZTI18CRootServerTest7_1 @ 33 NONAME ; #<TI>#
	_ZTI18CRootServerTest7_2 @ 34 NONAME ; #<TI>#
	_ZTI18CRootServerTest7_3 @ 35 NONAME ; #<TI>#
	_ZTI18CRootServerTest7_4 @ 36 NONAME ; #<TI>#
	_ZTI18CTestAsynchHandler @ 37 NONAME ; #<TI>#
	_ZTI19CRootServerTest3_10 @ 38 NONAME ; #<TI>#
	_ZTI19CRootServerTest3_11 @ 39 NONAME ; #<TI>#
	_ZTI19CRootServerTest3_12 @ 40 NONAME ; #<TI>#
	_ZTI19CRootServerTest3_13 @ 41 NONAME ; #<TI>#
	_ZTI19CRootServerTest3_14 @ 42 NONAME ; #<TI>#
	_ZTI19CRootServerTest3_15 @ 43 NONAME ; #<TI>#
	_ZTI19CRootServerTest3_16 @ 44 NONAME ; #<TI>#
	_ZTI19CRootServerTest3_17 @ 45 NONAME ; #<TI>#
	_ZTI19CRootServerTest3_18 @ 46 NONAME ; #<TI>#
	_ZTI19CRootServerTest6_10 @ 47 NONAME ; #<TI>#
	_ZTI19CRootServerTest6_11 @ 48 NONAME ; #<TI>#
	_ZTI19CRootServerTest6_12 @ 49 NONAME ; #<TI>#
	_ZTI19CRootServerTest6_13 @ 50 NONAME ; #<TI>#
	_ZTI19CRootServerTest6_14 @ 51 NONAME ; #<TI>#
	_ZTI19CRootServerTest6_15 @ 52 NONAME ; #<TI>#
	_ZTI19CRootServerTest6_16 @ 53 NONAME ; #<TI>#
	_ZTI19CTestStepRootServer @ 54 NONAME ; #<TI>#
	_ZTI20CTestSuiteRootServer @ 55 NONAME ; #<TI>#
	_ZTV18CRootServerTest1_1 @ 56 NONAME ; #<VT>#
	_ZTV18CRootServerTest1_2 @ 57 NONAME ; #<VT>#
	_ZTV18CRootServerTest2_1 @ 58 NONAME ; #<VT>#
	_ZTV18CRootServerTest2_2 @ 59 NONAME ; #<VT>#
	_ZTV18CRootServerTest2_3 @ 60 NONAME ; #<VT>#
	_ZTV18CRootServerTest3_2 @ 61 NONAME ; #<VT>#
	_ZTV18CRootServerTest3_3 @ 62 NONAME ; #<VT>#
	_ZTV18CRootServerTest3_4 @ 63 NONAME ; #<VT>#
	_ZTV18CRootServerTest3_5 @ 64 NONAME ; #<VT>#
	_ZTV18CRootServerTest3_6 @ 65 NONAME ; #<VT>#
	_ZTV18CRootServerTest3_7 @ 66 NONAME ; #<VT>#
	_ZTV18CRootServerTest3_8 @ 67 NONAME ; #<VT>#
	_ZTV18CRootServerTest3_9 @ 68 NONAME ; #<VT>#
	_ZTV18CRootServerTest4_1 @ 69 NONAME ; #<VT>#
	_ZTV18CRootServerTest5_1 @ 70 NONAME ; #<VT>#
	_ZTV18CRootServerTest5_2 @ 71 NONAME ; #<VT>#
	_ZTV18CRootServerTest5_3 @ 72 NONAME ; #<VT>#
	_ZTV18CRootServerTest5_4 @ 73 NONAME ; #<VT>#
	_ZTV18CRootServerTest5_5 @ 74 NONAME ; #<VT>#
	_ZTV18CRootServerTest5_6 @ 75 NONAME ; #<VT>#
	_ZTV18CRootServerTest5_7 @ 76 NONAME ; #<VT>#
	_ZTV18CRootServerTest5_8 @ 77 NONAME ; #<VT>#
	_ZTV18CRootServerTest6_1 @ 78 NONAME ; #<VT>#
	_ZTV18CRootServerTest6_2 @ 79 NONAME ; #<VT>#
	_ZTV18CRootServerTest6_3 @ 80 NONAME ; #<VT>#
	_ZTV18CRootServerTest6_4 @ 81 NONAME ; #<VT>#
	_ZTV18CRootServerTest6_5 @ 82 NONAME ; #<VT>#
	_ZTV18CRootServerTest6_6 @ 83 NONAME ; #<VT>#
	_ZTV18CRootServerTest6_7 @ 84 NONAME ; #<VT>#
	_ZTV18CRootServerTest6_8 @ 85 NONAME ; #<VT>#
	_ZTV18CRootServerTest6_9 @ 86 NONAME ; #<VT>#
	_ZTV18CRootServerTest7_1 @ 87 NONAME ; #<VT>#
	_ZTV18CRootServerTest7_2 @ 88 NONAME ; #<VT>#
	_ZTV18CRootServerTest7_3 @ 89 NONAME ; #<VT>#
	_ZTV18CRootServerTest7_4 @ 90 NONAME ; #<VT>#
	_ZTV18CTestAsynchHandler @ 91 NONAME ; #<VT>#
	_ZTV19CRootServerTest3_10 @ 92 NONAME ; #<VT>#
	_ZTV19CRootServerTest3_11 @ 93 NONAME ; #<VT>#
	_ZTV19CRootServerTest3_12 @ 94 NONAME ; #<VT>#
	_ZTV19CRootServerTest3_13 @ 95 NONAME ; #<VT>#
	_ZTV19CRootServerTest3_14 @ 96 NONAME ; #<VT>#
	_ZTV19CRootServerTest3_15 @ 97 NONAME ; #<VT>#
	_ZTV19CRootServerTest3_16 @ 98 NONAME ; #<VT>#
	_ZTV19CRootServerTest3_17 @ 99 NONAME ; #<VT>#
	_ZTV19CRootServerTest3_18 @ 100 NONAME ; #<VT>#
	_ZTV19CRootServerTest6_10 @ 101 NONAME ; #<VT>#
	_ZTV19CRootServerTest6_11 @ 102 NONAME ; #<VT>#
	_ZTV19CRootServerTest6_12 @ 103 NONAME ; #<VT>#
	_ZTV19CRootServerTest6_13 @ 104 NONAME ; #<VT>#
	_ZTV19CRootServerTest6_14 @ 105 NONAME ; #<VT>#
	_ZTV19CRootServerTest6_15 @ 106 NONAME ; #<VT>#
	_ZTV19CRootServerTest6_16 @ 107 NONAME ; #<VT>#
	_ZTV19CTestStepRootServer @ 108 NONAME ; #<VT>#
	_ZTV20CTestSuiteRootServer @ 109 NONAME ; #<VT>#
	_ZTI18CRootServerTest8_1 @ 110 NONAME ; #<TI>#
	_ZTV18CRootServerTest8_1 @ 111 NONAME ; #<VT>#


