EXPORTS
	??0CCallBase@@QAE@XZ @ 1 NONAME ; public: __thiscall CCallBase::CCallBase(void)
	??0CFaxBase@@QAE@XZ @ 2 NONAME ; public: __thiscall CFaxBase::CFaxBase(void)
	??0CLineBase@@QAE@XZ @ 3 NONAME ; public: __thiscall CLineBase::CLineBase(void)
	??0CPhoneBase@@QAE@XZ @ 4 NONAME ; public: __thiscall CPhoneBase::CPhoneBase(void)
	??0CPhoneFactoryBase@@QAE@XZ @ 5 NONAME ; public: __thiscall CPhoneFactoryBase::CPhoneFactoryBase(void)
	??0CSubSessionExtBase@@QAE@XZ @ 6 NONAME ; public: __thiscall CSubSessionExtBase::CSubSessionExtBase(void)
	??0CTelObject@@QAE@XZ @ 7 NONAME ; public: __thiscall CTelObject::CTelObject(void)
	??0RCall@@QAE@XZ @ 8 NONAME ; public: __thiscall RCall::RCall(void)
	??0RFax@@QAE@XZ @ 9 NONAME ; public: __thiscall RFax::RFax(void)
	??0RLine@@QAE@XZ @ 10 NONAME ; public: __thiscall RLine::RLine(void)
	??0RPhone@@QAE@XZ @ 11 NONAME ; public: __thiscall RPhone::RPhone(void)
	??0RTelServer@@QAE@XZ @ 12 NONAME ; public: __thiscall RTelServer::RTelServer(void)
	?Write@RFax@@QAEXAAVTRequestStatus@@ABVTDesC8@@@Z @ 13 NONAME ; public: void __thiscall RFax::Write(class TRequestStatus &,class TDesC8 const &)
	??0RTelSubSessionBase@@IAE@XZ @ 14 NONAME ; protected: __thiscall RTelSubSessionBase::RTelSubSessionBase(void)
	??0TCallInfo@RCall@@QAE@XZ @ 15 NONAME ; public: __thiscall RCall::TCallInfo::TCallInfo(void)
	??0TCallParams@RCall@@QAE@W4TMonitorSpeakerControl@1@W4TMonitorSpeakerVolume@1@IW4TWaitForDialTone@1@@Z @ 16 NONAME ; public: __thiscall RCall::TCallParams::TCallParams(enum TCallParams::TMonitorSpeakerControl,enum TCallParams::TMonitorSpeakerVolume,unsigned int,enum TCallParams::TWaitForDialTone)
	??0TCallParams@RCall@@QAE@XZ @ 17 NONAME ; public: __thiscall RCall::TCallParams::TCallParams(void)
	??0TLineInfo@RLine@@QAE@XZ @ 18 NONAME ; public: __thiscall RLine::TLineInfo::TLineInfo(void)
	??0TPhoneInfo@RPhone@@QAE@XZ @ 19 NONAME ; public: __thiscall RPhone::TPhoneInfo::TPhoneInfo(void)
	??1CCallBase@@UAE@XZ @ 20 NONAME ; public: virtual __thiscall CCallBase::~CCallBase(void)
	??1CFaxBase@@UAE@XZ @ 21 NONAME ; public: virtual __thiscall CFaxBase::~CFaxBase(void)
	??1CLineBase@@UAE@XZ @ 22 NONAME ; public: virtual __thiscall CLineBase::~CLineBase(void)
	??1CPhoneBase@@UAE@XZ @ 23 NONAME ; public: virtual __thiscall CPhoneBase::~CPhoneBase(void)
	??1CPhoneFactoryBase@@UAE@XZ @ 24 NONAME ; public: virtual __thiscall CPhoneFactoryBase::~CPhoneFactoryBase(void)
	??1CSubSessionExtBase@@UAE@XZ @ 25 NONAME ; public: virtual __thiscall CSubSessionExtBase::~CSubSessionExtBase(void)
	??1CTelObject@@UAE@XZ @ 26 NONAME ; public: virtual __thiscall CTelObject::~CTelObject(void)
	?AcquireOwnership@RCall@@QBEXAAVTRequestStatus@@@Z @ 27 NONAME ; public: void __thiscall RCall::AcquireOwnership(class TRequestStatus &)const 
	?AcquireOwnershipCancel@RCall@@QBEXXZ @ 28 NONAME ; public: void __thiscall RCall::AcquireOwnershipCancel(void)const 
	?AnswerIncomingCall@RCall@@QAEXAAVTRequestStatus@@@Z @ 29 NONAME ; public: void __thiscall RCall::AnswerIncomingCall(class TRequestStatus &)
	?AnswerIncomingCall@RCall@@QAEXAAVTRequestStatus@@ABVTDesC8@@@Z @ 30 NONAME ; public: void __thiscall RCall::AnswerIncomingCall(class TRequestStatus &,class TDesC8 const &)
	?AnswerIncomingCall@RCall@@QBEHABVTDesC8@@@Z @ 31 NONAME ; public: int __thiscall RCall::AnswerIncomingCall(class TDesC8 const &)const 
	?AnswerIncomingCall@RCall@@QBEHXZ @ 32 NONAME ; public: int __thiscall RCall::AnswerIncomingCall(void)const 
	?AnswerIncomingCallCancel@RCall@@QBEXXZ @ 33 NONAME ; public: void __thiscall RCall::AnswerIncomingCallCancel(void)const 
	?Blank@RTelSubSessionBase@@IBEHHW4TReqPriorityType@1@@Z @ 34 NONAME ; protected: int __thiscall RTelSubSessionBase::Blank(int,enum RTelSubSessionBase::TReqPriorityType)const 
	?Blank@RTelSubSessionBase@@IBEXHAAVTRequestStatus@@W4TReqPriorityType@1@@Z @ 35 NONAME ; protected: void __thiscall RTelSubSessionBase::Blank(int,class TRequestStatus &,enum RTelSubSessionBase::TReqPriorityType)const 
	?CancelReq@RTelSubSessionBase@@IBEHHH@Z @ 36 NONAME ; protected: int __thiscall RTelSubSessionBase::CancelReq(int,int)const 
	?CancelService@CCallBase@@UAEHHK@Z @ 37 NONAME ; public: virtual int __thiscall CCallBase::CancelService(int,unsigned long)
	?CancelService@CFaxBase@@UAEHHK@Z @ 38 NONAME ; public: virtual int __thiscall CFaxBase::CancelService(int,unsigned long)
	?CancelService@CLineBase@@UAEHHK@Z @ 39 NONAME ; public: virtual int __thiscall CLineBase::CancelService(int,unsigned long)
	?CancelService@CPhoneBase@@UAEHHK@Z @ 40 NONAME ; public: virtual int __thiscall CPhoneBase::CancelService(int,unsigned long)
	?CancelSubSession@RTelSubSessionBase@@IBEHXZ @ 41 NONAME ; protected: int __thiscall RTelSubSessionBase::CancelSubSession(void)const 
	?CheckOwnership@CCallBase@@UBE?AW4TCallOwnership@MCallBaseTSY@@K@Z @ 42 NONAME ; public: virtual enum MCallBaseTSY::TCallOwnership  __thiscall CCallBase::CheckOwnership(unsigned long)const 
	?CheckOwnershipBySession@CCallBase@@ABE?AW4TOwnershipStatus@RCall@@PAVCTelSession@@H@Z @ 43 NONAME ; private: enum RCall::TOwnershipStatus  __thiscall CCallBase::CheckOwnershipBySession(class CTelSession *,int)const 
	?CheckPriorityClient@CCallBase@@UBEHK@Z @ 44 NONAME ; public: virtual int __thiscall CCallBase::CheckPriorityClient(unsigned long)const 
	?Close@RCall@@QAEXXZ @ 45 NONAME ; public: void __thiscall RCall::Close(void)
	?Close@RFax@@QAEXXZ @ 46 NONAME ; public: void __thiscall RFax::Close(void)
	?Close@RLine@@QAEXXZ @ 47 NONAME ; public: void __thiscall RLine::Close(void)
	?Close@RPhone@@QAEXXZ @ 48 NONAME ; public: void __thiscall RPhone::Close(void)
	?CloseSubSessionPreProcessing@CCallBase@@EAEXPAVCTelSession@@H@Z @ 49 NONAME ; private: virtual void __thiscall CCallBase::CloseSubSessionPreProcessing(class CTelSession *,int)
	?CloseSubSessionPreProcessing@CFaxBase@@EAEXPAVCTelSession@@H@Z @ 50 NONAME ; private: virtual void __thiscall CFaxBase::CloseSubSessionPreProcessing(class CTelSession *,int)
	?CloseSubSessionPreProcessing@CLineBase@@EAEXPAVCTelSession@@H@Z @ 51 NONAME ; private: virtual void __thiscall CLineBase::CloseSubSessionPreProcessing(class CTelSession *,int)
	?CloseSubSessionPreProcessing@CPhoneBase@@EAEXPAVCTelSession@@H@Z @ 52 NONAME ; private: virtual void __thiscall CPhoneBase::CloseSubSessionPreProcessing(class CTelSession *,int)
	?CloseSubSessionPreProcessing@CSubSessionExtBase@@MAEXPAVCTelSession@@H@Z @ 53 NONAME ; protected: virtual void __thiscall CSubSessionExtBase::CloseSubSessionPreProcessing(class CTelSession *,int)
	?Connect@RCall@@QAEXAAVTRequestStatus@@@Z @ 54 NONAME ; public: void __thiscall RCall::Connect(class TRequestStatus &)
	?Connect@RCall@@QAEXAAVTRequestStatus@@ABVTDesC8@@@Z @ 55 NONAME ; public: void __thiscall RCall::Connect(class TRequestStatus &,class TDesC8 const &)
	?Connect@RCall@@QBEHABVTDesC8@@@Z @ 56 NONAME ; public: int __thiscall RCall::Connect(class TDesC8 const &)const 
	?Connect@RCall@@QBEHXZ @ 57 NONAME ; public: int __thiscall RCall::Connect(void)const 
	?Connect@RTelServer@@QAEHH@Z @ 58 NONAME ; public: int __thiscall RTelServer::Connect(int)
	?ConnectCancel@RCall@@QBEXXZ @ 59 NONAME ; public: void __thiscall RCall::ConnectCancel(void)const 
	?ConstructL@RCall@@MAEXXZ @ 60 NONAME ; protected: virtual void __thiscall RCall::ConstructL(void)
	?ConstructL@RFax@@MAEXXZ @ 61 NONAME ; protected: virtual void __thiscall RFax::ConstructL(void)
	?ConstructL@RLine@@MAEXXZ @ 62 NONAME ; protected: virtual void __thiscall RLine::ConstructL(void)
	?ConstructL@RPhone@@MAEXXZ @ 63 NONAME ; protected: virtual void __thiscall RPhone::ConstructL(void)
	?CreateFaxProgressChunk@CCallBase@@UAEPAUTProgress@RFax@@XZ @ 64 NONAME ; public: virtual struct RFax::TProgress * __thiscall CCallBase::CreateFaxProgressChunk(void)
	?DeleteFaxProgressChunk@CCallBase@@UAEXXZ @ 65 NONAME ; public: virtual void __thiscall CCallBase::DeleteFaxProgressChunk(void)
	?Des1n@TDataPackage@@QBEPAVTDes8@@XZ @ 66 NONAME ; public: class TDes8 * __thiscall TDataPackage::Des1n(void)const 
	?Des1u@TDataPackage@@QBEPAVTDes16@@XZ @ 67 NONAME ; public: class TDes16 * __thiscall TDataPackage::Des1u(void)const 
	?Des2n@TDataPackage@@QBEPAVTDes8@@XZ @ 68 NONAME ; public: class TDes8 * __thiscall TDataPackage::Des2n(void)const 
	?Des2u@TDataPackage@@QBEPAVTDes16@@XZ @ 69 NONAME ; public: class TDes16 * __thiscall TDataPackage::Des2u(void)const 
	?Destruct@RCall@@MAEXXZ @ 70 NONAME ; protected: virtual void __thiscall RCall::Destruct(void)
	?Destruct@RFax@@MAEXXZ @ 71 NONAME ; protected: virtual void __thiscall RFax::Destruct(void)
	?Destruct@RLine@@MAEXXZ @ 72 NONAME ; protected: virtual void __thiscall RLine::Destruct(void)
	?Destruct@RPhone@@MAEXXZ @ 73 NONAME ; protected: virtual void __thiscall RPhone::Destruct(void)
	?Dial@RCall@@QAEXAAVTRequestStatus@@ABVTDesC16@@@Z @ 74 NONAME ; public: void __thiscall RCall::Dial(class TRequestStatus &,class TDesC16 const &)
	?Dial@RCall@@QAEXAAVTRequestStatus@@ABVTDesC8@@ABVTDesC16@@@Z @ 75 NONAME ; public: void __thiscall RCall::Dial(class TRequestStatus &,class TDesC8 const &,class TDesC16 const &)
	?Dial@RCall@@QBEHABVTDesC16@@@Z @ 76 NONAME ; public: int __thiscall RCall::Dial(class TDesC16 const &)const 
	?Dial@RCall@@QBEHABVTDesC8@@ABVTDesC16@@@Z @ 77 NONAME ; public: int __thiscall RCall::Dial(class TDesC8 const &,class TDesC16 const &)const 
	?DialCancel@RCall@@QBEXXZ @ 78 NONAME ; public: void __thiscall RCall::DialCancel(void)const 
	?EnumerateCall@RLine@@QBEHAAH@Z @ 79 NONAME ; public: int __thiscall RLine::EnumerateCall(int &)const 
	?EnumerateLines@RPhone@@QBEHAAH@Z @ 80 NONAME ; public: int __thiscall RPhone::EnumerateLines(int &)const 
	?EnumeratePhones@RTelServer@@QBEHAAH@Z @ 81 NONAME ; public: int __thiscall RTelServer::EnumeratePhones(int &)const 
	?ExtensionId@TCallParams@RCall@@QAEHXZ @ 82 NONAME ; public: int __thiscall RCall::TCallParams::ExtensionId(void)
	?FlowControlResume@CTelObject@@UAEXXZ @ 83 NONAME ; public: virtual void __thiscall CTelObject::FlowControlResume(void)
	?FlowControlSuspend@CTelObject@@UAEXXZ @ 84 NONAME ; public: virtual void __thiscall CTelObject::FlowControlSuspend(void)
	?Get@RTelSubSessionBase@@IBEHHAAVTDes16@@0W4TReqPriorityType@1@@Z @ 85 NONAME ; protected: int __thiscall RTelSubSessionBase::Get(int,class TDes16 &,class TDes16 &,enum RTelSubSessionBase::TReqPriorityType)const 
	?Get@RTelSubSessionBase@@IBEHHAAVTDes16@@W4TReqPriorityType@1@@Z @ 86 NONAME ; protected: int __thiscall RTelSubSessionBase::Get(int,class TDes16 &,enum RTelSubSessionBase::TReqPriorityType)const 
	?Get@RTelSubSessionBase@@IBEHHAAVTDes8@@0W4TReqPriorityType@1@@Z @ 87 NONAME ; protected: int __thiscall RTelSubSessionBase::Get(int,class TDes8 &,class TDes8 &,enum RTelSubSessionBase::TReqPriorityType)const 
	?Get@RTelSubSessionBase@@IBEHHAAVTDes8@@AAVTDes16@@W4TReqPriorityType@1@@Z @ 88 NONAME ; protected: int __thiscall RTelSubSessionBase::Get(int,class TDes8 &,class TDes16 &,enum RTelSubSessionBase::TReqPriorityType)const 
	?Get@RTelSubSessionBase@@IBEHHAAVTDes8@@W4TReqPriorityType@1@@Z @ 89 NONAME ; protected: int __thiscall RTelSubSessionBase::Get(int,class TDes8 &,enum RTelSubSessionBase::TReqPriorityType)const 
	?Get@RTelSubSessionBase@@IBEXHAAVTRequestStatus@@AAVTDes16@@1W4TReqPriorityType@1@@Z @ 90 NONAME ; protected: void __thiscall RTelSubSessionBase::Get(int,class TRequestStatus &,class TDes16 &,class TDes16 &,enum RTelSubSessionBase::TReqPriorityType)const 
	?Get@RTelSubSessionBase@@IBEXHAAVTRequestStatus@@AAVTDes16@@W4TReqPriorityType@1@@Z @ 91 NONAME ; protected: void __thiscall RTelSubSessionBase::Get(int,class TRequestStatus &,class TDes16 &,enum RTelSubSessionBase::TReqPriorityType)const 
	?Get@RTelSubSessionBase@@IBEXHAAVTRequestStatus@@AAVTDes8@@1W4TReqPriorityType@1@@Z @ 92 NONAME ; protected: void __thiscall RTelSubSessionBase::Get(int,class TRequestStatus &,class TDes8 &,class TDes8 &,enum RTelSubSessionBase::TReqPriorityType)const 
	?Get@RTelSubSessionBase@@IBEXHAAVTRequestStatus@@AAVTDes8@@AAVTDes16@@W4TReqPriorityType@1@@Z @ 93 NONAME ; protected: void __thiscall RTelSubSessionBase::Get(int,class TRequestStatus &,class TDes8 &,class TDes16 &,enum RTelSubSessionBase::TReqPriorityType)const 
	?Get@RTelSubSessionBase@@IBEXHAAVTRequestStatus@@AAVTDes8@@W4TReqPriorityType@1@@Z @ 94 NONAME ; protected: void __thiscall RTelSubSessionBase::Get(int,class TRequestStatus &,class TDes8 &,enum RTelSubSessionBase::TReqPriorityType)const 
	?GetBearerServiceInfo@RCall@@QBEHAAUTBearerService@1@@Z @ 95 NONAME ; public: int __thiscall RCall::GetBearerServiceInfo(struct RCall::TBearerService &)const 
	?GetCallDuration@RCall@@QBEHAAVTTimeIntervalSeconds@@@Z @ 96 NONAME ; public: int __thiscall RCall::GetCallDuration(class TTimeIntervalSeconds &)const 
	?GetCallInfo@RLine@@QBEHHAAUTCallInfo@1@@Z @ 97 NONAME ; public: int __thiscall RLine::GetCallInfo(int,struct RLine::TCallInfo &)const 
	?GetCallParams@RCall@@QBEHAAVTDes8@@@Z @ 98 NONAME ; public: int __thiscall RCall::GetCallParams(class TDes8 &)const 
	?GetCaps@RCall@@QBEHAAUTCaps@1@@Z @ 99 NONAME ; public: int __thiscall RCall::GetCaps(struct RCall::TCaps &)const 
	?GetCaps@RLine@@QBEHAAUTCaps@1@@Z @ 100 NONAME ; public: int __thiscall RLine::GetCaps(struct RLine::TCaps &)const 
	?GetCaps@RPhone@@QBEHAAUTCaps@1@@Z @ 101 NONAME ; public: int __thiscall RPhone::GetCaps(struct RPhone::TCaps &)const 
	?GetFaxSettings@RCall@@QBEHAAUTFaxSessionSettings@1@@Z @ 102 NONAME ; public: int __thiscall RCall::GetFaxSettings(struct RCall::TFaxSessionSettings &)const 
	?GetHookStatus@RLine@@QBEHAAW4THookStatus@RCall@@@Z @ 103 NONAME ; public: int __thiscall RLine::GetHookStatus(enum RCall::THookStatus &)const 
	?GetInfo@RCall@@QBEHAAVTCallInfo@1@@Z @ 104 NONAME ; public: int __thiscall RCall::GetInfo(class RCall::TCallInfo &)const 
	?GetInfo@RLine@@QBEHAAVTLineInfo@1@@Z @ 105 NONAME ; public: int __thiscall RLine::GetInfo(class RLine::TLineInfo &)const 
	?GetInfo@RPhone@@QBEHAAVTPhoneInfo@1@@Z @ 106 NONAME ; public: int __thiscall RPhone::GetInfo(class RPhone::TPhoneInfo &)const 
	?GetLineInfo@RPhone@@QBEHHAAUTLineInfo@1@@Z @ 107 NONAME ; public: int __thiscall RPhone::GetLineInfo(int,struct RPhone::TLineInfo &)const 
	?GetOwnershipStatus@RCall@@QBEHAAW4TOwnershipStatus@1@@Z @ 108 NONAME ; public: int __thiscall RCall::GetOwnershipStatus(enum RCall::TOwnershipStatus &)const 
	?GetPhoneInfo@RTelServer@@QBEHHAAUTPhoneInfo@1@@Z @ 109 NONAME ; public: int __thiscall RTelServer::GetPhoneInfo(int,struct RTelServer::TPhoneInfo &)const 
	?GetProgress@RFax@@QAEHAAUTProgress@1@@Z @ 110 NONAME ; public: int __thiscall RFax::GetProgress(struct RFax::TProgress &)
	?GetStatus@RCall@@QBEHAAW4TStatus@1@@Z @ 111 NONAME ; public: int __thiscall RCall::GetStatus(enum RCall::TStatus &)const 
	?GetStatus@RLine@@QBEHAAW4TStatus@RCall@@@Z @ 112 NONAME ; public: int __thiscall RLine::GetStatus(enum RCall::TStatus &)const 
	?GetStatus@RPhone@@QBEHAAUTStatus@1@@Z @ 113 NONAME ; public: int __thiscall RPhone::GetStatus(struct RPhone::TStatus &)const 
	?GetTsyName@RTelServer@@QBEHHAAVTDes16@@@Z @ 114 NONAME ; public: int __thiscall RTelServer::GetTsyName(int,class TDes16 &)const 
	?GetTsyVersionNumber@RTelServer@@QBEHABVTDesC16@@AAVTVersion@@@Z @ 115 NONAME ; public: int __thiscall RTelServer::GetTsyVersionNumber(class TDesC16 const &,class TVersion &)const 
	?HangUp@RCall@@QBEHXZ @ 116 NONAME ; public: int __thiscall RCall::HangUp(void)const 
	?HangUp@RCall@@QBEXAAVTRequestStatus@@@Z @ 117 NONAME ; public: void __thiscall RCall::HangUp(class TRequestStatus &)const 
	?HangUpCancel@RCall@@QBEXXZ @ 118 NONAME ; public: void __thiscall RCall::HangUpCancel(void)const 
	?Init@CCallBase@@EAEXXZ @ 119 NONAME ; private: virtual void __thiscall CCallBase::Init(void)
	?Init@CFaxBase@@EAEXXZ @ 120 NONAME ; private: virtual void __thiscall CFaxBase::Init(void)
	?Init@CLineBase@@EAEXXZ @ 121 NONAME ; private: virtual void __thiscall CLineBase::Init(void)
	?Initialise@RPhone@@QAEHXZ @ 122 NONAME ; public: int __thiscall RPhone::Initialise(void)
	?Initialise@RPhone@@QAEXAAVTRequestStatus@@@Z @ 123 NONAME ; public: void __thiscall RPhone::Initialise(class TRequestStatus &)
	?InitialiseCancel@RPhone@@QAEXXZ @ 124 NONAME ; public: void __thiscall RPhone::InitialiseCancel(void)
	?IsDefault@TCallParams@RCall@@QAEHXZ @ 125 NONAME ; public: int __thiscall RCall::TCallParams::IsDefault(void)
	?IsSupportedByModule@RTelServer@@QBEHABVTDesC16@@HAAH@Z @ 126 NONAME ; public: int __thiscall RTelServer::IsSupportedByModule(class TDesC16 const &,int,int &)const 
	?LoadPhoneModule@RTelServer@@QBEHABVTDesC16@@@Z @ 127 NONAME ; public: int __thiscall RTelServer::LoadPhoneModule(class TDesC16 const &)const 
	?LoanDataPort@RCall@@QAEXAAVTRequestStatus@@AAUTCommPort@1@@Z @ 128 NONAME ; public: void __thiscall RCall::LoanDataPort(class TRequestStatus &,struct RCall::TCommPort &)
	?LoanDataPort@RCall@@QBEHAAUTCommPort@1@@Z @ 129 NONAME ; public: int __thiscall RCall::LoanDataPort(struct RCall::TCommPort &)const 
	?LoanDataPortCancel@RCall@@QBEXXZ @ 130 NONAME ; public: void __thiscall RCall::LoanDataPortCancel(void)const 
	?NotifyCallAdded@RLine@@QAEXAAVTRequestStatus@@AAV?$TBuf@$0IA@@@@Z @ 131 NONAME ; public: void __thiscall RLine::NotifyCallAdded(class TRequestStatus &,class TBuf<128> &)
	?NotifyCallAddedCancel@RLine@@QBEXXZ @ 132 NONAME ; public: void __thiscall RLine::NotifyCallAddedCancel(void)const 
	?NotifyCallDurationChange@RCall@@QAEXAAVTRequestStatus@@AAVTTimeIntervalSeconds@@@Z @ 133 NONAME ; public: void __thiscall RCall::NotifyCallDurationChange(class TRequestStatus &,class TTimeIntervalSeconds &)
	?NotifyCallDurationChangeCancel@RCall@@QBEXXZ @ 134 NONAME ; public: void __thiscall RCall::NotifyCallDurationChangeCancel(void)const 
	?NotifyCapsChange@RCall@@QAEXAAVTRequestStatus@@AAUTCaps@1@@Z @ 135 NONAME ; public: void __thiscall RCall::NotifyCapsChange(class TRequestStatus &,struct RCall::TCaps &)
	?NotifyCapsChange@RLine@@QAEXAAVTRequestStatus@@AAUTCaps@1@@Z @ 136 NONAME ; public: void __thiscall RLine::NotifyCapsChange(class TRequestStatus &,struct RLine::TCaps &)
	?NotifyCapsChange@RPhone@@QAEXAAVTRequestStatus@@AAUTCaps@1@@Z @ 137 NONAME ; public: void __thiscall RPhone::NotifyCapsChange(class TRequestStatus &,struct RPhone::TCaps &)
	?NotifyCapsChangeCancel@RCall@@QBEXXZ @ 138 NONAME ; public: void __thiscall RCall::NotifyCapsChangeCancel(void)const 
	?NotifyCapsChangeCancel@RLine@@QBEXXZ @ 139 NONAME ; public: void __thiscall RLine::NotifyCapsChangeCancel(void)const 
	?NotifyCapsChangeCancel@RPhone@@QBEXXZ @ 140 NONAME ; public: void __thiscall RPhone::NotifyCapsChangeCancel(void)const 
	?NotifyHookChange@RCall@@QAEXAAVTRequestStatus@@AAW4THookStatus@1@@Z @ 141 NONAME ; public: void __thiscall RCall::NotifyHookChange(class TRequestStatus &,enum RCall::THookStatus &)
	?NotifyHookChange@RLine@@QAEXAAVTRequestStatus@@AAW4THookStatus@RCall@@@Z @ 142 NONAME ; public: void __thiscall RLine::NotifyHookChange(class TRequestStatus &,enum RCall::THookStatus &)
	?NotifyHookChangeCancel@RCall@@QBEXXZ @ 143 NONAME ; public: void __thiscall RCall::NotifyHookChangeCancel(void)const 
	?NotifyHookChangeCancel@RLine@@QBEXXZ @ 144 NONAME ; public: void __thiscall RLine::NotifyHookChangeCancel(void)const 
	?NotifyIncomingCall@RLine@@QAEXAAVTRequestStatus@@AAV?$TBuf@$0IA@@@@Z @ 145 NONAME ; public: void __thiscall RLine::NotifyIncomingCall(class TRequestStatus &,class TBuf<128> &)
	?NotifyIncomingCallCancel@RLine@@QBEXXZ @ 146 NONAME ; public: void __thiscall RLine::NotifyIncomingCallCancel(void)const 
	?NotifyModemDetected@RPhone@@QAEXAAVTRequestStatus@@AAW4TModemDetection@1@@Z @ 147 NONAME ; public: void __thiscall RPhone::NotifyModemDetected(class TRequestStatus &,enum RPhone::TModemDetection &)
	?NotifyModemDetectedCancel@RPhone@@QBEXXZ @ 148 NONAME ; public: void __thiscall RPhone::NotifyModemDetectedCancel(void)const 
	?NotifyStatusChange@RCall@@QAEXAAVTRequestStatus@@AAW4TStatus@1@@Z @ 149 NONAME ; public: void __thiscall RCall::NotifyStatusChange(class TRequestStatus &,enum RCall::TStatus &)
	?NotifyStatusChange@RLine@@QAEXAAVTRequestStatus@@AAW4TStatus@RCall@@@Z @ 150 NONAME ; public: void __thiscall RLine::NotifyStatusChange(class TRequestStatus &,enum RCall::TStatus &)
	?NotifyStatusChangeCancel@RCall@@QBEXXZ @ 151 NONAME ; public: void __thiscall RCall::NotifyStatusChangeCancel(void)const 
	?NotifyStatusChangeCancel@RLine@@QBEXXZ @ 152 NONAME ; public: void __thiscall RLine::NotifyStatusChangeCancel(void)const 
	?NullMethod1@CSubSessionExtBase@@IAEXXZ @ 153 NONAME ; protected: void __thiscall CSubSessionExtBase::NullMethod1(void)
	?NullMethod2@CFaxBase@@AAEXXZ @ 154 NONAME ; private: void __thiscall CFaxBase::NullMethod2(void)
	?NumberOfSlotsL@CCallBase@@UAEHH@Z @ 155 NONAME ; public: virtual int __thiscall CCallBase::NumberOfSlotsL(int)
	?NumberOfSlotsL@CFaxBase@@UAEHH@Z @ 156 NONAME ; public: virtual int __thiscall CFaxBase::NumberOfSlotsL(int)
	?NumberOfSlotsL@CLineBase@@UAEHH@Z @ 157 NONAME ; public: virtual int __thiscall CLineBase::NumberOfSlotsL(int)
	?NumberOfSlotsL@CPhoneBase@@UAEHH@Z @ 158 NONAME ; public: virtual int __thiscall CPhoneBase::NumberOfSlotsL(int)
	?Open@RFax@@QAEHAAVRCall@@@Z @ 159 NONAME ; public: int __thiscall RFax::Open(class RCall &)
	?Open@RLine@@QAEHAAVRPhone@@ABVTDesC16@@@Z @ 160 NONAME ; public: int __thiscall RLine::Open(class RPhone &,class TDesC16 const &)
	?Open@RLine@@QAEHAAVRTelServer@@ABVTDesC16@@@Z @ 161 NONAME ; public: int __thiscall RLine::Open(class RTelServer &,class TDesC16 const &)
	?Open@RPhone@@QAEHAAVRTelServer@@ABVTDesC16@@@Z @ 162 NONAME ; public: int __thiscall RPhone::Open(class RTelServer &,class TDesC16 const &)
	?OpenExistingCall@RCall@@QAEHAAVRLine@@ABVTDesC16@@@Z @ 163 NONAME ; public: int __thiscall RCall::OpenExistingCall(class RLine &,class TDesC16 const &)
	?OpenExistingCall@RCall@@QAEHAAVRPhone@@ABVTDesC16@@@Z @ 164 NONAME ; public: int __thiscall RCall::OpenExistingCall(class RPhone &,class TDesC16 const &)
	?OpenExistingCall@RCall@@QAEHAAVRTelServer@@ABVTDesC16@@@Z @ 165 NONAME ; public: int __thiscall RCall::OpenExistingCall(class RTelServer &,class TDesC16 const &)
	?OpenNewCall@RCall@@QAEHAAVRLine@@@Z @ 166 NONAME ; public: int __thiscall RCall::OpenNewCall(class RLine &)
	?OpenNewCall@RCall@@QAEHAAVRLine@@AAVTDes16@@@Z @ 167 NONAME ; public: int __thiscall RCall::OpenNewCall(class RLine &,class TDes16 &)
	?OpenNewCall@RCall@@QAEHAAVRPhone@@ABVTDesC16@@@Z @ 168 NONAME ; public: int __thiscall RCall::OpenNewCall(class RPhone &,class TDesC16 const &)
	?OpenNewCall@RCall@@QAEHAAVRPhone@@ABVTDesC16@@AAVTDes16@@@Z @ 169 NONAME ; public: int __thiscall RCall::OpenNewCall(class RPhone &,class TDesC16 const &,class TDes16 &)
	?OpenNewCall@RCall@@QAEHAAVRTelServer@@ABVTDesC16@@@Z @ 170 NONAME ; public: int __thiscall RCall::OpenNewCall(class RTelServer &,class TDesC16 const &)
	?OpenNewCall@RCall@@QAEHAAVRTelServer@@ABVTDesC16@@AAVTDes16@@@Z @ 171 NONAME ; public: int __thiscall RCall::OpenNewCall(class RTelServer &,class TDesC16 const &,class TDes16 &)
	?OpenNewObjectByNameL@CFaxBase@@EAEPAVCTelObject@@ABVTDesC16@@@Z @ 172 NONAME ; private: virtual class CTelObject * __thiscall CFaxBase::OpenNewObjectByNameL(class TDesC16 const &)
	?OpenNewObjectL@CFaxBase@@EAEPAVCTelObject@@AAVTDes16@@@Z @ 173 NONAME ; private: virtual class CTelObject * __thiscall CFaxBase::OpenNewObjectL(class TDes16 &)
	?OpenPostProcessing@CCallBase@@EAEXPAVCTelSession@@H@Z @ 174 NONAME ; private: virtual void __thiscall CCallBase::OpenPostProcessing(class CTelSession *,int)
	?OpenPostProcessing@CFaxBase@@EAEXPAVCTelSession@@H@Z @ 175 NONAME ; private: virtual void __thiscall CFaxBase::OpenPostProcessing(class CTelSession *,int)
	?OpenPostProcessing@CLineBase@@EAEXPAVCTelSession@@H@Z @ 176 NONAME ; private: virtual void __thiscall CLineBase::OpenPostProcessing(class CTelSession *,int)
	?OpenPostProcessing@CPhoneBase@@EAEXPAVCTelSession@@H@Z @ 177 NONAME ; private: virtual void __thiscall CPhoneBase::OpenPostProcessing(class CTelSession *,int)
	?OpenPostProcessing@CSubSessionExtBase@@MAEXPAVCTelSession@@H@Z @ 178 NONAME ; protected: virtual void __thiscall CSubSessionExtBase::OpenPostProcessing(class CTelSession *,int)
	?PanicClient@@YAXH@Z @ 179 NONAME ; void __cdecl PanicClient(int)
	?Ptr1@TDataPackage@@QBEPAXXZ @ 180 NONAME ; public: void * __thiscall TDataPackage::Ptr1(void)const 
	?Ptr2@TDataPackage@@QBEPAXXZ @ 181 NONAME ; public: void * __thiscall TDataPackage::Ptr2(void)const 
	?QueryVersionSupported@CPhoneFactoryBase@@UBEHABVTVersion@@@Z @ 182 NONAME ; public: virtual int __thiscall CPhoneFactoryBase::QueryVersionSupported(class TVersion const &)const 
	?Read@RFax@@QAEXAAVTRequestStatus@@AAVTDes8@@@Z @ 183 NONAME ; public: void __thiscall RFax::Read(class TRequestStatus &,class TDes8 &)
	?RecoverDataPort@RCall@@QBEHXZ @ 184 NONAME ; public: int __thiscall RCall::RecoverDataPort(void)const 
	?RecoverDataPortAndRelinquishOwnershipCompleted@CCallBase@@UAEXH@Z @ 185 NONAME ; public: virtual void __thiscall CCallBase::RecoverDataPortAndRelinquishOwnershipCompleted(int)
	?RelinquishOwnershipCompleted@CCallBase@@UAEXH@Z @ 186 NONAME ; public: virtual void __thiscall CCallBase::RelinquishOwnershipCompleted(int)
	?ReqCompleted@CTelObject@@UAEXKH@Z @ 187 NONAME ; public: virtual void __thiscall CTelObject::ReqCompleted(unsigned long,int)
	?ReqModeL@CCallBase@@UAEIH@Z @ 188 NONAME ; public: virtual unsigned int __thiscall CCallBase::ReqModeL(int)
	?ReqModeL@CFaxBase@@UAEIH@Z @ 189 NONAME ; public: virtual unsigned int __thiscall CFaxBase::ReqModeL(int)
	?ReqModeL@CLineBase@@UAEIH@Z @ 190 NONAME ; public: virtual unsigned int __thiscall CLineBase::ReqModeL(int)
	?ReqModeL@CPhoneBase@@UAEIH@Z @ 191 NONAME ; public: virtual unsigned int __thiscall CPhoneBase::ReqModeL(int)
	?ResolveSubSessionHandle@CCallBase@@UAEPAV1@KH@Z @ 192 NONAME ; public: virtual class CCallBase * __thiscall CCallBase::ResolveSubSessionHandle(unsigned long,int)
	?ServerVersion@CTelObject@@UBEHXZ @ 193 NONAME ; public: virtual int __thiscall CTelObject::ServerVersion(void)const 
	?Service@CCallBase@@EAEHABVRMessage2@@PAVCReqEntry@@@Z @ 194 NONAME ; private: virtual int __thiscall CCallBase::Service(class RMessage2 const &,class CReqEntry *)
	?Service@CFaxBase@@EAEHABVRMessage2@@PAVCReqEntry@@@Z @ 195 NONAME ; private: virtual int __thiscall CFaxBase::Service(class RMessage2 const &,class CReqEntry *)
	?Service@CLineBase@@EAEHABVRMessage2@@PAVCReqEntry@@@Z @ 196 NONAME ; private: virtual int __thiscall CLineBase::Service(class RMessage2 const &,class CReqEntry *)
	?Service@CPhoneBase@@EAEHABVRMessage2@@PAVCReqEntry@@@Z @ 197 NONAME ; private: virtual int __thiscall CPhoneBase::Service(class RMessage2 const &,class CReqEntry *)
	?Service@CSubSessionExtBase@@MAEHABVRMessage2@@PAVCReqEntry@@@Z @ 198 NONAME ; protected: virtual int __thiscall CSubSessionExtBase::Service(class RMessage2 const &,class CReqEntry *)
	?Set@RTelSubSessionBase@@IBEHHABVTDesC16@@0W4TReqPriorityType@1@@Z @ 199 NONAME ; protected: int __thiscall RTelSubSessionBase::Set(int,class TDesC16 const &,class TDesC16 const &,enum RTelSubSessionBase::TReqPriorityType)const 
	?Set@RTelSubSessionBase@@IBEHHABVTDesC16@@W4TReqPriorityType@1@@Z @ 200 NONAME ; protected: int __thiscall RTelSubSessionBase::Set(int,class TDesC16 const &,enum RTelSubSessionBase::TReqPriorityType)const 
	?Set@RTelSubSessionBase@@IBEHHABVTDesC8@@0W4TReqPriorityType@1@@Z @ 201 NONAME ; protected: int __thiscall RTelSubSessionBase::Set(int,class TDesC8 const &,class TDesC8 const &,enum RTelSubSessionBase::TReqPriorityType)const 
	?Set@RTelSubSessionBase@@IBEHHABVTDesC8@@ABVTDesC16@@W4TReqPriorityType@1@@Z @ 202 NONAME ; protected: int __thiscall RTelSubSessionBase::Set(int,class TDesC8 const &,class TDesC16 const &,enum RTelSubSessionBase::TReqPriorityType)const 
	?Set@RTelSubSessionBase@@IBEHHABVTDesC8@@W4TReqPriorityType@1@@Z @ 203 NONAME ; protected: int __thiscall RTelSubSessionBase::Set(int,class TDesC8 const &,enum RTelSubSessionBase::TReqPriorityType)const 
	?Set@RTelSubSessionBase@@IBEXHAAVTRequestStatus@@ABVTDesC16@@1W4TReqPriorityType@1@@Z @ 204 NONAME ; protected: void __thiscall RTelSubSessionBase::Set(int,class TRequestStatus &,class TDesC16 const &,class TDesC16 const &,enum RTelSubSessionBase::TReqPriorityType)const 
	?Set@RTelSubSessionBase@@IBEXHAAVTRequestStatus@@ABVTDesC16@@W4TReqPriorityType@1@@Z @ 205 NONAME ; protected: void __thiscall RTelSubSessionBase::Set(int,class TRequestStatus &,class TDesC16 const &,enum RTelSubSessionBase::TReqPriorityType)const 
	?Set@RTelSubSessionBase@@IBEXHAAVTRequestStatus@@ABVTDesC8@@1W4TReqPriorityType@1@@Z @ 206 NONAME ; protected: void __thiscall RTelSubSessionBase::Set(int,class TRequestStatus &,class TDesC8 const &,class TDesC8 const &,enum RTelSubSessionBase::TReqPriorityType)const 
	?Set@RTelSubSessionBase@@IBEXHAAVTRequestStatus@@ABVTDesC8@@ABVTDesC16@@W4TReqPriorityType@1@@Z @ 207 NONAME ; protected: void __thiscall RTelSubSessionBase::Set(int,class TRequestStatus &,class TDesC8 const &,class TDesC16 const &,enum RTelSubSessionBase::TReqPriorityType)const 
	?Set@RTelSubSessionBase@@IBEXHAAVTRequestStatus@@ABVTDesC8@@W4TReqPriorityType@1@@Z @ 208 NONAME ; protected: void __thiscall RTelSubSessionBase::Set(int,class TRequestStatus &,class TDesC8 const &,enum RTelSubSessionBase::TReqPriorityType)const 
	?SetExtendedErrorGranularity@RTelServer@@QBEHW4TErrorGranularity@1@@Z @ 209 NONAME ; public: int __thiscall RTelServer::SetExtendedErrorGranularity(enum RTelServer::TErrorGranularity)const 
	?SetFaxSettings@RCall@@QBEHABUTFaxSessionSettings@1@@Z @ 210 NONAME ; public: int __thiscall RCall::SetFaxSettings(struct RCall::TFaxSessionSettings const &)const 
	?SetOwnership@CCallBase@@UAEHK@Z @ 211 NONAME ; public: virtual int __thiscall CCallBase::SetOwnership(unsigned long)
	?SetPriorityClient@RTelServer@@QBEHXZ @ 212 NONAME ; public: int __thiscall RTelServer::SetPriorityClient(void)const 
	?SetUnowned@CCallBase@@UAEHXZ @ 213 NONAME ; public: virtual int __thiscall CCallBase::SetUnowned(void)
	?TerminateFaxSession@RFax@@QBEHXZ @ 214 NONAME ; public: int __thiscall RFax::TerminateFaxSession(void)const 
	?TransferOwnership@RCall@@QBEHXZ @ 215 NONAME ; public: int __thiscall RCall::TransferOwnership(void)const 
	?UnloadPhoneModule@RTelServer@@QBEHABVTDesC16@@@Z @ 216 NONAME ; public: int __thiscall RTelServer::UnloadPhoneModule(class TDesC16 const &)const 
	?UpCallOption@CTelObject@@UAEHHPAX@Z @ 217 NONAME ; public: virtual int __thiscall CTelObject::UpCallOption(int,void *)
	?WaitForEndOfPage@RFax@@QBEXAAVTRequestStatus@@@Z @ 218 NONAME ; public: void __thiscall RFax::WaitForEndOfPage(class TRequestStatus &)const 
	?__DbgCheckHeap@RTelServer@@QAEHH@Z @ 219 NONAME ; public: int __thiscall RTelServer::__DbgCheckHeap(int)
	?__DbgFailNext@RTelServer@@QAEHH@Z @ 220 NONAME ; public: int __thiscall RTelServer::__DbgFailNext(int)
	?__DbgMarkEnd@RTelServer@@QAEHH@Z @ 221 NONAME ; public: int __thiscall RTelServer::__DbgMarkEnd(int)
	?__DbgMarkHeap@RTelServer@@QAEHXZ @ 222 NONAME ; public: int __thiscall RTelServer::__DbgMarkHeap(void)
	?DownCallOption@CTelObject@@UAEHHPAX@Z @ 223 NONAME ; public: virtual int __thiscall CTelObject::DownCallOption(int,void *)
	?CPhoneFactoryBase_Reserved1@CPhoneFactoryBase@@EAEXXZ @ 224 NONAME ; private: virtual void __thiscall CPhoneFactoryBase::CPhoneFactoryBase_Reserved1(void)
	?CTelObject_Reserved1@CTelObject@@EAEXXZ @ 225 NONAME ; private: virtual void __thiscall CTelObject::CTelObject_Reserved1(void)
	?SetAndGet@RTelSubSessionBase@@IBEXHAAVTRequestStatus@@AAVTDes8@@ABVTDesC16@@W4TReqPriorityType@1@@Z @ 226 NONAME ; protected: void __thiscall RTelSubSessionBase::SetAndGet(int,class TRequestStatus &,class TDes8 &,class TDesC16 const &,enum RTelSubSessionBase::TReqPriorityType)const 
	?SetAndGet@RTelSubSessionBase@@IBEXHAAVTRequestStatus@@ABVTDesC8@@AAVTDes8@@W4TReqPriorityType@1@@Z @ 227 NONAME ; protected: void __thiscall RTelSubSessionBase::SetAndGet(int,class TRequestStatus &,class TDesC8 const &,class TDes8 &,enum RTelSubSessionBase::TReqPriorityType)const 
	?ReferenceCount@RCall@@QBEHXZ @ 228 NONAME ; public: int __thiscall RCall::ReferenceCount(void)const 
	?CancelAsyncRequest@RTelSubSessionBase@@QBEXH@Z @ 229 NONAME ; public: void __thiscall RTelSubSessionBase::CancelAsyncRequest(int)const 
	?SetAndGet@RTelSubSessionBase@@IBEXHAAVTRequestStatus@@ABVTDesC16@@AAVTDes16@@W4TReqPriorityType@1@@Z @ 230 NONAME ; protected: void __thiscall RTelSubSessionBase::SetAndGet(int,class TRequestStatus &,class TDesC16 const &,class TDes16 &,enum RTelSubSessionBase::TReqPriorityType)const 
	?SetAndGet@RTelSubSessionBase@@IBEXHAAVTRequestStatus@@ABVTDesC8@@AAVTDes16@@W4TReqPriorityType@1@@Z @ 231 NONAME ; protected: void __thiscall RTelSubSessionBase::SetAndGet(int,class TRequestStatus &,class TDesC8 const &,class TDes16 &,enum RTelSubSessionBase::TReqPriorityType)const 
	?Type@TDataPackage@@QBE?AW4TDataPackageType@1@XZ @ 232 NONAME ; public: enum TDataPackage::TDataPackageType  __thiscall TDataPackage::Type(void)const 
	?EtelServerThread@@YAHPAX@Z @ 233 NONAME ; int __cdecl EtelServerThread(void *)
	?GlobalKernelObjectHandle@CCallBase@@UAEPAVRHandleBase@@XZ @ 234 NONAME ; class RHandleBase * CCallBase::GlobalKernelObjectHandle(void)
	?GlobalKernelObjectHandle@CSubSessionExtBase@@MAEPAVRHandleBase@@XZ @ 235 NONAME ; class RHandleBase * CSubSessionExtBase::GlobalKernelObjectHandle(void)
	?GetRequiredPlatSecCaps@CTelObject@@UAE?AVTSecurityPolicy@@H@Z @ 236 NONAME ; class TSecurityPolicy CTelObject::GetRequiredPlatSecCaps(int)
	?SetFaxSharedHeaderFile@CCallBase@@UAEHKPAVCFaxSharedFileHandles@@@Z @ 237 NONAME ; int CCallBase::SetFaxSharedHeaderFile(unsigned long, class CFaxSharedFileHandles *)
	??1CFaxSharedFileHandles@@UAE@XZ @ 238 NONAME ; CFaxSharedFileHandles::~CFaxSharedFileHandles(void)
	?File@CFaxSharedFileHandles@@QAEAAVRFile@@XZ @ 239 NONAME ; class RFile & CFaxSharedFileHandles::File(void)
	?AdoptFaxSharedHeaderFile@RCall@@QBEHABVRFile@@@Z @ 240 NONAME ; int RCall::AdoptFaxSharedHeaderFile(class RFile const &) const
	?Set@RTelSubSessionBase@@IBEHHABVRFile@@W4TReqPriorityType@1@@Z @ 241 NONAME ; int RTelSubSessionBase::Set(int, class RFile const &, enum RTelSubSessionBase::TReqPriorityType) const
	??0CAsyncRetrieveVariableLengthBufferV2@@IAE@XZ @ 242 NONAME ; CAsyncRetrieveVariableLengthBufferV2::CAsyncRetrieveVariableLengthBufferV2(void)
	??1CAsyncRetrieveVariableLengthBufferV2@@MAE@XZ @ 243 NONAME ; CAsyncRetrieveVariableLengthBufferV2::~CAsyncRetrieveVariableLengthBufferV2(void)
	?CompleteIfInUse@CAsyncRetrieveVariableLengthBufferV2@@IAEHAAVTRequestStatus@@@Z @ 244 NONAME ; int CAsyncRetrieveVariableLengthBufferV2::CompleteIfInUse(class TRequestStatus &)
	?DoCancel@CAsyncRetrieveVariableLengthBufferV2@@EAEXXZ @ 245 NONAME ; void CAsyncRetrieveVariableLengthBufferV2::DoCancel(void)
	?FreeBuffer@CAsyncRetrieveVariableLengthBufferV2@@IAEXXZ @ 246 NONAME ; void CAsyncRetrieveVariableLengthBufferV2::FreeBuffer(void)
	?RestoreListL@CAsyncRetrieveVariableLengthBufferV2@@EAEXXZ @ 247 NONAME ; void CAsyncRetrieveVariableLengthBufferV2::RestoreListL(void)
	?RunL@CAsyncRetrieveVariableLengthBufferV2@@EAEXXZ @ 248 NONAME ; void CAsyncRetrieveVariableLengthBufferV2::RunL(void)
	?Start@CAsyncRetrieveVariableLengthBufferV2@@IAEXAAVTRequestStatus@@PAVTDes8@@1@Z @ 249 NONAME ; void CAsyncRetrieveVariableLengthBufferV2::Start(class TRequestStatus &, class TDes8 *, class TDes8 *)	
	??0TTlvStructBase@@IAE@AAVTPtr8@@E@Z @ 250 NONAME ; TTlvStructBase::TTlvStructBase(class TPtr8 &, unsigned char)
	?AnyNextItemL@TTlvStructBase@@IAEHAAVMTlvItemIdType@@AAVTPtr8@@0AAVMTlvItemDataLengthType@@@Z @ 251 NONAME ; int TTlvStructBase::AnyNextItemL(class MTlvItemIdType &, class TPtr8 &, class MTlvItemIdType &, class MTlvItemDataLengthType &)
	?AppendItemL@TTlvStructBase@@IAEHAAVMTlvItemIdType@@AAVMTlvItemDataLengthType@@ABVTPtr8@@@Z @ 252 NONAME ; int TTlvStructBase::AppendItemL(class MTlvItemIdType &, class MTlvItemDataLengthType &, class TPtr8 const &)
	?NextItemL@TTlvStructBase@@IAEHABVMTlvItemIdType@@AAVTPtr8@@AAV2@AAVMTlvItemDataLengthType@@@Z @ 253 NONAME ; int TTlvStructBase::NextItemL(class MTlvItemIdType const &, class TPtr8 &, class MTlvItemIdType &, class MTlvItemDataLengthType &)
	?RemoveNextItemL@TTlvStructBase@@IAEHAAVMTlvItemIdType@@0AAVMTlvItemDataLengthType@@@Z @ 254 NONAME ; int TTlvStructBase::RemoveNextItemL(class MTlvItemIdType &, class MTlvItemIdType &, class MTlvItemDataLengthType &)
	?ResetCursorPos@TTlvStructBase@@QAEXXZ @ 255 NONAME ; void TTlvStructBase::ResetCursorPos(void)
	?__DbgFailNextAvailable@RTelServer@@QAEHAAH@Z @ 256 NONAME ; int RTelServer::__DbgFailNextAvailable(int &)
	?CheckEmergencyClient@CPhoneBase@@QBEHK@Z @ 257 NONAME ; int CPhoneBase::CheckEmergencyClient(unsigned long) const
	?SetEmergencyClient@RPhone@@QBEHK@Z @ 258 NONAME ; int RPhone::SetEmergencyClient(unsigned long) const
	?SetPriorityClientV2@RTelServer@@QBEHXZ @ 259 NONAME ; int RTelServer::SetPriorityClientV2(void) const

