EXPORTS
	LibEntry @ 1 NONAME
	_ZTI11CDTSYLogger @ 2 NONAME ; #<TI>#
	_ZTI12CFaxDGprsTsy @ 3 NONAME ; #<TI>#
	_ZTI13CFaxDummyBase @ 4 NONAME ; #<TI>#
	_ZTI13CGprsDGprsTsy @ 5 NONAME ; #<TI>#
	_ZTI14CCallDummyBase @ 6 NONAME ; #<TI>#
	_ZTI14CLineDummyBase @ 7 NONAME ; #<TI>#
	_ZTI14CPhoneDGprsTsy @ 8 NONAME ; #<TI>#
	_ZTI15CPhoneDummyBase @ 9 NONAME ; #<TI>#
	_ZTI16CGprsQoSDGprsTsy @ 10 NONAME ; #<TI>#
	_ZTI20CGprsContextDGprsTsy @ 11 NONAME ; #<TI>#
	_ZTI21CPhoneFactoryDGprsTsy @ 12 NONAME ; #<TI>#
	_ZTI22CPhoneFactoryDummyBase @ 13 NONAME ; #<TI>#
	_ZTI23CSubSessionExtDummyBase @ 14 NONAME ; #<TI>#
	_ZTV11CDTSYLogger @ 15 NONAME ; #<VT>#
	_ZTV12CFaxDGprsTsy @ 16 NONAME ; #<VT>#
	_ZTV13CFaxDummyBase @ 17 NONAME ; #<VT>#
	_ZTV13CGprsDGprsTsy @ 18 NONAME ; #<VT>#
	_ZTV14CCallDummyBase @ 19 NONAME ; #<VT>#
	_ZTV14CLineDummyBase @ 20 NONAME ; #<VT>#
	_ZTV14CPhoneDGprsTsy @ 21 NONAME ; #<VT>#
	_ZTV15CPhoneDummyBase @ 22 NONAME ; #<VT>#
	_ZTV16CGprsQoSDGprsTsy @ 23 NONAME ; #<VT>#
	_ZTV20CGprsContextDGprsTsy @ 24 NONAME ; #<VT>#
	_ZTV21CPhoneFactoryDGprsTsy @ 25 NONAME ; #<VT>#
	_ZTV22CPhoneFactoryDummyBase @ 26 NONAME ; #<VT>#
	_ZTV23CSubSessionExtDummyBase @ 27 NONAME ; #<VT>#
	_ZTI17CDelayedCompleter @ 28 NONAME
	_ZTI19CListReadAllAttempt @ 29 NONAME
	_ZTI20CMbmsContextDMbmsTsy @ 30 NONAME
	_ZTIN13CGprsDGprsTsy15CActiveListNodeE @ 31 NONAME
	_ZTV17CDelayedCompleter @ 32 NONAME
	_ZTV19CListReadAllAttempt @ 33 NONAME
	_ZTV20CMbmsContextDMbmsTsy @ 34 NONAME
	_ZTVN13CGprsDGprsTsy15CActiveListNodeE @ 35 NONAME

