EXPORTS
	_Z22NewTestEtelPacketSuitev @ 1 NONAME
	_ZTI18CEtelPacketTest1_1 @ 2 NONAME ; #<TI>#
	_ZTI18CEtelPacketTest1_2 @ 3 NONAME ; #<TI>#
	_ZTI18CEtelPacketTest1_3 @ 4 NONAME ; #<TI>#
	_ZTI19CEtelPacketTest3G_1 @ 5 NONAME ; #<TI>#
	_ZTI19CEtelPacketTest3G_2 @ 6 NONAME ; #<TI>#
	_ZTI19CEtelPacketTest3G_3 @ 7 NONAME ; #<TI>#
	_ZTI19CTestStepEtelPacket @ 8 NONAME ; #<TI>#
	_ZTI20CTestSuiteEtelPacket @ 9 NONAME ; #<TI>#
	_ZTI21CEtelPacketTest_Rel99 @ 10 NONAME ; #<TI>#
	_ZTI26CEtelPacketTest1_1Extended @ 11 NONAME ; #<TI>#
	_ZTI30CEtelPacketTestMultipleClients @ 12 NONAME ; #<TI>#
	_ZTI35CEtelPacketTestAuthenticationAndDNS @ 13 NONAME ; #<TI>#
	_ZTV18CEtelPacketTest1_1 @ 14 NONAME ; #<VT>#
	_ZTV18CEtelPacketTest1_2 @ 15 NONAME ; #<VT>#
	_ZTV18CEtelPacketTest1_3 @ 16 NONAME ; #<VT>#
	_ZTV19CEtelPacketTest3G_1 @ 17 NONAME ; #<VT>#
	_ZTV19CEtelPacketTest3G_2 @ 18 NONAME ; #<VT>#
	_ZTV19CEtelPacketTest3G_3 @ 19 NONAME ; #<VT>#
	_ZTV19CTestStepEtelPacket @ 20 NONAME ; #<VT>#
	_ZTV20CTestSuiteEtelPacket @ 21 NONAME ; #<VT>#
	_ZTV21CEtelPacketTest_Rel99 @ 22 NONAME ; #<VT>#
	_ZTV26CEtelPacketTest1_1Extended @ 23 NONAME ; #<VT>#
	_ZTV30CEtelPacketTestMultipleClients @ 24 NONAME ; #<VT>#
	_ZTV35CEtelPacketTestAuthenticationAndDNS @ 25 NONAME ; #<VT>#
	_ZTI21CEtelPacketTestPCO_IE @ 26 NONAME ; #<TI>#
	_ZTV21CEtelPacketTestPCO_IE @ 27 NONAME ; #<VT>#
	_ZTI20CEtelPacketTest_Rel5 @ 28 NONAME ; #<TI>#
	_ZTV20CEtelPacketTest_Rel5 @ 29 NONAME ; #<VT>#

