EXPORTS
	_Z29NewTestSuiteUnitMMFVidClientLv @ 1 NONAME
	_Z9Reserved1v @ 2 NONAME
	_Z9Reserved2v @ 3 NONAME
	_ZN19CVideoPlayerUtility10SetVolumeLEi @ 4 NONAME
	_ZN19CVideoPlayerUtility10StepFrameLEi @ 5 NONAME
	_ZN19CVideoPlayerUtility11SetBalanceLEi @ 6 NONAME
	_ZN19CVideoPlayerUtility12SetPositionLERK25TTimeIntervalMicroSeconds @ 7 NONAME
	_ZN19CVideoPlayerUtility12SetPriorityLEii @ 8 NONAME
	_ZN19CVideoPlayerUtility12SetRotationLE14TVideoRotation @ 9 NONAME
	_ZN19CVideoPlayerUtility13RefreshFrameLEv @ 10 NONAME
	_ZN19CVideoPlayerUtility13SetAutoScaleLE14TAutoScaleType @ 11 NONAME
	_ZN19CVideoPlayerUtility13SetAutoScaleLE14TAutoScaleTypeii @ 12 NONAME
	_ZN19CVideoPlayerUtility14SetCropRegionLERK5TRect @ 13 NONAME
	_ZN19CVideoPlayerUtility14WillResumePlayEv @ 14 NONAME
	_ZN19CVideoPlayerUtility15SetScaleFactorLEffi @ 15 NONAME
	_ZN19CVideoPlayerUtility16SetAudioEnabledLEi @ 16 NONAME
	_ZN19CVideoPlayerUtility16SetPlayVelocityLEi @ 17 NONAME
	_ZN19CVideoPlayerUtility16SetVideoEnabledLEi @ 18 NONAME
	_ZN19CVideoPlayerUtility17CustomCommandSyncERK8TPckgBufI22TMMFMessageDestinationEiRK6TDesC8S7_ @ 19 NONAME
	_ZN19CVideoPlayerUtility17CustomCommandSyncERK8TPckgBufI22TMMFMessageDestinationEiRK6TDesC8S7_R5TDes8 @ 20 NONAME
	_ZN19CVideoPlayerUtility17SetDisplayWindowLER10RWsSessionR15CWsScreenDeviceR11RWindowBaseRK5TRectS8_ @ 21 NONAME
	_ZN19CVideoPlayerUtility18CustomCommandAsyncERK8TPckgBufI22TMMFMessageDestinationEiRK6TDesC8S7_R14TRequestStatus @ 22 NONAME
	_ZN19CVideoPlayerUtility18CustomCommandAsyncERK8TPckgBufI22TMMFMessageDestinationEiRK6TDesC8S7_R5TDes8R14TRequestStatus @ 23 NONAME
	_ZN19CVideoPlayerUtility18SetVideoFrameRateLEf @ 24 NONAME
	_ZN19CVideoPlayerUtility19GetDRMCustomCommandEv @ 25 NONAME
	_ZN19CVideoPlayerUtility19SetInitScreenNumberEi @ 26 NONAME
	_ZN19CVideoPlayerUtility23StopDirectScreenAccessLEv @ 27 NONAME
	_ZN19CVideoPlayerUtility24GetVideoLoadingProgressLERi @ 28 NONAME
	_ZN19CVideoPlayerUtility24StartDirectScreenAccessLEv @ 29 NONAME
	_ZN19CVideoPlayerUtility33RegisterAudioResourceNotificationER37MMMFAudioResourceNotificationCallback4TUidRK6TDesC8 @ 30 NONAME
	_ZN19CVideoPlayerUtility35RegisterForVideoLoadingNotificationER21MVideoLoadingObserver @ 31 NONAME
	_ZN19CVideoPlayerUtility36ControllerImplementationInformationLEv @ 32 NONAME
	_ZN19CVideoPlayerUtility39CancelRegisterAudioResourceNotificationE4TUid @ 33 NONAME
	_ZN19CVideoPlayerUtility4NewLER27MVideoPlayerUtilityObserveriiR10RWsSessionR15CWsScreenDeviceR11RWindowBaseRK5TRectSA_ @ 34 NONAME
	_ZN19CVideoPlayerUtility4PlayERK25TTimeIntervalMicroSecondsS2_ @ 35 NONAME
	_ZN19CVideoPlayerUtility4PlayEv @ 36 NONAME
	_ZN19CVideoPlayerUtility4StopEv @ 37 NONAME
	_ZN19CVideoPlayerUtility5CloseEv @ 38 NONAME
	_ZN19CVideoPlayerUtility6PauseLEv @ 39 NONAME
	_ZN19CVideoPlayerUtility7PrepareEv @ 40 NONAME
	_ZN19CVideoPlayerUtility8OpenDesLERK6TDesC84TUid @ 41 NONAME
	_ZN19CVideoPlayerUtility8OpenUrlLERK7TDesC16iRK6TDesC84TUid @ 42 NONAME
	_ZN19CVideoPlayerUtility9GetFrameLE12TDisplayMode @ 43 NONAME
	_ZN19CVideoPlayerUtility9GetFrameLE12TDisplayModeN13ContentAccess7TIntentE @ 44 NONAME
	_ZN19CVideoPlayerUtility9OpenFileLERK5RFile4TUid @ 45 NONAME
	_ZN19CVideoPlayerUtility9OpenFileLERK7TDesC164TUid @ 46 NONAME
	_ZN19CVideoPlayerUtility9OpenFileLERK9TMMSource4TUid @ 47 NONAME
	_ZN20CVideoPlayerUtility211AddDisplayLER10RWsSessioniR23MMMFSurfaceEventHandler @ 48 NONAME
	_ZN20CVideoPlayerUtility212SetRotationLERK7RWindow14TVideoRotation @ 49 NONAME
	_ZN20CVideoPlayerUtility213RemoveDisplayEi @ 50 NONAME
	_ZN20CVideoPlayerUtility213SetAutoScaleLERK7RWindow14TAutoScaleType @ 51 NONAME
	_ZN20CVideoPlayerUtility213SetAutoScaleLERK7RWindow14TAutoScaleTypeii @ 52 NONAME
	_ZN20CVideoPlayerUtility214RedrawSubtitleER7RWindowRK5TRect @ 53 NONAME
	_ZN20CVideoPlayerUtility215GetScaleFactorLERK7RWindowRfS3_ @ 54 NONAME
	_ZN20CVideoPlayerUtility215SetScaleFactorLERK7RWindowff @ 55 NONAME
	_ZN20CVideoPlayerUtility215SetVideoExtentLERK7RWindowRK5TRect @ 56 NONAME
	_ZN20CVideoPlayerUtility216DisableSubtitlesEv @ 57 NONAME
	_ZN20CVideoPlayerUtility216EnableSubtitlesLEv @ 58 NONAME
	_ZN20CVideoPlayerUtility217AddDisplayWindowLER10RWsSessionR15CWsScreenDeviceR7RWindow @ 59 NONAME
	_ZN20CVideoPlayerUtility217AddDisplayWindowLER10RWsSessionR15CWsScreenDeviceR7RWindowRK5TRectS8_ @ 60 NONAME
	_ZN20CVideoPlayerUtility217SubtitleLanguageLEv @ 61 NONAME
	_ZN20CVideoPlayerUtility218SetWindowClipRectLERK7RWindowRK5TRect @ 62 NONAME
	_ZN20CVideoPlayerUtility218SubtitlesAvailableEv @ 63 NONAME
	_ZN20CVideoPlayerUtility219RemoveDisplayWindowER7RWindow @ 64 NONAME
	_ZN20CVideoPlayerUtility220SetSubtitleLanguageLE9TLanguage @ 65 NONAME
	_ZN20CVideoPlayerUtility227SupportedSubtitleLanguagesLEv @ 66 NONAME
	_ZN20CVideoPlayerUtility24NewLER27MVideoPlayerUtilityObserverii @ 67 NONAME
	_ZN20CVideoPlayerUtility29RotationLERK7RWindow @ 68 NONAME
	_ZN21CVideoRecorderUtility12SetPriorityLEii @ 69 NONAME
	_ZN21CVideoRecorderUtility13SetAudioTypeLE7TFourCC @ 70 NONAME
	_ZN21CVideoRecorderUtility13SetVideoTypeLERK6TDesC8 @ 71 NONAME
	_ZN21CVideoRecorderUtility13VideoBitRateLEv @ 72 NONAME
	_ZN21CVideoRecorderUtility15SetMaxClipSizeLEi @ 73 NONAME
	_ZN21CVideoRecorderUtility16SetAudioBitRateLEi @ 74 NONAME
	_ZN21CVideoRecorderUtility16SetAudioEnabledLEi @ 75 NONAME
	_ZN21CVideoRecorderUtility16SetVideoBitRateLEi @ 76 NONAME
	_ZN21CVideoRecorderUtility16SetVideoEnabledLEi @ 77 NONAME
	_ZN21CVideoRecorderUtility16SetVideoQualityLEi @ 78 NONAME
	_ZN21CVideoRecorderUtility17AddMetaDataEntryLERK17CMMFMetaDataEntry @ 79 NONAME
	_ZN21CVideoRecorderUtility17CustomCommandSyncERK8TPckgBufI22TMMFMessageDestinationEiRK6TDesC8S7_ @ 80 NONAME
	_ZN21CVideoRecorderUtility17CustomCommandSyncERK8TPckgBufI22TMMFMessageDestinationEiRK6TDesC8S7_R5TDes8 @ 81 NONAME
	_ZN21CVideoRecorderUtility17SetAudioChannelsLEj @ 82 NONAME
	_ZN21CVideoRecorderUtility18CustomCommandAsyncERK8TPckgBufI22TMMFMessageDestinationEiRK6TDesC8S7_R14TRequestStatus @ 83 NONAME
	_ZN21CVideoRecorderUtility18CustomCommandAsyncERK8TPckgBufI22TMMFMessageDestinationEiRK6TDesC8S7_R5TDes8R14TRequestStatus @ 84 NONAME
	_ZN21CVideoRecorderUtility18SetVideoFrameRateLEf @ 85 NONAME
	_ZN21CVideoRecorderUtility18SetVideoFrameSizeLERK5TSize @ 86 NONAME
	_ZN21CVideoRecorderUtility19SetAudioSampleRateLEj @ 87 NONAME
	_ZN21CVideoRecorderUtility20RemoveMetaDataEntryLEi @ 88 NONAME
	_ZN21CVideoRecorderUtility20SetPixelAspectRatioLERK17TVideoAspectRatio @ 89 NONAME
	_ZN21CVideoRecorderUtility21ReplaceMetaDataEntryLEiRK17CMMFMetaDataEntry @ 90 NONAME
	_ZN21CVideoRecorderUtility23SetVideoFrameRateFixedLEi @ 91 NONAME
	_ZN21CVideoRecorderUtility36ControllerImplementationInformationLEv @ 92 NONAME
	_ZN21CVideoRecorderUtility4NewLER29MVideoRecorderUtilityObserverii @ 93 NONAME
	_ZN21CVideoRecorderUtility4StopEv @ 94 NONAME
	_ZN21CVideoRecorderUtility5CloseEv @ 95 NONAME
	_ZN21CVideoRecorderUtility6PauseLEv @ 96 NONAME
	_ZN21CVideoRecorderUtility6RecordEv @ 97 NONAME
	_ZN21CVideoRecorderUtility7PrepareEv @ 98 NONAME
	_ZN21CVideoRecorderUtility8OpenDesLER5TDes8i4TUidS2_RK6TDesC87TFourCC @ 99 NONAME
	_ZN21CVideoRecorderUtility8OpenUrlLERK7TDesC16ii4TUidS3_RK6TDesC87TFourCC @ 100 NONAME
	_ZN21CVideoRecorderUtility8SetGainLEi @ 101 NONAME
	_ZN21CVideoRecorderUtility9OpenFileLERK5RFilei4TUidS3_RK6TDesC87TFourCC @ 102 NONAME
	_ZN21CVideoRecorderUtility9OpenFileLERK7TDesC16i4TUidS3_RK6TDesC87TFourCC @ 103 NONAME
	_ZNK19CVideoPlayerUtility10AudioTypeLEv @ 104 NONAME
	_ZNK19CVideoPlayerUtility13AudioBitRateLEv @ 105 NONAME
	_ZNK19CVideoPlayerUtility13AudioEnabledLEv @ 106 NONAME
	_ZNK19CVideoPlayerUtility13PlayVelocityLEv @ 107 NONAME
	_ZNK19CVideoPlayerUtility13VideoBitRateLEv @ 108 NONAME
	_ZNK19CVideoPlayerUtility13VideoEnabledLEv @ 109 NONAME
	_ZNK19CVideoPlayerUtility14GetCropRegionLER5TRect @ 110 NONAME
	_ZNK19CVideoPlayerUtility14MetaDataEntryLEi @ 111 NONAME
	_ZNK19CVideoPlayerUtility15GetScaleFactorLERfS0_Ri @ 112 NONAME
	_ZNK19CVideoPlayerUtility15VideoFrameRateLEv @ 113 NONAME
	_ZNK19CVideoPlayerUtility15VideoFrameSizeLER5TSize @ 114 NONAME
	_ZNK19CVideoPlayerUtility19VideoFormatMimeTypeEv @ 115 NONAME
	_ZNK19CVideoPlayerUtility24GetPlayRateCapabilitiesLER26TVideoPlayRateCapabilities @ 116 NONAME
	_ZNK19CVideoPlayerUtility24NumberOfMetaDataEntriesLEv @ 117 NONAME
	_ZNK19CVideoPlayerUtility6VolumeEv @ 118 NONAME
	_ZNK19CVideoPlayerUtility7BalanceEv @ 119 NONAME
	_ZNK19CVideoPlayerUtility9DurationLEv @ 120 NONAME
	_ZNK19CVideoPlayerUtility9MaxVolumeEv @ 121 NONAME
	_ZNK19CVideoPlayerUtility9PositionLEv @ 122 NONAME
	_ZNK19CVideoPlayerUtility9PriorityLERiR22TMdaPriorityPreference @ 123 NONAME
	_ZNK19CVideoPlayerUtility9RotationLEv @ 124 NONAME
	_ZNK21CVideoRecorderUtility10AudioTypeLEv @ 125 NONAME
	_ZNK21CVideoRecorderUtility12GetPriorityLERiR22TMdaPriorityPreference @ 126 NONAME
	_ZNK21CVideoRecorderUtility13AudioBitRateLEv @ 127 NONAME
	_ZNK21CVideoRecorderUtility13AudioEnabledLEv @ 128 NONAME
	_ZNK21CVideoRecorderUtility13VideoEnabledLEv @ 129 NONAME
	_ZNK21CVideoRecorderUtility13VideoQualityLEv @ 130 NONAME
	_ZNK21CVideoRecorderUtility14AudioChannelsLEv @ 131 NONAME
	_ZNK21CVideoRecorderUtility14MetaDataEntryLEi @ 132 NONAME
	_ZNK21CVideoRecorderUtility15VideoFrameRateLEv @ 133 NONAME
	_ZNK21CVideoRecorderUtility16AudioSampleRateLEv @ 134 NONAME
	_ZNK21CVideoRecorderUtility18GetVideoFrameSizeLER5TSize @ 135 NONAME
	_ZNK21CVideoRecorderUtility19RecordTimeAvailableEv @ 136 NONAME
	_ZNK21CVideoRecorderUtility19VideoFormatMimeTypeEv @ 137 NONAME
	_ZNK21CVideoRecorderUtility20GetPixelAspectRatioLER17TVideoAspectRatio @ 138 NONAME
	_ZNK21CVideoRecorderUtility20VideoFrameRateFixedLEv @ 139 NONAME
	_ZNK21CVideoRecorderUtility23GetSupportedAudioTypesLER6RArrayI7TFourCCE @ 140 NONAME
	_ZNK21CVideoRecorderUtility23GetSupportedVideoTypesLER11CDesC8Array @ 141 NONAME
	_ZNK21CVideoRecorderUtility24NumberOfMetaDataEntriesLEv @ 142 NONAME
	_ZNK21CVideoRecorderUtility26GetSupportedAudioChannelsLER6RArrayIjE @ 143 NONAME
	_ZNK21CVideoRecorderUtility29GetSupportedAudioSampleRatesLER6RArrayIjE @ 144 NONAME
	_ZNK21CVideoRecorderUtility30GetSupportedPixelAspectRatiosLER6RArrayI17TVideoAspectRatioE @ 145 NONAME
	_ZNK21CVideoRecorderUtility5GainLEv @ 146 NONAME
	_ZNK21CVideoRecorderUtility8MaxGainLEv @ 147 NONAME
	_ZNK21CVideoRecorderUtility9DurationLEv @ 148 NONAME
	_ZTI19CVideoPlayerUtility @ 149 NONAME
	_ZTI20CVideoPlayerUtility2 @ 150 NONAME
	_ZTI21CTestStepVidPlayerARN @ 151 NONAME
	_ZTI21CTestStepVidPlayerDrm @ 152 NONAME
	_ZTI21CTestStepVidPlayerNew @ 153 NONAME
	_ZTI21CTestStepVidPlayerVol @ 154 NONAME
	_ZTI21CVideoRecorderUtility @ 155 NONAME
	_ZTI22CTestStepVidPlayerMeta @ 156 NONAME
	_ZTI22CTestStepVidPlayerPlay @ 157 NONAME
	_ZTI22CTestStepVidPlayerStop @ 158 NONAME
	_ZTI23CMMFVideoPlayerCallback @ 159 NONAME
	_ZTI23CTestGenericAosCallback @ 160 NONAME
	_ZTI23CTestGenericArnCallback @ 161 NONAME
	_ZTI23CTestStepVidPlayerClose @ 162 NONAME
	_ZTI23CTestStepVidPlayerPause @ 163 NONAME
	_ZTI23CTestStepVidPlayerScale @ 164 NONAME
	_ZTI23CTestStepVidRecordError @ 165 NONAME
	_ZTI23CTestStepVidRecorderNew @ 166 NONAME
	_ZTI24CTestStepOOMVidPlayerNew @ 167 NONAME
	_ZTI24CTestStepVidRecorderGain @ 168 NONAME
	_ZTI24CTestStepVidRecorderMeta @ 169 NONAME
	_ZTI24CTestStepVidRecorderStop @ 170 NONAME
	_ZTI25CMMFVideoRecorderCallback @ 171 NONAME
	_ZTI25CTestStepUnitMMFVidClient @ 172 NONAME
	_ZTI25CTestStepVidPlayerARN0700 @ 173 NONAME
	_ZTI25CTestStepVidPlayerARN0701 @ 174 NONAME
	_ZTI25CTestStepVidPlayerARN0702 @ 175 NONAME
	_ZTI25CTestStepVidPlayerARN0703 @ 176 NONAME
	_ZTI25CTestStepVidPlayerBalance @ 177 NONAME
	_ZTI25CTestStepVidPlayerOpenUrl @ 178 NONAME
	_ZTI25CTestStepVidPlayerRestart @ 179 NONAME
	_ZTI25CTestStepVidRecorderClose @ 180 NONAME
	_ZTI25CTestStepVidRecorderPause @ 181 NONAME
	_ZTI26CTestStepVidPlayerDuration @ 182 NONAME
	_ZTI26CTestStepVidPlayerGetFrame @ 183 NONAME
	_ZTI26CTestStepVidPlayerOpenDesc @ 184 NONAME
	_ZTI26CTestStepVidPlayerOpenFile @ 185 NONAME
	_ZTI26CTestStepVidPlayerPriority @ 186 NONAME
	_ZTI26CTestStepVidPlayerRotation @ 187 NONAME
	_ZTI26CTestStepVidRecorderRecord @ 188 NONAME
	_ZTI26CTestSuiteUnitMMFVidClient @ 189 NONAME
	_ZTI27CTestStepVidPlayerAudioType @ 190 NONAME
	_ZTI27CTestStepVidPlayerAutoScale @ 191 NONAME
	_ZTI27CTestStepVidPlayerPlayPause @ 192 NONAME
	_ZTI27CTestStepVidPlayerVideoType @ 193 NONAME
	_ZTI27CTestStepVidRecorderOpenUrl @ 194 NONAME
	_ZTI27CTestStepVidRecorderPrepare @ 195 NONAME
	_ZTI28CTestStepOOMVidPlayerOpenUrl @ 196 NONAME
	_ZTI28CTestStepVidPlayerAudEnabled @ 197 NONAME
	_ZTI28CTestStepVidPlayerCropRegion @ 198 NONAME
	_ZTI28CTestStepVidPlayerPlayWindow @ 199 NONAME
	_ZTI28CTestStepVidRecorderABitRate @ 200 NONAME
	_ZTI28CTestStepVidRecorderDuration @ 201 NONAME
	_ZTI28CTestStepVidRecorderOpenDesc @ 202 NONAME
	_ZTI28CTestStepVidRecorderOpenFile @ 203 NONAME
	_ZTI28CTestStepVidRecorderPriority @ 204 NONAME
	_ZTI28CTestStepVidRecorderVBitRate @ 205 NONAME
	_ZTI29CTestStepOOMVidPlayerOpenDesc @ 206 NONAME
	_ZTI29CTestStepOOMVidPlayerOpenFile @ 207 NONAME
	_ZTI29CTestStepVidPlayerGetABitRate @ 208 NONAME
	_ZTI29CTestStepVidPlayerGetVBitRate @ 209 NONAME
	_ZTI29CTestStepVidRecorderAudioType @ 210 NONAME
	_ZTI29CTestStepVidRecorderVideoType @ 211 NONAME
	_ZTI30CTestStepVidPlayerClipPosition @ 212 NONAME
	_ZTI30CTestStepVidPlayerGeneralEvent @ 213 NONAME
	_ZTI30CTestStepVidPlayerGetFrameRate @ 214 NONAME
	_ZTI30CTestStepVidPlayerNewPriorPref @ 215 NONAME
	_ZTI30CTestStepVidPlayerRefreshFrame @ 216 NONAME
	_ZTI30CTestStepVidPlayerStopStartDSA @ 217 NONAME
	_ZTI30CTestStepVidRecorderAudEnabled @ 218 NONAME
	_ZTI30CTestStepVidRecorderRecordTime @ 219 NONAME
	_ZTI30CTestStepVidRecorderVFrameRate @ 220 NONAME
	_ZTI30CTestStepVidRecorderVFrameSize @ 221 NONAME
	_ZTI31CTestStepVidPlayerGetVFrameSize @ 222 NONAME
	_ZTI31CTestStepVidPlayerOpenviaUriTag @ 223 NONAME
	_ZTI31CTestStepVidPlayerReloadingTest @ 224 NONAME
	_ZTI31CTestStepVidRecorderHandleEvent @ 225 NONAME
	_ZTI31CTestStepVidRecorderMaxClipSize @ 226 NONAME
	_ZTI32CTestStepAllocFailVidRecorderNew @ 227 NONAME
	_ZTI32CTestStepVidPlayerSetVideoExtent @ 228 NONAME
	_ZTI32CTestStepVidPlayerSubtitleRedraw @ 229 NONAME
	_ZTI32CTestStepVidRecorderGeneralEvent @ 230 NONAME
	_ZTI33CTestStepVidOnlyPlayerNoAudioType @ 231 NONAME
	_ZTI33CTestStepVidPlayerOpenFileCtrlUid @ 232 NONAME
	_ZTI33CTestStepVidPlayerOpenTryNextCtrl @ 233 NONAME
	_ZTI33CTestStepVideoInterruptionByAudio @ 234 NONAME
	_ZTI34CTestStepVidPlayerAddDisplayWindow @ 235 NONAME
	_ZTI34CTestStepVidPlayerSetDisplayWindow @ 236 NONAME
	_ZTI34CTestStepVidPlayerSubtitleLanguage @ 237 NONAME
	_ZTI35CTestStepVidPlayerSetWindowClipRect @ 238 NONAME
	_ZTI35CTestStepVidPlayerSubtitleAvailable @ 239 NONAME
	_ZTI35CTestStepVidPlayerSubtitleEnableNeg @ 240 NONAME
	_ZTI35CTestStepVidRecorderOpenFileCtrlUid @ 241 NONAME
	_ZTI36CTestStepAllocFailVidRecorderOpenUrl @ 242 NONAME
	_ZTI37CTestStepAllocFailVidRecorderOpenDesc @ 243 NONAME
	_ZTI37CTestStepAllocFailVidRecorderOpenFile @ 244 NONAME
	_ZTI37CTestStepVidPlayerRemoveDisplayWindow @ 245 NONAME
	_ZTI37CTestStepVidPlayerSetInitScreenNumber @ 246 NONAME
	_ZTI37CTestStepVidPlayerSubtitleMultiWindow @ 247 NONAME
	_ZTI38CTestStepVidPlayerSubtitleLangNotAvail @ 248 NONAME
	_ZTI39CTestStepVidPlayerGetImplementationInfo @ 249 NONAME
	_ZTI39CTestStepVidPlayerSendCustomCommandSync @ 250 NONAME
	_ZTI39CTestStepVidPlayerSubtitleEnableDisable @ 251 NONAME
	_ZTI39CTestStepVidPlayerSubtitleLangNotEnable @ 252 NONAME
	_ZTI40CTestStepVidPlayerSendCustomCommandAsync @ 253 NONAME
	_ZTI40CTestStepVidPlayerSubtitleRedrawNotReady @ 254 NONAME
	_ZTI41CTestStepVidPlayerCheckImplementationInfo @ 255 NONAME
	_ZTI41CTestStepVidPlayerReplaceSurfaceSequence1 @ 256 NONAME
	_ZTI41CTestStepVidPlayerReplaceSurfaceSequence2 @ 257 NONAME
	_ZTI41CTestStepVidRecorderGetImplementationInfo @ 258 NONAME
	_ZTI41CTestStepVidRecorderSendCustomCommandSync @ 259 NONAME
	_ZTI42CTestStepVidPlayerSubtitleNotEnabledRedraw @ 260 NONAME
	_ZTI42CTestStepVidRecorderSendCustomCommandAsync @ 261 NONAME
	_ZTI43CTestStepVidPlayerOpenDurationCustomCommand @ 262 NONAME
	_ZTI43CTestStepVidRecorderCheckImplementationInfo @ 263 NONAME
	_ZTI44CTestStepAllocFailVidRecorderOpenFileCtrlUid @ 264 NONAME
	_ZTI45CTestStepVidPlayerSubtitleWindowSettingChange @ 265 NONAME
	_ZTI46CTestStepVidPlayerSubtitleAddRemoveMultiWindow @ 266 NONAME
	_ZTI50CTestStepVidPlayerSubtitleMultiWindowSettingChange @ 267 NONAME
	_ZTV19CVideoPlayerUtility @ 268 NONAME
	_ZTV20CVideoPlayerUtility2 @ 269 NONAME
	_ZTV21CTestStepVidPlayerARN @ 270 NONAME
	_ZTV21CTestStepVidPlayerDrm @ 271 NONAME
	_ZTV21CTestStepVidPlayerNew @ 272 NONAME
	_ZTV21CTestStepVidPlayerVol @ 273 NONAME
	_ZTV21CVideoRecorderUtility @ 274 NONAME
	_ZTV22CTestStepVidPlayerMeta @ 275 NONAME
	_ZTV22CTestStepVidPlayerPlay @ 276 NONAME
	_ZTV22CTestStepVidPlayerStop @ 277 NONAME
	_ZTV23CMMFVideoPlayerCallback @ 278 NONAME
	_ZTV23CTestGenericAosCallback @ 279 NONAME
	_ZTV23CTestGenericArnCallback @ 280 NONAME
	_ZTV23CTestStepVidPlayerClose @ 281 NONAME
	_ZTV23CTestStepVidPlayerPause @ 282 NONAME
	_ZTV23CTestStepVidPlayerScale @ 283 NONAME
	_ZTV23CTestStepVidRecordError @ 284 NONAME
	_ZTV23CTestStepVidRecorderNew @ 285 NONAME
	_ZTV24CTestStepOOMVidPlayerNew @ 286 NONAME
	_ZTV24CTestStepVidRecorderGain @ 287 NONAME
	_ZTV24CTestStepVidRecorderMeta @ 288 NONAME
	_ZTV24CTestStepVidRecorderStop @ 289 NONAME
	_ZTV25CMMFVideoRecorderCallback @ 290 NONAME
	_ZTV25CTestStepUnitMMFVidClient @ 291 NONAME
	_ZTV25CTestStepVidPlayerARN0700 @ 292 NONAME
	_ZTV25CTestStepVidPlayerARN0701 @ 293 NONAME
	_ZTV25CTestStepVidPlayerARN0702 @ 294 NONAME
	_ZTV25CTestStepVidPlayerARN0703 @ 295 NONAME
	_ZTV25CTestStepVidPlayerBalance @ 296 NONAME
	_ZTV25CTestStepVidPlayerOpenUrl @ 297 NONAME
	_ZTV25CTestStepVidPlayerRestart @ 298 NONAME
	_ZTV25CTestStepVidRecorderClose @ 299 NONAME
	_ZTV25CTestStepVidRecorderPause @ 300 NONAME
	_ZTV26CTestStepVidPlayerDuration @ 301 NONAME
	_ZTV26CTestStepVidPlayerGetFrame @ 302 NONAME
	_ZTV26CTestStepVidPlayerOpenDesc @ 303 NONAME
	_ZTV26CTestStepVidPlayerOpenFile @ 304 NONAME
	_ZTV26CTestStepVidPlayerPriority @ 305 NONAME
	_ZTV26CTestStepVidPlayerRotation @ 306 NONAME
	_ZTV26CTestStepVidRecorderRecord @ 307 NONAME
	_ZTV26CTestSuiteUnitMMFVidClient @ 308 NONAME
	_ZTV27CTestStepVidPlayerAudioType @ 309 NONAME
	_ZTV27CTestStepVidPlayerAutoScale @ 310 NONAME
	_ZTV27CTestStepVidPlayerPlayPause @ 311 NONAME
	_ZTV27CTestStepVidPlayerVideoType @ 312 NONAME
	_ZTV27CTestStepVidRecorderOpenUrl @ 313 NONAME
	_ZTV27CTestStepVidRecorderPrepare @ 314 NONAME
	_ZTV28CTestStepOOMVidPlayerOpenUrl @ 315 NONAME
	_ZTV28CTestStepVidPlayerAudEnabled @ 316 NONAME
	_ZTV28CTestStepVidPlayerCropRegion @ 317 NONAME
	_ZTV28CTestStepVidPlayerPlayWindow @ 318 NONAME
	_ZTV28CTestStepVidRecorderABitRate @ 319 NONAME
	_ZTV28CTestStepVidRecorderDuration @ 320 NONAME
	_ZTV28CTestStepVidRecorderOpenDesc @ 321 NONAME
	_ZTV28CTestStepVidRecorderOpenFile @ 322 NONAME
	_ZTV28CTestStepVidRecorderPriority @ 323 NONAME
	_ZTV28CTestStepVidRecorderVBitRate @ 324 NONAME
	_ZTV29CTestStepOOMVidPlayerOpenDesc @ 325 NONAME
	_ZTV29CTestStepOOMVidPlayerOpenFile @ 326 NONAME
	_ZTV29CTestStepVidPlayerGetABitRate @ 327 NONAME
	_ZTV29CTestStepVidPlayerGetVBitRate @ 328 NONAME
	_ZTV29CTestStepVidRecorderAudioType @ 329 NONAME
	_ZTV29CTestStepVidRecorderVideoType @ 330 NONAME
	_ZTV30CTestStepVidPlayerClipPosition @ 331 NONAME
	_ZTV30CTestStepVidPlayerGeneralEvent @ 332 NONAME
	_ZTV30CTestStepVidPlayerGetFrameRate @ 333 NONAME
	_ZTV30CTestStepVidPlayerNewPriorPref @ 334 NONAME
	_ZTV30CTestStepVidPlayerRefreshFrame @ 335 NONAME
	_ZTV30CTestStepVidPlayerStopStartDSA @ 336 NONAME
	_ZTV30CTestStepVidRecorderAudEnabled @ 337 NONAME
	_ZTV30CTestStepVidRecorderRecordTime @ 338 NONAME
	_ZTV30CTestStepVidRecorderVFrameRate @ 339 NONAME
	_ZTV30CTestStepVidRecorderVFrameSize @ 340 NONAME
	_ZTV31CTestStepVidPlayerGetVFrameSize @ 341 NONAME
	_ZTV31CTestStepVidPlayerOpenviaUriTag @ 342 NONAME
	_ZTV31CTestStepVidPlayerReloadingTest @ 343 NONAME
	_ZTV31CTestStepVidRecorderHandleEvent @ 344 NONAME
	_ZTV31CTestStepVidRecorderMaxClipSize @ 345 NONAME
	_ZTV32CTestStepAllocFailVidRecorderNew @ 346 NONAME
	_ZTV32CTestStepVidPlayerSetVideoExtent @ 347 NONAME
	_ZTV32CTestStepVidPlayerSubtitleRedraw @ 348 NONAME
	_ZTV32CTestStepVidRecorderGeneralEvent @ 349 NONAME
	_ZTV33CTestStepVidOnlyPlayerNoAudioType @ 350 NONAME
	_ZTV33CTestStepVidPlayerOpenFileCtrlUid @ 351 NONAME
	_ZTV33CTestStepVidPlayerOpenTryNextCtrl @ 352 NONAME
	_ZTV33CTestStepVideoInterruptionByAudio @ 353 NONAME
	_ZTV34CTestStepVidPlayerAddDisplayWindow @ 354 NONAME
	_ZTV34CTestStepVidPlayerSetDisplayWindow @ 355 NONAME
	_ZTV34CTestStepVidPlayerSubtitleLanguage @ 356 NONAME
	_ZTV35CTestStepVidPlayerSetWindowClipRect @ 357 NONAME
	_ZTV35CTestStepVidPlayerSubtitleAvailable @ 358 NONAME
	_ZTV35CTestStepVidPlayerSubtitleEnableNeg @ 359 NONAME
	_ZTV35CTestStepVidRecorderOpenFileCtrlUid @ 360 NONAME
	_ZTV36CTestStepAllocFailVidRecorderOpenUrl @ 361 NONAME
	_ZTV37CTestStepAllocFailVidRecorderOpenDesc @ 362 NONAME
	_ZTV37CTestStepAllocFailVidRecorderOpenFile @ 363 NONAME
	_ZTV37CTestStepVidPlayerRemoveDisplayWindow @ 364 NONAME
	_ZTV37CTestStepVidPlayerSetInitScreenNumber @ 365 NONAME
	_ZTV37CTestStepVidPlayerSubtitleMultiWindow @ 366 NONAME
	_ZTV38CTestStepVidPlayerSubtitleLangNotAvail @ 367 NONAME
	_ZTV39CTestStepVidPlayerGetImplementationInfo @ 368 NONAME
	_ZTV39CTestStepVidPlayerSendCustomCommandSync @ 369 NONAME
	_ZTV39CTestStepVidPlayerSubtitleEnableDisable @ 370 NONAME
	_ZTV39CTestStepVidPlayerSubtitleLangNotEnable @ 371 NONAME
	_ZTV40CTestStepVidPlayerSendCustomCommandAsync @ 372 NONAME
	_ZTV40CTestStepVidPlayerSubtitleRedrawNotReady @ 373 NONAME
	_ZTV41CTestStepVidPlayerCheckImplementationInfo @ 374 NONAME
	_ZTV41CTestStepVidPlayerReplaceSurfaceSequence1 @ 375 NONAME
	_ZTV41CTestStepVidPlayerReplaceSurfaceSequence2 @ 376 NONAME
	_ZTV41CTestStepVidRecorderGetImplementationInfo @ 377 NONAME
	_ZTV41CTestStepVidRecorderSendCustomCommandSync @ 378 NONAME
	_ZTV42CTestStepVidPlayerSubtitleNotEnabledRedraw @ 379 NONAME
	_ZTV42CTestStepVidRecorderSendCustomCommandAsync @ 380 NONAME
	_ZTV43CTestStepVidPlayerOpenDurationCustomCommand @ 381 NONAME
	_ZTV43CTestStepVidRecorderCheckImplementationInfo @ 382 NONAME
	_ZTV44CTestStepAllocFailVidRecorderOpenFileCtrlUid @ 383 NONAME
	_ZTV45CTestStepVidPlayerSubtitleWindowSettingChange @ 384 NONAME
	_ZTV46CTestStepVidPlayerSubtitleAddRemoveMultiWindow @ 385 NONAME
	_ZTV50CTestStepVidPlayerSubtitleMultiWindowSettingChange @ 386 NONAME
	_ZN19CVideoPlayerUtility28SetExternalDisplaySwitchingLEii @ 387 NONAME
	_ZN20CVideoPlayerUtility228SetExternalDisplaySwitchingLEii @ 388 NONAME
	_ZN38CExtDisplayConnectionProviderInterfaceC2Ev @ 389 NONAME
	_ZN38CExtDisplayConnectionProviderInterfaceD0Ev @ 390 NONAME
	_ZN38CExtDisplayConnectionProviderInterfaceD1Ev @ 391 NONAME
	_ZN38CExtDisplayConnectionProviderInterfaceD2Ev @ 392 NONAME
	_ZTI38CExtDisplayConnectionProviderInterface @ 393 NONAME
	_ZTV38CExtDisplayConnectionProviderInterface @ 394 NONAME
