EXPORTS
	?GetPositionInfo@RLbsPositionUpdates@@QBEHAAHPAXIAAVTTime@@2@Z @ 1 NONAME ; int RLbsPositionUpdates::GetPositionInfo(int &, void *, unsigned int, class TTime &, class TTime &) const
	?SetModuleStatus@RLbsModuleStatus@@QAEHPBXHABK@Z @ 2 NONAME ; int RLbsModuleStatus::SetModuleStatus(void const *, int, unsigned long const &)
	?SetPowerAdvice@TLbsPositionUpdateRequestStatus@@QAEXW4TPowerAdvice@TLbsPositionUpdateRequestBase@@@Z @ 3 NONAME ; void TLbsPositionUpdateRequestStatus::SetPowerAdvice(enum TLbsPositionUpdateRequestBase::TPowerAdvice)
	?QualityProfileId@TQualityProfile@@QBEKXZ @ 4 NONAME ; unsigned long TQualityProfile::QualityProfileId(void) const
	?MeasurementIntermediateFixTime@TQualityProfile@@QBE?AVTTimeIntervalMicroSeconds@@XZ @ 5 NONAME ; class TTimeIntervalMicroSeconds TQualityProfile::MeasurementIntermediateFixTime(void) const
	?NotifyModuleStatusChange@RLbsModuleStatus@@QAEXAAVTRequestStatus@@@Z @ 6 NONAME ; void RLbsModuleStatus::NotifyModuleStatusChange(class TRequestStatus &)
	?InitializeL@LbsSuplPushProps@@SAXXZ @ 7 NONAME ; void LbsSuplPushProps::InitializeL(void)
	?GetModuleInfoByIndex@LbsModuleInfo@@SAHHPAXH@Z @ 8 NONAME ; int LbsModuleInfo::GetModuleInfoByIndex(int, void *, int)
	?OpenL@RLbsGpsMeasurementUpdates@@QAEXXZ @ 9 NONAME ; void RLbsGpsMeasurementUpdates::OpenL(void)
	?HybridRequest@TLbsPositionUpdateRequest@@QBEABHXZ @ 10 NONAME ; int const & TLbsPositionUpdateRequest::HybridRequest(void) const
	?MinHorizontalAccuracy@TQualityProfile@@QBEMXZ @ 11 NONAME ; float TQualityProfile::MinHorizontalAccuracy(void) const
	?SetMeasurementInitialFixTime@TQualityProfile@@QAEXVTTimeIntervalMicroSeconds@@@Z @ 12 NONAME ; void TQualityProfile::SetMeasurementInitialFixTime(class TTimeIntervalMicroSeconds)
	?InitializeL@RLbsModuleStatus@@SAXABVTPositionModuleStatus@@@Z @ 13 NONAME ; void RLbsModuleStatus::InitializeL(class TPositionModuleStatus const &)
	?InitializeL@RLbsSystemModuleEvent@@SAXXZ @ 14 NONAME ; void RLbsSystemModuleEvent::InitializeL(void)
	?SetSystemModuleEvent@RLbsSystemModuleEvent@@QAEHABK@Z @ 15 NONAME ; int RLbsSystemModuleEvent::SetSystemModuleEvent(unsigned long const &)
	?TargetTime@TLbsPositionUpdateRequest@@QAEAAVTTime@@XZ @ 16 NONAME ; class TTime & TLbsPositionUpdateRequest::TargetTime(void)
	?GetDeviceCapabilities@LbsModuleInfo@@SAHVTUid@@AAK@Z @ 17 NONAME ; int LbsModuleInfo::GetDeviceCapabilities(class TUid, unsigned long &)
	?SetPositionInfo@RLbsPositionUpdates@@QAEHHHPBXIABVTTime@@1ABI2@Z @ 18 NONAME ; int RLbsPositionUpdates::SetPositionInfo(int, int, void const *, unsigned int, class TTime const &, class TTime const &, unsigned int const &, unsigned int const &)
	?SetPositionInfo@RLbsPositionUpdates@@QAEHABHHPBXIABVTTime@@2@Z @ 19 NONAME ; int RLbsPositionUpdates::SetPositionInfo(int const &, int, void const *, unsigned int, class TTime const &, class TTime const &)
	?GetPositionUpdateRequest@RLbsPositionUpdateRequests@@QBEHAAVTLbsPositionUpdateRequestBase@@@Z @ 20 NONAME ; int RLbsPositionUpdateRequests::GetPositionUpdateRequest(class TLbsPositionUpdateRequestBase &) const
	?ShutDownL@RLbsPositionUpdateRequests@@SAXXZ @ 21 NONAME ; void RLbsPositionUpdateRequests::ShutDownL(void)
	?NotifyPositionUpdateRequestChange@RLbsPositionUpdateRequests@@QAEXAAVTRequestStatus@@@Z @ 22 NONAME ; void RLbsPositionUpdateRequests::NotifyPositionUpdateRequestChange(class TRequestStatus &)
	?PowerAdvice@TLbsPositionUpdateRequestStatus@@QAE?AW4TPowerAdvice@TLbsPositionUpdateRequestBase@@XZ @ 23 NONAME ; enum TLbsPositionUpdateRequestBase::TPowerAdvice TLbsPositionUpdateRequestStatus::PowerAdvice(void)
	?GetAsMuchAsCanPositionInfo@RLbsPositionUpdates@@QBEHAAHPAXIAAVTTime@@2@Z @ 24 NONAME ; int RLbsPositionUpdates::GetAsMuchAsCanPositionInfo(int &, void *, unsigned int, class TTime &, class TTime &) const
	?InitializeL@RLbsPositionUpdateRequests@@SAXXZ @ 25 NONAME ; void RLbsPositionUpdateRequests::InitializeL(void)
	?NotifySystemModuleEvent@RLbsSystemModuleEvent@@QAEXAAVTRequestStatus@@@Z @ 26 NONAME ; void RLbsSystemModuleEvent::NotifySystemModuleEvent(class TRequestStatus &)
	?InitializeL@LbsModuleInfo@@SAXQAPBVTPositionModuleInfoExtended@@H@Z @ 27 NONAME ; void LbsModuleInfo::InitializeL(class TPositionModuleInfoExtended const * * const, int)
	?HybridRequest@TLbsPositionUpdateRequest@@QAEAAHXZ @ 28 NONAME ; int & TLbsPositionUpdateRequest::HybridRequest(void)
	?Type@TLbsPositionUpdateRequestBase@@QAE?AW4TType@1@XZ @ 29 NONAME ; enum TLbsPositionUpdateRequestBase::TType TLbsPositionUpdateRequestBase::Type(void)
	??0RLbsPositionUpdates@@QAE@XZ @ 30 NONAME ; RLbsPositionUpdates::RLbsPositionUpdates(void)
	??0TPositionModuleInfoExtended@@QAE@XZ @ 31 NONAME ; TPositionModuleInfoExtended::TPositionModuleInfoExtended(void)
	?GetGpsMeasurementInfo@RLbsGpsMeasurementUpdates@@QBEHPAXIAAVTTime@@@Z @ 32 NONAME ; int RLbsGpsMeasurementUpdates::GetGpsMeasurementInfo(void *, unsigned int, class TTime &) const
	?OpenL@RLbsPositionUpdates@@QAEXVTUid@@@Z @ 33 NONAME ; void RLbsPositionUpdates::OpenL(class TUid)
	?CancelNotifyGpsMeasurementUpdate@RLbsGpsMeasurementUpdates@@QAEXXZ @ 34 NONAME ; void RLbsGpsMeasurementUpdates::CancelNotifyGpsMeasurementUpdate(void)
	?GetDataSourceId@LbsModuleInfo@@SAHVTUid@@AAV2@@Z @ 35 NONAME ; int LbsModuleInfo::GetDataSourceId(class TUid, class TUid &)
	?SetPositionUpdateRequest@RLbsPositionUpdateRequests@@QAEHABVTLbsPositionUpdateRequestBase@@@Z @ 36 NONAME ; int RLbsPositionUpdateRequests::SetPositionUpdateRequest(class TLbsPositionUpdateRequestBase const &)
	?MinVerticalAccuracy@TQualityProfile@@QBEMXZ @ 37 NONAME ; float TQualityProfile::MinVerticalAccuracy(void) const
	?SetMeasurementIntermediateFixTime@TQualityProfile@@QAEXVTTimeIntervalMicroSeconds@@@Z @ 38 NONAME ; void TQualityProfile::SetMeasurementIntermediateFixTime(class TTimeIntervalMicroSeconds)
	??0TQualityProfile@@QAE@XZ @ 39 NONAME ; TQualityProfile::TQualityProfile(void)
	?RequestQuality@TLbsPositionUpdateRequest@@QAEAAVTLbsLocRequestQualityInt@@XZ @ 40 NONAME ; class TLbsLocRequestQualityInt & TLbsPositionUpdateRequest::RequestQuality(void)
	?NewClient@TLbsPositionUpdateRequest@@QBEABHXZ @ 41 NONAME ; int const & TLbsPositionUpdateRequest::NewClient(void) const
	?ShutDownL@LbsModuleInfo@@SAXXZ @ 42 NONAME ; void LbsModuleInfo::ShutDownL(void)
	?NotifyGpsMeasurementUpdate@RLbsGpsMeasurementUpdates@@QAEXAAVTRequestStatus@@@Z @ 43 NONAME ; void RLbsGpsMeasurementUpdates::NotifyGpsMeasurementUpdate(class TRequestStatus &)
	?GetNumQualityProfiles@LbsQualityProfile@@SAHAAI@Z @ 44 NONAME ; int LbsQualityProfile::GetNumQualityProfiles(unsigned int &)
	?NotifyPositionUpdate@RLbsPositionUpdates@@QAEXAAVTRequestStatus@@@Z @ 45 NONAME ; void RLbsPositionUpdates::NotifyPositionUpdate(class TRequestStatus &)
	?GetQualityProfileById@LbsQualityProfile@@SAHKAAVTQualityProfile@@@Z @ 46 NONAME ; int LbsQualityProfile::GetQualityProfileById(unsigned long, class TQualityProfile &)
	??0TLbsPositionUpdateRequest@@QAE@XZ @ 47 NONAME ; TLbsPositionUpdateRequest::TLbsPositionUpdateRequest(void)
	??0RLbsSystemModuleEvent@@QAE@XZ @ 48 NONAME ; RLbsSystemModuleEvent::RLbsSystemModuleEvent(void)
	?MaxFixTime@TQualityProfile@@QBE?AVTTimeIntervalMicroSeconds@@XZ @ 49 NONAME ; class TTimeIntervalMicroSeconds TQualityProfile::MaxFixTime(void) const
	?CancelNotifyModuleStatusChange@RLbsModuleStatus@@QAEXXZ @ 50 NONAME ; void RLbsModuleStatus::CancelNotifyModuleStatusChange(void)
	?InitializeL@RLbsPositionUpdates@@SAXABVTPositionExtendedSatelliteInfo@@@Z @ 51 NONAME ; void RLbsPositionUpdates::InitializeL(class TPositionExtendedSatelliteInfo const &)
	?SetQualityProfileId@TQualityProfile@@QAEXK@Z @ 52 NONAME ; void TQualityProfile::SetQualityProfileId(unsigned long)
	??0TLbsPositionUpdateRequestCancel@@QAE@XZ @ 53 NONAME ; TLbsPositionUpdateRequestCancel::TLbsPositionUpdateRequestCancel(void)
	?FinalNetPositionLag@TQualityProfile@@QBE?AVTTimeIntervalMicroSeconds@@XZ @ 54 NONAME ; class TTimeIntervalMicroSeconds TQualityProfile::FinalNetPositionLag(void) const
	?CancelNotifyPositionUpdate@RLbsPositionUpdates@@QAEXXZ @ 55 NONAME ; void RLbsPositionUpdates::CancelNotifyPositionUpdate(void)
	?OpenL@RLbsModuleStatus@@QAEXVTUid@@@Z @ 56 NONAME ; void RLbsModuleStatus::OpenL(class TUid)
	??8TLbsPositionUpdateRequestBase@@QAEHABV0@@Z @ 57 NONAME ; int TLbsPositionUpdateRequestBase::operator==(class TLbsPositionUpdateRequestBase const &)
	??0TLbsPositionUpdateRequestStatus@@IAE@W4TType@TLbsPositionUpdateRequestBase@@@Z @ 58 NONAME ; TLbsPositionUpdateRequestStatus::TLbsPositionUpdateRequestStatus(enum TLbsPositionUpdateRequestBase::TType)
	??0RLbsPositionUpdateRequests@@QAE@XZ @ 59 NONAME ; RLbsPositionUpdateRequests::RLbsPositionUpdateRequests(void)
	?Close@RLbsPositionUpdateRequests@@QAEXXZ @ 60 NONAME ; void RLbsPositionUpdateRequests::Close(void)
	?GetModuleStatus@RLbsModuleStatus@@QBEHPAXHAAK@Z @ 61 NONAME ; int RLbsModuleStatus::GetModuleStatus(void *, int, unsigned long &) const
	?InitializeL@RLbsGpsMeasurementUpdates@@SAXXZ @ 62 NONAME ; void RLbsGpsMeasurementUpdates::InitializeL(void)
	?MeasurementInitialFixTime@TQualityProfile@@QBE?AVTTimeIntervalMicroSeconds@@XZ @ 63 NONAME ; class TTimeIntervalMicroSeconds TQualityProfile::MeasurementInitialFixTime(void) const
	?NewClient@TLbsPositionUpdateRequest@@QAEAAHXZ @ 64 NONAME ; int & TLbsPositionUpdateRequest::NewClient(void)
	?SetFinalNetPositionLag@TQualityProfile@@QAEXVTTimeIntervalMicroSeconds@@@Z @ 65 NONAME ; void TQualityProfile::SetFinalNetPositionLag(class TTimeIntervalMicroSeconds)
	?ShutDownL@RLbsPositionUpdates@@SAXXZ @ 66 NONAME ; void RLbsPositionUpdates::ShutDownL(void)
	?RequestMethod@TLbsPositionUpdateRequest@@QAEAAVTLbsNetPosRequestMethodInt@@XZ @ 67 NONAME ; class TLbsNetPosRequestMethodInt & TLbsPositionUpdateRequest::RequestMethod(void)
	?Close@RLbsGpsMeasurementUpdates@@QAEXXZ @ 68 NONAME ; void RLbsGpsMeasurementUpdates::Close(void)
	?GetQualityProfileByIndex@LbsQualityProfile@@SAHHAAVTQualityProfile@@@Z @ 69 NONAME ; int LbsQualityProfile::GetQualityProfileByIndex(int, class TQualityProfile &)
	?GetNumModules@LbsModuleInfo@@SAHAAI@Z @ 70 NONAME ; int LbsModuleInfo::GetNumModules(unsigned int &)
	?RequestQuality@TLbsPositionUpdateRequest@@QBEABVTLbsLocRequestQualityInt@@XZ @ 71 NONAME ; class TLbsLocRequestQualityInt const & TLbsPositionUpdateRequest::RequestQuality(void) const
	?Close@RLbsPositionUpdates@@QAEXXZ @ 72 NONAME ; void RLbsPositionUpdates::Close(void)
	?ShutDownL@RLbsModuleStatus@@SAXXZ @ 73 NONAME ; void RLbsModuleStatus::ShutDownL(void)
	??0RLbsModuleStatus@@QAE@XZ @ 74 NONAME ; RLbsModuleStatus::RLbsModuleStatus(void)
	?SetMinVerticalAccuracy@TQualityProfile@@QAEXM@Z @ 75 NONAME ; void TQualityProfile::SetMinVerticalAccuracy(float)
	?CancelNotifyPositionUpdateRequestChange@RLbsPositionUpdateRequests@@QAEXXZ @ 76 NONAME ; void RLbsPositionUpdateRequests::CancelNotifyPositionUpdateRequestChange(void)
	??0RLbsGpsMeasurementUpdates@@QAE@XZ @ 77 NONAME ; RLbsGpsMeasurementUpdates::RLbsGpsMeasurementUpdates(void)
	?ShutDownL@RLbsGpsMeasurementUpdates@@SAXXZ @ 78 NONAME ; void RLbsGpsMeasurementUpdates::ShutDownL(void)
	?GetModuleInfoById@LbsModuleInfo@@SAHVTUid@@PAXH@Z @ 79 NONAME ; int LbsModuleInfo::GetModuleInfoById(class TUid, void *, int)
	?SetMaxFixTime@TQualityProfile@@QAEXVTTimeIntervalMicroSeconds@@@Z @ 80 NONAME ; void TQualityProfile::SetMaxFixTime(class TTimeIntervalMicroSeconds)
	?Close@RLbsSystemModuleEvent@@QAEXXZ @ 81 NONAME ; void RLbsSystemModuleEvent::Close(void)
	?GetSystemModuleEvent@RLbsSystemModuleEvent@@QBEHAAK@Z @ 82 NONAME ; int RLbsSystemModuleEvent::GetSystemModuleEvent(unsigned long &) const
	?SetMinHorizontalAccuracy@TQualityProfile@@QAEXM@Z @ 83 NONAME ; void TQualityProfile::SetMinHorizontalAccuracy(float)
	?Tracking@TLbsPositionUpdateRequestStatus@@QBEABHXZ @ 84 NONAME ; int const & TLbsPositionUpdateRequestStatus::Tracking(void) const
	??0TLbsPositionUpdateRequestBase@@QAE@XZ @ 85 NONAME ; TLbsPositionUpdateRequestBase::TLbsPositionUpdateRequestBase(void)
	?GetPositionInfo@RLbsPositionUpdates@@QBEHAAHPAXIAAVTTime@@2AAI3@Z @ 86 NONAME ; int RLbsPositionUpdates::GetPositionInfo(int &, void *, unsigned int, class TTime &, class TTime &, unsigned int &, unsigned int &) const
	?InitializeL@LbsQualityProfile@@SAXAAV?$RArray@VTQualityProfile@@@@@Z @ 87 NONAME ; void LbsQualityProfile::InitializeL(class RArray<class TQualityProfile> &)
	?SetGpsMeasurementInfo@RLbsGpsMeasurementUpdates@@QAEHABHPBXIABVTTime@@@Z @ 88 NONAME ; int RLbsGpsMeasurementUpdates::SetGpsMeasurementInfo(int const &, void const *, unsigned int, class TTime const &)
	?TargetTime@TLbsPositionUpdateRequest@@QBEABVTTime@@XZ @ 89 NONAME ; class TTime const & TLbsPositionUpdateRequest::TargetTime(void) const
	?Close@RLbsModuleStatus@@QAEXXZ @ 90 NONAME ; void RLbsModuleStatus::Close(void)
	?RequestMethod@TLbsPositionUpdateRequest@@QBEABVTLbsNetPosRequestMethodInt@@XZ @ 91 NONAME ; class TLbsNetPosRequestMethodInt const & TLbsPositionUpdateRequest::RequestMethod(void) const
	?ShutDownL@LbsQualityProfile@@SAXXZ @ 92 NONAME ; void LbsQualityProfile::ShutDownL(void)
	?Tracking@TLbsPositionUpdateRequestStatus@@QAEAAHXZ @ 93 NONAME ; int & TLbsPositionUpdateRequestStatus::Tracking(void)
	?OpenL@RLbsSystemModuleEvent@@QAEXXZ @ 94 NONAME ; void RLbsSystemModuleEvent::OpenL(void)
	?GetModuleStatus@RLbsModuleStatus@@SAHPAXHVTUid@@@Z @ 95 NONAME ; int RLbsModuleStatus::GetModuleStatus(void *, int, class TUid)
	?CancelNotifySystemModuleEvent@RLbsSystemModuleEvent@@QAEXXZ @ 96 NONAME ; void RLbsSystemModuleEvent::CancelNotifySystemModuleEvent(void)
	?ShutDownL@RLbsSystemModuleEvent@@SAXXZ @ 97 NONAME ; void RLbsSystemModuleEvent::ShutDownL(void)
	?OpenL@RLbsPositionUpdateRequests@@QAEXABUTChannelIdentifer@1@@Z @ 98 NONAME ; void RLbsPositionUpdateRequests::OpenL(struct RLbsPositionUpdateRequests::TChannelIdentifer const &)
	??0TLbsPositionUpdateRequestStatus@@QAE@XZ @ 99 NONAME ; TLbsPositionUpdateRequestStatus::TLbsPositionUpdateRequestStatus(void)
	?InitializeMoPropertyL@LbsPositioningStatusProps@@SAXXZ @ 100 NONAME ; void LbsPositioningStatusProps::InitializeMoPropertyL(void)
	?InitializeNiPropertyL@LbsPositioningStatusProps@@SAXXZ @ 101 NONAME ; void LbsPositioningStatusProps::InitializeNiPropertyL(void)

