EXPORTS
	_ZN13CPropPipeBaseD0Ev @ 1 NONAME
	_ZN13CPropPipeBaseD1Ev @ 2 NONAME
	_ZN13CPropPipeBaseD2Ev @ 3 NONAME
	_ZN13CReadPropPipe13CancelRefreshEv @ 4 NONAME
	_ZN13CReadPropPipe4NewLEmm @ 5 NONAME
	_ZN13CReadPropPipe8RefreshLEl @ 6 NONAME
	_ZN13CReadPropPipe8RefreshLElR14TRequestStatus @ 7 NONAME
	_ZN13CReadPropPipeD0Ev @ 8 NONAME
	_ZN13CReadPropPipeD1Ev @ 9 NONAME
	_ZN13CReadPropPipeD2Ev @ 10 NONAME
	_ZN13CReadPropPipersER5TDes8 @ 11 NONAME
	_ZN13CReadPropPipersER6TDes16 @ 12 NONAME
	_ZN13CReadPropPipersERl @ 13 NONAME
	_ZN13LbsTestLogger10InitializeEv @ 14 NONAME
	_ZN13LbsTestLogger5WriteE15TLbsTestLogType19TLbsTestLogPriority11TRefByValueIK6TDesC8Ez @ 15 NONAME
	_ZN13LbsTestLogger5WriteE15TLbsTestLogType19TLbsTestLogPriority11TRefByValueIK7TDesC16Ez @ 16 NONAME
	_ZN13LbsTestLogger7HexDumpE19TLbsTestLogPriorityPKhi @ 17 NONAME
	_ZN13LbsTestLogger9OverWriteERK6TDesC8 @ 18 NONAME
	_ZN13LbsTestLogger9OverWriteERK7TDesC16 @ 19 NONAME
	_ZN14CWritePropPipe14CommitAndWaitLEl @ 20 NONAME
	_ZN14CWritePropPipe4NewLEmm @ 21 NONAME
	_ZN14CWritePropPipe6ResetLEv @ 22 NONAME
	_ZN14CWritePropPipe7CommitLEl @ 23 NONAME
	_ZN14CWritePropPipeD0Ev @ 24 NONAME
	_ZN14CWritePropPipeD1Ev @ 25 NONAME
	_ZN14CWritePropPipeD2Ev @ 26 NONAME
	_ZN14CWritePropPipelsERK6TDesC8 @ 27 NONAME
	_ZN14CWritePropPipelsERK7TDesC16 @ 28 NONAME
	_ZN14CWritePropPipelsERKl @ 29 NONAME
	_ZN14LBSParamLogger3LogERK7TPtrC16N23CLbsNetworkProtocolBase16TLbsSystemStatusE @ 30 NONAME
	_ZN14LBSParamLogger3LogERK7TPtrC16N23CLbsNetworkProtocolBase19TLbsPrivacyResponseE @ 31 NONAME
	_ZN14LBSParamLogger3LogERK7TPtrC16N27MLbsNetworkProtocolObserver22TLbsNetProtocolServiceE @ 32 NONAME
	_ZN14LBSParamLogger3LogERK7TPtrC16RK14TLbsGpsOptions @ 33 NONAME
	_ZN14LBSParamLogger3LogERK7TPtrC16RK16TLbsNetPosMethod @ 34 NONAME
	_ZN14LBSParamLogger3LogERK7TPtrC16RK16TLbsNetSessionId @ 35 NONAME
	_ZN14LBSParamLogger3LogERK7TPtrC16RK17TPositionInfoBase @ 36 NONAME
	_ZN14LBSParamLogger3LogERK7TPtrC16RK21TLbsLocRequestQuality @ 37 NONAME
	_ZN14LBSParamLogger3LogERK7TPtrC16RK22TLbsNetPosCapabilities @ 38 NONAME
	_ZN14LBSParamLogger3LogERK7TPtrC16RK23TLbsExternalRequestInfo @ 39 NONAME
	_ZN14LBSParamLogger3LogERK7TPtrC16RK23TLbsNetPosRequestMethod @ 40 NONAME
	_ZN14LBSParamLogger3LogERK7TPtrC16RK24TLbsNetPosRequestPrivacy @ 41 NONAME
	_ZN14LBSParamLogger3LogERK7TPtrC16RK24TLbsNetPosRequestQuality @ 42 NONAME
	_ZN14LBSParamLogger3LogERK7TPtrC16RK27TLbsTransmitPositionOptions @ 43 NONAME
	_ZN14LBSParamLogger3LogERK7TPtrC16RK28RLbsAssistanceDataBuilderSet @ 44 NONAME
	_ZN14LBSParamLogger3LogERK7TPtrC16RK28TLbsNetPosRequestOptionsBase @ 45 NONAME
	_ZN14LBSParamLogger3LogERK7TPtrC16RK5TTime @ 46 NONAME
	_ZN14LBSParamLogger3LogERK7TPtrC16RK7TDesC16 @ 47 NONAME
	_ZN14LBSParamLogger3LogERK7TPtrC16i @ 48 NONAME
	_ZN14LBSParamLogger3LogERK7TPtrC16l @ 49 NONAME
	_ZN14LBSParamLogger3LogERK7TPtrC16m @ 50 NONAME
	_ZN14LBSParamLogger5FlushEv @ 51 NONAME
	_ZN14LBSParamLogger6MethodERK7TPtrC16S2_ @ 52 NONAME
	_ZN17CPosServerWatcher13CancelRequestEv @ 53 NONAME
	_ZN17CPosServerWatcher15CompleteRequestEv @ 54 NONAME
	_ZN17CPosServerWatcher25IssueGetLastKnownPositionEv @ 55 NONAME
	_ZN17CPosServerWatcher25IssueNotifyPositionUpdateEv @ 56 NONAME
	_ZN17CPosServerWatcher5NewLCER11RPositionerR18MPosServerObserver @ 57 NONAME
	_ZN17CPosServerWatcherD0Ev @ 58 NONAME
	_ZN17CPosServerWatcherD1Ev @ 59 NONAME
	_ZN17CPosServerWatcherD2Ev @ 60 NONAME
	_ZN17LBSTestMarshaller5ReadLER13CReadPropPipeRP16TLbsNetPosMethodP14CMemoryManager @ 61 NONAME
	_ZN17LBSTestMarshaller5ReadLER13CReadPropPipeRP16TLbsNetSessionIdP14CMemoryManager @ 62 NONAME
	_ZN17LBSTestMarshaller5ReadLER13CReadPropPipeRP17TPositionInfoBaseP14CMemoryManager @ 63 NONAME
	_ZN17LBSTestMarshaller5ReadLER13CReadPropPipeRP22TLbsNetPosCapabilitiesP14CMemoryManager @ 64 NONAME
	_ZN17LBSTestMarshaller5ReadLER13CReadPropPipeRP23TLbsExternalRequestInfoP14CMemoryManager @ 65 NONAME
	_ZN17LBSTestMarshaller5ReadLER13CReadPropPipeRP23TLbsNetPosRequestMethodP14CMemoryManager @ 66 NONAME
	_ZN17LBSTestMarshaller5ReadLER13CReadPropPipeRP24TLbsNetPosRequestPrivacyP14CMemoryManager @ 67 NONAME
	_ZN17LBSTestMarshaller5ReadLER13CReadPropPipeRP24TLbsNetPosRequestQualityP14CMemoryManager @ 68 NONAME
	_ZN17LBSTestMarshaller5ReadLER13CReadPropPipeRP28RLbsAssistanceDataBuilderSetP14CMemoryManager @ 69 NONAME
	_ZN17LBSTestMarshaller5ReadLER13CReadPropPipeRP28TLbsNetPosRequestOptionsBaseP14CMemoryManager @ 70 NONAME
	_ZN17LBSTestMarshaller5ReadLER13CReadPropPipeRP7HBufC16 @ 71 NONAME
	_ZN17LBSTestMarshaller5ReadLER13CReadPropPipeRi @ 72 NONAME
	_ZN17LBSTestMarshaller5ReadLER13CReadPropPipeRm @ 73 NONAME
	_ZN17LBSTestMarshaller6WriteLER14CWritePropPipeR28RLbsAssistanceDataBuilderSet @ 74 NONAME
	_ZN17LBSTestMarshaller6WriteLER14CWritePropPipeRK16TLbsNetPosMethod @ 75 NONAME
	_ZN17LBSTestMarshaller6WriteLER14CWritePropPipeRK16TLbsNetSessionId @ 76 NONAME
	_ZN17LBSTestMarshaller6WriteLER14CWritePropPipeRK17TPositionInfoBase @ 77 NONAME
	_ZN17LBSTestMarshaller6WriteLER14CWritePropPipeRK22TLbsNetPosCapabilities @ 78 NONAME
	_ZN17LBSTestMarshaller6WriteLER14CWritePropPipeRK23TLbsExternalRequestInfo @ 79 NONAME
	_ZN17LBSTestMarshaller6WriteLER14CWritePropPipeRK23TLbsNetPosRequestMethod @ 80 NONAME
	_ZN17LBSTestMarshaller6WriteLER14CWritePropPipeRK24TLbsNetPosRequestPrivacy @ 81 NONAME
	_ZN17LBSTestMarshaller6WriteLER14CWritePropPipeRK24TLbsNetPosRequestQuality @ 82 NONAME
	_ZN17LBSTestMarshaller6WriteLER14CWritePropPipeRK28TLbsNetPosRequestOptionsBase @ 83 NONAME
	_ZN17LBSTestMarshaller6WriteLER14CWritePropPipeRK7TDesC16 @ 84 NONAME
	_ZN17LBSTestMarshaller6WriteLER14CWritePropPipeRKi @ 85 NONAME
	_ZN17LBSTestMarshaller6WriteLER14CWritePropPipeRKm @ 86 NONAME
	_ZN19CNotifyReadPropPipe4NewLEmmR21MReadPropPipeObserver @ 87 NONAME
	_ZN22CTransmitServerWatcher14CancelTransmitEv @ 88 NONAME
	_ZN22CTransmitServerWatcher21IssueTransmitPositionERK7TDesC16j @ 89 NONAME
	_ZN22CTransmitServerWatcher5NewLCER20RLbsTransmitPositionP23MTransmitServerObserver @ 90 NONAME
	_ZN22CTransmitServerWatcherD0Ev @ 91 NONAME
	_ZN22CTransmitServerWatcherD1Ev @ 92 NONAME
	_ZN22CTransmitServerWatcherD2Ev @ 93 NONAME
	_ZTI12CPropWatcher @ 94 NONAME
	_ZTI13CPropPipeBase @ 95 NONAME
	_ZTI13CReadPropPipe @ 96 NONAME
	_ZTI14CMemoryManager @ 97 NONAME
	_ZTI14CWritePropPipe @ 98 NONAME
	_ZTI17CPosServerWatcher @ 99 NONAME
	_ZTI19CNotifyReadPropPipe @ 100 NONAME
	_ZTI20CTLbsX3pRefLocWaiter @ 101 NONAME
	_ZTI22CTransmitServerWatcher @ 102 NONAME
	_ZTI25CTLbsX3pTransmitLocWaiter @ 103 NONAME
	_ZTIN13CPropPipeBase20CPropPipeBaseTimeOutE @ 104 NONAME
	_ZTIN13CPropPipeBase20CPropPipeBaseWatcherE @ 105 NONAME
	_ZTV12CPropWatcher @ 106 NONAME
	_ZTV13CPropPipeBase @ 107 NONAME
	_ZTV13CReadPropPipe @ 108 NONAME
	_ZTV14CMemoryManager @ 109 NONAME
	_ZTV14CWritePropPipe @ 110 NONAME
	_ZTV17CPosServerWatcher @ 111 NONAME
	_ZTV19CNotifyReadPropPipe @ 112 NONAME
	_ZTV20CTLbsX3pRefLocWaiter @ 113 NONAME
	_ZTV22CTransmitServerWatcher @ 114 NONAME
	_ZTV25CTLbsX3pTransmitLocWaiter @ 115 NONAME
	_ZTVN13CPropPipeBase20CPropPipeBaseTimeOutE @ 116 NONAME
	_ZTVN13CPropPipeBase20CPropPipeBaseWatcherE @ 117 NONAME
	_ZN19CNotifyReadPropPipeD0Ev @ 118 NONAME
	_ZN19CNotifyReadPropPipeD1Ev @ 119 NONAME
	_ZN19CNotifyReadPropPipeD2Ev @ 120 NONAME

