EXPORTS
	_ZN13TMBufPktQIterppEi @ 1 NONAME ; TMBufPktQIter::operator++(int)
	_ZN10RMBufChain6AllocLEi @ 2 NONAME ; RMBufChain::AllocL(int)
	_ZN12CMBufManager6AllocLEi @ 3 NONAME ; CMBufManager::AllocL(int)
	_ZN5RMBuf6AllocLEv @ 4 NONAME ; RMBuf::AllocL(void)
	_ZN17RMBufAsyncRequest5AllocER10RMBufChainiR14TRequestStatus @ 5 NONAME ; RMBufAsyncRequest::Alloc(RMBufChain&, int, TRequestStatus&)
	_ZN10RMBufChain7AppendLEi @ 6 NONAME ; RMBufChain::AppendL(int)
	_ZN10RMBufChain6AppendERS_ @ 7 NONAME ; RMBufChain::Append(RMBufChain&)
	_ZN12RMBufStreamQ6AppendER10RMBufChain @ 8 NONAME ; RMBufStreamQ::Append(RMBufChain&)
	_ZN6RMBufQ6AppendEP5RMBuf @ 9 NONAME ; RMBufQ::Append(RMBuf*)
	_ZN6RMBufQ6AppendER10RMBufChain @ 10 NONAME ; RMBufQ::Append(RMBufChain&)
	_ZN6RMBufQ6AppendERS_ @ 11 NONAME ; RMBufQ::Append(RMBufQ&)
	_ZN9RMBufPktQ6AppendER10RMBufChain @ 12 NONAME ; RMBufPktQ::Append(RMBufChain&)
	_ZN9RMBufPktQ6AppendERS_ @ 13 NONAME ; RMBufPktQ::Append(RMBufPktQ&)
	_ZN10RMBufChain6AssignERS_ @ 14 NONAME ; RMBufChain::Assign(RMBufChain&)
	_ZN10RMBufChain6AssignER6RMBufQ @ 15 NONAME ; RMBufChain::Assign(RMBufQ&)
	_ZN6RMBufQ6AssignER10RMBufChain @ 16 NONAME ; RMBufQ::Assign(RMBufChain&)
	_ZN6RMBufQ6AssignERS_ @ 17 NONAME ; RMBufQ::Assign(RMBufQ&)
	_ZN17RMBufAsyncRequest6CancelEv @ 18 NONAME ; RMBufAsyncRequest::Cancel(void)
	_ZN12CMBufManager7ContextEv @ 19 NONAME ; CMBufManager::Context(void)
	_ZN10RMBufChain6CopyInERK6TDesC8i @ 20 NONAME ; RMBufChain::CopyIn(TDesC8 const&, int)
	_ZN15RMBufPacketBase9CopyInfoLERS_ @ 21 NONAME ; RMBufPacketBase::CopyInfoL(RMBufPacketBase&)
	_ZN9RMBufCell5CopyLEv @ 22 NONAME ; RMBufCell::CopyL(void)
	_ZNK10RMBufChain5CopyLERS_ii @ 23 NONAME ; RMBufChain::CopyL(RMBufChain&, int, int) const
	_ZN12RMBufStreamQ7CopyOutER5TDes8 @ 24 NONAME ; RMBufStreamQ::CopyOut(TDes8&)
	_ZNK10RMBufChain7CopyOutER5TDes8i @ 25 NONAME ; RMBufChain::CopyOut(TDes8&, int) const
	_ZN15RMBufPacketBase11CopyPackedLER10RMBufChain @ 26 NONAME ; RMBufPacketBase::CopyPackedL(RMBufChain&)
	_ZN12RMBufStreamQ12CopySegmentLER10RMBufChainii @ 27 NONAME ; RMBufStreamQ::CopySegmentL(RMBufChain&, int, int)
	_ZN15RMBufPacketBase11CreateCopyLER12RMBufStreamQiiij @ 28 NONAME ; RMBufPacketBase::CreateCopyL(RMBufStreamQ&, int, int, int, unsigned int)
	_ZN15RMBufPacketBase11CreateCopyLERK6RMBufQiiij @ 29 NONAME ; RMBufPacketBase::CreateCopyL(RMBufQ const&, int, int, int, unsigned int)
	_ZN15RMBufPacketBase11CreateCopyLERK9RMBufPktQij @ 30 NONAME ; RMBufPacketBase::CreateCopyL(RMBufPktQ const&, int, unsigned int)
	_ZN10RMBufChain7CreateLERK6TDesC8i @ 31 NONAME ; RMBufChain::CreateL(TDesC8 const&, int)
	_ZN12CMBufManager7CreateLEi @ 32 NONAME ABSENT ; CMBufManager::CreateL(int)
	_ZN15RMBufPacketBase7CreateLER6RMBufQij @ 33 NONAME ; RMBufPacketBase::CreateL(RMBufQ&, int, unsigned int)
	_ZN15RMBufPacketBase7CreateLERK6TDesC8ij @ 34 NONAME ; RMBufPacketBase::CreateL(TDesC8 const&, int, unsigned int)
	_ZN15RMBufPacketBase7CreateLEij @ 35 NONAME ; RMBufPacketBase::CreateL(int, unsigned int)
	_ZN10RMBufChain5FillZEi @ 36 NONAME ; RMBufChain::FillZ(int)
	_ZN15RMBufPacketBase8FreeInfoEv @ 37 NONAME ; RMBufPacketBase::FreeInfo(void)
	_ZN10RMBufChain4FreeEv @ 38 NONAME ; RMBufChain::Free(void)
	_ZN12CMBufManager4FreeEP5RMBuf @ 39 NONAME ; CMBufManager::Free(RMBuf*)
	_ZN15RMBufPacketBase4FreeEv @ 40 NONAME ; RMBufPacketBase::Free(void)
	_ZN5RMBuf4FreeEv @ 41 NONAME ; RMBuf::Free(void)
	_ZN6RMBufQ4FreeEv @ 42 NONAME ; RMBufQ::Free(void)
	_ZN9RMBufPktQ4FreeEv @ 43 NONAME ; RMBufPktQ::Free(void)
	_ZNK10RMBufChain4GotoEiRP5RMBufRiS3_S2_ @ 44 NONAME ; RMBufChain::Goto(int, RMBuf*&, int&, int&, RMBuf*&) const
	_ZN15RMBufPacketBase4InfoEv @ 45 NONAME ; RMBufPacketBase::Info(void)
	_ZN5RMBuf4InitE9TMBufType @ 46 NONAME ; RMBuf::Init(TMBufType)
	_ZN6RMBufQ4InitEv @ 47 NONAME ; RMBufQ::Init(void)
	_ZN9RMBufPktQ4InitEv @ 48 NONAME ; RMBufPktQ::Init(void)
	_ZN13TMBufPktQIter6InsertER10RMBufChain @ 49 NONAME ; TMBufPktQIter::Insert(RMBufChain&)
	_ZN5RMBuf4LastEv @ 50 NONAME ; RMBuf::Last(void)
	_ZNK10RMBufChain4LastEv @ 51 NONAME ; RMBufChain::Last(void) const
	_ZNK10RMBufChain6LengthEv @ 52 NONAME ; RMBufChain::Length(void) const
	_ZN15RMBufPacketBase8NewInfoLEj @ 53 NONAME ; RMBufPacketBase::NewInfoL(unsigned int)
	_ZN12CMBufManager4NewLEi @ 54 NONAME ABSENT ; CMBufManager::NewL(int)
	_ZNK10RMBufChain7NumBufsEv @ 55 NONAME ; RMBufChain::NumBufs(void) const
	_ZN15RMBufPacketBase4PackEv @ 56 NONAME ; RMBufPacketBase::Pack(void)
	_ZN12CMBufManager5PanicE10TMBufPanic @ 57 NONAME ; CMBufManager::Panic(TMBufPanic)
	_ZN15RMBufPacketBase15PeekInfoInChainER10RMBufChain @ 58 NONAME ; RMBufPacketBase::PeekInfoInChain(RMBufChain&)
	_ZN15RMBufPacketBase8PeekInfoEv @ 59 NONAME ; RMBufPacketBase::PeekInfo(void)
	_ZN10RMBufChain8PrependLEi @ 60 NONAME ; RMBufChain::PrependL(int)
	_ZN10RMBufChain7PrependEP5RMBuf @ 61 NONAME ; RMBufChain::Prepend(RMBuf*)
	_ZN10RMBufChain7PrependERS_ @ 62 NONAME ; RMBufChain::Prepend(RMBufChain&)
	_ZN6RMBufQ7PrependEP5RMBuf @ 63 NONAME ; RMBufQ::Prepend(RMBuf*)
	_ZN6RMBufQ7PrependER10RMBufChain @ 64 NONAME ; RMBufQ::Prepend(RMBufChain&)
	_ZN6RMBufQ7PrependERS_ @ 65 NONAME ; RMBufQ::Prepend(RMBufQ&)
	_ZN9RMBufPktQ7PrependER10RMBufChain @ 66 NONAME ; RMBufPktQ::Prepend(RMBufChain&)
	_ZN9MBufTimer5QueueE27TTimeIntervalMicroSeconds32R16TDeltaTimerEntry @ 67 NONAME ; MBufTimer::Queue(TTimeIntervalMicroSeconds32, TDeltaTimerEntry&)
	_ZN10RMBufChain6RemoveEv @ 68 NONAME ; RMBufChain::Remove(void)
	_ZN13TMBufPktQIter6RemoveER10RMBufChain @ 69 NONAME ; TMBufPktQIter::Remove(RMBufChain&)
	_ZN6RMBufQ6RemoveEv @ 70 NONAME ; RMBufQ::Remove(void)
	_ZN9MBufTimer6RemoveER16TDeltaTimerEntry @ 71 NONAME ; MBufTimer::Remove(TDeltaTimerEntry&)
	_ZN9RMBufPktQ6RemoveER10RMBufChain @ 72 NONAME ; RMBufPktQ::Remove(RMBufChain&)
	_ZN15RMBufPacketBase7SetInfoEP12RMBufPktInfo @ 73 NONAME ; RMBufPacketBase::SetInfo(RMBufPktInfo*)
	_ZN10RMBufChain6SplitLEiRS_ @ 74 NONAME ; RMBufChain::SplitL(int, RMBufChain&)
	_ZN13TMBufPktQIter15TidyAfterUpdateEv @ 75 NONAME ; TMBufPktQIter::TidyAfterUpdate(void)
	_ZN10RMBufChain7TrimEndEi @ 76 NONAME ; RMBufChain::TrimEnd(int)
	_ZN15RMBufPacketBase7TrimEndEi @ 77 NONAME ; RMBufPacketBase::TrimEnd(int)
	_ZN10RMBufChain9TrimStartEi @ 78 NONAME ; RMBufChain::TrimStart(int)
	_ZN12RMBufStreamQ9TrimStartEi @ 79 NONAME ; RMBufStreamQ::TrimStart(int)
	_ZN15RMBufPacketBase9TrimStartEi @ 80 NONAME ; RMBufPacketBase::TrimStart(int)
	_ZN15RMBufPacketBase6UnpackEv @ 81 NONAME ; RMBufPacketBase::Unpack(void)
	_ZN12CMBufManagerD1Ev @ 82 NONAME ; CMBufManager::~CMBufManager(void)
	_ZN17RMBufAsyncRequestD1Ev @ 83 NONAME ; RMBufAsyncRequest::~RMBufAsyncRequest(void)
	_ZN12RMBufStreamQC1Ev @ 84 NONAME ; RMBufStreamQ::RMBufStreamQ(void)
	_ZN15RMBufPacketBaseC1Ev @ 85 NONAME ; RMBufPacketBase::RMBufPacketBase(void)
	_ZN17RMBufAsyncRequestC1Ev @ 86 NONAME ; RMBufAsyncRequest::RMBufAsyncRequest(void)
	_ZN6RMBufQC1EP5RMBuf @ 87 NONAME ; RMBufQ::RMBufQ(RMBuf*)
	_ZN10RMBufChain9__CleanupEPv @ 88 NONAME ; RMBufChain::__Cleanup(void*)
	_ZN15RMBufPacketBase9__CleanupEPv @ 89 NONAME ; RMBufPacketBase::__Cleanup(void*)
	_ZN6RMBufQ9__CleanupEPv @ 90 NONAME ; RMBufQ::__Cleanup(void*)
	_ZN9RMBufPktQ9__CleanupEPv @ 91 NONAME ; RMBufPktQ::__Cleanup(void*)
	_ZN12CMBufManager16__DbgCheckBufferEP5RMBuf @ 92 NONAME ; CMBufManager::__DbgCheckBuffer(RMBuf*)
	_ZN9CMBufPool16__DbgCheckBufferEP5RMBuf @ 93 NONAME ; CMBufPool::__DbgCheckBuffer(RMBuf*)
	_ZN12CMBufManager15__DbgCheckChainEP5RMBuf9TMBufTypeii @ 94 NONAME ; CMBufManager::__DbgCheckChain(RMBuf*, TMBufType, int, int)
	_ZNK5RMBuf8__DbgGetEi @ 95 NONAME ; RMBuf::__DbgGet(int) const
	_ZN5RMBuf8__DbgPutEhi @ 96 NONAME ; RMBuf::__DbgPut(unsigned char, int)
	_ZN9RMBufCelldlEPv @ 97 NONAME ; RMBufCell::operator delete(void*)
	_ZN9RMBufCellnwEj6TLeavej @ 98 NONAME ; RMBufCell::operator new(unsigned int, TLeave, unsigned int)
	_ZN10RMBufChain5AlignEi @ 99 NONAME ; RMBufChain::Align(int)
	_ZN12CMBufManager10SetContextEv @ 100 NONAME ; CMBufManager::SetContext(void)
	_ZN10RMBufChain8ReAllocLEi @ 101 NONAME ; RMBufChain::ReAllocL(int)
	_ZN12CMBufManagerD0Ev @ 102 NONAME ; CMBufManager::~CMBufManager [in-charge deleting](void)
	_ZN17RMBufAsyncRequestC2Ev @ 103 NONAME ; RMBufAsyncRequest::RMBufAsyncRequest[not-in-charge](void)
	_ZN12RMBufStreamQC2Ev @ 104 NONAME ; RMBufStreamQ::RMBufStreamQ[not-in-charge](void)
	_ZN12CMBufManagerD2Ev @ 105 NONAME ; CMBufManager::~CMBufManager [not-in-charge](void)
	_ZN17RMBufAsyncRequestD2Ev @ 106 NONAME ; RMBufAsyncRequest::~RMBufAsyncRequest [not-in-charge](void)
	_ZN15RMBufPacketBaseC2Ev @ 107 NONAME ; RMBufPacketBase::RMBufPacketBase[not-in-charge](void)
	_ZN6RMBufQC2EP5RMBuf @ 108 NONAME ; RMBufQ::RMBufQ[not-in-charge](RMBuf*)
	_ZTI12CMBufManager @ 109 NONAME ; #<TI>#
	_ZTI9CMBufPool @ 110 NONAME ; #<TI>#
	_ZTV12CMBufManager @ 111 NONAME ; #<VT>#
	_ZTV9CMBufPool @ 112 NONAME ; #<VT>#
	_ZN12CMBufManager4NewLEii @ 113 NONAME ABSENT
	_ZN12CMBufManager7CreateLEii @ 114 NONAME ABSENT
	_ZN10RMBufChain5AllocEi @ 115 NONAME
	_ZN10RMBufChain5SplitEiRS_ @ 116 NONAME
	_ZN10RMBufChain6AppendEi @ 117 NONAME
	_ZN10RMBufChain6CreateERK6TDesC8i @ 118 NONAME
	_ZN10RMBufChain7PrependEi @ 119 NONAME
	_ZN10RMBufChain7ReAllocEi @ 120 NONAME
	_ZN12CMBufManager5AllocEi @ 121 NONAME
	_ZN15RMBufPacketBase7NewInfoEj @ 122 NONAME
	_ZN5RMBuf5AllocEv @ 123 NONAME
	_ZN9RMBufCellnwEjj @ 124 NONAME
	_ZNK10RMBufChain4CopyERS_ii @ 125 NONAME
	_ZN12CMBufManager14__DbgMBufChainEj @ 126 NONAME
	_ZN12CMBufManager14__DbgMBufChainEv @ 127 NONAME
	_ZN12CMBufManager16__DbgGetBufSpaceEj @ 128 NONAME
	_ZN12CMBufManager16__DbgGetBufSpaceEv @ 129 NONAME
	_ZN12CMBufManager16__DbgGetBufTotalEj @ 130 NONAME
	_ZN12CMBufManager16__DbgGetBufTotalEv @ 131 NONAME
	_ZN12CMBufManager17__DbgSetPoolLimitEi @ 132 NONAME
	_ZN12CMBufManager17__DbgSetPoolLimitEij @ 133 NONAME
	_ZN12CMBufManager5AllocEv @ 134 NONAME ABSENT
	_ZN12CMBufManager6AllocLEv @ 135 NONAME ABSENT
	_ZN5RMBuf5AllocEj @ 136 NONAME
	_ZN5RMBuf6AllocLEj @ 137 NONAME
	_ZTI14CMBufPoolChain @ 138 NONAME ABSENT
	_ZTV14CMBufPoolChain @ 139 NONAME ABSENT
	_ZN12CMBufManager16__DbgGetHeapSizeEv @ 140 NONAME
	_ZN12CMBufManager17__DbgSetFailAfterEi @ 141 NONAME
	_ZN10RMBufChain5AllocEii @ 142 NONAME
	_ZN10RMBufChain5AllocEiii @ 143 NONAME
	_ZN12CMBufManager4NewLEiiRP18MMBufSizeAllocator @ 144 NONAME ABSENT
	_ZTI16CMBufPoolManager @ 145 NONAME
	_ZTV16CMBufPoolManager @ 146 NONAME
	_ZN12CMBufManager4NewLEiRP18MMBufSizeAllocator @ 147 NONAME
	KMBufCacheLineSize @ 148 NONAME DATA 4
	_ZN10RMBufChain5AllocEiR14RMBufAllocator @ 149 NONAME
	_ZN10RMBufChain5AllocEiiR14RMBufAllocator @ 150 NONAME
	_ZN10RMBufChain5AllocEiiiR14RMBufAllocator @ 151 NONAME
	_ZN10RMBufChain5SplitEiRS_R14RMBufAllocator @ 152 NONAME
	_ZN10RMBufChain6AllocLEiR14RMBufAllocator @ 153 NONAME
	_ZN10RMBufChain6AppendEiR14RMBufAllocator @ 154 NONAME
	_ZN10RMBufChain7PrependEiR14RMBufAllocator @ 155 NONAME
	_ZN14RMBufAllocatorC1Ev @ 156 NONAME
	_ZN14RMBufAllocatorC2Ev @ 157 NONAME
	_ZN5RMBuf5AllocER14RMBufAllocator @ 158 NONAME
	_ZN5RMBuf5AllocEjR14RMBufAllocator @ 159 NONAME
	_ZN5RMBuf6AllocLER14RMBufAllocator @ 160 NONAME
	_ZN5RMBuf6AllocLEjR14RMBufAllocator @ 161 NONAME
	_ZNK14RMBufAllocator12NextMBufSizeEi @ 162 NONAME
	_ZNK14RMBufAllocator14BytesAvailableEi @ 163 NONAME
	_ZNK14RMBufAllocator14BytesAvailableEv @ 164 NONAME
	_ZNK14RMBufAllocator15LargestMBufSizeEv @ 165 NONAME
	_ZTI18CMBufMemoryManager @ 166 NONAME ABSENT
	_ZTV18CMBufMemoryManager @ 167 NONAME ABSENT
	_ZTI20CMBufMemoryAllocator @ 168 NONAME
	_ZTV20CMBufMemoryAllocator @ 169 NONAME
	_ZN7CommsFW9RCFThread6CreateERK7TDesC16PFiPvEiP5RHeapS4_ @ 170 NONAME
	_ZN7CommsFW9RCFThread6CreateERK7TDesC16PFiPvEiiiS4_ @ 171 NONAME

