EXPORTS
	?SetRequestAdvice@TLbsNetPosRequestPrivacyInt@@QAEXW4TLbsRequestAdviceInt@1@@Z @ 1 NONAME ; void TLbsNetPosRequestPrivacyInt::SetRequestAdvice(enum TLbsNetPosRequestPrivacyInt::TLbsRequestAdviceInt)
	??8TLbsNetSessionIdInt@@QBEHABV0@@Z @ 2 NONAME ; int TLbsNetSessionIdInt::operator==(class TLbsNetSessionIdInt const &) const
	?MaxFixAge@TLbsNetPosRequestQualityInt@@QBE?AVTTimeIntervalMicroSeconds@@XZ @ 3 NONAME ; class TTimeIntervalMicroSeconds TLbsNetPosRequestQualityInt::MaxFixAge(void) const
	?SetPosMethod@TLbsNetPosMethodInt@@QAEXVTUid@@K@Z @ 4 NONAME ; void TLbsNetPosMethodInt::SetPosMethod(class TUid, unsigned long)
	?GetPosMethod@TLbsNetPosRequestMethodInt@@QBEHHAAVTLbsNetPosMethodInt@@@Z @ 5 NONAME ; int TLbsNetPosRequestMethodInt::GetPosMethod(int, class TLbsNetPosMethodInt &) const
	??0TLbsNetPosRequestQualityInt@@QAE@XZ @ 6 NONAME ; TLbsNetPosRequestQualityInt::TLbsNetPosRequestQualityInt(void)
	??0TLbsNetPosRequestOptionsInt@@QAE@XZ @ 7 NONAME ; TLbsNetPosRequestOptionsInt::TLbsNetPosRequestOptionsInt(void)
	??0TLbsNetPosRequestOptionsAssistanceInt@@QAE@XZ @ 8 NONAME ; TLbsNetPosRequestOptionsAssistanceInt::TLbsNetPosRequestOptionsAssistanceInt(void)
	?MinVerticalAccuracy@TLbsNetPosRequestQualityInt@@QBEMXZ @ 9 NONAME ; float TLbsNetPosRequestQualityInt::MinVerticalAccuracy(void) const
	??0TLbsNetPosRequestMethodInt@@QAE@XZ @ 10 NONAME ; TLbsNetPosRequestMethodInt::TLbsNetPosRequestMethodInt(void)
	?SetPosMode@TLbsNetPosRequestOptionsAssistanceInt@@QAEXK@Z @ 11 NONAME ; void TLbsNetPosRequestOptionsAssistanceInt::SetPosMode(unsigned long)
	??0TLbsNetSessionIdArrayInt@@QAE@XZ @ 12 NONAME ; TLbsNetSessionIdArrayInt::TLbsNetSessionIdArrayInt(void)
	?PosMode@TLbsNetPosRequestOptionsAssistanceInt@@QBEKXZ @ 13 NONAME ; unsigned long TLbsNetPosRequestOptionsAssistanceInt::PosMode(void) const
	?SetPosMode@TLbsNetPosRequestOptionsTechnologyInt@@QAEXK@Z @ 14 NONAME ; void TLbsNetPosRequestOptionsTechnologyInt::SetPosMode(unsigned long)
	?MinHorizontalAccuracy@TLbsLocRequestQualityInt@@QBEMXZ @ 15 NONAME ; float TLbsLocRequestQualityInt::MinHorizontalAccuracy(void) const
	?NumPosMethods@TLbsNetPosRequestMethodInt@@QBEHXZ @ 16 NONAME ; int TLbsNetPosRequestMethodInt::NumPosMethods(void) const
	?SetMinHorizontalAccuracy@TLbsLocRequestQualityInt@@QAEXM@Z @ 17 NONAME ; void TLbsLocRequestQualityInt::SetMinHorizontalAccuracy(float)
	?PosMeans@TLbsNetPosMethodInt@@QBE?AVTUid@@XZ @ 18 NONAME ; class TUid TLbsNetPosMethodInt::PosMeans(void) const
	??0TLbsNetPosRequestPrivacyInt@@QAE@XZ @ 19 NONAME ; TLbsNetPosRequestPrivacyInt::TLbsNetPosRequestPrivacyInt(void)
	?SetPosMethods@TLbsNetPosRequestMethodInt@@QAEHQBVTLbsNetPosMethodInt@@H@Z @ 20 NONAME ; int TLbsNetPosRequestMethodInt::SetPosMethods(class TLbsNetPosMethodInt const * const, int)
	?PosMode@TLbsNetPosMethodInt@@QBEKXZ @ 21 NONAME ; unsigned long TLbsNetPosMethodInt::PosMode(void) const
	?ClassSize@TLbsLocClassTypeBaseInt@@QBEIXZ @ 22 NONAME ; unsigned int TLbsLocClassTypeBaseInt::ClassSize(void) const
	?SetNewClientConnected@TLbsNetPosRequestOptionsInt@@QAEXH@Z @ 23 NONAME ; void TLbsNetPosRequestOptionsInt::SetNewClientConnected(int)
	?ClassType@TLbsLocClassTypeBaseInt@@QBEKXZ @ 24 NONAME ; unsigned long TLbsLocClassTypeBaseInt::ClassType(void) const
	?SetMaxFixTime@TLbsLocRequestQualityInt@@QAEXVTTimeIntervalMicroSeconds@@@Z @ 25 NONAME ; void TLbsLocRequestQualityInt::SetMaxFixTime(class TTimeIntervalMicroSeconds)
	?GetRequestQuality@TLbsNetPosRequestOptionsInt@@QBEXAAVTLbsNetPosRequestQualityInt@@@Z @ 26 NONAME ; void TLbsNetPosRequestOptionsInt::GetRequestQuality(class TLbsNetPosRequestQualityInt &) const
	??9TLbsNetSessionIdInt@@QBEHABV0@@Z @ 27 NONAME ; int TLbsNetSessionIdInt::operator!=(class TLbsNetSessionIdInt const &) const
	?SessionNum@TLbsNetSessionIdInt@@QBEKXZ @ 28 NONAME ; unsigned long TLbsNetSessionIdInt::SessionNum(void) const
	??0TLbsNetSessionIdInt@@QAE@XZ @ 29 NONAME ; TLbsNetSessionIdInt::TLbsNetSessionIdInt(void)
	?MinHorizontalAccuracy@TLbsNetPosRequestQualityInt@@QBEMXZ @ 30 NONAME ; float TLbsNetPosRequestQualityInt::MinHorizontalAccuracy(void) const
	?SetSessionOwner@TLbsNetSessionIdInt@@QAEXVTUid@@@Z @ 31 NONAME ; void TLbsNetSessionIdInt::SetSessionOwner(class TUid)
	??0TLbsNetPosMethodInt@@QAE@XZ @ 32 NONAME ; TLbsNetPosMethodInt::TLbsNetPosMethodInt(void)
	??0TLbsNetPosRequestOptionsTechnologyInt@@QAE@XZ @ 33 NONAME ; TLbsNetPosRequestOptionsTechnologyInt::TLbsNetPosRequestOptionsTechnologyInt(void)
	?DataRequestMask@TLbsNetPosRequestOptionsAssistanceInt@@QBEKXZ @ 34 NONAME ; unsigned long TLbsNetPosRequestOptionsAssistanceInt::DataRequestMask(void) const
	?MaxFixTime@TLbsLocRequestQualityInt@@QBE?AVTTimeIntervalMicroSeconds@@XZ @ 35 NONAME ; class TTimeIntervalMicroSeconds TLbsLocRequestQualityInt::MaxFixTime(void) const
	?NewClientConnected@TLbsNetPosRequestOptionsInt@@QBEHXZ @ 36 NONAME ; int TLbsNetPosRequestOptionsInt::NewClientConnected(void) const
	?SetDataRequestMask@TLbsNetPosRequestOptionsAssistanceInt@@QAEXK@Z @ 37 NONAME ; void TLbsNetPosRequestOptionsAssistanceInt::SetDataRequestMask(unsigned long)
	?SetSessionNum@TLbsNetSessionIdInt@@QAEXK@Z @ 38 NONAME ; void TLbsNetSessionIdInt::SetSessionNum(unsigned long)
	??0TLbsLocRequestQualityInt@@QAE@XZ @ 39 NONAME ; TLbsLocRequestQualityInt::TLbsLocRequestQualityInt(void)
	?PosMode@TLbsNetPosRequestOptionsTechnologyInt@@QBEKXZ @ 40 NONAME ; unsigned long TLbsNetPosRequestOptionsTechnologyInt::PosMode(void) const
	??0TLbsNetClassTypeBaseInt@@IAE@XZ @ 41 NONAME ; TLbsNetClassTypeBaseInt::TLbsNetClassTypeBaseInt(void)
	?SetMaxFixTime@TLbsNetPosRequestQualityInt@@QAEXVTTimeIntervalMicroSeconds@@@Z @ 42 NONAME ; void TLbsNetPosRequestQualityInt::SetMaxFixTime(class TTimeIntervalMicroSeconds)
	?RequestAdvice@TLbsNetPosRequestPrivacyInt@@QBE?AW4TLbsRequestAdviceInt@1@XZ @ 43 NONAME ; enum TLbsNetPosRequestPrivacyInt::TLbsRequestAdviceInt TLbsNetPosRequestPrivacyInt::RequestAdvice(void) const
	?SetMinVerticalAccuracy@TLbsNetPosRequestQualityInt@@QAEXM@Z @ 44 NONAME ; void TLbsNetPosRequestQualityInt::SetMinVerticalAccuracy(float)
	?IncrSession@TLbsNetSessionIdInt@@QAEXXZ @ 45 NONAME ; void TLbsNetSessionIdInt::IncrSession(void)
	?MinVerticalAccuracy@TLbsLocRequestQualityInt@@QBEMXZ @ 46 NONAME ; float TLbsLocRequestQualityInt::MinVerticalAccuracy(void) const
	?SetSessions@TLbsNetSessionIdArrayInt@@QAEHQBVTLbsNetSessionIdInt@@H@Z @ 47 NONAME ; int TLbsNetSessionIdArrayInt::SetSessions(class TLbsNetSessionIdInt const * const, int)
	?SetMinVerticalAccuracy@TLbsLocRequestQualityInt@@QAEXM@Z @ 48 NONAME ; void TLbsLocRequestQualityInt::SetMinVerticalAccuracy(float)
	?SetMaxFixAge@TLbsNetPosRequestQualityInt@@QAEXVTTimeIntervalMicroSeconds@@@Z @ 49 NONAME ; void TLbsNetPosRequestQualityInt::SetMaxFixAge(class TTimeIntervalMicroSeconds)
	??0TLbsNetSessionIdInt@@QAE@VTUid@@K@Z @ 50 NONAME ; TLbsNetSessionIdInt::TLbsNetSessionIdInt(class TUid, unsigned long)
	?SetRequestAction@TLbsNetPosRequestPrivacyInt@@QAEXW4TLbsRequestActionInt@1@@Z @ 51 NONAME ; void TLbsNetPosRequestPrivacyInt::SetRequestAction(enum TLbsNetPosRequestPrivacyInt::TLbsRequestActionInt)
	?SessionOwner@TLbsNetSessionIdInt@@QBE?AVTUid@@XZ @ 52 NONAME ; class TUid TLbsNetSessionIdInt::SessionOwner(void) const
	?ClassType@TLbsNetClassTypeBaseInt@@QBEKXZ @ 53 NONAME ; unsigned long TLbsNetClassTypeBaseInt::ClassType(void) const
	?SetMinHorizontalAccuracy@TLbsNetPosRequestQualityInt@@QAEXM@Z @ 54 NONAME ; void TLbsNetPosRequestQualityInt::SetMinHorizontalAccuracy(float)
	?SetRequestQuality@TLbsNetPosRequestOptionsInt@@QAEXABVTLbsNetPosRequestQualityInt@@@Z @ 55 NONAME ; void TLbsNetPosRequestOptionsInt::SetRequestQuality(class TLbsNetPosRequestQualityInt const &)
	??0TLbsLocClassTypeBaseInt@@IAE@XZ @ 56 NONAME ; TLbsLocClassTypeBaseInt::TLbsLocClassTypeBaseInt(void)
	?NumSessions@TLbsNetSessionIdArrayInt@@QBEHXZ @ 57 NONAME ; int TLbsNetSessionIdArrayInt::NumSessions(void) const
	?ClassSize@TLbsNetClassTypeBaseInt@@QBEIXZ @ 58 NONAME ; unsigned int TLbsNetClassTypeBaseInt::ClassSize(void) const
	?GetSession@TLbsNetSessionIdArrayInt@@QBEHHAAVTLbsNetSessionIdInt@@@Z @ 59 NONAME ; int TLbsNetSessionIdArrayInt::GetSession(int, class TLbsNetSessionIdInt &) const
	?MaxFixTime@TLbsNetPosRequestQualityInt@@QBE?AVTTimeIntervalMicroSeconds@@XZ @ 60 NONAME ; class TTimeIntervalMicroSeconds TLbsNetPosRequestQualityInt::MaxFixTime(void) const
	?RequestAction@TLbsNetPosRequestPrivacyInt@@QBE?AW4TLbsRequestActionInt@1@XZ @ 61 NONAME ; enum TLbsNetPosRequestPrivacyInt::TLbsRequestActionInt TLbsNetPosRequestPrivacyInt::RequestAction(void) const
	?SetGpsTimingOfCellFramesRequested@TLbsNetPosRequestMethodInt@@QAEXH@Z @ 62 NONAME ; void TLbsNetPosRequestMethodInt::SetGpsTimingOfCellFramesRequested(int)
	?GpsTimingOfCellFramesRequested@TLbsNetPosRequestMethodInt@@QBEHXZ @ 63 NONAME ; int TLbsNetPosRequestMethodInt::GpsTimingOfCellFramesRequested(void) const

