EXPORTS
	?NewL@CLbsBtGpsConfig@@SAPAV1@XZ @ 1 NONAME ; class CLbsBtGpsConfig * CLbsBtGpsConfig::NewL(void)
	?EmptyDeviceList@CLbsBtGpsConfig@@QAEHXZ @ 2 NONAME ; int CLbsBtGpsConfig::EmptyDeviceList(void)
	?Version@MLbsBtGpsConfigObserver@@UBE?AVTVersion@@XZ @ 3 NONAME ; class TVersion MLbsBtGpsConfigObserver::Version(void) const
	?NewL@CLbsBtGpsConfigInternal@@SAPAV1@AAVMLbsBtGpsConfigObserver@@@Z @ 4 NONAME ; class CLbsBtGpsConfigInternal * CLbsBtGpsConfigInternal::NewL(class MLbsBtGpsConfigObserver &)
	?Address@TLbsBtGpsDeviceInfo@@QBEABVTBTDevAddr@@XZ @ 5 NONAME ; class TBTDevAddr const & TLbsBtGpsDeviceInfo::Address(void) const
	?SetSocketAddress@TLbsBtGpsDeviceRecord@@QAEXABVTBTSockAddr@@@Z @ 6 NONAME ; void TLbsBtGpsDeviceRecord::SetSocketAddress(class TBTSockAddr const &)
	?Key@TLbsBtGpsDeviceRecord@@QBEKXZ @ 7 NONAME ; unsigned long TLbsBtGpsDeviceRecord::Key(void) const
	?GetDeviceListL@CLbsBtGpsConfig@@QAEXAAV?$RPointerArray@VTLbsBtGpsDeviceInfo@@@@@Z @ 8 NONAME ; void CLbsBtGpsConfig::GetDeviceListL(class RPointerArray<class TLbsBtGpsDeviceInfo> &)
	?ClassType@TLbsBtGpsClassTypeBase@@QBEKXZ @ 9 NONAME ; unsigned long TLbsBtGpsClassTypeBase::ClassType(void) const
	??0TLbsBtGpsDeviceInfo@@QAE@XZ @ 10 NONAME ; TLbsBtGpsDeviceInfo::TLbsBtGpsDeviceInfo(void)
	??0TLbsBtGpsDeviceRecord@@QAE@XZ @ 11 NONAME ; TLbsBtGpsDeviceRecord::TLbsBtGpsDeviceRecord(void)
	?ClassSize@TLbsBtGpsClassTypeBase@@QBEIXZ @ 12 NONAME ; unsigned int TLbsBtGpsClassTypeBase::ClassSize(void) const
	?SetType@TLbsBtGpsDeviceInfo@@QAEXK@Z @ 13 NONAME ; void TLbsBtGpsDeviceInfo::SetType(unsigned long)
	?NewL@CLbsBtGpsConfig@@SAPAV1@AAVMLbsBtGpsConfigObserver@@@Z @ 14 NONAME ; class CLbsBtGpsConfig * CLbsBtGpsConfig::NewL(class MLbsBtGpsConfigObserver &)
	?GetDeviceRecordListL@CLbsBtGpsConfigInternal@@QAEXAAV?$RPointerArray@VTLbsBtGpsDeviceRecord@@@@@Z @ 15 NONAME ; void CLbsBtGpsConfigInternal::GetDeviceRecordListL(class RPointerArray<class TLbsBtGpsDeviceRecord> &)
	?Type@TLbsBtGpsDeviceInfo@@QBEKXZ @ 16 NONAME ; unsigned long TLbsBtGpsDeviceInfo::Type(void) const
	?SetKey@TLbsBtGpsDeviceRecord@@QAEXK@Z @ 17 NONAME ; void TLbsBtGpsDeviceRecord::SetKey(unsigned long)
	?UpdateDevice@CLbsBtGpsConfigInternal@@QAEHABVTLbsBtGpsDeviceRecord@@@Z @ 18 NONAME ; int CLbsBtGpsConfigInternal::UpdateDevice(class TLbsBtGpsDeviceRecord const &)
	?NewL@CLbsBtGpsConfigInternal@@SAPAV1@XZ @ 19 NONAME ; class CLbsBtGpsConfigInternal * CLbsBtGpsConfigInternal::NewL(void)
	?Key@TLbsBtGpsDeviceInfoBase@@QBEKXZ @ 20 NONAME ; unsigned long TLbsBtGpsDeviceInfoBase::Key(void) const
	??1CLbsBtGpsConfig@@UAE@XZ @ 21 NONAME ; CLbsBtGpsConfig::~CLbsBtGpsConfig(void)
	?Type@TLbsBtGpsDeviceRecord@@QBEKXZ @ 22 NONAME ; unsigned long TLbsBtGpsDeviceRecord::Type(void) const
	??0TLbsBtGpsClassTypeBase@@IAE@XZ @ 23 NONAME ; TLbsBtGpsClassTypeBase::TLbsBtGpsClassTypeBase(void)
	?SocketAddress@TLbsBtGpsDeviceRecord@@QBEABVTBTSockAddr@@XZ @ 24 NONAME ; class TBTSockAddr const & TLbsBtGpsDeviceRecord::SocketAddress(void) const
	?SetKey@TLbsBtGpsDeviceInfoBase@@QAEXK@Z @ 25 NONAME ; void TLbsBtGpsDeviceInfoBase::SetKey(unsigned long)
	?SetAddress@TLbsBtGpsDeviceInfo@@QAEXABVTBTDevAddr@@@Z @ 26 NONAME ; void TLbsBtGpsDeviceInfo::SetAddress(class TBTDevAddr const &)
	??1CLbsBtGpsConfigInternal@@UAE@XZ @ 27 NONAME ; CLbsBtGpsConfigInternal::~CLbsBtGpsConfigInternal(void)
	?AddDevice@CLbsBtGpsConfig@@QAEHABVTBTDevAddr@@HAAK@Z @ 28 NONAME ; int CLbsBtGpsConfig::AddDevice(class TBTDevAddr const &, int, unsigned long &)
	?ExtendedInterface@MLbsBtGpsConfigObserver@@EAEPAXHPAX0@Z @ 29 NONAME ; void * MLbsBtGpsConfigObserver::ExtendedInterface(int, void *, void *)
	?ReorderDevice@CLbsBtGpsConfig@@QAEHKH@Z @ 30 NONAME ; int CLbsBtGpsConfig::ReorderDevice(unsigned long, int)
	?ExtendedInterface@CLbsBtGpsConfig@@EAEPAXHPAX0@Z @ 31 NONAME ; void * CLbsBtGpsConfig::ExtendedInterface(int, void *, void *)
	?GetDeviceCount@CLbsBtGpsConfig@@QAEHAAH@Z @ 32 NONAME ; int CLbsBtGpsConfig::GetDeviceCount(int &)
	?RemoveDevice@CLbsBtGpsConfig@@QAEHK@Z @ 33 NONAME ; int CLbsBtGpsConfig::RemoveDevice(unsigned long)
	?SetType@TLbsBtGpsDeviceRecord@@QAEXK@Z @ 34 NONAME ; void TLbsBtGpsDeviceRecord::SetType(unsigned long)
	??0TLbsBtGpsDeviceInfoBase@@QAE@XZ @ 35 NONAME ; TLbsBtGpsDeviceInfoBase::TLbsBtGpsDeviceInfoBase(void)

