EXPORTS
	_ZN18CCapabilityStorage12GetGenericIDER16TAccPolGenericID @ 1 NONAME
	_ZN18CCapabilityStorage13GetCapabilityERK16TAccPolGenericIDRKm @ 2 NONAME
	_ZN18CCapabilityStorage14SetCapabilityLERK16TAccPolGenericIDRKm @ 3 NONAME
	_ZN18CCapabilityStorage14SetCapabilityLERK16TAccPolGenericIDRKmRK20TAccPolValueLocationRK16TAccPolValueTypeRKl @ 4 NONAME
	_ZN18CCapabilityStorage15CapabilityInUseERK16TAccPolGenericIDRKm @ 5 NONAME
	_ZN18CCapabilityStorage16GenerateUniqueIdER16TAccPolGenericID @ 6 NONAME
	_ZN18CCapabilityStorage18NewCapabilityListLERK16TAccPolGenericID @ 7 NONAME
	_ZN18CCapabilityStorage18NewCapabilityListLERK16TAccPolGenericIDR14RBufReadStream @ 8 NONAME
	_ZN18CCapabilityStorage19InternalizeToArrayLER11RReadStreamR13RPointerArrayI9CCapValueE @ 9 NONAME
	_ZN18CCapabilityStorage19SetGenericIDHeaderLERK16TAccPolGIDHeader @ 10 NONAME
	_ZN18CCapabilityStorage20RemoveCapabilityListERK16TAccPolGenericID @ 11 NONAME
	_ZN18CCapabilityStorage20UseUpdatedGenericIDLERK16TAccPolGenericID @ 12 NONAME
	_ZN18CCapabilityStorage22CompareCriticalValuesLERK16TAccPolGenericID @ 13 NONAME
	_ZN18CCapabilityStorage22SetCriticalCapabilityLERKmRK20TAccPolValueLocationRK16TAccPolValueTypeRKl @ 14 NONAME
	_ZN18CCapabilityStorage28ResolveCriticalCapabilitiesLERK16TAccPolGenericIDR24CAccPolSubblockNameArray @ 15 NONAME
	_ZN18CCapabilityStorage30ExternalizeCapabilityNameListLERK16TAccPolGenericIDR15RBufWriteStream @ 16 NONAME
	_ZN18CCapabilityStorage4NewLEv @ 17 NONAME
	_ZN18CCapabilityStorageD0Ev @ 18 NONAME
	_ZN18CCapabilityStorageD1Ev @ 19 NONAME
	_ZN18CCapabilityStorageD2Ev @ 20 NONAME
	_ZN22CAccPolAccessoryPolicy16UpdateGenericIDLER16TAccPolGenericIDRKi @ 21 NONAME
	_ZN22CAccPolAccessoryPolicy18IsValidConnectionLERK16TAccPolGenericIDRi @ 22 NONAME
	_ZN22CAccPolAccessoryPolicy19SupportedHWDevicesLEv @ 23 NONAME
	_ZN22CAccPolAccessoryPolicy21ResolveAccessoryModeLERK21TAccPolGenericIDArrayii20TAccPolAccessoryModei @ 24 NONAME
	_ZN22CAccPolAccessoryPolicy22ParseGenericIDContentLEP16CAccConGenericIDyRK7TDesC16RK5TDes811TAccGIDtype @ 25 NONAME
	_ZN22CAccPolAccessoryPolicy24EvaluateConnectionRulesLERK16TAccPolGenericIDRm @ 26 NONAME
	_ZN22CAccPolAccessoryPolicy28ResolveCriticalCapabilitiesLERK16TAccPolGenericIDR24CAccPolSubblockNameArray @ 27 NONAME
	_ZN22CAccPolAccessoryPolicy4NewLEP18CCapabilityStorage @ 28 NONAME
	_ZN24TAccPolGenericIDAccessor10DebugPrintERK16TAccPolGenericID @ 29 NONAME
	_ZN24TAccPolGenericIDAccessor12GenericIDRefEP16CAccConGenericID @ 30 NONAME
	_ZN24TAccPolGenericIDAccessor12NameValueBufEP16CAccConGenericID @ 31 NONAME
	_ZN24TAccPolGenericIDAccessor12SetHWModelIDER16TAccPolGenericIDRK7TDesC16 @ 32 NONAME
	_ZN24TAccPolGenericIDAccessor13SetHWDeviceIDER16TAccPolGenericIDy @ 33 NONAME
	_ZN24TAccPolGenericIDAccessor16CompareGenericIDERK16TAccPolGenericIDS2_ @ 34 NONAME
	_ZN24TAccPolGenericIDAccessor16SetDeviceAddressER16TAccPolGenericIDy @ 35 NONAME
	_ZN24TAccPolGenericIDAccessor20SetFeatureAttributeLER16TAccPolGenericIDjm @ 36 NONAME
	_ZN24TAccPolGenericIDAccessor20SetFeatureAttributeLER16TAccPolGenericIDjy @ 37 NONAME
	_ZN24TAccPolGenericIDAccessor28SetGenericIDStaticAttributesEP16CAccConGenericIDRK16TAccPolGenericID @ 38 NONAME
	_ZN24TAccPolGenericIDAccessor7SetDBIDER16TAccPolGenericIDi @ 39 NONAME
	_ZN24TAccPolGenericIDAccessorC1Ev @ 40 NONAME
	_ZN24TAccPolGenericIDAccessorC2Ev @ 41 NONAME
	_ZN27TAccPolNameValueArraySerial12ExternalizeLERK6RArrayI22TAccPolNameValueRecordER12RWriteStream @ 42 NONAME
	_ZN29TAccPolGenericIDArrayAccessor13ReplaceArrayLER21TAccPolGenericIDArrayRK6RArrayI16TAccPolGenericIDE @ 43 NONAME
	_ZN29TAccPolGenericIDArrayAccessor17FindWithUniqueIDLERK21TAccPolGenericIDArrayi @ 44 NONAME
	_ZN29TAccPolGenericIDArrayAccessor18CopyGenericIDArrayERK21TAccPolGenericIDArrayRS0_ @ 45 NONAME
	_ZN29TAccPolGenericIDArrayAccessor19FindWithHWDeviceIDLERK21TAccPolGenericIDArrayRKy @ 46 NONAME
	_ZN29TAccPolGenericIDArrayAccessor22FindWithDeviceAddressLERK21TAccPolGenericIDArrayRKy @ 47 NONAME
	_ZN32TAccPolSubblockNameArrayAccessor10ResetArrayER24CAccPolSubblockNameArray @ 48 NONAME
	_ZN32TAccPolSubblockNameArrayAccessor11AppendNameLER24CAccPolSubblockNameArrayRKm @ 49 NONAME
	_ZN32TAccPolSubblockNameArrayAccessor5ArrayEP24CAccPolSubblockNameArray @ 50 NONAME
	_ZN32TAccPolSubblockNameArrayAccessor7GetNameERK24CAccPolSubblockNameArrayiRm @ 51 NONAME
	_ZN32TAccPolSubblockNameArrayAccessor8GetCountERK24CAccPolSubblockNameArray @ 52 NONAME
	_ZN34TAccPolCapsSubblockNameArraySerial12ExternalizeLERK24CAccPolSubblockNameArrayR12RWriteStream @ 53 NONAME
	_ZN34TAccPolCapsSubblockNameArraySerial12InternalizeLER11RReadStreamR24CAccPolSubblockNameArray @ 54 NONAME
	_ZN9CCapValue9SetValueLERK6TDesC8 @ 55 NONAME
	_ZN9CCapValue9SetValueLERKl @ 56 NONAME
	_ZNK22CAccPolAccessoryPolicy27GetAllCriticalCapabilitiesLEv @ 57 NONAME
	_ZNK9CCapValue4NameEv @ 58 NONAME
	_ZNK9CCapValue4TypeEv @ 59 NONAME
	_ZNK9CCapValue8LocationEv @ 60 NONAME
	_ZNK9CCapValue8ValueIntERl @ 61 NONAME
	_ZNK9CCapValue9ValueDescER6TPtrC8 @ 62 NONAME
	_ZTI18CCapabilityStorage @ 63 NONAME ; #<TI>#
	_ZTI22CAccPolAccessoryPolicy @ 64 NONAME ; #<TI>#
	_ZTI9CCapValue @ 65 NONAME ; #<TI>#
	_ZTIN18CCapabilityStorage14CListContainerE @ 66 NONAME ; #<TI>#
	_ZTV18CCapabilityStorage @ 67 NONAME ; #<VT>#
	_ZTV22CAccPolAccessoryPolicy @ 68 NONAME ; #<VT>#
	_ZTV9CCapValue @ 69 NONAME ; #<VT>#
	_ZTVN18CCapabilityStorage14CListContainerE @ 70 NONAME ; #<VT>#
	_ZN22CAccPolAccessoryPolicy20IsCapabilityDefinedLERK16TAccPolGenericIDRKm @ 71 NONAME
	_ZN22CAccPolAccessoryPolicyD0Ev @ 72 NONAME
	_ZN22CAccPolAccessoryPolicyD1Ev @ 73 NONAME
	_ZN22CAccPolAccessoryPolicyD2Ev @ 74 NONAME
	_ZN29TAccPolGenericIDArrayAccessor29RemoveIndexFromGenericIDArrayER21TAccPolGenericIDArrayi @ 75 NONAME

