EXPORTS
	_ZN16CAccConGenericID4NewLEv @ 1 NONAME
	_ZN16CAccConGenericIDD0Ev @ 2 NONAME
	_ZN16CAccConGenericIDD1Ev @ 3 NONAME
	_ZN16CAccConGenericIDD2Ev @ 4 NONAME
	_ZN16TAccPolGenericIDC1Ev @ 5 NONAME
	_ZN16TAccPolGenericIDC2Ev @ 6 NONAME
	_ZN17TAccPolNameRecord8SetNameLERKm @ 7 NONAME
	_ZN17TAccPolNameRecordC1Ev @ 8 NONAME
	_ZN17TAccPolNameRecordC2Ev @ 9 NONAME
	_ZN18TAccPolValueRecord11SetLocationE20TAccPolValueLocation @ 10 NONAME
	_ZN18TAccPolValueRecord4SetLEi16TAccPolValueType20TAccPolValueLocation @ 11 NONAME
	_ZN18TAccPolValueRecord7SetTypeE16TAccPolValueType @ 12 NONAME
	_ZN18TAccPolValueRecord8SetValueERK6TDesC8 @ 13 NONAME
	_ZN18TAccPolValueRecord8SetValueEi @ 14 NONAME
	_ZN18TAccPolValueRecordC1ER6TDesC820TAccPolValueLocation @ 15 NONAME
	_ZN18TAccPolValueRecordC1Ei16TAccPolValueType20TAccPolValueLocation @ 16 NONAME
	_ZN18TAccPolValueRecordC1Ev @ 17 NONAME
	_ZN18TAccPolValueRecordC2ER6TDesC820TAccPolValueLocation @ 18 NONAME
	_ZN18TAccPolValueRecordC2Ei16TAccPolValueType20TAccPolValueLocation @ 19 NONAME
	_ZN18TAccPolValueRecordC2Ev @ 20 NONAME
	_ZN21TAccPolGenericIDArrayC1Ev @ 21 NONAME
	_ZN21TAccPolGenericIDArrayC2Ev @ 22 NONAME
	_ZN22TAccPolNameValueRecordC1E17TAccPolNameRecord18TAccPolValueRecord @ 23 NONAME
	_ZN22TAccPolNameValueRecordC1ERKm @ 24 NONAME
	_ZN22TAccPolNameValueRecordC1ERKmR6TDesC820TAccPolValueLocation @ 25 NONAME
	_ZN22TAccPolNameValueRecordC1ERKmi16TAccPolValueType20TAccPolValueLocation @ 26 NONAME
	_ZN22TAccPolNameValueRecordC1Ev @ 27 NONAME
	_ZN22TAccPolNameValueRecordC2E17TAccPolNameRecord18TAccPolValueRecord @ 28 NONAME
	_ZN22TAccPolNameValueRecordC2ERKm @ 29 NONAME
	_ZN22TAccPolNameValueRecordC2ERKmR6TDesC820TAccPolValueLocation @ 30 NONAME
	_ZN22TAccPolNameValueRecordC2ERKmi16TAccPolValueType20TAccPolValueLocation @ 31 NONAME
	_ZN22TAccPolNameValueRecordC2Ev @ 32 NONAME
	_ZN24CAccPolSubblockNameArray4NewLEv @ 33 NONAME
	_ZN24CAccPolSubblockNameArrayD0Ev @ 34 NONAME
	_ZN24CAccPolSubblockNameArrayD1Ev @ 35 NONAME
	_ZN24CAccPolSubblockNameArrayD2Ev @ 36 NONAME
	_ZNK16CAccConGenericID9GenericIDEv @ 37 NONAME
	_ZNK16TAccPolGenericID10HWDeviceIDEv @ 38 NONAME
	_ZNK16TAccPolGenericID12SubblockCapsEv @ 39 NONAME
	_ZNK16TAccPolGenericID12SubblockCapsEy @ 40 NONAME
	_ZNK16TAccPolGenericID13DeviceAddressEv @ 41 NONAME
	_ZNK16TAccPolGenericID14DeviceTypeCapsEm @ 42 NONAME
	_ZNK16TAccPolGenericID14DeviceTypeCapsEv @ 43 NONAME
	_ZNK16TAccPolGenericID22PhysicalConnectionCapsEm @ 44 NONAME
	_ZNK16TAccPolGenericID22PhysicalConnectionCapsEv @ 45 NONAME
	_ZNK16TAccPolGenericID23ApplicationProtocolCapsEm @ 46 NONAME
	_ZNK16TAccPolGenericID23ApplicationProtocolCapsEv @ 47 NONAME
	_ZNK16TAccPolGenericID8UniqueIDEv @ 48 NONAME
	_ZNK16TAccPolGenericID9HWModelIDEv @ 49 NONAME
	_ZNK17TAccPolNameRecord7GetNameERm @ 50 NONAME
	_ZNK18TAccPolValueRecord4TypeEv @ 51 NONAME
	_ZNK18TAccPolValueRecord5ValueEv @ 52 NONAME
	_ZNK18TAccPolValueRecord8LocationEv @ 53 NONAME
	_ZNK18TAccPolValueRecord9GetValueLER6TDesC8 @ 54 NONAME
	_ZNK21TAccPolGenericIDArray13GetGenericIDLEi @ 55 NONAME
	_ZNK21TAccPolGenericIDArray5CountEv @ 56 NONAME
	_ZNK22TAccPolNameValueRecord10NameRecordEv @ 57 NONAME
	_ZNK22TAccPolNameValueRecord11ValueRecordEv @ 58 NONAME
	_ZNK24CAccPolSubblockNameArray7HasNameERKm @ 59 NONAME
	_ZTI16CAccConGenericID @ 60 NONAME ; #<TI>#
	_ZTI24CAccPolSubblockNameArray @ 61 NONAME ; #<TI>#
	_ZTV16CAccConGenericID @ 62 NONAME ; #<VT>#
	_ZTV24CAccPolSubblockNameArray @ 63 NONAME ; #<VT>#
	_ZN17TAccPolNameRecord7SetNameERKm @ 64 NONAME
	_ZN18TAccPolValueRecord8ValueRefEv @ 65 NONAME
	_ZN16CAccPolObjectCon4AddLERK17CAccPolObjectBase @ 66 NONAME
	_ZN16CAccPolObjectCon5ResetEv @ 67 NONAME
	_ZN16CAccPolObjectConC2EhPS_ @ 68 NONAME
	_ZN16CAccPolObjectConC2Ev @ 69 NONAME
	_ZN16CAccPolObjectConD0Ev @ 70 NONAME
	_ZN16CAccPolObjectConD1Ev @ 71 NONAME
	_ZN16CAccPolObjectConD2Ev @ 72 NONAME
	_ZN17CAccPolObjectBase13SetObjectTypeEh @ 73 NONAME
	_ZN17CAccPolObjectBaseC2EhP16CAccPolObjectCon @ 74 NONAME
	_ZN17CAccPolObjectBaseC2Ev @ 75 NONAME
	_ZN17CAccPolObjectBaseD0Ev @ 76 NONAME
	_ZN17CAccPolObjectBaseD1Ev @ 77 NONAME
	_ZN17CAccPolObjectBaseD2Ev @ 78 NONAME
	_ZN17CAccPolObjectBaseaSERKS_ @ 79 NONAME
	_ZN18TAccPolValueRecordC1E20TAccPolValueLocationP16CAccPolObjectCon @ 80 NONAME
	_ZN18TAccPolValueRecordC2E20TAccPolValueLocationP16CAccPolObjectCon @ 81 NONAME
	_ZN22TAccPolNameValueRecordC1ERKm20TAccPolValueLocationP16CAccPolObjectCon @ 82 NONAME
	_ZN22TAccPolNameValueRecordC2ERKm20TAccPolValueLocationP16CAccPolObjectCon @ 83 NONAME
	_ZNK16CAccPolObjectCon3AtLEi @ 84 NONAME
	_ZNK16CAccPolObjectCon5CountEv @ 85 NONAME
	_ZNK17CAccPolObjectBase10ObjectTypeEv @ 86 NONAME
	_ZTI16CAccPolObjectCon @ 87 NONAME ; #<TI>#
	_ZTI17CAccPolObjectBase @ 88 NONAME ; #<TI>#
	_ZTV16CAccPolObjectCon @ 89 NONAME ; #<VT>#
	_ZTV17CAccPolObjectBase @ 90 NONAME ; #<VT>#

