EXPORTS
	_Z19NewTestSuiteNetConLv @ 1 NONAME
	_ZTI13COneShotTimer @ 2 NONAME ; #<TI>#
	_ZTI13CStubbedAgent @ 3 NONAME ; #<TI>#
	_ZTI14CEtelBehaviour @ 4 NONAME ; #<TI>#
	_ZTI15CNetConTest0201 @ 5 NONAME ; #<TI>#
	_ZTI15CNetConTest0202 @ 6 NONAME ; #<TI>#
	_ZTI15CNetConTest0203 @ 7 NONAME ; #<TI>#
	_ZTI15CNetConTest0204 @ 8 NONAME ; #<TI>#
	_ZTI15CNetConTest0205 @ 9 NONAME ; #<TI>#
	_ZTI15CNetConTest0206 @ 10 NONAME ; #<TI>#
	_ZTI15CNetConTest0208 @ 11 NONAME ; #<TI>#
	_ZTI15CNetConTest0209 @ 12 NONAME ; #<TI>#
	_ZTI15CNetConTest0210 @ 13 NONAME ; #<TI>#
	_ZTI15CNetConTest0211 @ 14 NONAME ; #<TI>#
	_ZTI15CNetConTest0212 @ 15 NONAME ; #<TI>#
	_ZTI15CNetConTest0213 @ 16 NONAME ; #<TI>#
	_ZTI15CNetConTest0214 @ 17 NONAME ; #<TI>#
	_ZTI15CNetConTest0215 @ 18 NONAME ; #<TI>#
	_ZTI15CNetConTest0216 @ 19 NONAME ; #<TI>#
	_ZTI15CNetConTest0217 @ 20 NONAME ; #<TI>#
	_ZTI15CNetConTest0218 @ 21 NONAME ; #<TI>#
	_ZTI15CNetConTest0219 @ 22 NONAME ; #<TI>#
	_ZTI15CNetConTest0220 @ 23 NONAME ; #<TI>#
	_ZTI15CNetConTest0221 @ 24 NONAME ; #<TI>#
	_ZTI15CNetConTest0222 @ 25 NONAME ; #<TI>#
	_ZTI15CNetConTest0223 @ 26 NONAME ; #<TI>#
	_ZTI15CNetConTest0224 @ 27 NONAME ; #<TI>#
	_ZTI15CNetConTest0301 @ 28 NONAME ; #<TI>#
	_ZTI15CNetConTest0302 @ 29 NONAME ; #<TI>#
	_ZTI15CNetConTest0303 @ 30 NONAME ; #<TI>#
	_ZTI15CNetConTest0304 @ 31 NONAME ; #<TI>#
	_ZTI15CNetConTest0401 @ 32 NONAME ; #<TI>#
	_ZTI15CNetConTest0402 @ 33 NONAME ; #<TI>#
	_ZTI15CNetConTest0403 @ 34 NONAME ; #<TI>#
	_ZTI15CNetConTest0404 @ 35 NONAME ; #<TI>#
	_ZTI15CNetConTest0405 @ 36 NONAME ; #<TI>#
	_ZTI15CNetConTest0406 @ 37 NONAME ; #<TI>#
	_ZTI15CNetConTest0409 @ 38 NONAME ; #<TI>#
	_ZTI15CNetConTest0411 @ 39 NONAME ; #<TI>#
	_ZTI15CNetConTest0413 @ 40 NONAME ; #<TI>#
	_ZTI15CNetConTest0415 @ 41 NONAME ; #<TI>#
	_ZTI15CNetConTest0417 @ 42 NONAME ; #<TI>#
	_ZTI15CNetConTest0418 @ 43 NONAME ; #<TI>#
	_ZTI15CNetConTest0419 @ 44 NONAME ; #<TI>#
	_ZTI15CNetConTest0420 @ 45 NONAME ; #<TI>#
	_ZTI15CNetConTestBase @ 46 NONAME ; #<TI>#
	_ZTI15CTestStepNetCon @ 47 NONAME ; #<TI>#
	_ZTI16CTestSuiteNetCon @ 48 NONAME ; #<TI>#
	_ZTI18CEtelBehaviourBase @ 49 NONAME ; #<TI>#
	_ZTI18CTest0409Behaviour @ 50 NONAME ; #<TI>#
	_ZTI18CTest0411Behaviour @ 51 NONAME ; #<TI>#
	_ZTI18CTest0413Behaviour @ 52 NONAME ; #<TI>#
	_ZTI18CTest0415Behaviour @ 53 NONAME ; #<TI>#
	_ZTI18CTest0417Behaviour @ 54 NONAME ; #<TI>#
	_ZTI18CTest0420Behaviour @ 55 NONAME ; #<TI>#
	_ZTI19CControllerTestBase @ 56 NONAME ; #<TI>#
	_ZTI21CNetConBearerTestBase @ 57 NONAME ; #<TI>#
	_ZTI22CNetConRequestTestBase @ 58 NONAME ; #<TI>#
	_ZTI31CNetConReconnectRequestTestBase @ 59 NONAME ; #<TI>#
	_ZTI31CNetConSelectionRequestTestBase @ 60 NONAME ; #<TI>#
	_ZTV13COneShotTimer @ 61 NONAME ; #<VT>#
	_ZTV13CStubbedAgent @ 62 NONAME ; #<VT>#
	_ZTV14CEtelBehaviour @ 63 NONAME ; #<VT>#
	_ZTV15CNetConTest0201 @ 64 NONAME ; #<VT>#
	_ZTV15CNetConTest0202 @ 65 NONAME ; #<VT>#
	_ZTV15CNetConTest0203 @ 66 NONAME ; #<VT>#
	_ZTV15CNetConTest0204 @ 67 NONAME ; #<VT>#
	_ZTV15CNetConTest0205 @ 68 NONAME ; #<VT>#
	_ZTV15CNetConTest0206 @ 69 NONAME ; #<VT>#
	_ZTV15CNetConTest0208 @ 70 NONAME ; #<VT>#
	_ZTV15CNetConTest0209 @ 71 NONAME ; #<VT>#
	_ZTV15CNetConTest0210 @ 72 NONAME ; #<VT>#
	_ZTV15CNetConTest0211 @ 73 NONAME ; #<VT>#
	_ZTV15CNetConTest0212 @ 74 NONAME ; #<VT>#
	_ZTV15CNetConTest0213 @ 75 NONAME ; #<VT>#
	_ZTV15CNetConTest0214 @ 76 NONAME ; #<VT>#
	_ZTV15CNetConTest0215 @ 77 NONAME ; #<VT>#
	_ZTV15CNetConTest0216 @ 78 NONAME ; #<VT>#
	_ZTV15CNetConTest0217 @ 79 NONAME ; #<VT>#
	_ZTV15CNetConTest0218 @ 80 NONAME ; #<VT>#
	_ZTV15CNetConTest0219 @ 81 NONAME ; #<VT>#
	_ZTV15CNetConTest0220 @ 82 NONAME ; #<VT>#
	_ZTV15CNetConTest0221 @ 83 NONAME ; #<VT>#
	_ZTV15CNetConTest0222 @ 84 NONAME ; #<VT>#
	_ZTV15CNetConTest0223 @ 85 NONAME ; #<VT>#
	_ZTV15CNetConTest0224 @ 86 NONAME ; #<VT>#
	_ZTV15CNetConTest0301 @ 87 NONAME ; #<VT>#
	_ZTV15CNetConTest0302 @ 88 NONAME ; #<VT>#
	_ZTV15CNetConTest0303 @ 89 NONAME ; #<VT>#
	_ZTV15CNetConTest0304 @ 90 NONAME ; #<VT>#
	_ZTV15CNetConTest0401 @ 91 NONAME ; #<VT>#
	_ZTV15CNetConTest0402 @ 92 NONAME ; #<VT>#
	_ZTV15CNetConTest0403 @ 93 NONAME ; #<VT>#
	_ZTV15CNetConTest0404 @ 94 NONAME ; #<VT>#
	_ZTV15CNetConTest0405 @ 95 NONAME ; #<VT>#
	_ZTV15CNetConTest0406 @ 96 NONAME ; #<VT>#
	_ZTV15CNetConTest0409 @ 97 NONAME ; #<VT>#
	_ZTV15CNetConTest0411 @ 98 NONAME ; #<VT>#
	_ZTV15CNetConTest0413 @ 99 NONAME ; #<VT>#
	_ZTV15CNetConTest0415 @ 100 NONAME ; #<VT>#
	_ZTV15CNetConTest0417 @ 101 NONAME ; #<VT>#
	_ZTV15CNetConTest0418 @ 102 NONAME ; #<VT>#
	_ZTV15CNetConTest0419 @ 103 NONAME ; #<VT>#
	_ZTV15CNetConTest0420 @ 104 NONAME ; #<VT>#
	_ZTV15CNetConTestBase @ 105 NONAME ; #<VT>#
	_ZTV15CTestStepNetCon @ 106 NONAME ; #<VT>#
	_ZTV16CTestSuiteNetCon @ 107 NONAME ; #<VT>#
	_ZTV18CEtelBehaviourBase @ 108 NONAME ; #<VT>#
	_ZTV18CTest0409Behaviour @ 109 NONAME ; #<VT>#
	_ZTV18CTest0411Behaviour @ 110 NONAME ; #<VT>#
	_ZTV18CTest0413Behaviour @ 111 NONAME ; #<VT>#
	_ZTV18CTest0415Behaviour @ 112 NONAME ; #<VT>#
	_ZTV18CTest0417Behaviour @ 113 NONAME ; #<VT>#
	_ZTV18CTest0420Behaviour @ 114 NONAME ; #<VT>#
	_ZTV19CControllerTestBase @ 115 NONAME ; #<VT>#
	_ZTV21CNetConBearerTestBase @ 116 NONAME ; #<VT>#
	_ZTV22CNetConRequestTestBase @ 117 NONAME ; #<VT>#
	_ZTV31CNetConReconnectRequestTestBase @ 118 NONAME ; #<VT>#
	_ZTV31CNetConSelectionRequestTestBase @ 119 NONAME ; #<VT>#

