EXPORTS
	_Z19NewTestSuiteNetConLv @ 1 NONAME
	_ZTI10CTelBearer @ 2 NONAME ; #<TI>#
	_ZTI13CStubbedAgent @ 3 NONAME ; #<TI>#
	_ZTI14CQueueTestBase @ 4 NONAME ; #<TI>#
	_ZTI15CNetConTest0101 @ 5 NONAME ; #<TI>#
	_ZTI15CNetConTest0102 @ 6 NONAME ; #<TI>#
	_ZTI15CNetConTest0103 @ 7 NONAME ; #<TI>#
	_ZTI15CNetConTest0104 @ 8 NONAME ; #<TI>#
	_ZTI15CNetConTest0105 @ 9 NONAME ; #<TI>#
	_ZTI15CNetConTest0106 @ 10 NONAME ; #<TI>#
	_ZTI15CNetConTest0107 @ 11 NONAME ; #<TI>#
	_ZTI15CNetConTest0108 @ 12 NONAME ; #<TI>#
	_ZTI15CNetConTest0109 @ 13 NONAME ; #<TI>#
	_ZTI15CNetConTest0110 @ 14 NONAME ; #<TI>#
	_ZTI15CNetConTest0111 @ 15 NONAME ; #<TI>#
	_ZTI15CNetConTest0112 @ 16 NONAME ; #<TI>#
	_ZTI15CNetConTest0113 @ 17 NONAME ; #<TI>#
	_ZTI15CNetConTestBase @ 18 NONAME ; #<TI>#
	_ZTI15CTestStepNetCon @ 19 NONAME ; #<TI>#
	_ZTI16CTestSuiteNetCon @ 20 NONAME ; #<TI>#
	_ZTI17CReconnectRequest @ 21 NONAME ; #<TI>#
	_ZTI17CSelectionRequest @ 22 NONAME ; #<TI>#
	_ZTI23CTestControllerObserver @ 23 NONAME ; #<TI>#
	_ZTV10CTelBearer @ 24 NONAME ; #<VT>#
	_ZTV13CStubbedAgent @ 25 NONAME ; #<VT>#
	_ZTV14CQueueTestBase @ 26 NONAME ; #<VT>#
	_ZTV15CNetConTest0101 @ 27 NONAME ; #<VT>#
	_ZTV15CNetConTest0102 @ 28 NONAME ; #<VT>#
	_ZTV15CNetConTest0103 @ 29 NONAME ; #<VT>#
	_ZTV15CNetConTest0104 @ 30 NONAME ; #<VT>#
	_ZTV15CNetConTest0105 @ 31 NONAME ; #<VT>#
	_ZTV15CNetConTest0106 @ 32 NONAME ; #<VT>#
	_ZTV15CNetConTest0107 @ 33 NONAME ; #<VT>#
	_ZTV15CNetConTest0108 @ 34 NONAME ; #<VT>#
	_ZTV15CNetConTest0109 @ 35 NONAME ; #<VT>#
	_ZTV15CNetConTest0110 @ 36 NONAME ; #<VT>#
	_ZTV15CNetConTest0111 @ 37 NONAME ; #<VT>#
	_ZTV15CNetConTest0112 @ 38 NONAME ; #<VT>#
	_ZTV15CNetConTest0113 @ 39 NONAME ; #<VT>#
	_ZTV15CNetConTestBase @ 40 NONAME ; #<VT>#
	_ZTV15CTestStepNetCon @ 41 NONAME ; #<VT>#
	_ZTV16CTestSuiteNetCon @ 42 NONAME ; #<VT>#
	_ZTV17CReconnectRequest @ 43 NONAME ; #<VT>#
	_ZTV17CSelectionRequest @ 44 NONAME ; #<VT>#
	_ZTV23CTestControllerObserver @ 45 NONAME ; #<VT>#

