EXPORTS
	??1CPosContactRequestor@@UAE@XZ @ 1 NONAME ; CPosContactRequestor::~CPosContactRequestor(void)
	??1CPosRequestor@@UAE@XZ @ 2 NONAME ; CPosRequestor::~CPosRequestor(void)
	??1CPosServiceRequestor@@UAE@XZ @ 3 NONAME ; CPosServiceRequestor::~CPosServiceRequestor(void)
	?NewL@CPosContactRequestor@@SAPAV1@W4TRequestorIdFormat@CPosRequestor@@ABVTDesC16@@@Z @ 4 NONAME ; class CPosContactRequestor * CPosContactRequestor::NewL(enum CPosRequestor::TRequestorIdFormat, class TDesC16 const &)
	?NewL@CPosServiceRequestor@@SAPAV1@W4TRequestorIdFormat@CPosRequestor@@ABVTDesC16@@@Z @ 5 NONAME ; class CPosServiceRequestor * CPosServiceRequestor::NewL(enum CPosRequestor::TRequestorIdFormat, class TDesC16 const &)
	?NewLC@CPosContactRequestor@@SAPAV1@W4TRequestorIdFormat@CPosRequestor@@ABVTDesC16@@@Z @ 6 NONAME ; class CPosContactRequestor * CPosContactRequestor::NewLC(enum CPosRequestor::TRequestorIdFormat, class TDesC16 const &)
	?NewLC@CPosServiceRequestor@@SAPAV1@W4TRequestorIdFormat@CPosRequestor@@ABVTDesC16@@@Z @ 7 NONAME ; class CPosServiceRequestor * CPosServiceRequestor::NewLC(enum CPosRequestor::TRequestorIdFormat, class TDesC16 const &)
	?RequestorIdFormat@CPosRequestor@@QBE?AW4TRequestorIdFormat@1@XZ @ 8 NONAME ; enum CPosRequestor::TRequestorIdFormat CPosRequestor::RequestorIdFormat(void) const
	?RequestorIdString@CPosRequestor@@QBE?AVTPtrC16@@XZ @ 9 NONAME ; class TPtrC16 CPosRequestor::RequestorIdString(void) const
	?RequestorType@CPosRequestor@@QBE?AW4TRequestorType@1@XZ @ 10 NONAME ; enum CPosRequestor::TRequestorType CPosRequestor::RequestorType(void) const
	?SetRequestorIdL@CPosRequestor@@QAEXW4TRequestorIdFormat@1@ABVTDesC16@@@Z @ 11 NONAME ; void CPosRequestor::SetRequestorIdL(enum CPosRequestor::TRequestorIdFormat, class TDesC16 const &)
	?ExternalizeL@RPosRequestorStack@@QBEXAAVRWriteStream@@@Z @ 12 NONAME ; void RPosRequestorStack::ExternalizeL(class RWriteStream &) const
	?InternalizeL@RPosRequestorStack@@QAEXAAVRReadStream@@@Z @ 13 NONAME ; void RPosRequestorStack::InternalizeL(class RReadStream &)
	?NetworkType@CPosRequestor@@QBEKXZ @ 14 NONAME ; unsigned long CPosRequestor::NetworkType(void) const
	?RequestType@CPosRequestor@@QBEKXZ @ 15 NONAME ; unsigned long CPosRequestor::RequestType(void) const
	?SetNetworkType@CPosRequestor@@QAEXK@Z @ 16 NONAME ; void CPosRequestor::SetNetworkType(unsigned long)
	?SetRequestType@CPosRequestor@@QAEXK@Z @ 17 NONAME ; void CPosRequestor::SetRequestType(unsigned long)
	?NewL@CPosContactRequestor@@SAPAV1@W4TRequestorIdFormat@CPosRequestor@@ABVTDesC16@@KK@Z @ 18 NONAME ; class CPosContactRequestor * CPosContactRequestor::NewL(enum CPosRequestor::TRequestorIdFormat, class TDesC16 const &, unsigned long, unsigned long)
	?NewL@CPosServiceRequestor@@SAPAV1@W4TRequestorIdFormat@CPosRequestor@@ABVTDesC16@@KK@Z @ 19 NONAME ; class CPosServiceRequestor * CPosServiceRequestor::NewL(enum CPosRequestor::TRequestorIdFormat, class TDesC16 const &, unsigned long, unsigned long)
	?NewLC@CPosContactRequestor@@SAPAV1@W4TRequestorIdFormat@CPosRequestor@@ABVTDesC16@@KK@Z @ 20 NONAME ; class CPosContactRequestor * CPosContactRequestor::NewLC(enum CPosRequestor::TRequestorIdFormat, class TDesC16 const &, unsigned long, unsigned long)
	?NewLC@CPosServiceRequestor@@SAPAV1@W4TRequestorIdFormat@CPosRequestor@@ABVTDesC16@@KK@Z @ 21 NONAME ; class CPosServiceRequestor * CPosServiceRequestor::NewLC(enum CPosRequestor::TRequestorIdFormat, class TDesC16 const &, unsigned long, unsigned long)

