EXPORTS
	_ZN12RMmCustomAPI10ConstructLEv @ 1 NONAME
	_ZN12RMmCustomAPI11ReleaseFileER14TRequestStatusRK7TDesC16 @ 2 NONAME
	_ZN12RMmCustomAPI11RestartFileER14TRequestStatusRK7TDesC16 @ 3 NONAME
	_ZN12RMmCustomAPI11SendAPDUReqER14TRequestStatusRNS_5TApduE @ 4 NONAME
	_ZN12RMmCustomAPI11SendAPDUReqERNS_5TApduE @ 5 NONAME
	_ZN12RMmCustomAPI12GetActivePinERN12RMobilePhone24TMobilePhoneSecurityCodeE @ 6 NONAME
	_ZN12RMmCustomAPI12TSimFileInfoC1Ev @ 7 NONAME
	_ZN12RMmCustomAPI12TSimFileInfoC2Ev @ 8 NONAME
	_ZN12RMmCustomAPI13GetAlsBlockedER14TRequestStatusRNS_18TGetAlsBlockStatusE @ 9 NONAME
	_ZN12RMmCustomAPI13SetAlsBlockedER14TRequestStatusNS_12TSetAlsBlockE @ 10 NONAME
	_ZN12RMmCustomAPI13TLifeTimeDataC1Ev @ 11 NONAME
	_ZN12RMmCustomAPI13TLifeTimeDataC2Ev @ 12 NONAME
	_ZN12RMmCustomAPI13TerminateCallER14TRequestStatusR4TBufILi128EE @ 13 NONAME
	_ZN12RMmCustomAPI14ResetNetServerER14TRequestStatus @ 14 NONAME
	_ZN12RMmCustomAPI15GetOperatorNameER14TRequestStatusRNS_17TOperatorNameInfoE @ 15 NONAME
	_ZN12RMmCustomAPI15NotifyDtmfEventER14TRequestStatusRNS_9TDtmfInfoE @ 16 NONAME
	_ZN12RMmCustomAPI16DeleteSimCbTopicER14TRequestStatusRKj @ 17 NONAME
	_ZN12RMmCustomAPI16DeleteSimCbTopicERKj @ 18 NONAME
	_ZN12RMmCustomAPI16GetCipheringInfoER14TRequestStatusRNS_14TCipheringInfoE @ 19 NONAME
	_ZN12RMmCustomAPI16GetCipheringInfoERNS_14TCipheringInfoE @ 20 NONAME
	_ZN12RMmCustomAPI16NotifyNSPSStatusER14TRequestStatusRNS_11TNspsStatusE @ 21 NONAME
	_ZN12RMmCustomAPI16TGprsInformationC1Ev @ 22 NONAME
	_ZN12RMmCustomAPI16TGprsInformationC2Ev @ 23 NONAME
	_ZN12RMmCustomAPI17CancelUssdSessionER14TRequestStatus @ 24 NONAME
	_ZN12RMmCustomAPI17CheckAlsPpSupportER14TRequestStatusRNS_11TAlsSupportE @ 25 NONAME
	_ZN12RMmCustomAPI17CheckSecurityCodeENS_17TSecurityCodeTypeE @ 26 NONAME
	_ZN12RMmCustomAPI17CheckSecurityCodeER14TRequestStatusNS_17TSecurityCodeTypeE @ 27 NONAME
	_ZN12RMmCustomAPI17GetNextSimCbTopicER14TRequestStatusRNS_11TSimCbTopicE @ 28 NONAME
	_ZN12RMmCustomAPI17GetNextSimCbTopicERNS_11TSimCbTopicE @ 29 NONAME
	_ZN12RMmCustomAPI17TCustomCallParamsC1Ev @ 30 NONAME
	_ZN12RMmCustomAPI17TCustomCallParamsC2Ev @ 31 NONAME
	_ZN12RMmCustomAPI18ClearCallBlackListER14TRequestStatus @ 32 NONAME
	_ZN12RMmCustomAPI19NotifyPndCacheReadyER14TRequestStatusR4TBufILi128EE @ 33 NONAME
	_ZN12RMmCustomAPI20CheckEmergencyNumberER14TRequestStatusRNS_20TEmerNumberCheckModeERi @ 34 NONAME
	_ZN12RMmCustomAPI20NotifySsNetworkEventER14TRequestStatusRNS_14TSsTypeAndModeERNS_7TSsInfoE @ 35 NONAME
	_ZN12RMmCustomAPI21ReadViagHomeZoneCacheER14TRequestStatusRNS_18TViagCacheRecordIdERNS_23TViagCacheRecordContentE @ 36 NONAME
	_ZN12RMmCustomAPI22GetNetworkProviderNameER14TRequestStatusR6TDes16 @ 37 NONAME
	_ZN12RMmCustomAPI22ReadViagHomeZoneParamsER14TRequestStatusRNS_11TViagParamsER13CArrayFixFlatINS_12TViagElementEE @ 38 NONAME
	_ZN12RMmCustomAPI22WriteViagHomeZoneCacheER14TRequestStatusRKNS_18TViagCacheRecordIdERKNS_23TViagCacheRecordContentE @ 39 NONAME
	_ZN12RMmCustomAPI23NotifyAlsBlockedChangedER14TRequestStatusRNS_18TGetAlsBlockStatusE @ 40 NONAME
	_ZN12RMmCustomAPI23StartSimCbTopicBrowsingEv @ 41 NONAME
	_ZN12RMmCustomAPI24CheckTwoDigitDialSupportER14TRequestStatusRNS_20TTwoDigitDialSupportE @ 42 NONAME
	_ZN12RMmCustomAPI25NotifyCipheringInfoChangeER14TRequestStatusRNS_14TCipheringInfoE @ 43 NONAME
	_ZN12RMmCustomAPI27GetProgrammableOperatorLogoER14TRequestStatusRNS_11TOperatorIdERNS_13TOperatorLogoE @ 44 NONAME
	_ZN12RMmCustomAPI28SsAdditionalInfoNotificationER14TRequestStatusRNS_17TSsAdditionalInfoE @ 45 NONAME
	_ZN12RMmCustomAPI29SsRequestCompleteNotificationER14TRequestStatusRi @ 46 NONAME
	_ZN12RMmCustomAPI30NotifyNetworkConnectionFailureER14TRequestStatus @ 47 NONAME
	_ZN12RMmCustomAPI30SatRefreshCompleteNotificationER14TRequestStatus @ 48 NONAME
	_ZN12RMmCustomAPI36NotifyProgrammableOperatorLogoChangeER14TRequestStatusRNS_11TOperatorIdE @ 49 NONAME
	_ZN12RMmCustomAPI4OpenER12RMobilePhone @ 50 NONAME
	_ZN12RMmCustomAPI5CloseEv @ 51 NONAME
	_ZN12RMmCustomAPI8DestructEv @ 52 NONAME
	_ZN12RMmCustomAPI9IsBlockedERNS_17TSecurityCodeTypeERi @ 53 NONAME
	_ZN12RMmCustomAPI9NetWakeupER14TRequestStatus @ 54 NONAME
	_ZN12RMmCustomAPIC1Ev @ 55 NONAME
	_ZN12RMmCustomAPIC2Ev @ 56 NONAME
	_ZNK12RMmCustomAPI10CallOriginER4TBufILi128EERNS_11TCallOriginE @ 57 NONAME
	_ZNK12RMmCustomAPI11Get3GPBInfoER14TRequestStatusRNS_9T3GPBInfoE @ 58 NONAME
	_ZNK12RMmCustomAPI11GetLifeTimeER14TRequestStatusR5TDes8 @ 59 NONAME
	_ZNK12RMmCustomAPI11GetLifeTimeER5TDes8 @ 60 NONAME
	_ZNK12RMmCustomAPI11ReadSimFileER14TRequestStatusR5TDes8S3_ @ 61 NONAME
	_ZNK12RMmCustomAPI12GetEGprsInfoER14TRequestStatusR5TDes8 @ 62 NONAME
	_ZNK12RMmCustomAPI13GetAlsBlockedERNS_18TGetAlsBlockStatusE @ 63 NONAME
	_ZNK12RMmCustomAPI13SetAlsBlockedENS_12TSetAlsBlockE @ 64 NONAME
	_ZNK12RMmCustomAPI13TerminateCallER4TBufILi128EE @ 65 NONAME
	_ZNK12RMmCustomAPI14ResetNetServerEv @ 66 NONAME
	_ZNK12RMmCustomAPI15ActivateSimLockER14TRequestStatusRK4TBufILi30EENS_11TLockNumberE @ 67 NONAME
	_ZNK12RMmCustomAPI15ActivateSimLockERK4TBufILi30EENS_11TLockNumberE @ 68 NONAME
	_ZNK12RMmCustomAPI16DisablePhoneLockER14TRequestStatusR4TBufILi10EE @ 69 NONAME
	_ZNK12RMmCustomAPI17CancelUssdSessionEv @ 70 NONAME
	_ZNK12RMmCustomAPI17CheckAlsPpSupportERNS_11TAlsSupportE @ 71 NONAME
	_ZNK12RMmCustomAPI17DeActivateSimLockER14TRequestStatusRK4TBufILi30EENS_11TLockNumberE @ 72 NONAME
	_ZNK12RMmCustomAPI17DeActivateSimLockERK4TBufILi30EENS_11TLockNumberE @ 73 NONAME
	_ZNK12RMmCustomAPI17GetPndCacheStatusER14TRequestStatusRNS_15TPndCacheStatusERK4TBufILi128EE @ 74 NONAME
	_ZNK12RMmCustomAPI18ClearCallBlackListEv @ 75 NONAME
	_ZNK12RMmCustomAPI18GetAirTimeDurationER20TTimeIntervalSeconds @ 76 NONAME
	_ZNK12RMmCustomAPI17GetDiagnosticInfoER4TBufILi128EE @ 77 NONAME
	_ZNK12RMmCustomAPI20CheckEmergencyNumberERNS_20TEmerNumberCheckModeERi @ 78 NONAME
	_ZNK12RMmCustomAPI21NotifyEGprsInfoChangeER14TRequestStatusR5TDes8 @ 79 NONAME
	_ZNK12RMmCustomAPI21ReadViagHomeZoneCacheERNS_18TViagCacheRecordIdERNS_23TViagCacheRecordContentE @ 80 NONAME
	_ZNK12RMmCustomAPI22GetNetworkProviderNameER6TDes16 @ 81 NONAME
	_ZNK12RMmCustomAPI22ReadViagHomeZoneParamsERNS_11TViagParamsER13CArrayFixFlatINS_12TViagElementEE @ 82 NONAME
	_ZNK12RMmCustomAPI22WriteViagHomeZoneCacheERKNS_18TViagCacheRecordIdERKNS_23TViagCacheRecordContentE @ 83 NONAME
	_ZNK12RMmCustomAPI24CheckTwoDigitDialSupportERNS_20TTwoDigitDialSupportE @ 84 NONAME
	_ZNK12RMmCustomAPI27GetRemoteAlertingToneStatusERNS_25TRemoteAlertingToneStatusE @ 85 NONAME
	_ZN12RMmCustomAPI20SetSystemNetworkModeENS_16TNetworkModeCapsE @ 86 NONAME
	_ZN12RMmCustomAPI20SetSystemNetworkModeER14TRequestStatusNS_16TNetworkModeCapsE @ 87 NONAME
	_ZNK12RMmCustomAPI21GetSystemNetworkModesER14TRequestStatusRm @ 88 NONAME
	_ZNK12RMmCustomAPI21GetSystemNetworkModesERm @ 89 NONAME
	_ZNK12RMmCustomAPI28GetCurrentSystemNetworkModesER14TRequestStatusRm @ 90 NONAME
	_ZNK12RMmCustomAPI28GetCurrentSystemNetworkModesERm @ 91 NONAME
	_ZN12RMmCustomAPI11SendAPDUReqER14TRequestStatusRNS_15TApduParametersE @ 92 NONAME
	_ZN12RMmCustomAPI12SimWarmResetER14TRequestStatus @ 93 NONAME
	_ZN12RMmCustomAPI19NotifySimCardStatusER14TRequestStatusRNS_14TSIMCardStatusE @ 94 NONAME
	_ZN12RMmCustomAPI20TSimCardReaderStatus13IsCardPoweredEv @ 95 NONAME
	_ZN12RMmCustomAPI20TSimCardReaderStatus13IsCardPresentEv @ 96 NONAME
	_ZN12RMmCustomAPI20TSimCardReaderStatus15GetCardReaderIDEv @ 97 NONAME
	_ZN12RMmCustomAPI20TSimCardReaderStatus19IsCardReaderPresentEv @ 98 NONAME
	_ZN12RMmCustomAPI20TSimCardReaderStatus21IsCardReaderRemovableEv @ 99 NONAME
	_ZN12RMmCustomAPI20TSimCardReaderStatus9GetStatusEv @ 100 NONAME
	_ZN12RMmCustomAPI20TSimCardReaderStatus9SetStatusEh @ 101 NONAME
	_ZN12RMmCustomAPI22GetSimCardReaderStatusER14TRequestStatusRNS_20TSimCardReaderStatusE @ 102 NONAME
	_ZN12RMmCustomAPI6GetATRER14TRequestStatusR5TDes8 @ 103 NONAME
	_ZN12RMmCustomAPI10PowerSimOnER14TRequestStatus @ 104 NONAME
	_ZN12RMmCustomAPI11PowerSimOffER14TRequestStatus @ 105 NONAME
	_ZN12RMmCustomAPI24TSimAuthenticationEapAkaC1Ev @ 106 NONAME
	_ZN12RMmCustomAPI24TSimAuthenticationEapAkaC2Ev @ 107 NONAME
	_ZN12RMmCustomAPI24TSimAuthenticationEapSimC1Ev @ 108 NONAME
	_ZN12RMmCustomAPI24TSimAuthenticationEapSimC2Ev @ 109 NONAME
	_ZNK12RMmCustomAPI28GetWlanSimAuthenticationDataER14TRequestStatusR5TDes8 @ 110 NONAME
	_ZN12RMmCustomAPI12SetDriveModeER14TRequestStatusNS_13TSetDriveModeE @ 111 NONAME
	_ZNK12RMmCustomAPI23SetSimMessageStatusReadER5TTimeRi @ 112 NONAME
	_ZNK12RMmCustomAPI31WriteViagHomeZoneUHZIUESettingsER14TRequestStatusRNS_19TViagUHZIUESettingsE @ 113 NONAME
	_ZNK12RMmCustomAPI31WriteViagHomeZoneUHZIUESettingsERNS_19TViagUHZIUESettingsE @ 114 NONAME
	_ZTI18CMmCustomPtrHolder @ 115 NONAME ; #<TI>#
	_ZTV18CMmCustomPtrHolder @ 116 NONAME ; #<VT>#
	_ZNK12RMmCustomAPI11SetAlwaysOnER14TRequestStatusRNS_16TSetAlwaysOnModeE @ 117 NONAME
	_ZN12RMmCustomAPI14NotifyRauEventER14TRequestStatusRNS_15TRauEventStatusE @ 118 NONAME
	_ZN12RMmCustomAPI15ReadHSxPAStatusER14TRequestStatusRNS_12THSxPAStatusE @ 119 NONAME
	_ZN12RMmCustomAPI16WriteHSxPAStatusER14TRequestStatusRNS_12THSxPAStatusE @ 120 NONAME
	_ZN12RMmCustomAPI17NotifyHSxPAStatusER14TRequestStatusRNS_12THSxPAStatusE @ 121 NONAME
	_ZNK12RMmCustomAPI35GetIccCallForwardingIndicatorStatusER14TRequestStatusR5TDes8 @ 122 NONAME
	_ZN12RMmCustomAPI35NotifyIccCallForwardingStatusChangeER14TRequestStatusR5TDes8 @ 123 NONAME
	_ZN12RMmCustomAPI13TCFIndicatorsC1Ev @ 124 NONAME
	_ZN12RMmCustomAPI13TCFIndicatorsC2Ev @ 125 NONAME
	_ZNK12RMmCustomAPI11GetCellInfoER14TRequestStatusR5TDes8 @ 126 NONAME
	_ZNK12RMmCustomAPI20NotifyCellInfoChangeER14TRequestStatusR5TDes8 @ 127 NONAME
	_ZN12RMmCustomAPI11TMmCellInfoC1Ev @ 128 NONAME
	_ZN12RMmCustomAPI11TMmCellInfoC2Ev @ 129 NONAME
	_ZN12RMmCustomAPI20SetSystemNetworkBandENS_14TBandSelectionENS_16TNetworkModeCapsE @ 130 NONAME
	_ZN12RMmCustomAPI20SetSystemNetworkBandER14TRequestStatusNS_14TBandSelectionENS_16TNetworkModeCapsE @ 131 NONAME
	_ZNK12RMmCustomAPI20GetSystemNetworkBandER14TRequestStatusRNS_14TBandSelectionERNS_16TNetworkModeCapsE @ 132 NONAME
	_ZNK12RMmCustomAPI20GetSystemNetworkBandERNS_14TBandSelectionERNS_16TNetworkModeCapsE @ 133 NONAME
	_ZN12RMmCustomAPI30TSimAuthenticationGbaBootstrapC1Ev @ 134 NONAME
	_ZN12RMmCustomAPI30TSimAuthenticationGbaBootstrapC2Ev @ 135 NONAME
	_ZN12RMmCustomAPI30TSimAuthenticationMgvMskUpdateC1Ev @ 136 NONAME
	_ZN12RMmCustomAPI30TSimAuthenticationMgvMskUpdateC2Ev @ 137 NONAME
	_ZN12RMmCustomAPI32TSimAuthenticationMgvMskDeletionC1Ev @ 138 NONAME
	_ZN12RMmCustomAPI32TSimAuthenticationMgvMskDeletionC2Ev @ 139 NONAME
	_ZN12RMmCustomAPI34TSimAuthenticationGbaNafDerivationC1Ev @ 140 NONAME
	_ZN12RMmCustomAPI34TSimAuthenticationGbaNafDerivationC2Ev @ 141 NONAME
	_ZN12RMmCustomAPI34TSimAuthenticationMgvMtkGenerationC1Ev @ 142 NONAME
	_ZN12RMmCustomAPI34TSimAuthenticationMgvMtkGenerationC2Ev @ 143 NONAME
	_ZN12RMmCustomAPI36TSimAuthenticationGbaBootstrapUpdateC1Ev @ 144 NONAME
	_ZN12RMmCustomAPI36TSimAuthenticationGbaBootstrapUpdateC2Ev @ 145 NONAME
	_ZNK12RMmCustomAPI21GetUSIMServiceSupportER14TRequestStatusRNS_11TAppSupportE @ 146 NONAME
	_ZN12RMmCustomAPI36NotifyRemoteAlertingToneStatusChangeER14TRequestStatusRNS_25TRemoteAlertingToneStatusE @ 147 NONAME

