EXPORTS
	_Z6E32Dll10TDllReason @ 1 NONAME
	_ZN10CSDGrammar3AddER7CSDRule @ 2 NONAME
	_ZN10CSDGrammar4NewLEm @ 3 NONAME
	_ZN10CSDGrammar5NewLCEm @ 4 NONAME
	_ZN10CSDGrammar6DeleteEm @ 5 NONAME
	_ZN10CSDGrammarD0Ev @ 6 NONAME
	_ZN10CSDGrammarD1Ev @ 7 NONAME
	_ZN10CSDGrammarD2Ev @ 8 NONAME
	_ZN10CSDLexicon3AddER16CSDPronunciation @ 9 NONAME
	_ZN10CSDLexicon4NewLEm @ 10 NONAME
	_ZN10CSDLexicon5NewLCEm @ 11 NONAME
	_ZN10CSDLexiconD0Ev @ 12 NONAME
	_ZN10CSDLexiconD1Ev @ 13 NONAME
	_ZN10CSDLexiconD2Ev @ 14 NONAME
	_ZN11TDiagnosticC1Ev @ 15 NONAME
	_ZN11TDiagnosticC2Ev @ 16 NONAME
	_ZN11TDiagnosticD1Ev @ 17 NONAME
	_ZN11TDiagnosticD2Ev @ 18 NONAME
	_ZN12CSDModelBank3AddER8CSDModel @ 19 NONAME
	_ZN12CSDModelBank4NewLEm @ 20 NONAME
	_ZN12CSDModelBank5NewLCEm @ 21 NONAME
	_ZN12CSDModelBankD0Ev @ 22 NONAME
	_ZN12CSDModelBankD1Ev @ 23 NONAME
	_ZN12CSDModelBankD2Ev @ 24 NONAME
	_ZN12CSDResultSet13SetDiagnosticER11TDiagnostic @ 25 NONAME
	_ZN12CSDResultSet2AtEi @ 26 NONAME
	_ZN12CSDResultSet3AddER9CSDResult @ 27 NONAME
	_ZN12CSDResultSet4NewLEv @ 28 NONAME
	_ZN12CSDResultSet5NewLCEv @ 29 NONAME
	_ZN12CSDResultSetD0Ev @ 30 NONAME
	_ZN12CSDResultSetD1Ev @ 31 NONAME
	_ZN12CSDResultSetD2Ev @ 32 NONAME
	_ZN15CSDClientResult12SetGrammarIDEm @ 33 NONAME
	_ZN15CSDClientResult4NewLEmm @ 34 NONAME
	_ZN15CSDClientResult4NewLEv @ 35 NONAME
	_ZN15CSDClientResult5NewLCEmm @ 36 NONAME
	_ZN15CSDClientResult5NewLCEv @ 37 NONAME
	_ZN15CSDClientResult9SetRuleIDEm @ 38 NONAME
	_ZN15CSDClientResultD0Ev @ 39 NONAME
	_ZN15CSDClientResultD1Ev @ 40 NONAME
	_ZN15CSDClientResultD2Ev @ 41 NONAME
	_ZN16CSDPronunciation4NewLEmmm @ 42 NONAME
	_ZN16CSDPronunciation5NewLCEmmm @ 43 NONAME
	_ZN16CSDPronunciationD0Ev @ 44 NONAME
	_ZN16CSDPronunciationD1Ev @ 45 NONAME
	_ZN16CSDPronunciationD2Ev @ 46 NONAME
	_ZN18CSDClientResultSet12InternalizeLER11RReadStream @ 47 NONAME
	_ZN18CSDClientResultSet13SetDiagnosticER11TDiagnostic @ 48 NONAME
	_ZN18CSDClientResultSet14SetMaxResultsLEi @ 49 NONAME
	_ZN18CSDClientResultSet14SetResultCountEi @ 50 NONAME
	_ZN18CSDClientResultSet4NewLEv @ 51 NONAME
	_ZN18CSDClientResultSet5NewLCEv @ 52 NONAME
	_ZN18CSDClientResultSetD0Ev @ 53 NONAME
	_ZN18CSDClientResultSetD1Ev @ 54 NONAME
	_ZN18CSDClientResultSetD2Ev @ 55 NONAME
	_ZN7CSDRule4NewLEmmm @ 56 NONAME
	_ZN7CSDRule5NewLCEmmm @ 57 NONAME
	_ZN7CSDRuleD0Ev @ 58 NONAME
	_ZN7CSDRuleD1Ev @ 59 NONAME
	_ZN7CSDRuleD2Ev @ 60 NONAME
	_ZN8CSDModel12SetPhonemeIDEm @ 61 NONAME
	_ZN8CSDModel16SetAcousticModelER5TPtr8 @ 62 NONAME
	_ZN8CSDModel4NewLEm @ 63 NONAME
	_ZN8CSDModel4NewLEv @ 64 NONAME
	_ZN8CSDModel5NewLCEm @ 65 NONAME
	_ZN8CSDModel5NewLCEv @ 66 NONAME
	_ZN8CSDModelD0Ev @ 67 NONAME
	_ZN8CSDModelD1Ev @ 68 NONAME
	_ZN8CSDModelD2Ev @ 69 NONAME
	_ZN9CSDResult12SetGrammarIDEm @ 70 NONAME
	_ZN9CSDResult4NewLEmm @ 71 NONAME
	_ZN9CSDResult4NewLEv @ 72 NONAME
	_ZN9CSDResult5NewLCEmm @ 73 NONAME
	_ZN9CSDResult5NewLCEv @ 74 NONAME
	_ZN9CSDResult8SetScoreEl @ 75 NONAME
	_ZN9CSDResult9SetRuleIDEm @ 76 NONAME
	_ZN9CSDResultD0Ev @ 77 NONAME
	_ZN9CSDResultD1Ev @ 78 NONAME
	_ZN9CSDResultD2Ev @ 79 NONAME
	_ZNK10CSDGrammar2AtEi @ 80 NONAME
	_ZNK10CSDGrammar5CountEv @ 81 NONAME
	_ZNK10CSDGrammar8FindRuleEm @ 82 NONAME
	_ZNK10CSDGrammar9GrammarIDEv @ 83 NONAME
	_ZNK10CSDLexicon17FindPronunciationEm @ 84 NONAME
	_ZNK10CSDLexicon2AtEi @ 85 NONAME
	_ZNK10CSDLexicon5CountEv @ 86 NONAME
	_ZNK10CSDLexicon9LexiconIDEv @ 87 NONAME
	_ZNK12CSDModelBank11ModelBankIDEv @ 88 NONAME
	_ZNK12CSDModelBank2AtEi @ 89 NONAME
	_ZNK12CSDModelBank5CountEv @ 90 NONAME
	_ZNK12CSDModelBank9FindModelEm @ 91 NONAME
	_ZNK12CSDResultSet10DiagnosticEv @ 92 NONAME
	_ZNK12CSDResultSet5CountEv @ 93 NONAME
	_ZNK15CSDClientResult6RuleIDEv @ 94 NONAME
	_ZNK15CSDClientResult9GrammarIDEv @ 95 NONAME
	_ZNK16CSDPronunciation11ModelBankIDEv @ 96 NONAME
	_ZNK16CSDPronunciation15PronunciationIDEv @ 97 NONAME
	_ZNK16CSDPronunciation9PhonemeIDEv @ 98 NONAME
	_ZNK18CSDClientResultSet10DiagnosticEv @ 99 NONAME
	_ZNK18CSDClientResultSet10MaxResultsEv @ 100 NONAME
	_ZNK18CSDClientResultSet11ResultCountEv @ 101 NONAME
	_ZNK18CSDClientResultSet12ExternalizeLER12RWriteStream @ 102 NONAME
	_ZNK18CSDClientResultSet2AtEi @ 103 NONAME
	_ZNK7CSDRule15PronunciationIDEv @ 104 NONAME
	_ZNK7CSDRule6RuleIDEv @ 105 NONAME
	_ZNK7CSDRule9LexiconIDEv @ 106 NONAME
	_ZNK8CSDModel13AcousticModelEv @ 107 NONAME
	_ZNK8CSDModel9PhonemeIDEv @ 108 NONAME
	_ZNK9CSDResult5ScoreEv @ 109 NONAME
	_ZNK9CSDResult6RuleIDEv @ 110 NONAME
	_ZNK9CSDResult9GrammarIDEv @ 111 NONAME
	_ZTI10CSDGrammar @ 112 NONAME ; #<TI>#
	_ZTI10CSDLexicon @ 113 NONAME ; #<TI>#
	_ZTI12CSDModelBank @ 114 NONAME ; #<TI>#
	_ZTI12CSDResultSet @ 115 NONAME ; #<TI>#
	_ZTI15CSDClientResult @ 116 NONAME ; #<TI>#
	_ZTI16CSDPronunciation @ 117 NONAME ; #<TI>#
	_ZTI18CSDClientResultSet @ 118 NONAME ; #<TI>#
	_ZTI7CSDRule @ 119 NONAME ; #<TI>#
	_ZTI8CSDModel @ 120 NONAME ; #<TI>#
	_ZTI9CSDResult @ 121 NONAME ; #<TI>#
	_ZTV10CSDGrammar @ 122 NONAME ; #<VT>#
	_ZTV10CSDLexicon @ 123 NONAME ; #<VT>#
	_ZTV12CSDModelBank @ 124 NONAME ; #<VT>#
	_ZTV12CSDResultSet @ 125 NONAME ; #<VT>#
	_ZTV15CSDClientResult @ 126 NONAME ; #<VT>#
	_ZTV16CSDPronunciation @ 127 NONAME ; #<VT>#
	_ZTV18CSDClientResultSet @ 128 NONAME ; #<VT>#
	_ZTV7CSDRule @ 129 NONAME ; #<VT>#
	_ZTV8CSDModel @ 130 NONAME ; #<VT>#
	_ZTV9CSDResult @ 131 NONAME ; #<VT>#

