EXPORTS
	??1CMVSAudioPlayAgent@@UAE@XZ @ 1 NONAME ; CMVSAudioPlayAgent::~CMVSAudioPlayAgent(void)
	??1CMVSAudioRecordAgent@@UAE@XZ @ 2 NONAME ; CMVSAudioRecordAgent::~CMVSAudioRecordAgent(void)
	??1CMVSControllerPluginInfo@@UAE@XZ @ 3 NONAME ; CMVSControllerPluginInfo::~CMVSControllerPluginInfo(void)
	??1CMVSVideoPlayAgent@@UAE@XZ @ 4 NONAME ; CMVSVideoPlayAgent::~CMVSVideoPlayAgent(void)
	??1CMVSVideoRecordAgent@@UAE@XZ @ 5 NONAME ; CMVSVideoRecordAgent::~CMVSVideoRecordAgent(void)
	?AudioBitRateL@CMVSVideoPlayAgent@@QAEHXZ @ 6 NONAME ; int CMVSVideoPlayAgent::AudioBitRateL(void)
	?AudioBitRateL@CMVSVideoRecordAgent@@QAEHXZ @ 7 NONAME ; int CMVSVideoRecordAgent::AudioBitRateL(void)
	?AudioEnabledL@CMVSVideoPlayAgent@@QAEHXZ @ 8 NONAME ; int CMVSVideoPlayAgent::AudioEnabledL(void)
	?AudioEnabledL@CMVSVideoRecordAgent@@QAEHXZ @ 9 NONAME ; int CMVSVideoRecordAgent::AudioEnabledL(void)
	?AudioTypeL@CMVSVideoPlayAgent@@QAE?AVTFourCC@@XZ @ 10 NONAME ; class TFourCC CMVSVideoPlayAgent::AudioTypeL(void)
	?AudioTypeL@CMVSVideoRecordAgent@@QAE?AVTFourCC@@XZ @ 11 NONAME ; class TFourCC CMVSVideoRecordAgent::AudioTypeL(void)
	?Balance@CMVSVideoPlayAgent@@QAEHXZ @ 12 NONAME ; int CMVSVideoPlayAgent::Balance(void)
	?ClearPlayWindow@CMVSAudioPlayAgent@@QAEHXZ @ 13 NONAME ; int CMVSAudioPlayAgent::ClearPlayWindow(void)
	?Close@CMVSVideoPlayAgent@@QAEXXZ @ 14 NONAME ; void CMVSVideoPlayAgent::Close(void)
	?Close@CMVSVideoRecordAgent@@QAEXXZ @ 15 NONAME ; void CMVSVideoRecordAgent::Close(void)
	?ControllerImplementationInformationL@CMVSVideoPlayAgent@@QAEABVCMMFControllerImplementationInformation@@XZ @ 16 NONAME ; class CMMFControllerImplementationInformation const & CMVSVideoPlayAgent::ControllerImplementationInformationL(void)
	?ControllerImplementationInformationL@CMVSVideoRecordAgent@@QAEABVCMMFControllerImplementationInformation@@XZ @ 17 NONAME ; class CMMFControllerImplementationInformation const & CMVSVideoRecordAgent::ControllerImplementationInformationL(void)
	?CreateNewFileL@CMVSAudioRecordAgent@@QAEXAAVTDesC16@@VTUid@@1@Z @ 18 NONAME ; void CMVSAudioRecordAgent::CreateNewFileL(class TDesC16 &, class TUid, class TUid)
	?CropClipL@CMVSAudioRecordAgent@@QAEXAAVTTimeIntervalMicroSeconds@@H@Z @ 19 NONAME ; void CMVSAudioRecordAgent::CropClipL(class TTimeIntervalMicroSeconds &, int)
	?Duration@CMVSAudioPlayAgent@@QAE?AVTTimeIntervalMicroSeconds@@XZ @ 20 NONAME ; class TTimeIntervalMicroSeconds CMVSAudioPlayAgent::Duration(void)
	?Duration@CMVSAudioRecordAgent@@QAE?AVTTimeIntervalMicroSeconds@@XZ @ 21 NONAME ; class TTimeIntervalMicroSeconds CMVSAudioRecordAgent::Duration(void)
	?DurationL@CMVSVideoPlayAgent@@QAE?AVTTimeIntervalMicroSeconds@@XZ @ 22 NONAME ; class TTimeIntervalMicroSeconds CMVSVideoPlayAgent::DurationL(void)
	?DurationL@CMVSVideoRecordAgent@@QAE?AVTTimeIntervalMicroSeconds@@XZ @ 23 NONAME ; class TTimeIntervalMicroSeconds CMVSVideoRecordAgent::DurationL(void)
	?Forward@CMVSAudioPlayAgent@@QAEXXZ @ 24 NONAME ; void CMVSAudioPlayAgent::Forward(void)
	?Gain@CMVSAudioRecordAgent@@QAEHAAH@Z @ 25 NONAME ; int CMVSAudioRecordAgent::Gain(int &)
	?GainL@CMVSVideoRecordAgent@@QAEHXZ @ 26 NONAME ; int CMVSVideoRecordAgent::GainL(void)
	?GetAudioPluginListL@CMVSControllerPluginInfo@@QAEHPAVCDesC16ArrayFlat@@AAV?$RArray@VTUid@@@@1PAVTDesC16@@@Z @ 27 NONAME ; int CMVSControllerPluginInfo::GetAudioPluginListL(class CDesC16ArrayFlat *, class RArray<class TUid> &, class RArray<class TUid> &, class TDesC16 *)
	?GetBalance@CMVSAudioPlayAgent@@QAEHAAH@Z @ 28 NONAME ; int CMVSAudioPlayAgent::GetBalance(int &)
	?GetBitRate@CMVSAudioPlayAgent@@QAEHAAI@Z @ 29 NONAME ; int CMVSAudioPlayAgent::GetBitRate(unsigned int &)
	?GetControllerInfo@CMVSControllerPluginInfo@@QAEAAVCMMFControllerImplementationInformation@@VTUid@@@Z @ 30 NONAME ; class CMMFControllerImplementationInformation & CMVSControllerPluginInfo::GetControllerInfo(class TUid)
	?GetControllerInfoL@CMVSAudioPlayAgent@@QAEABVCMMFControllerImplementationInformation@@XZ @ 31 NONAME ; class CMMFControllerImplementationInformation const & CMVSAudioPlayAgent::GetControllerInfoL(void)
	?GetCropRegionL@CMVSVideoPlayAgent@@QAEXAAVTRect@@@Z @ 32 NONAME ; void CMVSVideoPlayAgent::GetCropRegionL(class TRect &)
	?GetExtensionListL@CMVSControllerPluginInfo@@QAEHHPAVCDesC16ArrayFlat@@@Z @ 33 NONAME ; int CMVSControllerPluginInfo::GetExtensionListL(int, class CDesC16ArrayFlat *)
	?GetFrameL@CMVSVideoPlayAgent@@QAEXW4TDisplayMode@@@Z @ 34 NONAME ; void CMVSVideoPlayAgent::GetFrameL(enum TDisplayMode)
	?GetFrameL@CMVSVideoPlayAgent@@QAEXW4TDisplayMode@@W4TIntent@ContentAccess@@@Z @ 35 NONAME ; void CMVSVideoPlayAgent::GetFrameL(enum TDisplayMode, enum ContentAccess::TIntent)
	?GetMediaTypeL@CMVSControllerPluginInfo@@QAE?AVTUid@@AAVTDesC16@@@Z @ 36 NONAME ; class TUid CMVSControllerPluginInfo::GetMediaTypeL(class TDesC16 &)
	?GetMetaArrayL@CMVSAudioPlayAgent@@QAEXAAV?$RPointerArray@VCMMFMetaDataEntry@@@@@Z @ 37 NONAME ; void CMVSAudioPlayAgent::GetMetaArrayL(class RPointerArray<class CMMFMetaDataEntry> &)
	?GetMetaDataArrayL@CMVSAudioRecordAgent@@QAEXAAV?$RPointerArray@VCMMFMetaDataEntry@@@@@Z @ 38 NONAME ; void CMVSAudioRecordAgent::GetMetaDataArrayL(class RPointerArray<class CMMFMetaDataEntry> &)
	?GetMetaDataArrayL@CMVSVideoPlayAgent@@QAEXAAV?$RPointerArray@VCMMFMetaDataEntry@@@@@Z @ 39 NONAME ; void CMVSVideoPlayAgent::GetMetaDataArrayL(class RPointerArray<class CMMFMetaDataEntry> &)
	?GetPlayBalance@CMVSAudioRecordAgent@@QAEHAAH@Z @ 40 NONAME ; int CMVSAudioRecordAgent::GetPlayBalance(int &)
	?GetPluginListL@CMVSControllerPluginInfo@@QAEHPAVCDesC16ArrayFlat@@AAV?$RArray@VTUid@@@@@Z @ 41 NONAME ; int CMVSControllerPluginInfo::GetPluginListL(class CDesC16ArrayFlat *, class RArray<class TUid> &)
	?GetPosition@CMVSAudioPlayAgent@@QAE?AVTTimeIntervalMicroSeconds@@AAV2@@Z @ 42 NONAME ; class TTimeIntervalMicroSeconds CMVSAudioPlayAgent::GetPosition(class TTimeIntervalMicroSeconds &)
	?GetPriorityL@CMVSVideoRecordAgent@@QAEXAAHAAW4TMdaPriorityPreference@@@Z @ 43 NONAME ; void CMVSVideoRecordAgent::GetPriorityL(int &, enum TMdaPriorityPreference &)
	?GetRecordBalance@CMVSAudioRecordAgent@@QAEHAAH@Z @ 44 NONAME ; int CMVSAudioRecordAgent::GetRecordBalance(int &)
	?GetScaleFactorL@CMVSVideoPlayAgent@@QAEXAAM0AAH@Z @ 45 NONAME ; void CMVSVideoPlayAgent::GetScaleFactorL(float &, float &, int &)
	?GetState@CMVSAudioPlayAgent@@QAE?AW4TMVSState@@XZ @ 46 NONAME ; enum TMVSState CMVSAudioPlayAgent::GetState(void)
	?GetState@CMVSVideoPlayAgent@@QAE?AW4TMVSState@@XZ @ 47 NONAME ; enum TMVSState CMVSVideoPlayAgent::GetState(void)
	?GetSupportedAudioTypesL@CMVSVideoRecordAgent@@QAEXAAV?$RArray@VTFourCC@@@@@Z @ 48 NONAME ; void CMVSVideoRecordAgent::GetSupportedAudioTypesL(class RArray<class TFourCC> &)
	?GetSupportedBitRatesArrayL@CMVSAudioRecordAgent@@QAEXAAV?$RArray@I@@@Z @ 49 NONAME ; void CMVSAudioRecordAgent::GetSupportedBitRatesArrayL(class RArray<unsigned int> &)
	?GetSupportedCodecsArrayL@CMVSAudioRecordAgent@@QAEXAAV?$RArray@VTFourCC@@@@@Z @ 50 NONAME ; void CMVSAudioRecordAgent::GetSupportedCodecsArrayL(class RArray<class TFourCC> &)
	?GetSupportedFrameRatesArrayL@CMVSVideoRecordAgent@@QAEXAAV?$RArray@M@@@Z @ 51 NONAME ; void CMVSVideoRecordAgent::GetSupportedFrameRatesArrayL(class RArray<float> &)
	?GetSupportedFrameSizesArrayL@CMVSVideoRecordAgent@@QAEXAAV?$RArray@VTSize@@@@@Z @ 52 NONAME ; void CMVSVideoRecordAgent::GetSupportedFrameSizesArrayL(class RArray<class TSize> &)
	?GetSupportedNoChannelsArrayL@CMVSAudioRecordAgent@@QAEXAAV?$RArray@I@@@Z @ 53 NONAME ; void CMVSAudioRecordAgent::GetSupportedNoChannelsArrayL(class RArray<unsigned int> &)
	?GetSupportedSampleRatesArrayL@CMVSAudioRecordAgent@@QAEXAAV?$RArray@I@@@Z @ 54 NONAME ; void CMVSAudioRecordAgent::GetSupportedSampleRatesArrayL(class RArray<unsigned int> &)
	?GetSupportedVideoTypesL@CMVSVideoRecordAgent@@QAEXAAVCDesC8ArrayFlat@@@Z @ 55 NONAME ; void CMVSVideoRecordAgent::GetSupportedVideoTypesL(class CDesC8ArrayFlat &)
	?GetVideoFrameSizeL@CMVSVideoRecordAgent@@QAEXAAVTSize@@@Z @ 56 NONAME ; void CMVSVideoRecordAgent::GetVideoFrameSizeL(class TSize &)
	?GetVideoPluginListL@CMVSControllerPluginInfo@@QAEHPAVCDesC16ArrayFlat@@AAV?$RArray@VTUid@@@@PAVTDesC16@@@Z @ 57 NONAME ; int CMVSControllerPluginInfo::GetVideoPluginListL(class CDesC16ArrayFlat *, class RArray<class TUid> &, class TDesC16 *)
	?GetVolume@CMVSAudioPlayAgent@@QAEHAAH@Z @ 58 NONAME ; int CMVSAudioPlayAgent::GetVolume(int &)
	?GetVolume@CMVSAudioRecordAgent@@QAEHAAH@Z @ 59 NONAME ; int CMVSAudioRecordAgent::GetVolume(int &)
	?MaxGain@CMVSAudioRecordAgent@@QBEHXZ @ 60 NONAME ; int CMVSAudioRecordAgent::MaxGain(void) const
	?MaxGainL@CMVSVideoRecordAgent@@QAEHXZ @ 61 NONAME ; int CMVSVideoRecordAgent::MaxGainL(void)
	?MaxVolume@CMVSAudioPlayAgent@@QAEHXZ @ 62 NONAME ; int CMVSAudioPlayAgent::MaxVolume(void)
	?MaxVolume@CMVSAudioRecordAgent@@QAEHXZ @ 63 NONAME ; int CMVSAudioRecordAgent::MaxVolume(void)
	?MaxVolume@CMVSVideoPlayAgent@@QAEHXZ @ 64 NONAME ; int CMVSVideoPlayAgent::MaxVolume(void)
	?NewL@CMVSAudioPlayAgent@@SAPAV1@AAVMMVSClientObserver@@@Z @ 65 NONAME ; class CMVSAudioPlayAgent * CMVSAudioPlayAgent::NewL(class MMVSClientObserver &)
	?NewL@CMVSAudioRecordAgent@@SAPAV1@AAVMMVSClientObserver@@@Z @ 66 NONAME ; class CMVSAudioRecordAgent * CMVSAudioRecordAgent::NewL(class MMVSClientObserver &)
	?NewL@CMVSControllerPluginInfo@@SAPAV1@XZ @ 67 NONAME ; class CMVSControllerPluginInfo * CMVSControllerPluginInfo::NewL(void)
	?NewL@CMVSVideoPlayAgent@@SAPAV1@AAVMMVSClientObserver@@@Z @ 68 NONAME ; class CMVSVideoPlayAgent * CMVSVideoPlayAgent::NewL(class MMVSClientObserver &)
	?NewL@CMVSVideoRecordAgent@@SAPAV1@AAVMMVSClientObserver@@@Z @ 69 NONAME ; class CMVSVideoRecordAgent * CMVSVideoRecordAgent::NewL(class MMVSClientObserver &)
	?NumberOfMetaDataEntriesL@CMVSVideoPlayAgent@@QAEHXZ @ 70 NONAME ; int CMVSVideoPlayAgent::NumberOfMetaDataEntriesL(void)
	?OpenDesL@CMVSVideoPlayAgent@@QAEXABVTDesC8@@@Z @ 71 NONAME ; void CMVSVideoPlayAgent::OpenDesL(class TDesC8 const &)
	?OpenDesL@CMVSVideoRecordAgent@@QAEXAAVTDes8@@HVTUid@@1ABVTDesC8@@VTFourCC@@@Z @ 72 NONAME ; void CMVSVideoRecordAgent::OpenDesL(class TDes8 &, int, class TUid, class TUid, class TDesC8 const &, class TFourCC)
	?OpenFileL@CMVSAudioPlayAgent@@QAEXAAVTDesC16@@@Z @ 73 NONAME ; void CMVSAudioPlayAgent::OpenFileL(class TDesC16 &)
	?OpenFileL@CMVSAudioPlayAgent@@QAEXAAVTMMSource@@@Z @ 74 NONAME ; void CMVSAudioPlayAgent::OpenFileL(class TMMSource &)
	?OpenFileL@CMVSAudioRecordAgent@@QAEXABVTDesC16@@@Z @ 75 NONAME ; void CMVSAudioRecordAgent::OpenFileL(class TDesC16 const &)
	?OpenFileL@CMVSAudioRecordAgent@@QAEXABVTDesC16@@VTUid@@1@Z @ 76 NONAME ; void CMVSAudioRecordAgent::OpenFileL(class TDesC16 const &, class TUid, class TUid)
	?OpenFileL@CMVSVideoPlayAgent@@QAEXABVTDesC16@@@Z @ 77 NONAME ; void CMVSVideoPlayAgent::OpenFileL(class TDesC16 const &)
	?OpenFileL@CMVSVideoPlayAgent@@QAEXAAVTMMSource@@@Z @ 78 NONAME ; void CMVSVideoPlayAgent::OpenFileL(class TMMSource &)
	?OpenFileL@CMVSVideoRecordAgent@@QAEHAAVTDesC16@@VTUid@@@Z @ 79 NONAME ; int CMVSVideoRecordAgent::OpenFileL(class TDesC16 &, class TUid)
	?Pause@CMVSAudioPlayAgent@@QAEHXZ @ 80 NONAME ; int CMVSAudioPlayAgent::Pause(void)
	?PauseL@CMVSVideoPlayAgent@@QAEXXZ @ 81 NONAME ; void CMVSVideoPlayAgent::PauseL(void)
	?PauseL@CMVSVideoRecordAgent@@QAEXXZ @ 82 NONAME ; void CMVSVideoRecordAgent::PauseL(void)
	?Play@CMVSAudioPlayAgent@@QAEXXZ @ 83 NONAME ; void CMVSAudioPlayAgent::Play(void)
	?Play@CMVSVideoPlayAgent@@QAEXABVTTimeIntervalMicroSeconds@@0@Z @ 84 NONAME ; void CMVSVideoPlayAgent::Play(class TTimeIntervalMicroSeconds const &, class TTimeIntervalMicroSeconds const &)
	?Play@CMVSVideoPlayAgent@@QAEXXZ @ 85 NONAME ; void CMVSVideoPlayAgent::Play(void)
	?PlayL@CMVSAudioRecordAgent@@QAEXXZ @ 86 NONAME ; void CMVSAudioRecordAgent::PlayL(void)
	?Position@CMVSAudioRecordAgent@@QBEAAVTTimeIntervalMicroSeconds@@XZ @ 87 NONAME ; class TTimeIntervalMicroSeconds & CMVSAudioRecordAgent::Position(void) const
	?PositionL@CMVSVideoPlayAgent@@QAE?AVTTimeIntervalMicroSeconds@@XZ @ 88 NONAME ; class TTimeIntervalMicroSeconds CMVSVideoPlayAgent::PositionL(void)
	?Prepare@CMVSVideoPlayAgent@@QAEXXZ @ 89 NONAME ; void CMVSVideoPlayAgent::Prepare(void)
	?PriorityL@CMVSVideoPlayAgent@@QAEXAAHAAW4TMdaPriorityPreference@@@Z @ 90 NONAME ; void CMVSVideoPlayAgent::PriorityL(int &, enum TMdaPriorityPreference &)
	?Record@CMVSVideoRecordAgent@@QAEXXZ @ 91 NONAME ; void CMVSVideoRecordAgent::Record(void)
	?RecordL@CMVSAudioRecordAgent@@QAEXXZ @ 92 NONAME ; void CMVSAudioRecordAgent::RecordL(void)
	?Reset@CMVSAudioPlayAgent@@QAEXXZ @ 93 NONAME ; void CMVSAudioPlayAgent::Reset(void)
	?Reset@CMVSAudioRecordAgent@@QAEXXZ @ 94 NONAME ; void CMVSAudioRecordAgent::Reset(void)
	?Rewind@CMVSAudioPlayAgent@@QAEXXZ @ 95 NONAME ; void CMVSAudioPlayAgent::Rewind(void)
	?RotationL@CMVSVideoPlayAgent@@QAE?AW4TVideoRotation@@XZ @ 96 NONAME ; enum TVideoRotation CMVSVideoPlayAgent::RotationL(void)
	?SetAudioBitRateL@CMVSVideoRecordAgent@@QAEXH@Z @ 97 NONAME ; void CMVSVideoRecordAgent::SetAudioBitRateL(int)
	?SetAudioEnabledL@CMVSVideoRecordAgent@@QAEXH@Z @ 98 NONAME ; void CMVSVideoRecordAgent::SetAudioEnabledL(int)
	?SetAudioTypeL@CMVSVideoRecordAgent@@QAEXVTFourCC@@@Z @ 99 NONAME ; void CMVSVideoRecordAgent::SetAudioTypeL(class TFourCC)
	?SetAutoPauseResume@CMVSAudioPlayAgent@@QAEXH@Z @ 100 NONAME ; void CMVSAudioPlayAgent::SetAutoPauseResume(int)
	?SetBalance@CMVSAudioPlayAgent@@QAEHH@Z @ 101 NONAME ; int CMVSAudioPlayAgent::SetBalance(int)
	?SetBalance@CMVSAudioRecordAgent@@QAEHH@Z @ 102 NONAME ; int CMVSAudioRecordAgent::SetBalance(int)
	?SetBalanceL@CMVSVideoPlayAgent@@QAEXH@Z @ 103 NONAME ; void CMVSVideoPlayAgent::SetBalanceL(int)
	?SetCropRegionL@CMVSVideoPlayAgent@@QAEXABVTRect@@@Z @ 104 NONAME ; void CMVSVideoPlayAgent::SetCropRegionL(class TRect const &)
	?SetDestinationBitRateL@CMVSAudioRecordAgent@@QAEXI@Z @ 105 NONAME ; void CMVSAudioRecordAgent::SetDestinationBitRateL(unsigned int)
	?SetDestinationDataTypeL@CMVSAudioRecordAgent@@QAEXVTFourCC@@@Z @ 106 NONAME ; void CMVSAudioRecordAgent::SetDestinationDataTypeL(class TFourCC)
	?SetDestinationNumberOfChannelsL@CMVSAudioRecordAgent@@QAEXI@Z @ 107 NONAME ; void CMVSAudioRecordAgent::SetDestinationNumberOfChannelsL(unsigned int)
	?SetDestinationSampleRateL@CMVSAudioRecordAgent@@QAEXI@Z @ 108 NONAME ; void CMVSAudioRecordAgent::SetDestinationSampleRateL(unsigned int)
	?SetDisplayWindowL@CMVSVideoPlayAgent@@QAEXAAVRWsSession@@AAVCWsScreenDevice@@AAVRWindow@@ABVTRect@@3@Z @ 109 NONAME ; void CMVSVideoPlayAgent::SetDisplayWindowL(class RWsSession &, class CWsScreenDevice &, class RWindow &, class TRect const &, class TRect const &)
	?SetGain@CMVSAudioRecordAgent@@QAEXH@Z @ 110 NONAME ; void CMVSAudioRecordAgent::SetGain(int)
	?SetGainL@CMVSVideoRecordAgent@@QAEXH@Z @ 111 NONAME ; void CMVSVideoRecordAgent::SetGainL(int)
	?SetMetaDataL@CMVSAudioRecordAgent@@QAEXV?$RPointerArray@VCMMFMetaDataEntry@@@@@Z @ 112 NONAME ; void CMVSAudioRecordAgent::SetMetaDataL(class RPointerArray<class CMMFMetaDataEntry>)
	?SetMetaDataL@CMVSVideoRecordAgent@@QAEXV?$RPointerArray@VCMMFMetaDataEntry@@@@@Z @ 113 NONAME ; void CMVSVideoRecordAgent::SetMetaDataL(class RPointerArray<class CMMFMetaDataEntry>)
	?SetPlayBalance@CMVSAudioRecordAgent@@QAEHH@Z @ 114 NONAME ; int CMVSAudioRecordAgent::SetPlayBalance(int)
	?SetPlayWindow@CMVSAudioPlayAgent@@QAEHVTTimeIntervalMicroSeconds@@0@Z @ 115 NONAME ; int CMVSAudioPlayAgent::SetPlayWindow(class TTimeIntervalMicroSeconds, class TTimeIntervalMicroSeconds)
	?SetPosition@CMVSAudioPlayAgent@@QAEXVTTimeIntervalMicroSeconds@@@Z @ 116 NONAME ; void CMVSAudioPlayAgent::SetPosition(class TTimeIntervalMicroSeconds)
	?SetPosition@CMVSAudioRecordAgent@@QAEXAAVTTimeIntervalMicroSeconds@@@Z @ 117 NONAME ; void CMVSAudioRecordAgent::SetPosition(class TTimeIntervalMicroSeconds &)
	?SetPositionL@CMVSVideoPlayAgent@@QAEXABVTTimeIntervalMicroSeconds@@@Z @ 118 NONAME ; void CMVSVideoPlayAgent::SetPositionL(class TTimeIntervalMicroSeconds const &)
	?SetPriority@CMVSAudioPlayAgent@@QAEHHW4TMdaPriorityPreference@@@Z @ 119 NONAME ; int CMVSAudioPlayAgent::SetPriority(int, enum TMdaPriorityPreference)
	?SetPriority@CMVSAudioRecordAgent@@QAEXHW4TMdaPriorityPreference@@@Z @ 120 NONAME ; void CMVSAudioRecordAgent::SetPriority(int, enum TMdaPriorityPreference)
	?SetPriorityL@CMVSVideoPlayAgent@@QAEXHW4TMdaPriorityPreference@@@Z @ 121 NONAME ; void CMVSVideoPlayAgent::SetPriorityL(int, enum TMdaPriorityPreference)
	?SetPriorityL@CMVSVideoRecordAgent@@QAEXHW4TMdaPriorityPreference@@@Z @ 122 NONAME ; void CMVSVideoRecordAgent::SetPriorityL(int, enum TMdaPriorityPreference)
	?SetRecordBalance@CMVSAudioRecordAgent@@QAEHH@Z @ 123 NONAME ; int CMVSAudioRecordAgent::SetRecordBalance(int)
	?SetRepeats@CMVSAudioPlayAgent@@QAEXHVTTimeIntervalMicroSeconds@@@Z @ 124 NONAME ; void CMVSAudioPlayAgent::SetRepeats(int, class TTimeIntervalMicroSeconds)
	?SetRepeats@CMVSAudioRecordAgent@@QAEXHVTTimeIntervalMicroSeconds@@@Z @ 125 NONAME ; void CMVSAudioRecordAgent::SetRepeats(int, class TTimeIntervalMicroSeconds)
	?SetRotationL@CMVSVideoPlayAgent@@QAEXW4TVideoRotation@@@Z @ 126 NONAME ; void CMVSVideoPlayAgent::SetRotationL(enum TVideoRotation)
	?SetScaleFactorL@CMVSVideoPlayAgent@@QAEXMMH@Z @ 127 NONAME ; void CMVSVideoPlayAgent::SetScaleFactorL(float, float, int)
	?SetVideoBitRateL@CMVSVideoRecordAgent@@QAEXH@Z @ 128 NONAME ; void CMVSVideoRecordAgent::SetVideoBitRateL(int)
	?SetVideoFrameRateL@CMVSVideoPlayAgent@@QAEXM@Z @ 129 NONAME ; void CMVSVideoPlayAgent::SetVideoFrameRateL(float)
	?SetVideoFrameRateL@CMVSVideoRecordAgent@@QAEXM@Z @ 130 NONAME ; void CMVSVideoRecordAgent::SetVideoFrameRateL(float)
	?SetVideoFrameSizeL@CMVSVideoRecordAgent@@QAEXABVTSize@@@Z @ 131 NONAME ; void CMVSVideoRecordAgent::SetVideoFrameSizeL(class TSize const &)
	?SetVideoOutputL@CMVSVideoPlayAgent@@QAEXAAVRWsSession@@AAVCWsScreenDevice@@AAVRWindow@@AAVTRect@@3@Z @ 132 NONAME ; void CMVSVideoPlayAgent::SetVideoOutputL(class RWsSession &, class CWsScreenDevice &, class RWindow &, class TRect &, class TRect &)
	?SetVideoTypeL@CMVSVideoRecordAgent@@QAEXABVTDesC8@@@Z @ 133 NONAME ; void CMVSVideoRecordAgent::SetVideoTypeL(class TDesC8 const &)
	?SetVolume@CMVSAudioPlayAgent@@QAEXHVTTimeIntervalMicroSeconds@@@Z @ 134 NONAME ; void CMVSAudioPlayAgent::SetVolume(int, class TTimeIntervalMicroSeconds)
	?SetVolume@CMVSAudioRecordAgent@@QAEXHVTTimeIntervalMicroSeconds@@@Z @ 135 NONAME ; void CMVSAudioRecordAgent::SetVolume(int, class TTimeIntervalMicroSeconds)
	?SetVolumeL@CMVSVideoPlayAgent@@QAEXH@Z @ 136 NONAME ; void CMVSVideoPlayAgent::SetVolumeL(int)
	?SourceBitRateL@CMVSAudioRecordAgent@@QAEIXZ @ 137 NONAME ; unsigned int CMVSAudioRecordAgent::SourceBitRateL(void)
	?State@CMVSAudioRecordAgent@@QAE?AW4TMVSState@@XZ @ 138 NONAME ; enum TMVSState CMVSAudioRecordAgent::State(void)
	?State@CMVSVideoRecordAgent@@QAE?AW4TMVSState@@XZ @ 139 NONAME ; enum TMVSState CMVSVideoRecordAgent::State(void)
	?Stop@CMVSAudioPlayAgent@@QAEXXZ @ 140 NONAME ; void CMVSAudioPlayAgent::Stop(void)
	?Stop@CMVSAudioRecordAgent@@QAEXXZ @ 141 NONAME ; void CMVSAudioRecordAgent::Stop(void)
	?Stop@CMVSVideoPlayAgent@@QAEHXZ @ 142 NONAME ; int CMVSVideoPlayAgent::Stop(void)
	?Stop@CMVSVideoRecordAgent@@QAEHXZ @ 143 NONAME ; int CMVSVideoRecordAgent::Stop(void)
	?VideoBitRateL@CMVSVideoPlayAgent@@QAEHXZ @ 144 NONAME ; int CMVSVideoPlayAgent::VideoBitRateL(void)
	?VideoBitRateL@CMVSVideoRecordAgent@@QAEHXZ @ 145 NONAME ; int CMVSVideoRecordAgent::VideoBitRateL(void)
	?VideoFormatMimeType@CMVSVideoPlayAgent@@QAEABVTDesC8@@XZ @ 146 NONAME ; class TDesC8 const & CMVSVideoPlayAgent::VideoFormatMimeType(void)
	?VideoFormatMimeType@CMVSVideoRecordAgent@@QAEABVTDesC8@@XZ @ 147 NONAME ; class TDesC8 const & CMVSVideoRecordAgent::VideoFormatMimeType(void)
	?VideoFrameRateL@CMVSVideoPlayAgent@@QAEMXZ @ 148 NONAME ; float CMVSVideoPlayAgent::VideoFrameRateL(void)
	?VideoFrameRateL@CMVSVideoRecordAgent@@QAEMXZ @ 149 NONAME ; float CMVSVideoRecordAgent::VideoFrameRateL(void)
	?VideoFrameSizeL@CMVSVideoPlayAgent@@QAEXAAVTSize@@@Z @ 150 NONAME ; void CMVSVideoPlayAgent::VideoFrameSizeL(class TSize &)
	?Volume@CMVSVideoPlayAgent@@QAEHXZ @ 151 NONAME ; int CMVSVideoPlayAgent::Volume(void)
	?RecordTimeAvailable@CMVSAudioRecordAgent@@QAE?BVTTimeIntervalMicroSeconds@@XZ @ 152 NONAME ; class TTimeIntervalMicroSeconds const CMVSAudioRecordAgent::RecordTimeAvailable(void)
	?SetMaxWriteLength@CMVSAudioRecordAgent@@QAEXH@Z @ 153 NONAME ; void CMVSAudioRecordAgent::SetMaxWriteLength(int)
	?SetScreenNumber@CMVSVideoPlayAgent@@QAEHH@Z @ 154 NONAME ; int CMVSVideoPlayAgent::SetScreenNumber(int)
	?RegisterForNotification@CMVSVideoPlayAgent@@QAEHXZ @ 155 NONAME ; int CMVSVideoPlayAgent::RegisterForNotification(void)
	?CancelNotification@CMVSVideoPlayAgent@@QAEHXZ @ 156 NONAME ; int CMVSVideoPlayAgent::CancelNotification(void)
	?WillResumePlay@CMVSVideoPlayAgent@@QAEHXZ @ 157 NONAME ; int CMVSVideoPlayAgent::WillResumePlay(void)
	?AddDisplayWindowL@CMVSVideoPlayAgent@@QAEXAAVRWsSession@@AAVCWsScreenDevice@@AAVRWindow@@@Z @ 158 NONAME ; void CMVSVideoPlayAgent::AddDisplayWindowL(class RWsSession &, class CWsScreenDevice &, class RWindow &)
	?AddDisplayWindowL@CMVSVideoPlayAgent@@QAEXAAVRWsSession@@AAVCWsScreenDevice@@AAVRWindow@@ABVTRect@@3@Z @ 159 NONAME ; void CMVSVideoPlayAgent::AddDisplayWindowL(class RWsSession &, class CWsScreenDevice &, class RWindow &, class TRect const &, class TRect const &)
	?SetVideoExtentL@CMVSVideoPlayAgent@@QAEXABVTRect@@@Z @ 160 NONAME ; void CMVSVideoPlayAgent::SetVideoExtentL(class TRect const &)
	?SetWindowClipRectL@CMVSVideoPlayAgent@@QAEXABVTRect@@@Z @ 161 NONAME ; void CMVSVideoPlayAgent::SetWindowClipRectL(class TRect const &)
	?SupportVideoPlayerUtility2@CMVSVideoPlayAgent@@QBEHXZ @ 162 NONAME ; int CMVSVideoPlayAgent::SupportVideoPlayerUtility2(void) const
	?RemoveDisplayWindowL@CMVSVideoPlayAgent@@QAEXAAVRWindow@@@Z @ 163 NONAME ; void CMVSVideoPlayAgent::RemoveDisplayWindowL(class RWindow &)
	?OpenFileL@CMVSVideoPlayAgent@@QAEXABVTDesC16@@VTUid@@@Z @ 164 NONAME ; void CMVSVideoPlayAgent::OpenFileL(class TDesC16 const &, class TUid)
	?SetAutoScaleL@CMVSVideoPlayAgent@@QAEXW4TAutoScaleType@@HH@Z @ 165 NONAME ; void CMVSVideoPlayAgent::SetAutoScaleL(enum TAutoScaleType, int, int)
	?DisableSubtitlesL@CMVSVideoPlayAgent@@QAEXXZ @ 166 NONAME ; void CMVSVideoPlayAgent::DisableSubtitlesL(void)
	?EnableSubtitlesL@CMVSVideoPlayAgent@@QAEXXZ @ 167 NONAME ; void CMVSVideoPlayAgent::EnableSubtitlesL(void)
	?RenderSubtitle@CMVSVideoPlayAgent@@QAEXABVTRect@@@Z @ 168 NONAME ; void CMVSVideoPlayAgent::RenderSubtitle(class TRect const &)
	?SubtitlesAvailable@CMVSVideoPlayAgent@@QAEHXZ @ 169 NONAME ; int CMVSVideoPlayAgent::SubtitlesAvailable(void)
	?AddDisplayL@CMVSVideoPlayAgent@@QAEXAAVRWsSession@@HAAVMMMFSurfaceEventHandler@@@Z @ 170 NONAME ; void CMVSVideoPlayAgent::AddDisplayL(class RWsSession &, int, class MMMFSurfaceEventHandler &)
	?RemoveDisplay@CMVSVideoPlayAgent@@QAEXH@Z @ 171 NONAME ; void CMVSVideoPlayAgent::RemoveDisplay(int)
	?SetAutoScaleL@CMVSVideoPlayAgent@@QAEXAAVRWindow@@W4TAutoScaleType@@HH@Z @ 172 NONAME ; void CMVSVideoPlayAgent::SetAutoScaleL(class RWindow &, enum TAutoScaleType, int, int)


