EXPORTS
	??0CDeferredCtrlClientJoinActivity@UpsCprActivities@@IAE@ABUTNodeActivity@MeshMachine@@AAVAMMNodeBase@3@I@Z @ 1 NONAME ; UpsCprActivities::CDeferredCtrlClientJoinActivity::CDeferredCtrlClientJoinActivity(struct MeshMachine::TNodeActivity const &, class MeshMachine::AMMNodeBase &, unsigned int)
	??0CUpsAuthorisationActivityBase@UpsMCprActivities@@IAE@ABUTNodeActivity@MeshMachine@@AAVAMMNodeBase@3@I@Z @ 2 NONAME ; UpsMCprActivities::CUpsAuthorisationActivityBase::CUpsAuthorisationActivityBase(struct MeshMachine::TNodeActivity const &, class MeshMachine::AMMNodeBase &, unsigned int)
	??1CDeferredCtrlClientJoinActivity@UpsCprActivities@@MAE@XZ @ 3 NONAME ; UpsCprActivities::CDeferredCtrlClientJoinActivity::~CDeferredCtrlClientJoinActivity(void)
	??1CUpsAuthorisationActivityBase@UpsMCprActivities@@MAE@XZ @ 4 NONAME ; UpsMCprActivities::CUpsAuthorisationActivityBase::~CUpsAuthorisationActivityBase(void)
	?Accept@TAwaitingPolicyCheckRequest@UpsStates@@UAEHXZ @ 5 NONAME ; int UpsStates::TAwaitingPolicyCheckRequest::Accept(void)
	?Accept@TAwaitingPolicyCheckResponse@UpsStates@@UAEHXZ @ 6 NONAME ; int UpsStates::TAwaitingPolicyCheckResponse::Accept(void)
	?DoL@TAddControlClientAndSendJoinComplete@CDeferredCtrlClientJoinActivity@UpsCprActivities@@UAEXXZ @ 7 NONAME ; void UpsCprActivities::CDeferredCtrlClientJoinActivity::TAddControlClientAndSendJoinComplete::DoL(void)
	?DoL@TPostToControlProvider@UpsStates@@UAEXXZ @ 8 NONAME ; void UpsStates::TPostToControlProvider::DoL(void)
	?DoL@TStoreControlClient@CDeferredCtrlClientJoinActivity@UpsCprActivities@@UAEXXZ @ 9 NONAME ; void UpsCprActivities::CDeferredCtrlClientJoinActivity::TStoreControlClient::DoL(void)
	?GetServiceId@CUpsAuthorisationActivityBase@UpsMCprActivities@@UBEHABVCCommsProviderBase@ESock@@AAJ@Z @ 10 NONAME ; int UpsMCprActivities::CUpsAuthorisationActivityBase::GetServiceId(class ESock::CCommsProviderBase const &, long &) const
	?GetVTablePtr@TAddControlClientAndSendJoinComplete@CDeferredCtrlClientJoinActivity@UpsCprActivities@@SAPAVMStateTransition@NetStateMachine@@AAVTDesC8@@PAX@Z @ 11 NONAME ; class NetStateMachine::MStateTransition * UpsCprActivities::CDeferredCtrlClientJoinActivity::TAddControlClientAndSendJoinComplete::GetVTablePtr(class TDesC8 &, void *)
	?GetVTablePtr@TAwaitingPolicyCheckRequest@UpsStates@@SAPAVMState@NetStateMachine@@AAVTDesC8@@PAX@Z @ 12 NONAME ; class NetStateMachine::MState * UpsStates::TAwaitingPolicyCheckRequest::GetVTablePtr(class TDesC8 &, void *)
	?GetVTablePtr@TAwaitingPolicyCheckResponse@UpsStates@@SAPAVMState@NetStateMachine@@AAVTDesC8@@PAX@Z @ 13 NONAME ; class NetStateMachine::MState * UpsStates::TAwaitingPolicyCheckResponse::GetVTablePtr(class TDesC8 &, void *)
	?GetVTablePtr@TAwaitingPolicyCheckResponseOrCancel@CUpsAuthorisationActivityBase@UpsMCprActivities@@SAPAVMState@NetStateMachine@@AAVTDesC8@@PAX@Z @ 14 NONAME ; class NetStateMachine::MState * UpsMCprActivities::CUpsAuthorisationActivityBase::TAwaitingPolicyCheckResponseOrCancel::GetVTablePtr(class TDesC8 &, void *)
	?GetVTablePtr@TForwardPolicyCheckResponseToOriginators@CUpsAuthorisationActivityBase@UpsMCprActivities@@SAPAVMStateTransition@NetStateMachine@@AAVTDesC8@@PAX@Z @ 15 NONAME ; class NetStateMachine::MStateTransition * UpsMCprActivities::CUpsAuthorisationActivityBase::TForwardPolicyCheckResponseToOriginators::GetVTablePtr(class TDesC8 &, void *)
	?GetVTablePtr@TIssueRequestToNetUps@CUpsAuthorisationActivityBase@UpsMCprActivities@@SAPAVMStateTransition@NetStateMachine@@AAVTDesC8@@PAX@Z @ 16 NONAME ; class NetStateMachine::MStateTransition * UpsMCprActivities::CUpsAuthorisationActivityBase::TIssueRequestToNetUps::GetVTablePtr(class TDesC8 &, void *)
	?GetVTablePtr@TNoTagOrError@CUpsAuthorisationActivityBase@UpsMCprActivities@@SAPAVMStateFork@NetStateMachine@@AAVTDesC8@@PAX@Z @ 17 NONAME ; class NetStateMachine::MStateFork * UpsMCprActivities::CUpsAuthorisationActivityBase::TNoTagOrError::GetVTablePtr(class TDesC8 &, void *)
	?GetVTablePtr@TPostToControlProvider@UpsStates@@SAPAVMStateTransition@NetStateMachine@@AAVTDesC8@@PAX@Z @ 18 NONAME ; class NetStateMachine::MStateTransition * UpsStates::TPostToControlProvider::GetVTablePtr(class TDesC8 &, void *)
	?GetVTablePtr@TStoreControlClient@CDeferredCtrlClientJoinActivity@UpsCprActivities@@SAPAVMStateTransition@NetStateMachine@@AAVTDesC8@@PAX@Z @ 19 NONAME ; class NetStateMachine::MStateTransition * UpsCprActivities::CDeferredCtrlClientJoinActivity::TStoreControlClient::GetVTablePtr(class TDesC8 &, void *)
	?NewL@CDeferredCtrlClientJoinActivity@UpsCprActivities@@SAPAVCNodeActivityBase@MeshMachine@@ABUTNodeActivity@4@AAVAMMNodeBase@4@@Z @ 20 NONAME ; class MeshMachine::CNodeActivityBase * UpsCprActivities::CDeferredCtrlClientJoinActivity::NewL(struct MeshMachine::TNodeActivity const &, class MeshMachine::AMMNodeBase &)
	?ProcessPolicyCheckResponse@CUpsAuthorisationActivityBase@UpsMCprActivities@@UAEHHABVTNodeId@Messages@@@Z @ 21 NONAME ; int UpsMCprActivities::CUpsAuthorisationActivityBase::ProcessPolicyCheckResponse(int, class Messages::TNodeId const &)
	?ProcessPolicyCheckResponse@CUpsAuthorisationActivityBase@UpsMCprActivities@@UAEHW4TNetUpsDecision@NetUps@@ABVTNodeId@Messages@@@Z @ 22 NONAME ; int UpsMCprActivities::CUpsAuthorisationActivityBase::ProcessPolicyCheckResponse(enum NetUps::TNetUpsDecision, class Messages::TNodeId const &)
	?Self@upsActivitiesCpr@UpsActivities@@SAABUTNodeActivityMap@MeshMachine@@XZ @ 23 NONAME ; struct MeshMachine::TNodeActivityMap const & UpsActivities::upsActivitiesCpr::Self(void)
	?Self@upsActivitiesSCpr@UpsActivities@@SAABUTNodeActivityMap@MeshMachine@@XZ @ 24 NONAME ; struct MeshMachine::TNodeActivityMap const & UpsActivities::upsActivitiesSCpr::Self(void)
	?TransitionTag@TNoTagOrError@CUpsAuthorisationActivityBase@UpsMCprActivities@@UAEHXZ @ 25 NONAME ; int UpsMCprActivities::CUpsAuthorisationActivityBase::TNoTagOrError::TransitionTag(void)
	?DoL@TPostToServiceProvider@UpsStates@@UAEXXZ @ 26 NONAME ; void UpsStates::TPostToServiceProvider::DoL(void)
	?GetVTablePtr@TPostToServiceProvider@UpsStates@@SAPAVMStateTransition@NetStateMachine@@AAVTDesC8@@PAX@Z @ 27 NONAME ; class NetStateMachine::MStateTransition * UpsStates::TPostToServiceProvider::GetVTablePtr(class TDesC8 &, void *)
	?GetVTablePtr@TNoTagOrCompletion@CUpsAuthorisationActivityBase@UpsMCprActivities@@SAPAVMStateFork@NetStateMachine@@AAVTDesC8@@PAX@Z @ 28 NONAME ; class NetStateMachine::MStateFork * UpsMCprActivities::CUpsAuthorisationActivityBase::TNoTagOrCompletion::GetVTablePtr(class TDesC8 &, void *)
	?GetVTablePtr@TControlOrDataClientOriginator@UpsStates@@SAPAVMStateFork@NetStateMachine@@AAVTDesC8@@PAX@Z @ 29 NONAME ; class NetStateMachine::MStateFork * UpsStates::TControlOrDataClientOriginator::GetVTablePtr(class TDesC8 &, void *)
	?TransitionTag@TNoTagOrCompletion@CUpsAuthorisationActivityBase@UpsMCprActivities@@UAEHXZ @ 30 NONAME ; int UpsMCprActivities::CUpsAuthorisationActivityBase::TNoTagOrCompletion::TransitionTag(void)
	?GetVTablePtr@TForwardCompletionPolicyCheckResponseToOriginators@CUpsAuthorisationActivityBase@UpsMCprActivities@@SAPAVMStateTransition@NetStateMachine@@AAVTDesC8@@PAX@Z @ 31 NONAME ; class NetStateMachine::MStateTransition * UpsMCprActivities::CUpsAuthorisationActivityBase::TForwardCompletionPolicyCheckResponseToOriginators::GetVTablePtr(class TDesC8 &, void *)
	?PerformPolicyCheckResponseActions@CUpsAuthorisationActivityBase@UpsMCprActivities@@MAEXW4TNetUpsDecision@NetUps@@ABVTNodeId@Messages@@@Z @ 32 NONAME ; void UpsMCprActivities::CUpsAuthorisationActivityBase::PerformPolicyCheckResponseActions(enum NetUps::TNetUpsDecision, class Messages::TNodeId const &)
	?PerformPolicyCheckRequestActionsL@CUpsAuthorisationActivityBase@UpsMCprActivities@@MAEXABVTNodeId@Messages@@@Z @ 33 NONAME ; void UpsMCprActivities::CUpsAuthorisationActivityBase::PerformPolicyCheckRequestActionsL(class Messages::TNodeId const &)


