EXPORTS
	_ZN8Messages10TNodeCtxId6NullIdEv @ 1 NONAME
	_ZN8Messages10TNodeCtxIdC1ERKS0_ @ 2 NONAME
	_ZN8Messages10TNodeCtxIdC1Eh @ 3 NONAME
	_ZN8Messages10TNodeCtxIdC1EtRKNS_7TNodeIdE @ 4 NONAME
	_ZN8Messages10TNodeCtxIdC1Ev @ 5 NONAME
	_ZN8Messages10TNodeCtxIdC2ERKS0_ @ 6 NONAME
	_ZN8Messages10TNodeCtxIdC2Eh @ 7 NONAME
	_ZN8Messages10TNodeCtxIdC2EtRKNS_7TNodeIdE @ 8 NONAME
	_ZN8Messages10TNodeCtxIdC2Ev @ 9 NONAME
	_ZN8Messages10TNodeCtxIdaSERKNS_11TNodePeerIdE @ 10 NONAME ABSENT
	_ZN8Messages10TNodeCtxIdaSERKNS_13TRuntimeCtxIdE @ 11 NONAME
	_ZN8Messages10TSigNodeId19GetVDataTableStaticEv @ 12 NONAME
	_ZN8Messages10TSigNumber19GetVDataTableStaticEv @ 13 NONAME
	_ZN8Messages10TlsGlobals15InstallGlobalsLEv @ 14 NONAME
	_ZN8Messages10TlsGlobals16UnInstallGlobalsEv @ 15 NONAME
	_ZN8Messages10TlsGlobals3GetEv @ 16 NONAME
	_ZN8Messages11TClientType8NullTypeEv @ 17 NONAME
	_ZN8Messages11TNodeSignal19GetVDataTableStaticEv @ 18 NONAME
	_ZN8Messages11TSignalBase19GetVDataTableStaticEv @ 19 NONAME
	_ZN8Messages11XNodePeerId7DestroyEv @ 20 NONAME ABSENT
	_ZN8Messages11XNodePeerIdC1ERKNS_13TRuntimeCtxIdEPNS_14RNodeInterfaceEP5CBase @ 21 NONAME ABSENT
	_ZN8Messages11XNodePeerIdC2ERKNS_13TRuntimeCtxIdEPNS_14RNodeInterfaceEP5CBase @ 22 NONAME ABSENT
	_ZN8Messages13TRuntimeCtxId6NullIdEv @ 23 NONAME
	_ZN8Messages13TRuntimeCtxIdC1ERKS0_ @ 24 NONAME
	_ZN8Messages13TRuntimeCtxIdC1Eh @ 25 NONAME
	_ZN8Messages13TRuntimeCtxIdC1Ev @ 26 NONAME
	_ZN8Messages13TRuntimeCtxIdC2ERKS0_ @ 27 NONAME
	_ZN8Messages13TRuntimeCtxIdC2Eh @ 28 NONAME
	_ZN8Messages13TRuntimeCtxIdC2Ev @ 29 NONAME
	_ZN8Messages13TRuntimeCtxIdaSERKS0_ @ 30 NONAME
	_ZN8Messages13TSigAnyNumber19GetVDataTableStaticEv @ 31 NONAME
	_ZN8Messages13TSigNodeIdAny19GetVDataTableStaticEv @ 32 NONAME
	_ZN8Messages13TSigRMessage219GetVDataTableStaticEv @ 33 NONAME
	_ZN8Messages13TSigUidNumber19GetVDataTableStaticEv @ 34 NONAME
	_ZN8Messages14RNodeInterface4OpenENS_7TNodeIdERKNS_11TClientTypeEPNS_16MTransportSenderE @ 35 NONAME
	_ZN8Messages14RNodeInterface5CloseEv @ 36 NONAME
	_ZN8Messages14TSigClientType19GetVDataTableStaticEv @ 37 NONAME
	_ZN8Messages14TSigErrContext19GetVDataTableStaticEv @ 38 NONAME
	_ZN8Messages14TSignatureBase19GetVDataTableStaticEv @ 39 NONAME
	_ZN8Messages14TSignatureBase5ErrorERKNS_13TRuntimeCtxIdES3_i @ 40 NONAME
	_ZN8Messages14TSignatureBase9DispatchLERKNS_13TRuntimeCtxIdES3_ @ 41 NONAME
	_ZN8Messages14TSignatureBaseC1ERKNS_11TNodeSignal10TMessageIdE @ 42 NONAME
	_ZN8Messages14TSignatureBaseC1Ev @ 43 NONAME
	_ZN8Messages14TSignatureBaseC2ERKNS_11TNodeSignal10TMessageIdE @ 44 NONAME
	_ZN8Messages14TSignatureBaseC2Ev @ 45 NONAME
	_ZN8Messages15TClientIterBase4FindERiii @ 46 NONAME
	_ZN8Messages15TClientIterBaseixEi @ 47 NONAME
	_ZN8Messages15TSigErrResponse19GetVDataTableStaticEv @ 48 NONAME
	_ZN8Messages15TSigMetaDataPtr19GetVDataTableStaticEv @ 49 NONAME
	_ZN8Messages16RClientInterface20OpenPostMessageCloseERKNS_13TRuntimeCtxIdES3_RKNS_11TSignalBaseE @ 50 NONAME
	_ZN8Messages16RClientInterface4OpenERKNS_13TRuntimeCtxIdEPNS_16MTransportSenderE @ 51 NONAME
	_ZN8Messages16RClientInterface5CloseEv @ 52 NONAME
	_ZN8Messages16RClientInterfaceC1Ev @ 53 NONAME
	_ZN8Messages16RClientInterfaceC2Ev @ 54 NONAME
	_ZN8Messages16RClientInterfaceD0Ev @ 55 NONAME
	_ZN8Messages16RClientInterfaceD1Ev @ 56 NONAME
	_ZN8Messages16RClientInterfaceD2Ev @ 57 NONAME
	_ZN8Messages16TNodeIdRemainderC1ERKNS_13TRuntimeCtxIdE @ 58 NONAME
	_ZN8Messages16TNodeIdRemainderC1Ev @ 59 NONAME
	_ZN8Messages16TNodeIdRemainderC2ERKNS_13TRuntimeCtxIdE @ 60 NONAME
	_ZN8Messages16TNodeIdRemainderC2Ev @ 61 NONAME
	_ZN8Messages16TNodeIdRemainderaSERKNS_13TRuntimeCtxIdE @ 62 NONAME
	_ZN8Messages16TSigNodeIdNodeId19GetVDataTableStaticEv @ 63 NONAME
	_ZN8Messages16TSigNodeIdNumber19GetVDataTableStaticEv @ 64 NONAME
	_ZN8Messages16TSigNumberNumber19GetVDataTableStaticEv @ 65 NONAME
	_ZN8Messages17TSigClientTypeUid19GetVDataTableStaticEv @ 66 NONAME
	_ZN8Messages18RRequestOriginator4OpenERNS_14RNodeInterfaceERKNS_13TRuntimeCtxIdE @ 67 NONAME
	_ZN8Messages18RRequestOriginator4OpenERS0_ @ 68 NONAME
	_ZN8Messages18RRequestOriginator5CloseEv @ 69 NONAME
	_ZN8Messages18RRequestOriginator7ReplyToERKNS_13TRuntimeCtxIdERKNS_11TSignalBaseE @ 70 NONAME
	_ZN8Messages19TSigMessageIdNumber19GetVDataTableStaticEv @ 71 NONAME
	_ZN8Messages19TSigNumberRMessage219GetVDataTableStaticEv @ 72 NONAME
	_ZN8Messages19TSigNumberUidNumber19GetVDataTableStaticEv @ 73 NONAME
	_ZN8Messages20TSigNodeIdClientType19GetVDataTableStaticEv @ 74 NONAME
	_ZN8Messages22TSigNodeIdNodeIdNumber19GetVDataTableStaticEv @ 75 NONAME
	_ZN8Messages22TSigNodeIdNumberNumber19GetVDataTableStaticEv @ 76 NONAME
	_ZN8Messages22TSigNumberNumberNumber19GetVDataTableStaticEv @ 77 NONAME
	_ZN8Messages27TSigClientTypeUidClientType19GetVDataTableStaticEv @ 78 NONAME
	_ZN8Messages28TSigNumberNumberNumberNumber19GetVDataTableStaticEv @ 79 NONAME
	_ZN8Messages5ANode19FetchNodeInterfaceLEi @ 80 NONAME
	_ZN8Messages5ANode26FetchNodeInterfaceControlLEi @ 81 NONAME
	_ZN8Messages7Logging10LogAddressERK6TDesC8RKNS_13TRuntimeCtxIdE @ 82 NONAME
	_ZN8Messages7Logging10LogAddressERK6TDesC8RKNS_13TRuntimeCtxIdES3_ @ 83 NONAME
	_ZN8Messages7Logging10LogMessageERK6TDesC8RKNS_11TSignalBaseE @ 84 NONAME
	_ZN8Messages7Logging10LogMessageERK6TDesC8RKNS_11TSignalBaseES3_ @ 85 NONAME
	_ZN8Messages7Logging10LogMessageERK6TDesC8S3_ @ 86 NONAME
	_ZN8Messages7Logging10LogMessageERK6TDesC8S3_S3_ @ 87 NONAME
	_ZN8Messages7Logging6PrintfERK6TDesC811TRefByValueIS2_ERSt9__va_list @ 88 NONAME
	_ZN8Messages7Logging6PrintfERK6TDesC811TRefByValueIS2_Ez @ 89 NONAME
	_ZN8Messages7Logging6PrintfERK6TDesC8NS0_13TLogEntryTypeE11TRefByValueIS2_ERSt9__va_list @ 90 NONAME
	_ZN8Messages7Logging6PrintfERK6TDesC8NS0_13TLogEntryTypeE11TRefByValueIS2_Ez @ 91 NONAME
	_ZN8Messages7Logging7LogNodeERK6TDesC8RKNS_5ANodeE @ 92 NONAME
	_ZN8Messages7Logging7LogNodeERK6TDesC8RKNS_5ANodeES3_ @ 93 NONAME
	_ZN8Messages7TNodeId6NullIdEv @ 94 NONAME
	_ZN8Messages7TNodeIdC1ERKS0_ @ 95 NONAME
	_ZN8Messages7TNodeIdC1Eh @ 96 NONAME
	_ZN8Messages7TNodeIdC1Ev @ 97 NONAME
	_ZN8Messages7TNodeIdC2ERKS0_ @ 98 NONAME
	_ZN8Messages7TNodeIdC2Eh @ 99 NONAME
	_ZN8Messages7TNodeIdC2Ev @ 100 NONAME
	_ZN8Messages7TNodeIdaSERKNS_13TRuntimeCtxIdE @ 101 NONAME
	_ZN8Messages7TSigAny19GetVDataTableStaticEv @ 102 NONAME
	_ZN8Messages7TSigUid19GetVDataTableStaticEv @ 103 NONAME
	_ZN8Messages8CGlobals10ConstructLEv @ 104 NONAME
	_ZTVN8Messages9ANodeBaseE @ 105 NONAME
	_ZN8Messages8CGlobalsC1Ev @ 106 NONAME
	_ZN8Messages8CGlobalsC2Ev @ 107 NONAME
	_ZN8Messages8CGlobalsD0Ev @ 108 NONAME
	_ZN8Messages8CGlobalsD1Ev @ 109 NONAME
	_ZN8Messages8CGlobalsD2Ev @ 110 NONAME
	_ZN8Messages8TNodeOid14UnregisterSelfEv @ 111 NONAME
	_ZN8Messages8TNodeOidC1EPv @ 112 NONAME
	_ZN8Messages8TNodeOidC1ERNS_5ANodeE @ 113 NONAME
	_ZN8Messages8TNodeOidC2EPv @ 114 NONAME
	_ZN8Messages8TNodeOidC2ERNS_5ANodeE @ 115 NONAME
	_ZN8Messages8TNodeOidD1Ev @ 116 NONAME
	_ZN8Messages8TNodeOidD2Ev @ 117 NONAME
	_ZN8Messages9ANodeBase10AddClientLERKNS_7TNodeIdERKNS_11TClientTypeEPv @ 118 NONAME
	_ZN8Messages9ANodeBase12RemoveClientERNS_14RNodeInterfaceE @ 119 NONAME
	_ZN8Messages9ANodeBase12RemoveClientEi @ 120 NONAME
	_ZN8Messages9ANodeBase19NewClientInterfaceLERKNS_11TClientTypeEPv @ 121 NONAME
	_ZN8Messages9ANodeBase19ReturnInterfacePtrLERPS0_ @ 122 NONAME
	_ZN8Messages9ANodeBaseC1ERKNS_7TNodeIdE @ 123 NONAME
	_ZN8Messages9ANodeBaseC2ERKNS_7TNodeIdE @ 124 NONAME
	_ZN8Messages9ANodeBaseD1Ev @ 125 NONAME
	_ZN8Messages9ANodeBaseD2Ev @ 126 NONAME
	_ZNK8Messages10TSigNodeId12GetAttribPtrEi @ 127 NONAME
	_ZNK8Messages10TSigNodeId13GetVDataTableEv @ 128 NONAME
	_ZNK8Messages10TSigNumber12GetAttribPtrEi @ 129 NONAME
	_ZNK8Messages10TSigNumber13GetVDataTableEv @ 130 NONAME
	_ZNK8Messages11ANodeIdBase6NodeIdEv @ 131 NONAME
	_ZNK8Messages11TNodeSignal12GetAttribPtrEi @ 132 NONAME
	_ZNK8Messages11TNodeSignal13GetVDataTableEv @ 133 NONAME
	_ZNK8Messages11TSignalBase12GetAttribPtrEi @ 134 NONAME
	_ZNK8Messages11TSignalBase13GetVDataTableEv @ 135 NONAME
	_ZNK8Messages13TRuntimeCtxId11ComparePartERKS0_h @ 136 NONAME
	_ZNK8Messages13TRuntimeCtxId5StoreER5TDes8 @ 137 NONAME
	_ZNK8Messages13TRuntimeCtxId6PostToERKS0_RKNS_11TSignalBaseE @ 138 NONAME
	_ZNK8Messages13TRuntimeCtxIdeqERKS0_ @ 139 NONAME
	_ZNK8Messages13TSigAnyNumber12GetAttribPtrEi @ 140 NONAME
	_ZNK8Messages13TSigAnyNumber13GetVDataTableEv @ 141 NONAME
	_ZNK8Messages13TSigNodeIdAny12GetAttribPtrEi @ 142 NONAME
	_ZNK8Messages13TSigNodeIdAny13GetVDataTableEv @ 143 NONAME
	_ZNK8Messages13TSigRMessage212GetAttribPtrEi @ 144 NONAME
	_ZNK8Messages13TSigRMessage213GetVDataTableEv @ 145 NONAME
	_ZNK8Messages13TSigUidNumber12GetAttribPtrEi @ 146 NONAME
	_ZNK8Messages13TSigUidNumber13GetVDataTableEv @ 147 NONAME
	_ZNK8Messages14RNodeInterface11PostMessageERKNS_13TRuntimeCtxIdERKNS_16TNodeIdRemainderERKNS_11TSignalBaseE @ 148 NONAME
	_ZNK8Messages14RNodeInterfaceeqERKS0_ @ 149 NONAME
	_ZNK8Messages14TSigClientType12GetAttribPtrEi @ 150 NONAME
	_ZNK8Messages14TSigClientType13GetVDataTableEv @ 151 NONAME
	_ZNK8Messages14TSigErrContext12GetAttribPtrEi @ 152 NONAME
	_ZNK8Messages14TSigErrContext13GetVDataTableEv @ 153 NONAME
	_ZNK8Messages14TSignatureBase12GetAttribPtrEi @ 154 NONAME
	_ZNK8Messages14TSignatureBase13GetVDataTableEv @ 155 NONAME
	_ZNK8Messages15TSigErrResponse12GetAttribPtrEi @ 156 NONAME
	_ZNK8Messages15TSigErrResponse13GetVDataTableEv @ 157 NONAME
	_ZNK8Messages15TSigMetaDataPtr12GetAttribPtrEi @ 158 NONAME
	_ZNK8Messages15TSigMetaDataPtr13GetVDataTableEv @ 159 NONAME
	_ZNK8Messages16RClientInterface11PostMessageERKNS_13TRuntimeCtxIdERKNS_11TSignalBaseE @ 160 NONAME
	_ZNK8Messages16RClientInterface6IsOpenEv @ 161 NONAME
	_ZNK8Messages16RClientInterfaceeqERKNS_13TRuntimeCtxIdE @ 162 NONAME
	_ZNK8Messages16RClientInterfaceeqERKS0_ @ 163 NONAME
	_ZNK8Messages16TNodeIdRemaindereqERKNS_13TRuntimeCtxIdE @ 164 NONAME
	_ZNK8Messages16TNodeIdRemaindereqERKS0_ @ 165 NONAME
	_ZNK8Messages16TSigNodeIdNodeId12GetAttribPtrEi @ 166 NONAME
	_ZNK8Messages16TSigNodeIdNodeId13GetVDataTableEv @ 167 NONAME
	_ZNK8Messages16TSigNodeIdNumber12GetAttribPtrEi @ 168 NONAME
	_ZNK8Messages16TSigNodeIdNumber13GetVDataTableEv @ 169 NONAME
	_ZNK8Messages16TSigNumberNumber12GetAttribPtrEi @ 170 NONAME
	_ZNK8Messages16TSigNumberNumber13GetVDataTableEv @ 171 NONAME
	_ZNK8Messages17ASimpleNodeIdBase6NodeIdEv @ 172 NONAME
	_ZNK8Messages17TSigClientTypeUid12GetAttribPtrEi @ 173 NONAME
	_ZNK8Messages17TSigClientTypeUid13GetVDataTableEv @ 174 NONAME
	_ZNK8Messages18RRequestOriginator11PostMessageERKNS_13TRuntimeCtxIdERKNS_11TSignalBaseE @ 175 NONAME
	_ZNK8Messages18RRequestOriginator6IsOpenEv @ 176 NONAME
	_ZNK8Messages18RRequestOriginatoreqERKNS_13TRuntimeCtxIdE @ 177 NONAME
	_ZNK8Messages18RRequestOriginatoreqERKS0_ @ 178 NONAME
	_ZNK8Messages19TSigMessageIdNumber12GetAttribPtrEi @ 179 NONAME
	_ZNK8Messages19TSigMessageIdNumber13GetVDataTableEv @ 180 NONAME
	_ZNK8Messages19TSigNumberRMessage212GetAttribPtrEi @ 181 NONAME
	_ZNK8Messages19TSigNumberRMessage213GetVDataTableEv @ 182 NONAME
	_ZNK8Messages19TSigNumberUidNumber12GetAttribPtrEi @ 183 NONAME
	_ZNK8Messages19TSigNumberUidNumber13GetVDataTableEv @ 184 NONAME
	_ZNK8Messages20TSigNodeIdClientType12GetAttribPtrEi @ 185 NONAME
	_ZNK8Messages20TSigNodeIdClientType13GetVDataTableEv @ 186 NONAME
	_ZNK8Messages22TSigNodeIdNodeIdNumber12GetAttribPtrEi @ 187 NONAME
	_ZNK8Messages22TSigNodeIdNodeIdNumber13GetVDataTableEv @ 188 NONAME
	_ZNK8Messages22TSigNodeIdNumberNumber12GetAttribPtrEi @ 189 NONAME
	_ZNK8Messages22TSigNodeIdNumberNumber13GetVDataTableEv @ 190 NONAME
	_ZNK8Messages22TSigNumberNumberNumber12GetAttribPtrEi @ 191 NONAME
	_ZNK8Messages22TSigNumberNumberNumber13GetVDataTableEv @ 192 NONAME
	_ZNK8Messages27TSigClientTypeUidClientType12GetAttribPtrEi @ 193 NONAME
	_ZNK8Messages27TSigClientTypeUidClientType13GetVDataTableEv @ 194 NONAME
	_ZNK8Messages28TSigNumberNumberNumberNumber12GetAttribPtrEi @ 195 NONAME
	_ZNK8Messages28TSigNumberNumberNumberNumber13GetVDataTableEv @ 196 NONAME
	_ZNK8Messages7TSigAny12GetAttribPtrEi @ 197 NONAME
	_ZNK8Messages7TSigAny13GetVDataTableEv @ 198 NONAME
	_ZNK8Messages7TSigUid12GetAttribPtrEi @ 199 NONAME
	_ZNK8Messages7TSigUid13GetVDataTableEv @ 200 NONAME
	_ZNK8Messages9ANodeBase10FindClientERKNS_13TRuntimeCtxIdE @ 201 NONAME
	_ZNK8Messages9ANodeBase11FindClientLERKNS_13TRuntimeCtxIdE @ 202 NONAME
	_ZNK8Messages9ANodeBase12CountClientsERNS_15TClientIterBaseE @ 203 NONAME
	_ZNK8Messages9ANodeBase12DoFindClientERKNS_13TRuntimeCtxIdERi @ 204 NONAME
	_ZN8Messages42TVCFromGlobalsMessagePayloadCreationPolicy3NewER6TPtrC8R5TPtr8 @ 205 NONAME
	_ZN8Messages44TSignatureWithPolymorphicPayloadMetaTypeBase4CopyEPKv @ 206 NONAME
	_ZN8Messages44TSignatureWithPolymorphicPayloadMetaTypeBase4LoadER6TPtrC8R5TDes8 @ 207 NONAME ABSENT
	_ZN8Messages44TSignatureWithPolymorphicPayloadMetaTypeBaseC2EPhPPN4Meta9SMetaDataEi @ 208 NONAME
	_ZNK8Messages44TSignatureWithPolymorphicPayloadMetaTypeBase5StoreER5TDes8 @ 209 NONAME
	_ZNK8Messages44TSignatureWithPolymorphicPayloadMetaTypeBase6LengthEv @ 210 NONAME
	_ZNK8Messages9ANodeBase13PostToClientsERNS_15TClientIterBaseERKNS_13TRuntimeCtxIdERKNS_11TSignalBaseEmm @ 211 NONAME
	_ZTIN4Meta5TMetaI4TUidEE @ 212 NONAME
	_ZTIN4Meta5TMetaI9RMessage2EE @ 213 NONAME
	_ZTIN4Meta5TMetaIN8Messages11TClientTypeEEE @ 214 NONAME
	_ZTIN4Meta5TMetaIN8Messages11TErrContextEEE @ 215 NONAME
	_ZTIN4Meta5TMetaIN8Messages11TNodeSignal10TMessageIdEEE @ 216 NONAME
	_ZTIN4Meta5TMetaIN8Messages12TErrResponseEEE @ 217 NONAME
	_ZTIN4Meta5TMetaIN8Messages7TNodeIdEEE @ 218 NONAME
	_ZTIN4Meta5TMetaIPNS_9SMetaDataEEE @ 219 NONAME
	_ZTIN4Meta5TMetaIPvEE @ 220 NONAME
	_ZTIN4Meta5TMetaIiEE @ 221 NONAME
	_ZTIN8Messages10TSigNodeIdE @ 222 NONAME
	_ZTIN8Messages10TSigNumberE @ 223 NONAME
	_ZTIN8Messages11ANodeIdBaseE @ 224 NONAME
	_ZTIN8Messages11TNodeSignalE @ 225 NONAME
	_ZTIN8Messages11TSignalBaseE @ 226 NONAME
	_ZTIN8Messages13TSigAnyNumberE @ 227 NONAME
	_ZTIN8Messages13TSigNodeIdAnyE @ 228 NONAME
	_ZTIN8Messages13TSigRMessage2E @ 229 NONAME
	_ZTIN8Messages13TSigUidNumberE @ 230 NONAME
	_ZTIN8Messages14TSigClientTypeE @ 231 NONAME
	_ZTIN8Messages14TSigErrContextE @ 232 NONAME
	_ZTIN8Messages14TSignatureBaseE @ 233 NONAME
	_ZTIN8Messages15TSigErrResponseE @ 234 NONAME
	_ZTIN8Messages15TSigMetaDataPtrE @ 235 NONAME
	_ZTIN8Messages16RClientInterfaceE @ 236 NONAME
	_ZTIN8Messages16TSigNodeIdNodeIdE @ 237 NONAME
	_ZTIN8Messages16TSigNodeIdNumberE @ 238 NONAME
	_ZTIN8Messages16TSigNumberNumberE @ 239 NONAME
	_ZTIN8Messages17ASimpleNodeIdBaseE @ 240 NONAME
	_ZTIN8Messages17TSigClientTypeUidE @ 241 NONAME
	_ZTIN8Messages19TSigMessageIdNumberE @ 242 NONAME
	_ZTIN8Messages19TSigNumberRMessage2E @ 243 NONAME
	_ZTIN8Messages19TSigNumberUidNumberE @ 244 NONAME
	_ZTIN8Messages20TSigNodeIdClientTypeE @ 245 NONAME
	_ZTIN8Messages22TSigNodeIdNodeIdNumberE @ 246 NONAME
	_ZTIN8Messages22TSigNodeIdNumberNumberE @ 247 NONAME
	_ZTIN8Messages22TSigNumberNumberNumberE @ 248 NONAME
	_ZTIN8Messages27TSigClientTypeUidClientTypeE @ 249 NONAME
	_ZTIN8Messages28TSigNumberNumberNumberNumberE @ 250 NONAME
	_ZTIN8Messages44TSignatureWithPolymorphicPayloadMetaTypeBaseE @ 251 NONAME
	_ZTIN8Messages5ANodeE @ 252 NONAME
	_ZTIN8Messages7TSigAnyE @ 253 NONAME
	_ZTIN8Messages7TSigUidE @ 254 NONAME
	_ZTIN8Messages8CGlobalsE @ 255 NONAME
	_ZTIN8Messages9ANodeBaseE @ 256 NONAME
	_ZTVN4Meta5TMetaI4TUidEE @ 257 NONAME
	_ZTVN4Meta5TMetaI9RMessage2EE @ 258 NONAME
	_ZTVN4Meta5TMetaIN8Messages11TClientTypeEEE @ 259 NONAME
	_ZTVN4Meta5TMetaIN8Messages11TErrContextEEE @ 260 NONAME
	_ZTVN4Meta5TMetaIN8Messages11TNodeSignal10TMessageIdEEE @ 261 NONAME
	_ZTVN4Meta5TMetaIN8Messages12TErrResponseEEE @ 262 NONAME
	_ZTVN4Meta5TMetaIN8Messages7TNodeIdEEE @ 263 NONAME
	_ZTVN4Meta5TMetaIPNS_9SMetaDataEEE @ 264 NONAME
	_ZTVN4Meta5TMetaIPvEE @ 265 NONAME
	_ZTVN4Meta5TMetaIiEE @ 266 NONAME
	_ZTVN8Messages10TSigNodeIdE @ 267 NONAME
	_ZTVN8Messages10TSigNumberE @ 268 NONAME
	_ZTVN8Messages11ANodeIdBaseE @ 269 NONAME
	_ZTVN8Messages11TNodeSignalE @ 270 NONAME
	_ZTVN8Messages11TSignalBaseE @ 271 NONAME
	_ZTVN8Messages13TSigAnyNumberE @ 272 NONAME
	_ZTVN8Messages13TSigNodeIdAnyE @ 273 NONAME
	_ZTVN8Messages13TSigRMessage2E @ 274 NONAME
	_ZTVN8Messages13TSigUidNumberE @ 275 NONAME
	_ZTVN8Messages14TSigClientTypeE @ 276 NONAME
	_ZTVN8Messages14TSigErrContextE @ 277 NONAME
	_ZTVN8Messages14TSignatureBaseE @ 278 NONAME
	_ZTVN8Messages15TSigErrResponseE @ 279 NONAME
	_ZTVN8Messages15TSigMetaDataPtrE @ 280 NONAME
	_ZTVN8Messages16RClientInterfaceE @ 281 NONAME
	_ZTVN8Messages16TSigNodeIdNodeIdE @ 282 NONAME
	_ZTVN8Messages16TSigNodeIdNumberE @ 283 NONAME
	_ZTVN8Messages16TSigNumberNumberE @ 284 NONAME
	_ZTVN8Messages17ASimpleNodeIdBaseE @ 285 NONAME
	_ZTVN8Messages17TSigClientTypeUidE @ 286 NONAME
	_ZTVN8Messages19TSigMessageIdNumberE @ 287 NONAME
	_ZTVN8Messages19TSigNumberRMessage2E @ 288 NONAME
	_ZTVN8Messages19TSigNumberUidNumberE @ 289 NONAME
	_ZTVN8Messages20TSigNodeIdClientTypeE @ 290 NONAME
	_ZTVN8Messages22TSigNodeIdNodeIdNumberE @ 291 NONAME
	_ZTVN8Messages22TSigNodeIdNumberNumberE @ 292 NONAME
	_ZTVN8Messages22TSigNumberNumberNumberE @ 293 NONAME
	_ZTVN8Messages27TSigClientTypeUidClientTypeE @ 294 NONAME
	_ZTVN8Messages28TSigNumberNumberNumberNumberE @ 295 NONAME
	_ZTVN8Messages44TSignatureWithPolymorphicPayloadMetaTypeBaseE @ 296 NONAME
	_ZTVN8Messages5ANodeE @ 297 NONAME
	_ZTVN8Messages7TSigAnyE @ 298 NONAME
	_ZTVN8Messages7TSigUidE @ 299 NONAME
	_ZTVN8Messages8CGlobalsE @ 300 NONAME
	_ZN8Messages16CGlobalsInternal10ConstructLEv @ 301 NONAME
	_ZN8Messages16CGlobalsInternal16AddPersistentItfERKNS_7TNodeIdE @ 302 NONAME
	_ZN8Messages16CGlobalsInternalC1Ev @ 303 NONAME
	_ZN8Messages16CGlobalsInternalC2Ev @ 304 NONAME
	_ZN8Messages16CGlobalsInternalD0Ev @ 305 NONAME
	_ZN8Messages16CGlobalsInternalD1Ev @ 306 NONAME
	_ZN8Messages16CGlobalsInternalD2Ev @ 307 NONAME
	_ZTIN8Messages16CGlobalsInternalE @ 308 NONAME
	_ZTVN8Messages16CGlobalsInternalE @ 309 NONAME
	_ZN8Messages44TSignatureWithPolymorphicPayloadMetaTypeBase12InternalLoadER6TPtrC8R5TDes8 @ 310 NONAME
	_ZN8Messages10TSigTypeId19GetVDataTableStaticEv @ 311 NONAME
	_ZN8Messages13TSigMessageId19GetVDataTableStaticEv @ 312 NONAME
	_ZN8Messages19TSigTypeIdAnyNumber19GetVDataTableStaticEv @ 313 NONAME
	_ZN8Messages28TSigNodeIdNumberNumberNumber19GetVDataTableStaticEv @ 314 NONAME
	_ZNK8Messages10TSigTypeId12GetAttribPtrEi @ 315 NONAME
	_ZNK8Messages10TSigTypeId13GetVDataTableEv @ 316 NONAME
	_ZNK8Messages13TSigMessageId12GetAttribPtrEi @ 317 NONAME
	_ZNK8Messages13TSigMessageId13GetVDataTableEv @ 318 NONAME
	_ZNK8Messages19TSigTypeIdAnyNumber12GetAttribPtrEi @ 319 NONAME
	_ZNK8Messages19TSigTypeIdAnyNumber13GetVDataTableEv @ 320 NONAME
	_ZNK8Messages28TSigNodeIdNumberNumberNumber12GetAttribPtrEi @ 321 NONAME
	_ZNK8Messages28TSigNodeIdNumberNumberNumber13GetVDataTableEv @ 322 NONAME
	_ZTIN4Meta5TMetaINS_7STypeIdEEE @ 323 NONAME
	_ZTIN8Messages10TSigTypeIdE @ 324 NONAME
	_ZTIN8Messages13TSigMessageIdE @ 325 NONAME
	_ZTIN8Messages19TSigTypeIdAnyNumberE @ 326 NONAME
	_ZTIN8Messages28TSigNodeIdNumberNumberNumberE @ 327 NONAME
	_ZTVN4Meta5TMetaINS_7STypeIdEEE @ 328 NONAME
	_ZTVN8Messages10TSigTypeIdE @ 329 NONAME
	_ZTVN8Messages13TSigMessageIdE @ 330 NONAME
	_ZTVN8Messages19TSigTypeIdAnyNumberE @ 331 NONAME
	_ZTVN8Messages28TSigNodeIdNumberNumberNumberE @ 332 NONAME
	_ZN8Messages14RNodeInterface22ClaimPreallocatedSpaceEj @ 333 NONAME
	_ZN8Messages14RNodeInterface9PreAllocLEj @ 334 NONAME
	_ZN8Messages14RNodeInterfaceC1Ev @ 335 NONAME
	_ZN8Messages14RNodeInterfaceC2Ev @ 336 NONAME
	_ZN8Messages14RNodeInterfaceD0Ev @ 337 NONAME
	_ZN8Messages14RNodeInterfaceD1Ev @ 338 NONAME
	_ZN8Messages14RNodeInterfaceD2Ev @ 339 NONAME
	_ZTIN8Messages14RNodeInterfaceE @ 340 NONAME
	_ZTVN8Messages14RNodeInterfaceE @ 341 NONAME

