EXPORTS
	_ZN11RFileLoggerC1Ev @ 1 NONAME ; RFileLogger::RFileLogger(void)
	_ZN11RFileLogger7ConnectEv @ 2 NONAME ; RFileLogger::Connect(void)
	_ZN11RFileLogger9CreateLogERK7TDesC16S2_16TFileLoggingMode @ 3 NONAME ; RFileLogger::CreateLog(TDesC16 const&, TDesC16 const&, TFileLoggingMode)
	_ZNK11RFileLogger9LastErrorEv @ 4 NONAME ; RFileLogger::LastError(void) const
	_ZNK11RFileLogger8LogValidEv @ 5 NONAME ; RFileLogger::LogValid(void) const
	_ZN11RFileLoggerD1Ev @ 6 NONAME ;  RFileLogger::~RFileLogger [in-charge](void)
	_ZN11RFileLogger14SetDateAndTimeEii @ 7 NONAME ; RFileLogger::SetDateAndTime(int, int)
	_ZNK11RFileLogger7VersionEv @ 8 NONAME ; RFileLogger::Version(void) const
	_ZN11RFileLogger11WriteFormatE11TRefByValueIK7TDesC16Ez @ 9 NONAME ; RFileLogger::WriteFormat(TRefByValue<TDesC16 const>, ...)
	_ZN11RFileLogger11WriteFormatERK7TDesC16S2_16TFileLoggingMode11TRefByValueIS1_Ez @ 10 NONAME ; RFileLogger::WriteFormat(TDesC16 const&, TDesC16 const&, TFileLoggingMode, TRefByValue<TDesC16 const>, ...)
	_ZN11RFileLogger5WriteERK7TDesC16 @ 11 NONAME ; RFileLogger::Write(TDesC16 const&)
	_ZN11RFileLogger5WriteERK7TDesC16S2_16TFileLoggingModeS2_ @ 12 NONAME ; RFileLogger::Write(TDesC16 const&, TDesC16 const&, TFileLoggingMode, TDesC16 const&)
	_ZN11RFileLoggerC2Ev @ 13 NONAME ;  RFileLogger::RFileLogger[not-in-charge](void)
	_ZN11RFileLogger8CloseLogEv @ 14 NONAME ; RFileLogger::CloseLog(void)
	_ZN11RFileLogger11WriteFormatE11TRefByValueIK6TDesC8ERSt9__va_list @ 15 NONAME ;  RFileLogger::WriteFormat(TRefByValue<TDesC8 const>, signed char*(&)[0])
	_ZN11RFileLogger11WriteFormatERK7TDesC16S2_16TFileLoggingMode11TRefByValueIK6TDesC8ERSt9__va_list @ 16 NONAME ;  RFileLogger::WriteFormat(TDesC16 const&, TDesC16 const&, TFileLoggingMode, TRefByValue<TDesC8 const>, signed char*(&)[0])
	_ZN11RFileLogger7HexDumpEPKtS1_PKhi @ 17 NONAME ; RFileLogger::HexDump(unsigned short const*, unsigned short const*, unsigned char const*, int)
	_ZN11RFileLogger7HexDumpERK7TDesC16S2_16TFileLoggingModePKtS5_PKhi @ 18 NONAME ; RFileLogger::HexDump(TDesC16 const&, TDesC16 const&, TFileLoggingMode, unsigned short const*, unsigned short const*, unsigned char const*, int)
	_ZN11RFileLogger11WriteFormatE11TRefByValueIK7TDesC16ERSt9__va_list @ 19 NONAME ;  RFileLogger::WriteFormat(TRefByValue<TDesC16 const>, signed char*(&)[0])
	_ZN11RFileLogger11WriteFormatE11TRefByValueIK6TDesC8Ez @ 20 NONAME ; RFileLogger::WriteFormat(TRefByValue<TDesC8 const>, ...)
	_ZN11RFileLogger11WriteFormatERK7TDesC16S2_16TFileLoggingMode11TRefByValueIS1_ERSt9__va_list @ 21 NONAME ;  RFileLogger::WriteFormat(TDesC16 const&, TDesC16 const&, TFileLoggingMode, TRefByValue<TDesC16 const>, signed char*(&)[0])
	_ZN11RFileLogger11WriteFormatERK7TDesC16S2_16TFileLoggingMode11TRefByValueIK6TDesC8Ez @ 22 NONAME ; RFileLogger::WriteFormat(TDesC16 const&, TDesC16 const&, TFileLoggingMode, TRefByValue<TDesC8 const>, ...)
	_ZN11RFileLogger5WriteERK6TDesC8 @ 23 NONAME ; RFileLogger::Write(TDesC8 const&)
	_ZN11RFileLogger5WriteERK7TDesC16S2_16TFileLoggingModeRK6TDesC8 @ 24 NONAME ; RFileLogger::Write(TDesC16 const&, TDesC16 const&, TFileLoggingMode, TDesC8 const&)
	_ZN11RFileLogger19__DbgShutDownServerEv @ 25 NONAME ; RFileLogger::__DbgShutDownServer(void)
	_ZN11RFileLogger5CloseEv @ 26 NONAME ; RFileLogger::Close(void)
	_ZN11RFileLogger7HexDumpERK6TDesC8S2_S2_S2_ @ 27 NONAME ; RFileLogger::HexDump(TDesC8 const&, TDesC8 const&, TDesC8 const&, TDesC8 const&)
	_ZN11RFileLogger7HexDumpERK6TDesC8S2_ @ 28 NONAME ; RFileLogger::HexDump(TDesC8 const&, TDesC8 const&)
	_ZN11RFileLogger10SetLogTagsERK6TDesC8S2_ @ 29 NONAME ; RFileLogger::SetLogTags(TDesC8 const&, TDesC8 const&)
	_ZN11RFileLogger11WriteBinaryERK6TDesC8 @ 30 NONAME ; RFileLogger::WriteBinary(TDesC8 const&)
	_ZN11RFileLogger11WriteFormatERK6TDesC8S2_11TRefByValueIS1_ERSt9__va_list @ 31 NONAME ;  RFileLogger::WriteFormat(TDesC8 const&, TDesC8 const&, TRefByValue<TDesC8 const>, signed char*(&)[0])
	_ZN11RFileLogger11WriteFormatERK6TDesC8S2_11TRefByValueIS1_Ez @ 32 NONAME ; RFileLogger::WriteFormat(TDesC8 const&, TDesC8 const&, TRefByValue<TDesC8 const>, ...)
	_ZN11RFileLogger11WriteFormatERK6TDesC8S2_11TRefByValueIK7TDesC16ERSt9__va_list @ 33 NONAME ;  RFileLogger::WriteFormat(TDesC8 const&, TDesC8 const&, TRefByValue<TDesC16 const>, signed char*(&)[0])
	_ZN11RFileLogger11WriteFormatERK6TDesC8S2_11TRefByValueIK7TDesC16Ez @ 34 NONAME ; RFileLogger::WriteFormat(TDesC8 const&, TDesC8 const&, TRefByValue<TDesC16 const>, ...)
	_ZN11RFileLogger5WriteERK6TDesC8S2_S2_ @ 35 NONAME ; RFileLogger::Write(TDesC8 const&, TDesC8 const&, TDesC8 const&)
	_ZN11RFileLogger5WriteERK6TDesC8S2_RK7TDesC16 @ 36 NONAME ; RFileLogger::Write(TDesC8 const&, TDesC8 const&, TDesC16 const&)
	_ZN11RFileLogger19__DbgSetHeapFailureEi @ 37 NONAME ; RFileLogger::__DbgSetHeapFailure(int)
	_ZN11RFileLogger8ClearLogEv @ 38 NONAME ; RFileLogger::ClearLog(void)
	_ZNK11RFileLogger6HandleEv @ 39 NONAME ; RFileLogger::Handle(void) const
	_ZN11RFileLogger5ShareEv @ 40 NONAME ; RFileLogger::Share(void)
	_Z21ClientRunStubOrdinal1v @ 41 NONAME ;  ClientRunStubOrdinal1(void)
	_ZN11RFileLoggerD2Ev @ 42 NONAME ;  RFileLogger::~RFileLogger [not-in-charge](void)
