EXPORTS
	_ZN12TIASResponseC1Ev @ 1 NONAME
	_ZN12TIASResponseC2Ev @ 2 NONAME
	_ZN13TIrdaSockAddr11SetHomePortEh @ 3 NONAME
	_ZN13TIrdaSockAddr13SetRemotePortEh @ 4 NONAME
	_ZN13TIrdaSockAddr14SetHostDevAddrEj @ 5 NONAME
	_ZN13TIrdaSockAddr14SetSniffStatusEi @ 6 NONAME
	_ZN13TIrdaSockAddr15SetCharacterSetEh @ 7 NONAME
	_ZN13TIrdaSockAddr15SetIrlapVersionEh @ 8 NONAME
	_ZN13TIrdaSockAddr16SetRemoteDevAddrEj @ 9 NONAME
	_ZN13TIrdaSockAddr18SetSolicitedStatusEi @ 10 NONAME
	_ZN13TIrdaSockAddr23SetFirstServiceHintByteEh @ 11 NONAME
	_ZN13TIrdaSockAddr23SetServiceHintByteCountEh @ 12 NONAME
	_ZN13TIrdaSockAddr24SetSecondServiceHintByteEh @ 13 NONAME
	_ZN13TIrdaSockAddr4CastEPK9TSockAddr @ 14 NONAME
	_ZN13TIrdaSockAddr4CastERK9TSockAddr @ 15 NONAME
	_ZN13TIrdaSockAddrC1ERK9TSockAddr @ 16 NONAME
	_ZN13TIrdaSockAddrC1Ev @ 17 NONAME
	_ZN13TIrdaSockAddrC2ERK9TSockAddr @ 18 NONAME
	_ZN13TIrdaSockAddrC2Ev @ 19 NONAME
	_ZN17TIASDatabaseEntry12SetClassNameERK6TDesC8 @ 20 NONAME
	_ZN17TIASDatabaseEntry12SetToIntegerEj @ 21 NONAME
	_ZN17TIASDatabaseEntry13SetToOctetSeqERK6TDesC8 @ 22 NONAME
	_ZN17TIASDatabaseEntry15SetToCharStringERK6TDesC8 @ 23 NONAME
	_ZN17TIASDatabaseEntry15SetToCharStringERK7TDesC16 @ 24 NONAME
	_ZN17TIASDatabaseEntry16SetAttributeNameERK6TDesC8 @ 25 NONAME
	_ZN21TIASDatabaseEntryV001C1Ev @ 26 NONAME
	_ZN21TIASDatabaseEntryV001C2Ev @ 27 NONAME
	_ZN9TIASQuery3GetER5TDes8S1_Rj @ 28 NONAME
	_ZN9TIASQuery3SetERK6TDesC8S2_j @ 29 NONAME
	_ZN9TIASQueryC1ERK6TDesC8S2_j @ 30 NONAME
	_ZN9TIASQueryC1Ev @ 31 NONAME
	_ZN9TIASQueryC2ERK6TDesC8S2_j @ 32 NONAME
	_ZN9TIASQueryC2Ev @ 33 NONAME
	_ZNK12TIASResponse10GetIntegerERii @ 34 NONAME
	_ZNK12TIASResponse11GetOctetSeqER5TDes8i @ 35 NONAME
	_ZNK12TIASResponse13GetCharStringER5TDes8i @ 36 NONAME
	_ZNK12TIASResponse13GetCharStringER6TDes16i @ 37 NONAME
	_ZNK12TIASResponse14GetCharString8Ei @ 38 NONAME
	_ZNK12TIASResponse15GetCharString16Ei @ 39 NONAME
	_ZNK12TIASResponse4TypeEv @ 40 NONAME
	_ZNK12TIASResponse6IsListEv @ 41 NONAME
	_ZNK12TIASResponse8NumItemsEv @ 42 NONAME
	_ZNK13TIrdaSockAddr11GetHomePortEv @ 43 NONAME
	_ZNK13TIrdaSockAddr13GetRemotePortEv @ 44 NONAME
	_ZNK13TIrdaSockAddr14GetHostDevAddrEv @ 45 NONAME
	_ZNK13TIrdaSockAddr14GetSniffStatusEv @ 46 NONAME
	_ZNK13TIrdaSockAddr15GetCharacterSetEv @ 47 NONAME
	_ZNK13TIrdaSockAddr15GetIrlapVersionEv @ 48 NONAME
	_ZNK13TIrdaSockAddr16GetRemoteDevAddrEv @ 49 NONAME
	_ZNK13TIrdaSockAddr18GetSolicitedStatusEv @ 50 NONAME
	_ZNK13TIrdaSockAddr23GetFirstServiceHintByteEv @ 51 NONAME
	_ZNK13TIrdaSockAddr23GetServiceHintByteCountEv @ 52 NONAME
	_ZNK13TIrdaSockAddr24GetSecondServiceHintByteEv @ 53 NONAME
	_ZN32RIrdaDiscoveryResponseSuppressor4OpenEv @ 54 NONAME
	_ZN32RIrdaDiscoveryResponseSuppressor5CloseEv @ 55 NONAME

