EXPORTS
	??0RLbsNetworkLocationResponses@@QAE@XZ @ 1 NONAME ; RLbsNetworkLocationResponses::RLbsNetworkLocationResponses(void)
	?InitializeL@RLbsNetworkLocationRequests@@SAXXZ @ 2 NONAME ; void RLbsNetworkLocationRequests::InitializeL(void)
	??0TLbsNetLocNetworkLocationRequestMsg@@QAE@ABVTLbsNetSessionIdInt@@HVTLbsNetPosRequestQualityInt@@@Z @ 3 NONAME ; TLbsNetLocNetworkLocationRequestMsg::TLbsNetLocNetworkLocationRequestMsg(class TLbsNetSessionIdInt const &, int, class TLbsNetPosRequestQualityInt)
	??0TLbsNetLocNetworkLocationCancelMsg@@QAE@ABVTLbsNetSessionIdInt@@H@Z @ 4 NONAME ; TLbsNetLocNetworkLocationCancelMsg::TLbsNetLocNetworkLocationCancelMsg(class TLbsNetSessionIdInt const &, int)
	?Quality@TLbsNetLocNetworkLocationRequestMsg@@QBEABVTLbsNetPosRequestQualityInt@@XZ @ 5 NONAME ; class TLbsNetPosRequestQualityInt const & TLbsNetLocNetworkLocationRequestMsg::Quality(void) const
	?SessionId@TLbsNetLocMsgBase@@QBEABVTLbsNetSessionIdInt@@XZ @ 6 NONAME ; class TLbsNetSessionIdInt const & TLbsNetLocMsgBase::SessionId(void) const
	?NotifyNetworkLocationRequestUpdate@RLbsNetworkLocationRequests@@QAEXAAVTRequestStatus@@@Z @ 7 NONAME ; void RLbsNetworkLocationRequests::NotifyNetworkLocationRequestUpdate(class TRequestStatus &)
	?NewClient@TLbsNetLocNetworkLocationRequestMsg@@QBEHXZ @ 8 NONAME ; int TLbsNetLocNetworkLocationRequestMsg::NewClient(void) const
	?Close@RLbsNetworkLocationResponses@@QAEXXZ @ 9 NONAME ; void RLbsNetworkLocationResponses::Close(void)
	?SetNetworkLocationResponse@RLbsNetworkLocationResponses@@QAEHABVTLbsNetLocMsgBase@@@Z @ 10 NONAME ; int RLbsNetworkLocationResponses::SetNetworkLocationResponse(class TLbsNetLocMsgBase const &)
	?CancelNotifyNetworkLocationResponseUpdate@RLbsNetworkLocationResponses@@QAEXXZ @ 11 NONAME ; void RLbsNetworkLocationResponses::CancelNotifyNetworkLocationResponseUpdate(void)
	??0TLbsNetLocMsgBase@@QAE@XZ @ 12 NONAME ; TLbsNetLocMsgBase::TLbsNetLocMsgBase(void)
	??0TLbsNetLocNetworkLocationCompleteMsg@@QAE@ABVTLbsNetSessionIdInt@@H@Z @ 13 NONAME ; TLbsNetLocNetworkLocationCompleteMsg::TLbsNetLocNetworkLocationCompleteMsg(class TLbsNetSessionIdInt const &, int)
	?GetNetworkLocationRequest@RLbsNetworkLocationRequests@@QAEHAAVTLbsNetLocMsgBase@@@Z @ 14 NONAME ; int RLbsNetworkLocationRequests::GetNetworkLocationRequest(class TLbsNetLocMsgBase &)
	?Reason@TLbsNetLocNetworkLocationCancelMsg@@QBEHXZ @ 15 NONAME ; int TLbsNetLocNetworkLocationCancelMsg::Reason(void) const
	??0RLbsNetworkLocationRequests@@QAE@XZ @ 16 NONAME ; RLbsNetworkLocationRequests::RLbsNetworkLocationRequests(void)
	?Close@RLbsNetworkLocationRequests@@QAEXXZ @ 17 NONAME ; void RLbsNetworkLocationRequests::Close(void)
	?NotifyNetworkLocationResponseUpdate@RLbsNetworkLocationResponses@@QAEXAAVTRequestStatus@@@Z @ 18 NONAME ; void RLbsNetworkLocationResponses::NotifyNetworkLocationResponseUpdate(class TRequestStatus &)
	??4TLbsNetLocMsgBase@@QAEAAV0@ABV0@@Z @ 19 NONAME ; class TLbsNetLocMsgBase & TLbsNetLocMsgBase::operator=(class TLbsNetLocMsgBase const &)
	??0TLbsNetLocMsgBase@@QAE@ABV0@@Z @ 20 NONAME ; TLbsNetLocMsgBase::TLbsNetLocMsgBase(class TLbsNetLocMsgBase const &)
	?Size@TLbsNetLocMsgBase@@QBEJXZ @ 21 NONAME ; long TLbsNetLocMsgBase::Size(void) const
	?ShutDownL@RLbsNetworkLocationRequests@@SAXXZ @ 22 NONAME ; void RLbsNetworkLocationRequests::ShutDownL(void)
	?Type@TLbsNetLocMsgBase@@QBE?AW4TLbsNetLocMsgType@1@XZ @ 23 NONAME ; enum TLbsNetLocMsgBase::TLbsNetLocMsgType TLbsNetLocMsgBase::Type(void) const
	?ShutDownL@RLbsNetworkLocationResponses@@SAXXZ @ 24 NONAME ; void RLbsNetworkLocationResponses::ShutDownL(void)
	?InitializeL@RLbsNetworkLocationResponses@@SAXXZ @ 25 NONAME ; void RLbsNetworkLocationResponses::InitializeL(void)
	?Reason@TLbsNetLocNetworkLocationCompleteMsg@@QBEHXZ @ 26 NONAME ; int TLbsNetLocNetworkLocationCompleteMsg::Reason(void) const
	?OpenL@RLbsNetworkLocationRequests@@QAEXVTUid@@@Z @ 27 NONAME ; void RLbsNetworkLocationRequests::OpenL(class TUid)
	?SetNetworkLocationRequest@RLbsNetworkLocationRequests@@QAEHABVTLbsNetLocMsgBase@@@Z @ 28 NONAME ; int RLbsNetworkLocationRequests::SetNetworkLocationRequest(class TLbsNetLocMsgBase const &)
	?OpenL@RLbsNetworkLocationResponses@@QAEXVTUid@@@Z @ 29 NONAME ; void RLbsNetworkLocationResponses::OpenL(class TUid)
	?GetNetworkLocationResponse@RLbsNetworkLocationResponses@@QAEHAAVTLbsNetLocMsgBase@@@Z @ 30 NONAME ; int RLbsNetworkLocationResponses::GetNetworkLocationResponse(class TLbsNetLocMsgBase &)
	?CancelNotifyNetworkLocationRequestUpdate@RLbsNetworkLocationRequests@@QAEXXZ @ 31 NONAME ; void RLbsNetworkLocationRequests::CancelNotifyNetworkLocationRequestUpdate(void)

