EXPORTS
	??0CMMFVideoDecodeHwDevice@@IAE@XZ @ 1 NONAME ; protected: __thiscall CMMFVideoDecodeHwDevice::CMMFVideoDecodeHwDevice(void)
	??0CMMFVideoEncodeHwDevice@@IAE@XZ @ 2 NONAME ; protected: __thiscall CMMFVideoEncodeHwDevice::CMMFVideoEncodeHwDevice(void)
	??0CMMFVideoPostProcHwDevice@@IAE@XZ @ 3 NONAME ; protected: __thiscall CMMFVideoPostProcHwDevice::CMMFVideoPostProcHwDevice(void)
	??0CMMFVideoPreProcHwDevice@@IAE@XZ @ 4 NONAME ; protected: __thiscall CMMFVideoPreProcHwDevice::CMMFVideoPreProcHwDevice(void)
	??0TVideoInputBuffer@@QAE@XZ @ 5 NONAME ; public: __thiscall TVideoInputBuffer::TVideoInputBuffer(void)
	??1CCompressedVideoFormat@@UAE@XZ @ 6 NONAME ; public: virtual __thiscall CCompressedVideoFormat::~CCompressedVideoFormat(void)
	??1CMMFClockSourcePeriodicUtility@@UAE@XZ @ 7 NONAME ; public: virtual __thiscall CMMFClockSourcePeriodicUtility::~CMMFClockSourcePeriodicUtility(void)
	??1CMMFDevVideoPlay@@UAE@XZ @ 8 NONAME ; public: virtual __thiscall CMMFDevVideoPlay::~CMMFDevVideoPlay(void)
	??1CMMFDevVideoRecord@@UAE@XZ @ 9 NONAME ; public: virtual __thiscall CMMFDevVideoRecord::~CMMFDevVideoRecord(void)
	??1CMMFVideoDecodeHwDevice@@UAE@XZ @ 10 NONAME ; public: virtual __thiscall CMMFVideoDecodeHwDevice::~CMMFVideoDecodeHwDevice(void)
	??1CMMFVideoEncodeHwDevice@@UAE@XZ @ 11 NONAME ; public: virtual __thiscall CMMFVideoEncodeHwDevice::~CMMFVideoEncodeHwDevice(void)
	??1CMMFVideoPostProcHwDevice@@UAE@XZ @ 12 NONAME ; public: virtual __thiscall CMMFVideoPostProcHwDevice::~CMMFVideoPostProcHwDevice(void)
	??1CMMFVideoPreProcHwDevice@@UAE@XZ @ 13 NONAME ; public: virtual __thiscall CMMFVideoPreProcHwDevice::~CMMFVideoPreProcHwDevice(void)
	??1CPostProcessorInfo@@UAE@XZ @ 14 NONAME ; public: virtual __thiscall CPostProcessorInfo::~CPostProcessorInfo(void)
	??1CPreProcessorInfo@@UAE@XZ @ 15 NONAME ; public: virtual __thiscall CPreProcessorInfo::~CPreProcessorInfo(void)
	??1CSystemClockSource@@UAE@XZ @ 16 NONAME ; public: virtual __thiscall CSystemClockSource::~CSystemClockSource(void)
	??1CVideoDecoderInfo@@UAE@XZ @ 17 NONAME ; public: virtual __thiscall CVideoDecoderInfo::~CVideoDecoderInfo(void)
	??1CVideoEncoderInfo@@UAE@XZ @ 18 NONAME ; public: virtual __thiscall CVideoEncoderInfo::~CVideoEncoderInfo(void)
	??8CCompressedVideoFormat@@QBEHABV0@@Z @ 19 NONAME ; public: int __thiscall CCompressedVideoFormat::operator==(class CCompressedVideoFormat const &)const 
	?AbortDirectScreenAccess@CMMFDevVideoPlay@@QAEXXZ @ 20 NONAME ; public: void __thiscall CMMFDevVideoPlay::AbortDirectScreenAccess(void)
	?Accelerated@CPostProcessorInfo@@QBEHXZ @ 21 NONAME ; public: int __thiscall CPostProcessorInfo::Accelerated(void)const 
	?Accelerated@CPreProcessorInfo@@QBEHXZ @ 22 NONAME ; public: int __thiscall CPreProcessorInfo::Accelerated(void)const 
	?Accelerated@CVideoDecoderInfo@@QBEHXZ @ 23 NONAME ; public: int __thiscall CVideoDecoderInfo::Accelerated(void)const 
	?Accelerated@CVideoEncoderInfo@@QBEHXZ @ 24 NONAME ; public: int __thiscall CVideoEncoderInfo::Accelerated(void)const 
	?AntiAliasedScaling@CPostProcessorInfo@@QBEHXZ @ 25 NONAME ; public: int __thiscall CPostProcessorInfo::AntiAliasedScaling(void)const 
	?CancelSupplementalInfo@CMMFDevVideoRecord@@QAEXXZ @ 26 NONAME ; public: void __thiscall CMMFDevVideoRecord::CancelSupplementalInfo(void)
	?CancelTimedSnapshot@CMMFDevVideoPlay@@QAEXXZ @ 27 NONAME ; public: void __thiscall CMMFDevVideoPlay::CancelTimedSnapshot(void)
	?CodingStandardSpecificInfo@CVideoDecoderInfo@@QBEABVTDesC8@@XZ @ 28 NONAME ; public: class TDesC8 const & __thiscall CVideoDecoderInfo::CodingStandardSpecificInfo(void)const 
	?CodingStandardSpecificInfo@CVideoEncoderInfo@@QBEABVTDesC8@@XZ @ 29 NONAME ; public: class TDesC8 const & __thiscall CVideoEncoderInfo::CodingStandardSpecificInfo(void)const 
	?CodingStandardSpecificInitOutputLC@CMMFDevVideoRecord@@QAEPAVHBufC8@@XZ @ 30 NONAME ; public: class HBufC8 * __thiscall CMMFDevVideoRecord::CodingStandardSpecificInitOutputLC(void)
	?CodingStandardSpecificSettingsOutputLC@CMMFDevVideoRecord@@QAEPAVHBufC8@@XZ @ 31 NONAME ; public: class HBufC8 * __thiscall CMMFDevVideoRecord::CodingStandardSpecificSettingsOutputLC(void)
	?CommitL@CMMFDevVideoPlay@@QAEXXZ @ 32 NONAME ; public: void __thiscall CMMFDevVideoPlay::CommitL(void)
	?CommitL@CMMFDevVideoRecord@@QAEXXZ @ 33 NONAME ; public: void __thiscall CMMFDevVideoRecord::CommitL(void)
	?CustomInterface@CMMFDevVideoPlay@@QAEPAXHVTUid@@@Z @ 34 NONAME ; public: void * __thiscall CMMFDevVideoPlay::CustomInterface(int,class TUid)
	?CustomInterface@CMMFDevVideoRecord@@QAEPAXHVTUid@@@Z @ 35 NONAME ; public: void * __thiscall CMMFDevVideoRecord::CustomInterface(int,class TUid)
	?DecodingPosition@CMMFDevVideoPlay@@QAE?AVTTimeIntervalMicroSeconds@@XZ @ 36 NONAME ; public: class TTimeIntervalMicroSeconds  __thiscall CMMFDevVideoPlay::DecodingPosition(void)
	?FindCommonFormat@CMMFDevVideoPlay@@SAHABV?$TArray@VTUncompressedVideoFormat@@@@0AAVTUncompressedVideoFormat@@@Z @ 37 NONAME ; public: static int __cdecl CMMFDevVideoPlay::FindCommonFormat(class TArray<class TUncompressedVideoFormat> const &,class TArray<class TUncompressedVideoFormat> const &,class TUncompressedVideoFormat &)
	?FindDecodersL@CMMFDevVideoPlay@@QAEXABVTDesC8@@KAAV?$RArray@VTUid@@@@H@Z @ 38 NONAME ; public: void __thiscall CMMFDevVideoPlay::FindDecodersL(class TDesC8 const &,unsigned long,class RArray<class TUid> &,int)
	?FindEncodersL@CMMFDevVideoRecord@@QAEXABVTDesC8@@KAAV?$RArray@VTUid@@@@H@Z @ 39 NONAME ; public: void __thiscall CMMFDevVideoRecord::FindEncodersL(class TDesC8 const &,unsigned long,class RArray<class TUid> &,int)
	?FindPostProcessorsL@CMMFDevVideoPlay@@QAEXKAAV?$RArray@VTUid@@@@@Z @ 40 NONAME ; public: void __thiscall CMMFDevVideoPlay::FindPostProcessorsL(unsigned long,class RArray<class TUid> &)
	?FindPreProcessorsL@CMMFDevVideoRecord@@QAEXKAAV?$RArray@VTUid@@@@@Z @ 41 NONAME ; public: void __thiscall CMMFDevVideoRecord::FindPreProcessorsL(unsigned long,class RArray<class TUid> &)
	?Freeze@CMMFDevVideoRecord@@QAEXXZ @ 42 NONAME ; public: void __thiscall CMMFDevVideoRecord::Freeze(void)
	?FreezePicture@CMMFDevVideoPlay@@QAEXABVTTimeIntervalMicroSeconds@@@Z @ 43 NONAME ; public: void __thiscall CMMFDevVideoPlay::FreezePicture(class TTimeIntervalMicroSeconds const &)
	?GetBitstreamCounters@CMMFDevVideoPlay@@QAEXAAVTBitstreamCounters@1@@Z @ 44 NONAME ; public: void __thiscall CMMFDevVideoPlay::GetBitstreamCounters(class CMMFDevVideoPlay::TBitstreamCounters &)
	?GetBufferL@CMMFDevVideoPlay@@QAEPAVTVideoInputBuffer@@I@Z @ 45 NONAME ; public: class TVideoInputBuffer * __thiscall CMMFDevVideoPlay::GetBufferL(unsigned int)
	?GetBufferOptions@CMMFDevVideoPlay@@QAEXAAVTBufferOptions@1@@Z @ 46 NONAME ; public: void __thiscall CMMFDevVideoPlay::GetBufferOptions(class CMMFDevVideoPlay::TBufferOptions &)
	?GetComplexityLevelInfo@CMMFDevVideoPlay@@QAEXHIAAVTComplexityLevelInfo@1@@Z @ 47 NONAME ; public: void __thiscall CMMFDevVideoPlay::GetComplexityLevelInfo(int,unsigned int,class CMMFDevVideoPlay::TComplexityLevelInfo &)
	?GetDecoderListL@CMMFDevVideoPlay@@QAEXAAV?$RArray@VTUid@@@@@Z @ 48 NONAME ; public: void __thiscall CMMFDevVideoPlay::GetDecoderListL(class RArray<class TUid> &)
	?GetEncoderListL@CMMFDevVideoRecord@@QAEXAAV?$RArray@VTUid@@@@@Z @ 49 NONAME ; public: void __thiscall CMMFDevVideoRecord::GetEncoderListL(class RArray<class TUid> &)
	?GetFrameStabilisationOutput@CMMFDevVideoRecord@@QAEXHAAVTRect@@@Z @ 50 NONAME ; public: void __thiscall CMMFDevVideoRecord::GetFrameStabilisationOutput(int,class TRect &)
	?GetHeaderInformationL@CMMFDevVideoPlay@@QAEPAVTVideoPictureHeader@@W4TVideoDataUnitType@@W4TVideoDataUnitEncapsulation@@PAVTVideoInputBuffer@@@Z @ 51 NONAME ; public: class TVideoPictureHeader * __thiscall CMMFDevVideoPlay::GetHeaderInformationL(enum TVideoDataUnitType,enum TVideoDataUnitEncapsulation,class TVideoInputBuffer *)
	?GetNewPictureInfo@CMMFDevVideoPlay@@QAEXAAIAAVTTimeIntervalMicroSeconds@@1@Z @ 52 NONAME ; public: void __thiscall CMMFDevVideoPlay::GetNewPictureInfo(unsigned int &,class TTimeIntervalMicroSeconds &,class TTimeIntervalMicroSeconds &)
	?GetOutputBufferStatus@CMMFDevVideoRecord@@QAEXAAI0@Z @ 53 NONAME ; public: void __thiscall CMMFDevVideoRecord::GetOutputBufferStatus(unsigned int &,unsigned int &)
	?GetOutputFormatListL@CMMFDevVideoPlay@@QAEXHAAV?$RArray@VTUncompressedVideoFormat@@@@@Z @ 54 NONAME ; public: void __thiscall CMMFDevVideoPlay::GetOutputFormatListL(int,class RArray<class TUncompressedVideoFormat> &)
	?GetPictureCounters@CMMFDevVideoPlay@@QAEXAAVTPictureCounters@1@@Z @ 55 NONAME ; public: void __thiscall CMMFDevVideoPlay::GetPictureCounters(class CMMFDevVideoPlay::TPictureCounters &)
	?GetPictureCounters@CMMFDevVideoRecord@@QAEXAAVTPictureCounters@1@@Z @ 56 NONAME ; public: void __thiscall CMMFDevVideoRecord::GetPictureCounters(class CMMFDevVideoRecord::TPictureCounters &)
	?GetPostProcessorListL@CMMFDevVideoPlay@@QAEXAAV?$RArray@VTUid@@@@@Z @ 57 NONAME ; public: void __thiscall CMMFDevVideoPlay::GetPostProcessorListL(class RArray<class TUid> &)
	?GetPreProcessorListL@CMMFDevVideoRecord@@QAEXAAV?$RArray@VTUid@@@@@Z @ 58 NONAME ; public: void __thiscall CMMFDevVideoRecord::GetPreProcessorListL(class RArray<class TUid> &)
	?GetSnapshotL@CMMFDevVideoPlay@@QAEHAAVTPictureData@@ABVTUncompressedVideoFormat@@@Z @ 59 NONAME ; public: int __thiscall CMMFDevVideoPlay::GetSnapshotL(class TPictureData &,class TUncompressedVideoFormat const &)
	?GetSupportedSnapshotFormatsL@CMMFDevVideoPlay@@QAEXAAV?$RArray@VTUncompressedVideoFormat@@@@@Z @ 60 NONAME ; public: void __thiscall CMMFDevVideoPlay::GetSupportedSnapshotFormatsL(class RArray<class TUncompressedVideoFormat> &)
	?GetTimedSnapshotL@CMMFDevVideoPlay@@QAEXPAVTPictureData@@ABVTUncompressedVideoFormat@@ABVTPictureId@@@Z @ 61 NONAME ; public: void __thiscall CMMFDevVideoPlay::GetTimedSnapshotL(class TPictureData *,class TUncompressedVideoFormat const &,class TPictureId const &)
	?GetTimedSnapshotL@CMMFDevVideoPlay@@QAEXPAVTPictureData@@ABVTUncompressedVideoFormat@@ABVTTimeIntervalMicroSeconds@@@Z @ 62 NONAME ; public: void __thiscall CMMFDevVideoPlay::GetTimedSnapshotL(class TPictureData *,class TUncompressedVideoFormat const &,class TTimeIntervalMicroSeconds const &)
	?Identifier@CPostProcessorInfo@@QBEABVTDesC16@@XZ @ 63 NONAME ; public: class TDesC16 const & __thiscall CPostProcessorInfo::Identifier(void)const 
	?Identifier@CPreProcessorInfo@@QBEABVTDesC16@@XZ @ 64 NONAME ; public: class TDesC16 const & __thiscall CPreProcessorInfo::Identifier(void)const 
	?Identifier@CVideoDecoderInfo@@QBEABVTDesC16@@XZ @ 65 NONAME ; public: class TDesC16 const & __thiscall CVideoDecoderInfo::Identifier(void)const 
	?Identifier@CVideoEncoderInfo@@QBEABVTDesC16@@XZ @ 66 NONAME ; public: class TDesC16 const & __thiscall CVideoEncoderInfo::Identifier(void)const 
	?ImplementationSpecificInfo@CPostProcessorInfo@@QBEABVTDesC8@@XZ @ 67 NONAME ; public: class TDesC8 const & __thiscall CPostProcessorInfo::ImplementationSpecificInfo(void)const 
	?ImplementationSpecificInfo@CPreProcessorInfo@@QBEABVTDesC8@@XZ @ 68 NONAME ; public: class TDesC8 const & __thiscall CPreProcessorInfo::ImplementationSpecificInfo(void)const 
	?ImplementationSpecificInfo@CVideoDecoderInfo@@QBEABVTDesC8@@XZ @ 69 NONAME ; public: class TDesC8 const & __thiscall CVideoDecoderInfo::ImplementationSpecificInfo(void)const 
	?ImplementationSpecificInfo@CVideoEncoderInfo@@QBEABVTDesC8@@XZ @ 70 NONAME ; public: class TDesC8 const & __thiscall CVideoEncoderInfo::ImplementationSpecificInfo(void)const 
	?ImplementationSpecificInitOutputLC@CMMFDevVideoRecord@@QAEPAVHBufC8@@XZ @ 71 NONAME ; public: class HBufC8 * __thiscall CMMFDevVideoRecord::ImplementationSpecificInitOutputLC(void)
	?ImplementationSpecificSettingsOutputLC@CMMFDevVideoRecord@@QAEPAVHBufC8@@XZ @ 72 NONAME ; public: class HBufC8 * __thiscall CMMFDevVideoRecord::ImplementationSpecificSettingsOutputLC(void)
	?Initialize@CMMFDevVideoPlay@@QAEXXZ @ 73 NONAME ; public: void __thiscall CMMFDevVideoPlay::Initialize(void)
	?Initialize@CMMFDevVideoRecord@@QAEXXZ @ 74 NONAME ; public: void __thiscall CMMFDevVideoRecord::Initialize(void)
	?InputEnd@CMMFDevVideoPlay@@QAEXXZ @ 75 NONAME ; public: void __thiscall CMMFDevVideoPlay::InputEnd(void)
	?InputEnd@CMMFDevVideoRecord@@QAEXXZ @ 76 NONAME ; public: void __thiscall CMMFDevVideoRecord::InputEnd(void)
	?IsPlaying@CMMFDevVideoPlay@@QAEHXZ @ 77 NONAME ; public: int __thiscall CMMFDevVideoPlay::IsPlaying(void)
	?Manufacturer@CPostProcessorInfo@@QBEABVTDesC16@@XZ @ 78 NONAME ; public: class TDesC16 const & __thiscall CPostProcessorInfo::Manufacturer(void)const 
	?Manufacturer@CPreProcessorInfo@@QBEABVTDesC16@@XZ @ 79 NONAME ; public: class TDesC16 const & __thiscall CPreProcessorInfo::Manufacturer(void)const 
	?Manufacturer@CVideoDecoderInfo@@QBEABVTDesC16@@XZ @ 80 NONAME ; public: class TDesC16 const & __thiscall CVideoDecoderInfo::Manufacturer(void)const 
	?Manufacturer@CVideoEncoderInfo@@QBEABVTDesC16@@XZ @ 81 NONAME ; public: class TDesC16 const & __thiscall CVideoEncoderInfo::Manufacturer(void)const 
	?MaxBitrate@CVideoDecoderInfo@@QBEIXZ @ 82 NONAME ; public: unsigned int __thiscall CVideoDecoderInfo::MaxBitrate(void)const 
	?MaxBitrate@CVideoEncoderInfo@@QBEIXZ @ 83 NONAME ; public: unsigned int __thiscall CVideoEncoderInfo::MaxBitrate(void)const 
	?MaxBitrateLayers@CVideoEncoderInfo@@QBEIXZ @ 84 NONAME ; public: unsigned int __thiscall CVideoEncoderInfo::MaxBitrateLayers(void)const 
	?MaxInLayerScalabilitySteps@CVideoEncoderInfo@@QBEIXZ @ 85 NONAME ; public: unsigned int __thiscall CVideoEncoderInfo::MaxInLayerScalabilitySteps(void)const 
	?MaxPictureRates@CVideoDecoderInfo@@QBEABV?$RArray@VTPictureRateAndSize@@@@XZ @ 86 NONAME ; public: class RArray<class TPictureRateAndSize> const & __thiscall CVideoDecoderInfo::MaxPictureRates(void)const 
	?MaxPictureRates@CVideoEncoderInfo@@QBEABV?$RArray@VTPictureRateAndSize@@@@XZ @ 87 NONAME ; public: class RArray<class TPictureRateAndSize> const & __thiscall CVideoEncoderInfo::MaxPictureRates(void)const 
	?MaxPictureSize@CVideoDecoderInfo@@QBEABVTSize@@XZ @ 88 NONAME ; public: class TSize const & __thiscall CVideoDecoderInfo::MaxPictureSize(void)const 
	?MaxPictureSize@CVideoEncoderInfo@@QBEABVTSize@@XZ @ 89 NONAME ; public: class TSize const & __thiscall CVideoEncoderInfo::MaxPictureSize(void)const 
	?MaxUnequalErrorProtectionLevels@CVideoEncoderInfo@@QBEIXZ @ 90 NONAME ; public: unsigned int __thiscall CVideoEncoderInfo::MaxUnequalErrorProtectionLevels(void)const 
	?MimeType@CCompressedVideoFormat@@QBEABVTDesC8@@XZ @ 91 NONAME ; public: class TDesC8 const & __thiscall CCompressedVideoFormat::MimeType(void)const 
	?NewL@CCompressedVideoFormat@@SAPAV1@ABV1@@Z @ 92 NONAME ; public: static class CCompressedVideoFormat * __cdecl CCompressedVideoFormat::NewL(class CCompressedVideoFormat const &)
	?NewL@CCompressedVideoFormat@@SAPAV1@ABVTDesC8@@0@Z @ 93 NONAME ; public: static class CCompressedVideoFormat * __cdecl CCompressedVideoFormat::NewL(class TDesC8 const &,class TDesC8 const &)
	?NewL@CMMFClockSourcePeriodicUtility@@SAPAV1@AAVMMMFClockSource@@AAVMMMFClockSourcePeriodicUtilityObserver@@@Z @ 94 NONAME ; public: static class CMMFClockSourcePeriodicUtility * __cdecl CMMFClockSourcePeriodicUtility::NewL(class MMMFClockSource &,class MMMFClockSourcePeriodicUtilityObserver &)
	?NewL@CMMFDevVideoPlay@@SAPAV1@AAVMMMFDevVideoPlayObserver@@@Z @ 95 NONAME ; public: static class CMMFDevVideoPlay * __cdecl CMMFDevVideoPlay::NewL(class MMMFDevVideoPlayObserver &)
	?NewL@CMMFDevVideoRecord@@SAPAV1@AAVMMMFDevVideoRecordObserver@@@Z @ 96 NONAME ; public: static class CMMFDevVideoRecord * __cdecl CMMFDevVideoRecord::NewL(class MMMFDevVideoRecordObserver &)
	?NewL@CMMFVideoDecodeHwDevice@@SAPAV1@VTUid@@AAVMMMFDevVideoPlayProxy@@@Z @ 97 NONAME ; public: static class CMMFVideoDecodeHwDevice * __cdecl CMMFVideoDecodeHwDevice::NewL(class TUid,class MMMFDevVideoPlayProxy &)
	?NewL@CMMFVideoEncodeHwDevice@@SAPAV1@VTUid@@AAVMMMFDevVideoRecordProxy@@@Z @ 98 NONAME ; public: static class CMMFVideoEncodeHwDevice * __cdecl CMMFVideoEncodeHwDevice::NewL(class TUid,class MMMFDevVideoRecordProxy &)
	?NewL@CMMFVideoPostProcHwDevice@@SAPAV1@VTUid@@AAVMMMFDevVideoPlayProxy@@@Z @ 99 NONAME ; public: static class CMMFVideoPostProcHwDevice * __cdecl CMMFVideoPostProcHwDevice::NewL(class TUid,class MMMFDevVideoPlayProxy &)
	?NewL@CMMFVideoPreProcHwDevice@@SAPAV1@VTUid@@AAVMMMFDevVideoRecordProxy@@@Z @ 100 NONAME ; public: static class CMMFVideoPreProcHwDevice * __cdecl CMMFVideoPreProcHwDevice::NewL(class TUid,class MMMFDevVideoRecordProxy &)
	?NewL@CPostProcessorInfo@@SAPAV1@VTUid@@ABVTDesC16@@1VTVersion@@ABV?$TArray@VTUncompressedVideoFormat@@@@ABV?$TArray@K@@HHABVTYuvToRgbCapabilities@@KHABV?$TArray@VTScaleFactor@@@@HABVTDesC8@@@Z @ 101 NONAME ; public: static class CPostProcessorInfo * __cdecl CPostProcessorInfo::NewL(class TUid,class TDesC16 const &,class TDesC16 const &,class TVersion,class TArray<class TUncompressedVideoFormat> const &,class TArray<unsigned long> const &,int,int,class TYuvToRgbCapabilities const &,unsigned long,int,class TArray<class TScaleFactor> const &,int,class TDesC8 const &)
	?NewL@CPreProcessorInfo@@SAPAV1@VTUid@@ABVTDesC16@@1VTVersion@@HHABV?$TArray@VTUncompressedVideoFormat@@@@3ABV?$TArray@K@@HHABV?$TArray@VTScaleFactor@@@@ABVTYuvToYuvCapabilities@@KKABVTDesC8@@@Z @ 102 NONAME ; public: static class CPreProcessorInfo * __cdecl CPreProcessorInfo::NewL(class TUid,class TDesC16 const &,class TDesC16 const &,class TVersion,int,int,class TArray<class TUncompressedVideoFormat> const &,class TArray<class TUncompressedVideoFormat> const &,class TArray<unsigned long> const &,int,int,class TArray<class TScaleFactor> const &,class TYuvToYuvCapabilities const &,unsigned long,unsigned long,class TDesC8 const &)
	?NewL@CSystemClockSource@@SAPAV1@XZ @ 103 NONAME ; public: static class CSystemClockSource * __cdecl CSystemClockSource::NewL(void)
	?NewL@CVideoDecoderInfo@@SAPAV1@VTUid@@ABVTDesC16@@1VTVersion@@ABV?$TArray@PAVCCompressedVideoFormat@@@@HHABVTSize@@IABV?$TArray@VTPictureRateAndSize@@@@HHABVTDesC8@@6@Z @ 104 NONAME ; public: static class CVideoDecoderInfo * __cdecl CVideoDecoderInfo::NewL(class TUid,class TDesC16 const &,class TDesC16 const &,class TVersion,class TArray<class CCompressedVideoFormat *> const &,int,int,class TSize const &,unsigned int,class TArray<class TPictureRateAndSize> const &,int,int,class TDesC8 const &,class TDesC8 const &)
	?NewL@CVideoEncoderInfo@@SAPAV1@VTUid@@ABVTDesC16@@1VTVersion@@HHABV?$TArray@VTUncompressedVideoFormat@@@@ABV?$TArray@PAVCCompressedVideoFormat@@@@ABVTSize@@KKIHIIABV?$TArray@VTPictureRateAndSize@@@@IKHHABVTDesC8@@7@Z @ 105 NONAME ; public: static class CVideoEncoderInfo * __cdecl CVideoEncoderInfo::NewL(class TUid,class TDesC16 const &,class TDesC16 const &,class TVersion,int,int,class TArray<class TUncompressedVideoFormat> const &,class TArray<class CCompressedVideoFormat *> const &,class TSize const &,unsigned long,unsigned long,unsigned int,int,unsigned int,unsigned int,class TArray<class TPictureRateAndSize> const &,unsigned int,unsigned long,int,int,class TDesC8 const &,class TDesC8 const &)
	?NextBufferL@CMMFDevVideoRecord@@QAEPAVTVideoOutputBuffer@@XZ @ 106 NONAME ; public: class TVideoOutputBuffer * __thiscall CMMFDevVideoRecord::NextBufferL(void)
	?NextPictureL@CMMFDevVideoPlay@@QAEPAVTVideoPicture@@XZ @ 107 NONAME ; public: class TVideoPicture * __thiscall CMMFDevVideoPlay::NextPictureL(void)
	?NumComplexityLevels@CMMFDevVideoPlay@@QAEIH@Z @ 108 NONAME ; public: unsigned int __thiscall CMMFDevVideoPlay::NumComplexityLevels(int)
	?NumComplexityLevels@CMMFDevVideoRecord@@QAEIH@Z @ 109 NONAME ; public: unsigned int __thiscall CMMFDevVideoRecord::NumComplexityLevels(int)
	?NumDataBuffers@CMMFDevVideoRecord@@QAEIXZ @ 110 NONAME ; public: unsigned int __thiscall CMMFDevVideoRecord::NumDataBuffers(void)
	?NumFreeBuffers@CMMFDevVideoPlay@@QAEIXZ @ 111 NONAME ; public: unsigned int __thiscall CMMFDevVideoPlay::NumFreeBuffers(void)
	?OptionalData@CCompressedVideoFormat@@QBEABVTDesC8@@XZ @ 112 NONAME ; public: class TDesC8 const & __thiscall CCompressedVideoFormat::OptionalData(void)const 
	?Pause@CMMFDevVideoPlay@@QAEXXZ @ 113 NONAME ; public: void __thiscall CMMFDevVideoPlay::Pause(void)
	?Pause@CMMFDevVideoRecord@@QAEXXZ @ 114 NONAME ; public: void __thiscall CMMFDevVideoRecord::Pause(void)
	?PictureBufferBytes@CMMFDevVideoPlay@@QAEIXZ @ 115 NONAME ; public: unsigned int __thiscall CMMFDevVideoPlay::PictureBufferBytes(void)
	?PictureLoss@CMMFDevVideoRecord@@QAEXABV?$TArray@VTPictureId@@@@@Z @ 116 NONAME ; public: void __thiscall CMMFDevVideoRecord::PictureLoss(class TArray<class TPictureId> const &)
	?PictureLoss@CMMFDevVideoRecord@@QAEXXZ @ 117 NONAME ; public: void __thiscall CMMFDevVideoRecord::PictureLoss(void)
	?PlaybackPosition@CMMFDevVideoPlay@@QAE?AVTTimeIntervalMicroSeconds@@XZ @ 118 NONAME ; public: class TTimeIntervalMicroSeconds  __thiscall CMMFDevVideoPlay::PlaybackPosition(void)
	?PostProcessorInfoLC@CMMFDevVideoPlay@@QAEPAVCPostProcessorInfo@@VTUid@@@Z @ 119 NONAME ; public: class CPostProcessorInfo * __thiscall CMMFDevVideoPlay::PostProcessorInfoLC(class TUid)
	?PreDecoderBufferBytes@CMMFDevVideoPlay@@QAEIXZ @ 120 NONAME ; public: unsigned int __thiscall CMMFDevVideoPlay::PreDecoderBufferBytes(void)
	?PreProcessorInfoLC@CMMFDevVideoRecord@@QAEPAVCPreProcessorInfo@@VTUid@@@Z @ 121 NONAME ; public: class CPreProcessorInfo * __thiscall CMMFDevVideoRecord::PreProcessorInfoLC(class TUid)
	?RecordingPosition@CMMFDevVideoRecord@@QAE?AVTTimeIntervalMicroSeconds@@XZ @ 122 NONAME ; public: class TTimeIntervalMicroSeconds  __thiscall CMMFDevVideoRecord::RecordingPosition(void)
	?Redraw@CMMFDevVideoPlay@@QAEXXZ @ 123 NONAME ; public: void __thiscall CMMFDevVideoPlay::Redraw(void)
	?ReferencePictureSelection@CMMFDevVideoRecord@@QAEXABVTDesC8@@@Z @ 124 NONAME ; public: void __thiscall CMMFDevVideoRecord::ReferencePictureSelection(class TDesC8 const &)
	?ReleaseFreeze@CMMFDevVideoPlay@@QAEXABVTTimeIntervalMicroSeconds@@@Z @ 125 NONAME ; public: void __thiscall CMMFDevVideoPlay::ReleaseFreeze(class TTimeIntervalMicroSeconds const &)
	?ReleaseFreeze@CMMFDevVideoRecord@@QAEXXZ @ 126 NONAME ; public: void __thiscall CMMFDevVideoRecord::ReleaseFreeze(void)
	?Reset@CSystemClockSource@@QAEXABVTTimeIntervalMicroSeconds@@@Z @ 127 NONAME ; public: void __thiscall CSystemClockSource::Reset(class TTimeIntervalMicroSeconds const &)
	?Reset@CSystemClockSource@@QAEXXZ @ 128 NONAME ; public: void __thiscall CSystemClockSource::Reset(void)
	?Resume@CMMFDevVideoPlay@@QAEXXZ @ 129 NONAME ; public: void __thiscall CMMFDevVideoPlay::Resume(void)
	?Resume@CMMFDevVideoRecord@@QAEXXZ @ 130 NONAME ; public: void __thiscall CMMFDevVideoRecord::Resume(void)
	?Resume@CSystemClockSource@@QAEXXZ @ 131 NONAME ; public: void __thiscall CSystemClockSource::Resume(void)
	?ReturnBuffer@CMMFDevVideoRecord@@QAEXPAVTVideoOutputBuffer@@@Z @ 132 NONAME ; public: void __thiscall CMMFDevVideoRecord::ReturnBuffer(class TVideoOutputBuffer *)
	?ReturnHeader@CMMFDevVideoPlay@@QAEXPAVTVideoPictureHeader@@@Z @ 133 NONAME ; public: void __thiscall CMMFDevVideoPlay::ReturnHeader(class TVideoPictureHeader *)
	?ReturnPicture@CMMFDevVideoPlay@@QAEXPAVTVideoPicture@@@Z @ 134 NONAME ; public: void __thiscall CMMFDevVideoPlay::ReturnPicture(class TVideoPicture *)
	?Revert@CMMFDevVideoPlay@@QAEXXZ @ 135 NONAME ; public: void __thiscall CMMFDevVideoPlay::Revert(void)
	?Revert@CMMFDevVideoRecord@@QAEXXZ @ 136 NONAME ; public: void __thiscall CMMFDevVideoRecord::Revert(void)
	?SelectDecoderL@CMMFDevVideoPlay@@QAEHVTUid@@@Z @ 137 NONAME ; public: int __thiscall CMMFDevVideoPlay::SelectDecoderL(class TUid)
	?SelectEncoderL@CMMFDevVideoRecord@@QAEHVTUid@@@Z @ 138 NONAME ; public: int __thiscall CMMFDevVideoRecord::SelectEncoderL(class TUid)
	?SelectPostProcessorL@CMMFDevVideoPlay@@QAEHVTUid@@@Z @ 139 NONAME ; public: int __thiscall CMMFDevVideoPlay::SelectPostProcessorL(class TUid)
	?SelectPreProcessorL@CMMFDevVideoRecord@@QAEHVTUid@@@Z @ 140 NONAME ; public: int __thiscall CMMFDevVideoRecord::SelectPreProcessorL(class TUid)
	?SendSupplementalInfoL@CMMFDevVideoRecord@@QAEXABVTDesC8@@@Z @ 141 NONAME ; public: void __thiscall CMMFDevVideoRecord::SendSupplementalInfoL(class TDesC8 const &)
	?SendSupplementalInfoL@CMMFDevVideoRecord@@QAEXABVTDesC8@@ABVTTimeIntervalMicroSeconds@@@Z @ 142 NONAME ; public: void __thiscall CMMFDevVideoRecord::SendSupplementalInfoL(class TDesC8 const &,class TTimeIntervalMicroSeconds const &)
	?SetBufferOptionsL@CMMFDevVideoPlay@@QAEXABVTBufferOptions@1@@Z @ 143 NONAME ; public: void __thiscall CMMFDevVideoPlay::SetBufferOptionsL(class CMMFDevVideoPlay::TBufferOptions const &)
	?SetBufferOptionsL@CMMFDevVideoRecord@@QAEXABVTEncoderBufferOptions@@@Z @ 144 NONAME ; public: void __thiscall CMMFDevVideoRecord::SetBufferOptionsL(class TEncoderBufferOptions const &)
	?SetChannelBitErrorRate@CMMFDevVideoRecord@@QAEXINN@Z @ 145 NONAME ; public: void __thiscall CMMFDevVideoRecord::SetChannelBitErrorRate(unsigned int,double,double)
	?SetChannelPacketLossRate@CMMFDevVideoRecord@@QAEXINVTTimeIntervalMicroSeconds32@@@Z @ 146 NONAME ; public: void __thiscall CMMFDevVideoRecord::SetChannelPacketLossRate(unsigned int,double,class TTimeIntervalMicroSeconds32)
	?SetClockSource@CMMFDevVideoPlay@@QAEXPAVMMMFClockSource@@@Z @ 147 NONAME ; public: void __thiscall CMMFDevVideoPlay::SetClockSource(class MMMFClockSource *)
	?SetClockSource@CMMFDevVideoRecord@@QAEXPAVMMMFClockSource@@@Z @ 148 NONAME ; public: void __thiscall CMMFDevVideoRecord::SetClockSource(class MMMFClockSource *)
	?SetCodingStandardSpecificOptionsL@CMMFDevVideoRecord@@QAEXABVTDesC8@@@Z @ 149 NONAME ; public: void __thiscall CMMFDevVideoRecord::SetCodingStandardSpecificOptionsL(class TDesC8 const &)
	?SetColorEnhancementOptionsL@CMMFDevVideoRecord@@QAEXHABVTColorEnhancementOptions@@@Z @ 150 NONAME ; public: void __thiscall CMMFDevVideoRecord::SetColorEnhancementOptionsL(int,class TColorEnhancementOptions const &)
	?SetComplexityLevel@CMMFDevVideoPlay@@QAEXHI@Z @ 151 NONAME ; public: void __thiscall CMMFDevVideoPlay::SetComplexityLevel(int,unsigned int)
	?SetComplexityLevel@CMMFDevVideoRecord@@QAEXHI@Z @ 152 NONAME ; public: void __thiscall CMMFDevVideoRecord::SetComplexityLevel(int,unsigned int)
	?SetCustomPreProcessOptionsL@CMMFDevVideoRecord@@QAEXHABVTDesC8@@@Z @ 153 NONAME ; public: void __thiscall CMMFDevVideoRecord::SetCustomPreProcessOptionsL(int,class TDesC8 const &)
	?SetErrorProtectionLevelL@CMMFDevVideoRecord@@QAEXIII@Z @ 154 NONAME ; public: void __thiscall CMMFDevVideoRecord::SetErrorProtectionLevelL(unsigned int,unsigned int,unsigned int)
	?SetErrorProtectionLevelsL@CMMFDevVideoRecord@@QAEXIH@Z @ 155 NONAME ; public: void __thiscall CMMFDevVideoRecord::SetErrorProtectionLevelsL(unsigned int,int)
	?SetErrorsExpected@CMMFDevVideoRecord@@QAEXHH@Z @ 156 NONAME ; public: void __thiscall CMMFDevVideoRecord::SetErrorsExpected(int,int)
	?SetFrameStabilisationOptionsL@CMMFDevVideoRecord@@QAEXHABVTSize@@H@Z @ 157 NONAME ; public: void __thiscall CMMFDevVideoRecord::SetFrameStabilisationOptionsL(int,class TSize const &,int)
	?SetGlobalReferenceOptions@CMMFDevVideoRecord@@QAEXII@Z @ 158 NONAME ; public: void __thiscall CMMFDevVideoRecord::SetGlobalReferenceOptions(unsigned int,unsigned int)
	?SetHrdVbvSpec@CMMFDevVideoPlay@@QAEXW4THrdVbvSpecification@@ABVTDesC8@@@Z @ 159 NONAME ; public: void __thiscall CMMFDevVideoPlay::SetHrdVbvSpec(enum THrdVbvSpecification,class TDesC8 const &)
	?SetImplementationSpecificEncoderOptionsL@CMMFDevVideoRecord@@QAEXABVTDesC8@@@Z @ 160 NONAME ; public: void __thiscall CMMFDevVideoRecord::SetImplementationSpecificEncoderOptionsL(class TDesC8 const &)
	?SetInLayerScalabilityL@CMMFDevVideoRecord@@QAEXIIW4TInLayerScalabilityType@@ABV?$TArray@I@@1@Z @ 161 NONAME ; public: void __thiscall CMMFDevVideoRecord::SetInLayerScalabilityL(unsigned int,unsigned int,enum TInLayerScalabilityType,class TArray<unsigned int> const &,class TArray<unsigned int> const &)
	?SetInputCropOptionsL@CMMFDevVideoPlay@@QAEXHABVTRect@@@Z @ 162 NONAME ; public: void __thiscall CMMFDevVideoPlay::SetInputCropOptionsL(int,class TRect const &)
	?SetInputCropOptionsL@CMMFDevVideoRecord@@QAEXHABVTRect@@@Z @ 163 NONAME ; public: void __thiscall CMMFDevVideoRecord::SetInputCropOptionsL(int,class TRect const &)
	?SetInputFormatL@CMMFDevVideoPlay@@QAEXHABVCCompressedVideoFormat@@W4TVideoDataUnitType@@W4TVideoDataUnitEncapsulation@@H@Z @ 164 NONAME ; public: void __thiscall CMMFDevVideoPlay::SetInputFormatL(int,class CCompressedVideoFormat const &,enum TVideoDataUnitType,enum TVideoDataUnitEncapsulation,int)
	?SetInputFormatL@CMMFDevVideoPlay@@QAEXHABVTUncompressedVideoFormat@@@Z @ 165 NONAME ; public: void __thiscall CMMFDevVideoPlay::SetInputFormatL(int,class TUncompressedVideoFormat const &)
	?SetInputFormatL@CMMFDevVideoRecord@@QAEXHABVTUncompressedVideoFormat@@ABVTSize@@@Z @ 166 NONAME ; public: void __thiscall CMMFDevVideoRecord::SetInputFormatL(int,class TUncompressedVideoFormat const &,class TSize const &)
	?SetLayerPromotionPointPeriod@CMMFDevVideoRecord@@QAEXII@Z @ 167 NONAME ; public: void __thiscall CMMFDevVideoRecord::SetLayerPromotionPointPeriod(unsigned int,unsigned int)
	?SetLayerReferenceOptions@CMMFDevVideoRecord@@QAEXIII@Z @ 168 NONAME ; public: void __thiscall CMMFDevVideoRecord::SetLayerReferenceOptions(unsigned int,unsigned int,unsigned int)
	?SetMinRandomAccessRate@CMMFDevVideoRecord@@QAEXN@Z @ 169 NONAME ; public: void __thiscall CMMFDevVideoRecord::SetMinRandomAccessRate(double)
	?SetNumBitrateLayersL@CMMFDevVideoRecord@@QAEXI@Z @ 170 NONAME ; public: void __thiscall CMMFDevVideoRecord::SetNumBitrateLayersL(unsigned int)
	?SetOutputCropOptionsL@CMMFDevVideoPlay@@QAEXHABVTRect@@@Z @ 171 NONAME ; public: void __thiscall CMMFDevVideoPlay::SetOutputCropOptionsL(int,class TRect const &)
	?SetOutputCropOptionsL@CMMFDevVideoRecord@@QAEXHABVTRect@@@Z @ 172 NONAME ; public: void __thiscall CMMFDevVideoRecord::SetOutputCropOptionsL(int,class TRect const &)
	?SetOutputFormatL@CMMFDevVideoPlay@@QAEXHABVTUncompressedVideoFormat@@@Z @ 173 NONAME ; public: void __thiscall CMMFDevVideoPlay::SetOutputFormatL(int,class TUncompressedVideoFormat const &)
	?SetOutputFormatL@CMMFDevVideoRecord@@QAEXHABVCCompressedVideoFormat@@W4TVideoDataUnitType@@W4TVideoDataUnitEncapsulation@@H@Z @ 174 NONAME ; public: void __thiscall CMMFDevVideoRecord::SetOutputFormatL(int,class CCompressedVideoFormat const &,enum TVideoDataUnitType,enum TVideoDataUnitEncapsulation,int)
	?SetOutputFormatL@CMMFDevVideoRecord@@QAEXHABVTUncompressedVideoFormat@@@Z @ 175 NONAME ; public: void __thiscall CMMFDevVideoRecord::SetOutputFormatL(int,class TUncompressedVideoFormat const &)
	?SetOutputPadOptionsL@CMMFDevVideoRecord@@QAEXHABVTSize@@ABVTPoint@@@Z @ 176 NONAME ; public: void __thiscall CMMFDevVideoRecord::SetOutputPadOptionsL(int,class TSize const &,class TPoint const &)
	?SetOutputRectL@CMMFDevVideoRecord@@QAEXHABVTRect@@@Z @ 177 NONAME ; public: void __thiscall CMMFDevVideoRecord::SetOutputRectL(int,class TRect const &)
	?SetPauseOnClipFail@CMMFDevVideoPlay@@QAEXH@Z @ 178 NONAME ; public: void __thiscall CMMFDevVideoPlay::SetPauseOnClipFail(int)
	?SetPosition@CMMFDevVideoPlay@@QAEXABVTTimeIntervalMicroSeconds@@@Z @ 179 NONAME ; public: void __thiscall CMMFDevVideoPlay::SetPosition(class TTimeIntervalMicroSeconds const &)
	?SetPostProcSpecificOptionsL@CMMFDevVideoPlay@@QAEXHABVTDesC8@@@Z @ 180 NONAME ; public: void __thiscall CMMFDevVideoPlay::SetPostProcSpecificOptionsL(int,class TDesC8 const &)
	?SetPostProcessTypesL@CMMFDevVideoPlay@@QAEXHK@Z @ 181 NONAME ; public: void __thiscall CMMFDevVideoPlay::SetPostProcessTypesL(int,unsigned long)
	?SetPreProcessTypesL@CMMFDevVideoRecord@@QAEXHK@Z @ 182 NONAME ; public: void __thiscall CMMFDevVideoRecord::SetPreProcessTypesL(int,unsigned long)
	?SetRateControlOptions@CMMFDevVideoRecord@@QAEXIABVTRateControlOptions@@@Z @ 183 NONAME ; public: void __thiscall CMMFDevVideoRecord::SetRateControlOptions(unsigned int,class TRateControlOptions const &)
	?SetRgbToYuvOptionsL@CMMFDevVideoRecord@@QAEXHW4TRgbRange@@ABVTYuvFormat@@@Z @ 184 NONAME ; public: void __thiscall CMMFDevVideoRecord::SetRgbToYuvOptionsL(int,enum TRgbRange,class TYuvFormat const &)
	?SetRotateOptionsL@CMMFDevVideoPlay@@QAEXHW4TRotationType@@@Z @ 185 NONAME ; public: void __thiscall CMMFDevVideoPlay::SetRotateOptionsL(int,enum TRotationType)
	?SetRotateOptionsL@CMMFDevVideoRecord@@QAEXHW4TRotationType@@@Z @ 186 NONAME ; public: void __thiscall CMMFDevVideoRecord::SetRotateOptionsL(int,enum TRotationType)
	?SetScalabilityLayerTypeL@CMMFDevVideoRecord@@QAEXIW4TScalabilityType@@@Z @ 187 NONAME ; public: void __thiscall CMMFDevVideoRecord::SetScalabilityLayerTypeL(unsigned int,enum TScalabilityType)
	?SetScaleOptionsL@CMMFDevVideoPlay@@QAEXHABVTSize@@H@Z @ 188 NONAME ; public: void __thiscall CMMFDevVideoPlay::SetScaleOptionsL(int,class TSize const &,int)
	?SetScaleOptionsL@CMMFDevVideoRecord@@QAEXHABVTSize@@H@Z @ 189 NONAME ; public: void __thiscall CMMFDevVideoRecord::SetScaleOptionsL(int,class TSize const &,int)
	?SetScreenClipRegion@CMMFDevVideoPlay@@QAEXABVTRegion@@@Z @ 190 NONAME ; public: void __thiscall CMMFDevVideoPlay::SetScreenClipRegion(class TRegion const &)
	?SetSegmentTargetSize@CMMFDevVideoRecord@@QAEXIII@Z @ 191 NONAME ; public: void __thiscall CMMFDevVideoRecord::SetSegmentTargetSize(unsigned int,unsigned int,unsigned int)
	?SetSourceCameraL@CMMFDevVideoRecord@@QAEXHN@Z @ 192 NONAME ; public: void __thiscall CMMFDevVideoRecord::SetSourceCameraL(int,double)
	?SetSourceMemoryL@CMMFDevVideoRecord@@QAEXNHH@Z @ 193 NONAME ; public: void __thiscall CMMFDevVideoRecord::SetSourceMemoryL(double,int,int)
	?SetVideoDestScreenL@CMMFDevVideoPlay@@QAEXH@Z @ 194 NONAME ; public: void __thiscall CMMFDevVideoPlay::SetVideoDestScreenL(int)
	?SetYuvToRgbOptionsL@CMMFDevVideoPlay@@QAEXHABVTYuvToRgbOptions@@@Z @ 195 NONAME ; public: void __thiscall CMMFDevVideoPlay::SetYuvToRgbOptionsL(int,class TYuvToRgbOptions const &)
	?SetYuvToRgbOptionsL@CMMFDevVideoPlay@@QAEXHABVTYuvToRgbOptions@@ABVTYuvFormat@@W4TRgbFormat@@@Z @ 196 NONAME ; public: void __thiscall CMMFDevVideoPlay::SetYuvToRgbOptionsL(int,class TYuvToRgbOptions const &,class TYuvFormat const &,enum TRgbFormat)
	?SetYuvToYuvOptionsL@CMMFDevVideoRecord@@QAEXHABVTYuvFormat@@0@Z @ 197 NONAME ; public: void __thiscall CMMFDevVideoRecord::SetYuvToYuvOptionsL(int,class TYuvFormat const &,class TYuvFormat const &)
	?SliceLoss@CMMFDevVideoRecord@@QAEXIIABVTPictureId@@@Z @ 198 NONAME ; public: void __thiscall CMMFDevVideoRecord::SliceLoss(unsigned int,unsigned int,class TPictureId const &)
	?Start@CMMFClockSourcePeriodicUtility@@QAEXVTTimeIntervalMicroSeconds32@@@Z @ 199 NONAME ; public: void __thiscall CMMFClockSourcePeriodicUtility::Start(class TTimeIntervalMicroSeconds32)
	?Start@CMMFDevVideoPlay@@QAEXXZ @ 200 NONAME ; public: void __thiscall CMMFDevVideoPlay::Start(void)
	?Start@CMMFDevVideoRecord@@QAEXXZ @ 201 NONAME ; public: void __thiscall CMMFDevVideoRecord::Start(void)
	?StartDirectScreenAccessL@CMMFDevVideoPlay@@QAEXABVTRect@@AAVCFbsScreenDevice@@ABVTRegion@@@Z @ 202 NONAME ; public: void __thiscall CMMFDevVideoPlay::StartDirectScreenAccessL(class TRect const &,class CFbsScreenDevice &,class TRegion const &)
	?Stop@CMMFClockSourcePeriodicUtility@@QAEXXZ @ 203 NONAME ; public: void __thiscall CMMFClockSourcePeriodicUtility::Stop(void)
	?Stop@CMMFDevVideoPlay@@QAEXXZ @ 204 NONAME ; public: void __thiscall CMMFDevVideoPlay::Stop(void)
	?Stop@CMMFDevVideoRecord@@QAEXXZ @ 205 NONAME ; public: void __thiscall CMMFDevVideoRecord::Stop(void)
	?SupportedCombinations@CPostProcessorInfo@@QBEABV?$RArray@K@@XZ @ 206 NONAME ; public: class RArray<unsigned long> const & __thiscall CPostProcessorInfo::SupportedCombinations(void)const 
	?SupportedCombinations@CPreProcessorInfo@@QBEABV?$RArray@K@@XZ @ 207 NONAME ; public: class RArray<unsigned long> const & __thiscall CPreProcessorInfo::SupportedCombinations(void)const 
	?SupportedDataUnitEncapsulations@CVideoEncoderInfo@@QBEKXZ @ 208 NONAME ; public: unsigned long __thiscall CVideoEncoderInfo::SupportedDataUnitEncapsulations(void)const 
	?SupportedDataUnitTypes@CVideoEncoderInfo@@QBEKXZ @ 209 NONAME ; public: unsigned long __thiscall CVideoEncoderInfo::SupportedDataUnitTypes(void)const 
	?SupportedFormats@CPostProcessorInfo@@QBEABV?$RArray@VTUncompressedVideoFormat@@@@XZ @ 210 NONAME ; public: class RArray<class TUncompressedVideoFormat> const & __thiscall CPostProcessorInfo::SupportedFormats(void)const 
	?SupportedFormats@CVideoDecoderInfo@@QBEABV?$RPointerArray@VCCompressedVideoFormat@@@@XZ @ 211 NONAME ; public: class RPointerArray<class CCompressedVideoFormat> const & __thiscall CVideoDecoderInfo::SupportedFormats(void)const 
	?SupportedInputFormats@CPreProcessorInfo@@QBEABV?$RArray@VTUncompressedVideoFormat@@@@XZ @ 212 NONAME ; public: class RArray<class TUncompressedVideoFormat> const & __thiscall CPreProcessorInfo::SupportedInputFormats(void)const 
	?SupportedInputFormats@CVideoEncoderInfo@@QBEABV?$RArray@VTUncompressedVideoFormat@@@@XZ @ 213 NONAME ; public: class RArray<class TUncompressedVideoFormat> const & __thiscall CVideoEncoderInfo::SupportedInputFormats(void)const 
	?SupportedOutputFormats@CPreProcessorInfo@@QBEABV?$RArray@VTUncompressedVideoFormat@@@@XZ @ 214 NONAME ; public: class RArray<class TUncompressedVideoFormat> const & __thiscall CPreProcessorInfo::SupportedOutputFormats(void)const 
	?SupportedOutputFormats@CVideoEncoderInfo@@QBEABV?$RPointerArray@VCCompressedVideoFormat@@@@XZ @ 215 NONAME ; public: class RPointerArray<class CCompressedVideoFormat> const & __thiscall CVideoEncoderInfo::SupportedOutputFormats(void)const 
	?SupportedPictureOptions@CVideoEncoderInfo@@QBEKXZ @ 216 NONAME ; public: unsigned long __thiscall CVideoEncoderInfo::SupportedPictureOptions(void)const 
	?SupportedRgbRanges@CPreProcessorInfo@@QBEKXZ @ 217 NONAME ; public: unsigned long __thiscall CPreProcessorInfo::SupportedRgbRanges(void)const 
	?SupportedRotations@CPostProcessorInfo@@QBEKXZ @ 218 NONAME ; public: unsigned long __thiscall CPostProcessorInfo::SupportedRotations(void)const 
	?SupportedRotations@CPreProcessorInfo@@QBEKXZ @ 219 NONAME ; public: unsigned long __thiscall CPreProcessorInfo::SupportedRotations(void)const 
	?SupportedScaleFactors@CPostProcessorInfo@@QBEABV?$RArray@VTScaleFactor@@@@XZ @ 220 NONAME ; public: class RArray<class TScaleFactor> const & __thiscall CPostProcessorInfo::SupportedScaleFactors(void)const 
	?SupportedScaleFactors@CPreProcessorInfo@@QBEABV?$RArray@VTScaleFactor@@@@XZ @ 221 NONAME ; public: class RArray<class TScaleFactor> const & __thiscall CPreProcessorInfo::SupportedScaleFactors(void)const 
	?SupportsAntiAliasedScaling@CPreProcessorInfo@@QBEHXZ @ 222 NONAME ; public: int __thiscall CPreProcessorInfo::SupportsAntiAliasedScaling(void)const 
	?SupportsArbitraryScaling@CPostProcessorInfo@@QBEHXZ @ 223 NONAME ; public: int __thiscall CPostProcessorInfo::SupportsArbitraryScaling(void)const 
	?SupportsArbitraryScaling@CPreProcessorInfo@@QBEHXZ @ 224 NONAME ; public: int __thiscall CPreProcessorInfo::SupportsArbitraryScaling(void)const 
	?SupportsCombination@CPostProcessorInfo@@QBEHK@Z @ 225 NONAME ; public: int __thiscall CPostProcessorInfo::SupportsCombination(unsigned long)const 
	?SupportsCombination@CPreProcessorInfo@@QBEHK@Z @ 226 NONAME ; public: int __thiscall CPreProcessorInfo::SupportsCombination(unsigned long)const 
	?SupportsDirectCapture@CPreProcessorInfo@@QBEHXZ @ 227 NONAME ; public: int __thiscall CPreProcessorInfo::SupportsDirectCapture(void)const 
	?SupportsDirectCapture@CVideoEncoderInfo@@QBEHXZ @ 228 NONAME ; public: int __thiscall CVideoEncoderInfo::SupportsDirectCapture(void)const 
	?SupportsDirectDisplay@CPostProcessorInfo@@QBEHXZ @ 229 NONAME ; public: int __thiscall CPostProcessorInfo::SupportsDirectDisplay(void)const 
	?SupportsDirectDisplay@CVideoDecoderInfo@@QBEHXZ @ 230 NONAME ; public: int __thiscall CVideoDecoderInfo::SupportsDirectDisplay(void)const 
	?SupportsFormat@CPostProcessorInfo@@QBEHABVTUncompressedVideoFormat@@@Z @ 231 NONAME ; public: int __thiscall CPostProcessorInfo::SupportsFormat(class TUncompressedVideoFormat const &)const 
	?SupportsFormat@CVideoDecoderInfo@@QBEHABVCCompressedVideoFormat@@@Z @ 232 NONAME ; public: int __thiscall CVideoDecoderInfo::SupportsFormat(class CCompressedVideoFormat const &)const 
	?SupportsInputFormat@CPreProcessorInfo@@QBEHABVTUncompressedVideoFormat@@@Z @ 233 NONAME ; public: int __thiscall CPreProcessorInfo::SupportsInputFormat(class TUncompressedVideoFormat const &)const 
	?SupportsInputFormat@CVideoEncoderInfo@@QBEHABVTUncompressedVideoFormat@@@Z @ 234 NONAME ; public: int __thiscall CVideoEncoderInfo::SupportsInputFormat(class TUncompressedVideoFormat const &)const 
	?SupportsOutputFormat@CPreProcessorInfo@@QBEHABVTUncompressedVideoFormat@@@Z @ 235 NONAME ; public: int __thiscall CPreProcessorInfo::SupportsOutputFormat(class TUncompressedVideoFormat const &)const 
	?SupportsOutputFormat@CVideoEncoderInfo@@QBEHABVCCompressedVideoFormat@@@Z @ 236 NONAME ; public: int __thiscall CVideoEncoderInfo::SupportsOutputFormat(class CCompressedVideoFormat const &)const 
	?SupportsPictureLoss@CVideoDecoderInfo@@QBEHXZ @ 237 NONAME ; public: int __thiscall CVideoDecoderInfo::SupportsPictureLoss(void)const 
	?SupportsPictureLoss@CVideoEncoderInfo@@QBEHXZ @ 238 NONAME ; public: int __thiscall CVideoEncoderInfo::SupportsPictureLoss(void)const 
	?SupportsSliceLoss@CVideoDecoderInfo@@QBEHXZ @ 239 NONAME ; public: int __thiscall CVideoDecoderInfo::SupportsSliceLoss(void)const 
	?SupportsSliceLoss@CVideoEncoderInfo@@QBEHXZ @ 240 NONAME ; public: int __thiscall CVideoEncoderInfo::SupportsSliceLoss(void)const 
	?SupportsSupplementalEnhancementInfo@CVideoEncoderInfo@@QBEHXZ @ 241 NONAME ; public: int __thiscall CVideoEncoderInfo::SupportsSupplementalEnhancementInfo(void)const 
	?Suspend@CSystemClockSource@@QAEXXZ @ 242 NONAME ; public: void __thiscall CSystemClockSource::Suspend(void)
	?SynchronizeDecoding@CMMFDevVideoPlay@@QAEXH@Z @ 243 NONAME ; public: void __thiscall CMMFDevVideoPlay::SynchronizeDecoding(int)
	?Uid@CPostProcessorInfo@@QBE?AVTUid@@XZ @ 244 NONAME ; public: class TUid  __thiscall CPostProcessorInfo::Uid(void)const 
	?Uid@CPreProcessorInfo@@QBE?AVTUid@@XZ @ 245 NONAME ; public: class TUid  __thiscall CPreProcessorInfo::Uid(void)const 
	?Uid@CVideoDecoderInfo@@QBE?AVTUid@@XZ @ 246 NONAME ; public: class TUid  __thiscall CVideoDecoderInfo::Uid(void)const 
	?Uid@CVideoEncoderInfo@@QBE?AVTUid@@XZ @ 247 NONAME ; public: class TUid  __thiscall CVideoEncoderInfo::Uid(void)const 
	?Version@CPostProcessorInfo@@QBE?AVTVersion@@XZ @ 248 NONAME ; public: class TVersion  __thiscall CPostProcessorInfo::Version(void)const 
	?Version@CPreProcessorInfo@@QBE?AVTVersion@@XZ @ 249 NONAME ; public: class TVersion  __thiscall CPreProcessorInfo::Version(void)const 
	?Version@CVideoDecoderInfo@@QBE?AVTVersion@@XZ @ 250 NONAME ; public: class TVersion  __thiscall CVideoDecoderInfo::Version(void)const 
	?Version@CVideoEncoderInfo@@QBE?AVTVersion@@XZ @ 251 NONAME ; public: class TVersion  __thiscall CVideoEncoderInfo::Version(void)const 
	?VideoDecoderInfoLC@CMMFDevVideoPlay@@QAEPAVCVideoDecoderInfo@@VTUid@@@Z @ 252 NONAME ; public: class CVideoDecoderInfo * __thiscall CMMFDevVideoPlay::VideoDecoderInfoLC(class TUid)
	?VideoEncoderInfoLC@CMMFDevVideoRecord@@QAEPAVCVideoEncoderInfo@@VTUid@@@Z @ 253 NONAME ; public: class CVideoEncoderInfo * __thiscall CMMFDevVideoRecord::VideoEncoderInfoLC(class TUid)
	?WriteCodedDataL@CMMFDevVideoPlay@@QAEXPAVTVideoInputBuffer@@@Z @ 254 NONAME ; public: void __thiscall CMMFDevVideoPlay::WriteCodedDataL(class TVideoInputBuffer *)
	?WritePictureL@CMMFDevVideoPlay@@QAEXPAVTVideoPicture@@@Z @ 255 NONAME ; public: void __thiscall CMMFDevVideoPlay::WritePictureL(class TVideoPicture *)
	?WritePictureL@CMMFDevVideoRecord@@QAEXPAVTVideoPicture@@@Z @ 256 NONAME ; public: void __thiscall CMMFDevVideoRecord::WritePictureL(class TVideoPicture *)
	?YuvToRgbCapabilities@CPostProcessorInfo@@QBEABVTYuvToRgbCapabilities@@XZ @ 257 NONAME ; public: class TYuvToRgbCapabilities const & __thiscall CPostProcessorInfo::YuvToRgbCapabilities(void)const 
	?YuvToYuvCapabilities@CPreProcessorInfo@@QBEABVTYuvToYuvCapabilities@@XZ @ 258 NONAME ; public: class TYuvToYuvCapabilities const & __thiscall CPreProcessorInfo::YuvToYuvCapabilities(void)const 
	?ConfigureDecoderL@CMMFDevVideoPlay@@QAEXABVTVideoPictureHeader@@@Z @ 259 NONAME ; public: void __thiscall CMMFDevVideoPlay::ConfigureDecoderL(class TVideoPictureHeader const &)
	?NewPuAdapterL@CMMFVideoDecodeHwDevice@@SAPAV1@ABVCImplementationInformation@@AAVMMMFDevVideoPlayProxy@@@Z @ 260 NONAME ; class CMMFVideoDecodeHwDevice * CMMFVideoDecodeHwDevice::NewPuAdapterL(class CImplementationInformation const &, class MMMFDevVideoPlayProxy &)
	?NewPuAdapterL@CMMFVideoEncodeHwDevice@@SAPAV1@ABVCImplementationInformation@@AAVMMMFDevVideoRecordProxy@@@Z @ 261 NONAME ; class CMMFVideoEncodeHwDevice * CMMFVideoEncodeHwDevice::NewPuAdapterL(class CImplementationInformation const &, class MMMFDevVideoRecordProxy &)
	?AddSupportedScreenL@CPostProcessorInfo@@QAEXH@Z @ 262 NONAME ; void CPostProcessorInfo::AddSupportedScreenL(int)
	?AddSupportedScreenL@CVideoDecoderInfo@@QAEXH@Z @ 263 NONAME ; void CVideoDecoderInfo::AddSupportedScreenL(int)
	?GetSupportedScreensL@CPostProcessorInfo@@QBEXAAV?$RArray@H@@@Z @ 264 NONAME ; void CPostProcessorInfo::GetSupportedScreensL(class RArray<int> &) const
	?GetSupportedScreensL@CVideoDecoderInfo@@QBEXAAV?$RArray@H@@@Z @ 265 NONAME ; void CVideoDecoderInfo::GetSupportedScreensL(class RArray<int> &) const
	?SetSupportsContentProtected@CPostProcessorInfo@@QAEXH@Z @ 266 NONAME ; void CPostProcessorInfo::SetSupportsContentProtected(int)
	?SetSupportsContentProtected@CVideoDecoderInfo@@QAEXH@Z @ 267 NONAME ; void CVideoDecoderInfo::SetSupportsContentProtected(int)
	?SupportsContentProtected@CPostProcessorInfo@@QBEHXZ @ 268 NONAME ; int CPostProcessorInfo::SupportsContentProtected(void) const
	?SupportsContentProtected@CVideoDecoderInfo@@QBEHXZ @ 269 NONAME ; int CVideoDecoderInfo::SupportsContentProtected(void) const

