EXPORTS
	?IsRingingAlertTone1Enabled@CGlobalAudioSettings@@QAEHXZ @ 1 NONAME ; int CGlobalAudioSettings::IsRingingAlertTone1Enabled(void)
	?RingingAlertTone1@CGlobalAudioSettings@@QAEAAVTDesC16@@XZ @ 2 NONAME ; class TDesC16 & CGlobalAudioSettings::RingingAlertTone1(void)
	?IsVideoCallAlertToneEnabled@CGlobalAudioSettings@@QAEHXZ @ 3 NONAME ; int CGlobalAudioSettings::IsVideoCallAlertToneEnabled(void)
	?IsEmailAlertToneEnabled@CGlobalAudioSettings@@QAEHXZ @ 4 NONAME ; int CGlobalAudioSettings::IsEmailAlertToneEnabled(void)
	?UnregisterAudioClientsListObserver@CGlobalAudioSettings@@QAEHAAVMAudioClientsListObserver@@@Z @ 5 NONAME ; int CGlobalAudioSettings::UnregisterAudioClientsListObserver(class MAudioClientsListObserver &)
	?IsMessageAlertToneEnabled@CGlobalAudioSettings@@QAEHXZ @ 6 NONAME ; int CGlobalAudioSettings::IsMessageAlertToneEnabled(void)
	?IsRingingAlertTone2Enabled@CGlobalAudioSettings@@QAEHXZ @ 7 NONAME ; int CGlobalAudioSettings::IsRingingAlertTone2Enabled(void)
	?IsWarningTonesEnabled@CGlobalAudioSettings@@QAEHXZ @ 8 NONAME ; int CGlobalAudioSettings::IsWarningTonesEnabled(void)
	??1CGlobalAudioSettings@@UAE@XZ @ 9 NONAME ; CGlobalAudioSettings::~CGlobalAudioSettings(void)
	?IsPublicSilenceEnabled@CGlobalAudioSettings@@QAEHXZ @ 10 NONAME ; int CGlobalAudioSettings::IsPublicSilenceEnabled(void)
	?RingingAlertTone2@CGlobalAudioSettings@@QAEAAVTDesC16@@XZ @ 11 NONAME ; class TDesC16 & CGlobalAudioSettings::RingingAlertTone2(void)
	?NewL@CGlobalAudioSettings@@SAPAV1@AAVMAudioSettingsObserver@@@Z @ 12 NONAME ; class CGlobalAudioSettings * CGlobalAudioSettings::NewL(class MAudioSettingsObserver &)
	?IsSilentProfileEnabled@CGlobalAudioSettings@@QAEHXZ @ 13 NONAME ; int CGlobalAudioSettings::IsSilentProfileEnabled(void)
	?GetAudioClientsList@CGlobalAudioSettings@@QAEHW4TAudioClientListType@1@AAV?$RArray@VTProcessId@@@@@Z @ 14 NONAME ; int CGlobalAudioSettings::GetAudioClientsList(enum CGlobalAudioSettings::TAudioClientListType, class RArray<class TProcessId> &)
	?IsMessageTonesEnabled@CGlobalAudioSettings@@QAEHXZ @ 15 NONAME ; int CGlobalAudioSettings::IsMessageTonesEnabled(void)
	?RingingType@CGlobalAudioSettings@@QAE?AW4TGASRingingType@1@XZ @ 16 NONAME ; enum CGlobalAudioSettings::TGASRingingType CGlobalAudioSettings::RingingType(void)
	?VideoCallAlertTone@CGlobalAudioSettings@@QAEAAVTDesC16@@XZ @ 17 NONAME ; class TDesC16 & CGlobalAudioSettings::VideoCallAlertTone(void)
	?RegisterAudioClientsListObserver@CGlobalAudioSettings@@QAEHAAVMAudioClientsListObserver@@@Z @ 18 NONAME ; int CGlobalAudioSettings::RegisterAudioClientsListObserver(class MAudioClientsListObserver &)
	?IsVibraEnabled@CGlobalAudioSettings@@QAEHXZ @ 19 NONAME ; int CGlobalAudioSettings::IsVibraEnabled(void)
	?KeyPadToneVolume@CGlobalAudioSettings@@QAE?AW4TGASKeypadVolume@1@XZ @ 20 NONAME ; enum CGlobalAudioSettings::TGASKeypadVolume CGlobalAudioSettings::KeyPadToneVolume(void)
	?MessageAlertTone@CGlobalAudioSettings@@QAEAAVTDesC16@@XZ @ 21 NONAME ; class TDesC16 & CGlobalAudioSettings::MessageAlertTone(void)
	?EmailAlertTone@CGlobalAudioSettings@@QAEAAVTDesC16@@XZ @ 22 NONAME ; class TDesC16 & CGlobalAudioSettings::EmailAlertTone(void)
	?IsSilenceModeEnabled@CGlobalAudioSettings@@QAEHXZ @ 23 NONAME ; int CGlobalAudioSettings::IsSilenceModeEnabled(void)

