EXPORTS
	_ZN13CFlushCommand4NewLE20THCIConnectionHandle @ 1 NONAME
	_ZN13CFlushCommand4NewLEv @ 2 NONAME
	_ZN13CFlushCommand5ResetE20THCIConnectionHandle @ 3 NONAME
	_ZN13CResetCommand4NewLEv @ 4 NONAME
	_ZN13CResetCommand5ResetEv @ 5 NONAME
	_ZN13THCIEventBase18CreateAndSendEventERK6TDesC8R24MHCICommandEventObserverR21MHCIDataEventObserverPv @ 6 NONAME
	_ZN15CHCICommandBase13FormatCommandER17CHctlCommandFrame @ 7 NONAME
	_ZN15CInquiryCommand4NewLEmhh @ 8 NONAME
	_ZN15CInquiryCommand4NewLEv @ 9 NONAME
	_ZN15CInquiryCommand5ResetEmhh @ 10 NONAME
	_ZN16CHoldModeCommand4NewLE20THCIConnectionHandlett @ 11 NONAME
	_ZN16CHoldModeCommand4NewLEv @ 12 NONAME
	_ZN16CHoldModeCommand5ResetE20THCIConnectionHandlett @ 13 NONAME
	_ZN16CParkModeCommand4NewLE20THCIConnectionHandlett @ 14 NONAME
	_ZN16CParkModeCommand4NewLEv @ 15 NONAME
	_ZN16CParkModeCommand5ResetE20THCIConnectionHandlett @ 16 NONAME
	_ZN16CQOSSetupCommand4NewLE20THCIConnectionHandlehhmmmm @ 17 NONAME
	_ZN16CQOSSetupCommand4NewLEv @ 18 NONAME
	_ZN16CQOSSetupCommand5ResetE20THCIConnectionHandlehhmmmm @ 19 NONAME
	_ZN16CReadRSSICommand4NewLE20THCIConnectionHandle @ 20 NONAME
	_ZN16CReadRSSICommand4NewLEv @ 21 NONAME
	_ZN16CReadRSSICommand5ResetE20THCIConnectionHandle @ 22 NONAME
	_ZN16TModeChangeEvent4CastERK13THCIEventBase @ 23 NONAME
	_ZN16TModeChangeEventC1E13THCIErrorCode20THCIConnectionHandlehtR5TDes8 @ 24 NONAME
	_ZN16TModeChangeEventC1ERK6TDesC8 @ 25 NONAME
	_ZN16TModeChangeEventC2E13THCIErrorCode20THCIConnectionHandlehtR5TDes8 @ 26 NONAME
	_ZN16TModeChangeEventC2ERK6TDesC8 @ 27 NONAME
	_ZN16TModeChangeEventD1Ev @ 28 NONAME
	_ZN16TModeChangeEventD2Ev @ 29 NONAME
	_ZN16TRoleChangeEvent4CastERK13THCIEventBase @ 30 NONAME
	_ZN16TRoleChangeEventC1E13THCIErrorCodeRK10TBTDevAddrhR5TDes8 @ 31 NONAME
	_ZN16TRoleChangeEventC1ERK6TDesC8 @ 32 NONAME
	_ZN16TRoleChangeEventC2E13THCIErrorCodeRK10TBTDevAddrhR5TDes8 @ 33 NONAME
	_ZN16TRoleChangeEventC2ERK6TDesC8 @ 34 NONAME
	_ZN16TRoleChangeEventD1Ev @ 35 NONAME
	_ZN16TRoleChangeEventD2Ev @ 36 NONAME
	_ZN17CReadClockCommand4NewLE20THCIConnectionHandleh @ 37 NONAME
	_ZN17CReadClockCommand4NewLEv @ 38 NONAME
	_ZN17CReadClockCommand5ResetE20THCIConnectionHandleh @ 39 NONAME
	_ZN17CSniffModeCommand4NewLE20THCIConnectionHandletttt @ 40 NONAME
	_ZN17CSniffModeCommand4NewLEv @ 41 NONAME
	_ZN17CSniffModeCommand5ResetE20THCIConnectionHandletttt @ 42 NONAME
	_ZN17TVendorDebugEvent4CastERK13THCIEventBase @ 43 NONAME
	_ZN17TVendorDebugEventC1E13THCIEventCodeRK6TDesC8R5TDes8 @ 44 NONAME
	_ZN17TVendorDebugEventC1ERK6TDesC8 @ 45 NONAME
	_ZN17TVendorDebugEventC2E13THCIEventCodeRK6TDesC8R5TDes8 @ 46 NONAME
	_ZN17TVendorDebugEventC2ERK6TDesC8 @ 47 NONAME
	_ZN18CDisconnectCommand4NewLE20THCIConnectionHandleh @ 48 NONAME
	_ZN18CDisconnectCommand4NewLEv @ 49 NONAME
	_ZN18CDisconnectCommand5ResetE20THCIConnectionHandleh @ 50 NONAME
	_ZN18CReadBdaddrCommand4NewLEv @ 51 NONAME
	_ZN18CReadBdaddrCommand5ResetEv @ 52 NONAME
	_ZN18CSwitchRoleCommand4NewLERK10TBTDevAddrh @ 53 NONAME
	_ZN18CSwitchRoleCommand4NewLEv @ 54 NONAME
	_ZN18CSwitchRoleCommand5ResetERK10TBTDevAddrh @ 55 NONAME
	_ZN18TQOSViolationEvent4CastERK13THCIEventBase @ 56 NONAME
	_ZN18TQOSViolationEventC1E20THCIConnectionHandleR5TDes8 @ 57 NONAME
	_ZN18TQOSViolationEventC1ERK6TDesC8 @ 58 NONAME
	_ZN18TQOSViolationEventC2E20THCIConnectionHandleR5TDes8 @ 59 NONAME
	_ZN18TQOSViolationEventC2ERK6TDesC8 @ 60 NONAME
	_ZN18TQOSViolationEventD1Ev @ 61 NONAME
	_ZN18TQOSViolationEventD2Ev @ 62 NONAME
	_ZN19CReadPINTypeCommand4NewLEv @ 63 NONAME
	_ZN19CReadPINTypeCommand5ResetEv @ 64 NONAME
	_ZN19CVendorDebugCommand4NewLEt @ 65 NONAME
	_ZN19CVendorDebugCommand5ResetEt @ 66 NONAME
	_ZN19CVendorDebugCommand7CommandEv @ 67 NONAME
	_ZN19TChangeLinkKeyEvent4CastERK13THCIEventBase @ 68 NONAME
	_ZN19TChangeLinkKeyEventC1E13THCIErrorCode20THCIConnectionHandleR5TDes8 @ 69 NONAME
	_ZN19TChangeLinkKeyEventC1ERK6TDesC8 @ 70 NONAME
	_ZN19TChangeLinkKeyEventC2E13THCIErrorCode20THCIConnectionHandleR5TDes8 @ 71 NONAME
	_ZN19TChangeLinkKeyEventC2ERK6TDesC8 @ 72 NONAME
	_ZN19TChangeLinkKeyEventD1Ev @ 73 NONAME
	_ZN19TChangeLinkKeyEventD2Ev @ 74 NONAME
	_ZN19TCommandStatusEvent4CastERK13THCIEventBase @ 75 NONAME
	_ZN19TCommandStatusEventC1E13THCIErrorCodehtR5TDes8 @ 76 NONAME
	_ZN19TCommandStatusEventC1ERK6TDesC8 @ 77 NONAME
	_ZN19TCommandStatusEventC2E13THCIErrorCodehtR5TDes8 @ 78 NONAME
	_ZN19TCommandStatusEventC2ERK6TDesC8 @ 79 NONAME
	_ZN19TCommandStatusEventD1Ev @ 80 NONAME
	_ZN19TCommandStatusEventD2Ev @ 81 NONAME
	_ZN19TFlushCompleteEvent4CastERK13THCIEventBase @ 82 NONAME
	_ZN19TFlushCompleteEventC1E13THCIErrorCodeh20THCIConnectionHandleR5TDes8 @ 83 NONAME
	_ZN19TFlushCompleteEventC1ERK6TDesC8 @ 84 NONAME
	_ZN19TFlushCompleteEventC2E13THCIErrorCodeh20THCIConnectionHandleR5TDes8 @ 85 NONAME
	_ZN19TFlushCompleteEventC2ERK6TDesC8 @ 86 NONAME
	_ZN19TFlushOccurredEvent4CastERK13THCIEventBase @ 87 NONAME
	_ZN19TFlushOccurredEventC1E20THCIConnectionHandleR5TDes8 @ 88 NONAME
	_ZN19TFlushOccurredEventC1ERK6TDesC8 @ 89 NONAME
	_ZN19TFlushOccurredEventC2E20THCIConnectionHandleR5TDes8 @ 90 NONAME
	_ZN19TFlushOccurredEventC2ERK6TDesC8 @ 91 NONAME
	_ZN19TFlushOccurredEventD1Ev @ 92 NONAME
	_ZN19TFlushOccurredEventD2Ev @ 93 NONAME
	_ZN19THardwareErrorEvent4CastERK13THCIEventBase @ 94 NONAME
	_ZN19THardwareErrorEventC1ERK6TDesC8 @ 95 NONAME
	_ZN19THardwareErrorEventC1EhR5TDes8 @ 96 NONAME
	_ZN19THardwareErrorEventC2ERK6TDesC8 @ 97 NONAME
	_ZN19THardwareErrorEventC2EhR5TDes8 @ 98 NONAME
	_ZN19THardwareErrorEventD1Ev @ 99 NONAME
	_ZN19THardwareErrorEventD2Ev @ 100 NONAME
	_ZN19TInquiryResultEvent4CastERK13THCIEventBase @ 101 NONAME
	_ZN19TInquiryResultEventC1ERK6TDesC8 @ 102 NONAME
	_ZN19TInquiryResultEventC1EhRK6TArrayI10TBTDevAddrERKS0_I26THCIPageScanRepetitionModeERKS0_I17THCIReservedOctetESC_RKS0_ImERKS0_I15THCIClockOffsetER5TDes8 @ 103 NONAME
	_ZN19TInquiryResultEventC2ERK6TDesC8 @ 104 NONAME
	_ZN19TInquiryResultEventC2EhRK6TArrayI10TBTDevAddrERKS0_I26THCIPageScanRepetitionModeERKS0_I17THCIReservedOctetESC_RKS0_ImERKS0_I15THCIClockOffsetER5TDes8 @ 105 NONAME
	_ZN19TInquiryResultEventD1Ev @ 106 NONAME
	_ZN19TInquiryResultEventD2Ev @ 107 NONAME
	_ZN19TMasterLinkKeyEvent4CastERK13THCIEventBase @ 108 NONAME
	_ZN19TMasterLinkKeyEventC1E13THCIErrorCode20THCIConnectionHandlehR5TDes8 @ 109 NONAME
	_ZN19TMasterLinkKeyEventC1ERK6TDesC8 @ 110 NONAME
	_ZN19TMasterLinkKeyEventC2E13THCIErrorCode20THCIConnectionHandlehR5TDes8 @ 111 NONAME
	_ZN19TMasterLinkKeyEventC2ERK6TDesC8 @ 112 NONAME
	_ZN19TMasterLinkKeyEventD1Ev @ 113 NONAME
	_ZN19TMasterLinkKeyEventD2Ev @ 114 NONAME
	_ZN19TResetCompleteEvent4CastERK13THCIEventBase @ 115 NONAME
	_ZN19TResetCompleteEventC1E13THCIErrorCodehR5TDes8 @ 116 NONAME
	_ZN19TResetCompleteEventC1ERK6TDesC8 @ 117 NONAME
	_ZN19TResetCompleteEventC2E13THCIErrorCodehR5TDes8 @ 118 NONAME
	_ZN19TResetCompleteEventC2ERK6TDesC8 @ 119 NONAME
	_ZN20CExitParkModeCommand4NewLE20THCIConnectionHandle @ 120 NONAME
	_ZN20CExitParkModeCommand4NewLEv @ 121 NONAME
	_ZN20CExitParkModeCommand5ResetE20THCIConnectionHandle @ 122 NONAME
	_ZN20CSetEventMaskCommand4NewLERK6TDesC8 @ 123 NONAME
	_ZN20CSetEventMaskCommand4NewLEv @ 124 NONAME
	_ZN20CSetEventMaskCommand5ResetERK6TDesC8 @ 125 NONAME
	_ZN20CWritePINTypeCommand4NewLEh @ 126 NONAME
	_ZN20CWritePINTypeCommand4NewLEv @ 127 NONAME
	_ZN20CWritePINTypeCommand5ResetEh @ 128 NONAME
	_ZN20TLinkKeyRequestEvent4CastERK13THCIEventBase @ 129 NONAME
	_ZN20TLinkKeyRequestEventC1ERK10TBTDevAddrR5TDes8 @ 130 NONAME
	_ZN20TLinkKeyRequestEventC1ERK6TDesC8 @ 131 NONAME
	_ZN20TLinkKeyRequestEventC2ERK10TBTDevAddrR5TDes8 @ 132 NONAME
	_ZN20TLinkKeyRequestEventC2ERK6TDesC8 @ 133 NONAME
	_ZN20TLinkKeyRequestEventD1Ev @ 134 NONAME
	_ZN20TLinkKeyRequestEventD2Ev @ 135 NONAME
	_ZN20TMaxSlotsChangeEvent4CastERK13THCIEventBase @ 136 NONAME
	_ZN20TMaxSlotsChangeEventC1E20THCIConnectionHandlehR5TDes8 @ 137 NONAME
	_ZN20TMaxSlotsChangeEventC1ERK6TDesC8 @ 138 NONAME
	_ZN20TMaxSlotsChangeEventC2E20THCIConnectionHandlehR5TDes8 @ 139 NONAME
	_ZN20TMaxSlotsChangeEventC2ERK6TDesC8 @ 140 NONAME
	_ZN20TMaxSlotsChangeEventD1Ev @ 141 NONAME
	_ZN20TMaxSlotsChangeEventD2Ev @ 142 NONAME
	_ZN20TPINCodeRequestEvent4CastERK13THCIEventBase @ 143 NONAME
	_ZN20TPINCodeRequestEventC1ERK10TBTDevAddrR5TDes8 @ 144 NONAME
	_ZN20TPINCodeRequestEventC1ERK6TDesC8 @ 145 NONAME
	_ZN20TPINCodeRequestEventC2ERK10TBTDevAddrR5TDes8 @ 146 NONAME
	_ZN20TPINCodeRequestEventC2ERK6TDesC8 @ 147 NONAME
	_ZN20TPINCodeRequestEventD1Ev @ 148 NONAME
	_ZN20TPINCodeRequestEventD2Ev @ 149 NONAME
	_ZN20TReturnLinkKeysEvent4CastERK13THCIEventBase @ 150 NONAME
	_ZN20TReturnLinkKeysEventC1ERK6TDesC8 @ 151 NONAME
	_ZN20TReturnLinkKeysEventC1EhRK6TArrayI10TBTDevAddrERKS0_I8TPckgBufI11TLinkKeyV10EER5TDes8 @ 152 NONAME
	_ZN20TReturnLinkKeysEventC2ERK6TDesC8 @ 153 NONAME
	_ZN20TReturnLinkKeysEventC2EhRK6TArrayI10TBTDevAddrERKS0_I8TPckgBufI11TLinkKeyV10EER5TDes8 @ 154 NONAME
	_ZN20TReturnLinkKeysEventD1Ev @ 155 NONAME
	_ZN20TReturnLinkKeysEventD2Ev @ 156 NONAME
	_ZN21CChangeLinkKeyCommand4NewLE20THCIConnectionHandle @ 157 NONAME
	_ZN21CChangeLinkKeyCommand4NewLEv @ 158 NONAME
	_ZN21CChangeLinkKeyCommand5ResetE20THCIConnectionHandle @ 159 NONAME
	_ZN21CExitSniffModeCommand4NewLE20THCIConnectionHandle @ 160 NONAME
	_ZN21CExitSniffModeCommand4NewLEv @ 161 NONAME
	_ZN21CExitSniffModeCommand5ResetE20THCIConnectionHandle @ 162 NONAME
	_ZN21CInquiryCancelCommand4NewLEv @ 163 NONAME
	_ZN21CInquiryCancelCommand5ResetEv @ 164 NONAME
	_ZN21CMasterLinkKeyCommand4NewLEh @ 165 NONAME
	_ZN21CMasterLinkKeyCommand4NewLEv @ 166 NONAME
	_ZN21CMasterLinkKeyCommand5ResetEh @ 167 NONAME
	_ZN21CReadLMPHandleCommand4NewLE20THCIConnectionHandle @ 168 NONAME
	_ZN21CReadLMPHandleCommand4NewLEv @ 169 NONAME
	_ZN21CReadLMPHandleCommand5ResetE20THCIConnectionHandle @ 170 NONAME
	_ZN21CReadLocalNameCommand4NewLEv @ 171 NONAME
	_ZN21CReadLocalNameCommand5ResetEv @ 172 NONAME
	_ZN21CRoleDiscoveryCommand4NewLE20THCIConnectionHandle @ 173 NONAME
	_ZN21CRoleDiscoveryCommand4NewLEv @ 174 NONAME
	_ZN21CRoleDiscoveryCommand5ResetE20THCIConnectionHandle @ 175 NONAME
	_ZN21TInquiryCompleteEvent4CastERK13THCIEventBase @ 176 NONAME
	_ZN21TInquiryCompleteEventC1E13THCIErrorCodeR5TDes8 @ 177 NONAME
	_ZN21TInquiryCompleteEventC1ERK6TDesC8 @ 178 NONAME
	_ZN21TInquiryCompleteEventC2E13THCIErrorCodeR5TDes8 @ 179 NONAME
	_ZN21TInquiryCompleteEventC2ERK6TDesC8 @ 180 NONAME
	_ZN21TInquiryCompleteEventD1Ev @ 181 NONAME
	_ZN21TInquiryCompleteEventD2Ev @ 182 NONAME
	_ZN21TLoopbackCommandEvent4CastERK13THCIEventBase @ 183 NONAME
	_ZN21TLoopbackCommandEventC1ERK6TDesC8 @ 184 NONAME
	_ZN21TLoopbackCommandEventC1ERK6TDesC8R5TDes8 @ 185 NONAME
	_ZN21TLoopbackCommandEventC2ERK6TDesC8 @ 186 NONAME
	_ZN21TLoopbackCommandEventC2ERK6TDesC8R5TDes8 @ 187 NONAME
	_ZN21TLoopbackCommandEventD1Ev @ 188 NONAME
	_ZN21TLoopbackCommandEventD2Ev @ 189 NONAME
	_ZN21TReadClockOffsetEvent4CastERK13THCIEventBase @ 190 NONAME
	_ZN21TReadClockOffsetEventC1E13THCIErrorCode20THCIConnectionHandle15THCIClockOffsetR5TDes8 @ 191 NONAME
	_ZN21TReadClockOffsetEventC1ERK6TDesC8 @ 192 NONAME
	_ZN21TReadClockOffsetEventC2E13THCIErrorCode20THCIConnectionHandle15THCIClockOffsetR5TDes8 @ 193 NONAME
	_ZN21TReadClockOffsetEventC2ERK6TDesC8 @ 194 NONAME
	_ZN21TReadClockOffsetEventD1Ev @ 195 NONAME
	_ZN21TReadClockOffsetEventD2Ev @ 196 NONAME
	_ZN22CHostBufferSizeCommand4NewLEthtt @ 197 NONAME
	_ZN22CHostBufferSizeCommand4NewLEv @ 198 NONAME
	_ZN22CHostBufferSizeCommand5ResetEthtt @ 199 NONAME
	_ZN22CReadBufferSizeCommand4NewLEv @ 200 NONAME
	_ZN22CReadBufferSizeCommand5ResetEv @ 201 NONAME
	_ZN22CReadScanEnableCommand4NewLEv @ 202 NONAME
	_ZN22CReadScanEnableCommand5ResetEv @ 203 NONAME
	_ZN22CSetEventFilterCommand4NewLEhhRK6TDesC8 @ 204 NONAME
	_ZN22CSetEventFilterCommand4NewLEv @ 205 NONAME
	_ZN22CSetEventFilterCommand5ResetEhhRK6TDesC8 @ 206 NONAME
	_ZN22CWriteLocalNameCommand4NewLERK6TDesC8 @ 207 NONAME
	_ZN22CWriteLocalNameCommand4NewLEv @ 208 NONAME
	_ZN22CWriteLocalNameCommand5ResetERK6TDesC8 @ 209 NONAME
	_ZN22TEncryptionChangeEvent4CastERK13THCIEventBase @ 210 NONAME
	_ZN22TEncryptionChangeEventC1E13THCIErrorCode20THCIConnectionHandlehR5TDes8 @ 211 NONAME
	_ZN22TEncryptionChangeEventC1ERK6TDesC8 @ 212 NONAME
	_ZN22TEncryptionChangeEventC2E13THCIErrorCode20THCIConnectionHandlehR5TDes8 @ 213 NONAME
	_ZN22TEncryptionChangeEventC2ERK6TDesC8 @ 214 NONAME
	_ZN22TEncryptionChangeEventD1Ev @ 215 NONAME
	_ZN22TEncryptionChangeEventD2Ev @ 216 NONAME
	_ZN22TQOSSetupCompleteEvent4CastERK13THCIEventBase @ 217 NONAME
	_ZN22TQOSSetupCompleteEventC1E13THCIErrorCode20THCIConnectionHandlehhmmmmR5TDes8 @ 218 NONAME
	_ZN22TQOSSetupCompleteEventC1ERK6TDesC8 @ 219 NONAME
	_ZN22TQOSSetupCompleteEventC2E13THCIErrorCode20THCIConnectionHandlehhmmmmR5TDes8 @ 220 NONAME
	_ZN22TQOSSetupCompleteEventC2ERK6TDesC8 @ 221 NONAME
	_ZN22TQOSSetupCompleteEventD1Ev @ 222 NONAME
	_ZN22TQOSSetupCompleteEventD2Ev @ 223 NONAME
	_ZN22TReadRSSICompleteEvent4CastERK13THCIEventBase @ 224 NONAME
	_ZN22TReadRSSICompleteEventC1E13THCIErrorCodeh20THCIConnectionHandle8THCIRssiR5TDes8 @ 225 NONAME
	_ZN22TReadRSSICompleteEventC1ERK6TDesC8 @ 226 NONAME
	_ZN22TReadRSSICompleteEventC2E13THCIErrorCodeh20THCIConnectionHandle8THCIRssiR5TDes8 @ 227 NONAME
	_ZN22TReadRSSICompleteEventC2ERK6TDesC8 @ 228 NONAME
	_ZN23CReadClockOffsetCommand4NewLE20THCIConnectionHandle @ 229 NONAME
	_ZN23CReadClockOffsetCommand4NewLEv @ 230 NONAME
	_ZN23CReadClockOffsetCommand5ResetE20THCIConnectionHandle @ 231 NONAME
	_ZN23CReadInquiryModeCommand4NewLEv @ 232 NONAME
	_ZN23CReadInquiryModeCommand5ResetEv @ 233 NONAME
	_ZN23CReadLinkQualityCommand4NewLE20THCIConnectionHandle @ 234 NONAME
	_ZN23CReadLinkQualityCommand4NewLEv @ 235 NONAME
	_ZN23CReadLinkQualityCommand5ResetE20THCIConnectionHandle @ 236 NONAME
	_ZN23CReadPageTimeoutCommand4NewLEv @ 237 NONAME
	_ZN23CReadPageTimeoutCommand5ResetEv @ 238 NONAME
	_ZN23CWriteScanEnableCommand4NewLEh @ 239 NONAME
	_ZN23CWriteScanEnableCommand4NewLEv @ 240 NONAME
	_ZN23CWriteScanEnableCommand5ResetEh @ 241 NONAME
	_ZN23TConnectionRequestEvent4CastERK13THCIEventBase @ 242 NONAME
	_ZN23TConnectionRequestEventC1ERK10TBTDevAddrmhR5TDes8 @ 243 NONAME
	_ZN23TConnectionRequestEventC1ERK6TDesC8 @ 244 NONAME
	_ZN23TConnectionRequestEventC2ERK10TBTDevAddrmhR5TDes8 @ 245 NONAME
	_ZN23TConnectionRequestEventC2ERK6TDesC8 @ 246 NONAME
	_ZN23TConnectionRequestEventD1Ev @ 247 NONAME
	_ZN23TConnectionRequestEventD2Ev @ 248 NONAME
	_ZN23TReadClockCompleteEvent4CastERK13THCIEventBase @ 249 NONAME
	_ZN23TReadClockCompleteEventC1E13THCIErrorCodeh20THCIConnectionHandlemtR5TDes8 @ 250 NONAME
	_ZN23TReadClockCompleteEventC1ERK6TDesC8 @ 251 NONAME
	_ZN23TReadClockCompleteEventC2E13THCIErrorCodeh20THCIConnectionHandlemtR5TDes8 @ 252 NONAME
	_ZN23TReadClockCompleteEventC2ERK6TDesC8 @ 253 NONAME
	_ZN24CAddSCOConnectionCommand4NewLE20THCIConnectionHandletRK10TBTDevAddr @ 254 NONAME
	_ZN24CAddSCOConnectionCommand4NewLEv @ 255 NONAME
	_ZN24CAddSCOConnectionCommand5ResetE20THCIConnectionHandletRK10TBTDevAddr @ 256 NONAME
	_ZN24CCreateNewUnitKeyCommand4NewLEv @ 257 NONAME
	_ZN24CCreateNewUnitKeyCommand5ResetEv @ 258 NONAME
	_ZN24CReadLoopbackModeCommand4NewLEv @ 259 NONAME
	_ZN24CReadLoopbackModeCommand5ResetEv @ 260 NONAME
	_ZN24CReadPageScanTypeCommand4NewLEv @ 261 NONAME
	_ZN24CReadPageScanTypeCommand5ResetEv @ 262 NONAME
	_ZN24CReadVoiceSettingCommand4NewLEv @ 263 NONAME
	_ZN24CReadVoiceSettingCommand5ResetEv @ 264 NONAME
	_ZN24CWriteInquiryModeCommand4NewLEh @ 265 NONAME
	_ZN24CWriteInquiryModeCommand4NewLEv @ 266 NONAME
	_ZN24CWriteInquiryModeCommand5ResetEh @ 267 NONAME
	_ZN24CWritePageTimeoutCommand4NewLEt @ 268 NONAME
	_ZN24CWritePageTimeoutCommand4NewLEv @ 269 NONAME
	_ZN24CWritePageTimeoutCommand5ResetEt @ 270 NONAME
	_ZN24TConnectionCompleteEvent4CastERK13THCIEventBase @ 271 NONAME
	_ZN24TConnectionCompleteEventC1E13THCIErrorCode20THCIConnectionHandleRK10TBTDevAddrhhR5TDes8 @ 272 NONAME
	_ZN24TConnectionCompleteEventC1ERK6TDesC8 @ 273 NONAME
	_ZN24TConnectionCompleteEventC2E13THCIErrorCode20THCIConnectionHandleRK10TBTDevAddrhhR5TDes8 @ 274 NONAME
	_ZN24TConnectionCompleteEventC2ERK6TDesC8 @ 275 NONAME
	_ZN24TConnectionCompleteEventD1Ev @ 276 NONAME
	_ZN24TConnectionCompleteEventD2Ev @ 277 NONAME
	_ZN24TDataBufferOverflowEvent4CastERK13THCIEventBase @ 278 NONAME
	_ZN24TDataBufferOverflowEventC1ERK6TDesC8 @ 279 NONAME
	_ZN24TDataBufferOverflowEventC1EhR5TDes8 @ 280 NONAME
	_ZN24TDataBufferOverflowEventC2ERK6TDesC8 @ 281 NONAME
	_ZN24TDataBufferOverflowEventC2EhR5TDes8 @ 282 NONAME
	_ZN24TDataBufferOverflowEventD1Ev @ 283 NONAME
	_ZN24TDataBufferOverflowEventD2Ev @ 284 NONAME
	_ZN24THCICommandCompleteEvent4CastERK13THCIEventBase @ 285 NONAME
	_ZN24TPageScanModeChangeEvent4CastERK13THCIEventBase @ 286 NONAME
	_ZN24TPageScanModeChangeEventC1ERK10TBTDevAddrhR5TDes8 @ 287 NONAME
	_ZN24TPageScanModeChangeEventC1ERK6TDesC8 @ 288 NONAME
	_ZN24TPageScanModeChangeEventC2ERK10TBTDevAddrhR5TDes8 @ 289 NONAME
	_ZN24TPageScanModeChangeEventC2ERK6TDesC8 @ 290 NONAME
	_ZN24TPageScanModeChangeEventD1Ev @ 291 NONAME
	_ZN24TPageScanModeChangeEventD2Ev @ 292 NONAME
	_ZN24TReadBdaddrCompleteEvent4CastERK13THCIEventBase @ 293 NONAME
	_ZN24TReadBdaddrCompleteEventC1E13THCIErrorCodehRK10TBTDevAddrR5TDes8 @ 294 NONAME
	_ZN24TReadBdaddrCompleteEventC1ERK6TDesC8 @ 295 NONAME
	_ZN24TReadBdaddrCompleteEventC2E13THCIErrorCodehRK10TBTDevAddrR5TDes8 @ 296 NONAME
	_ZN24TReadBdaddrCompleteEventC2ERK6TDesC8 @ 297 NONAME
	_ZN25CFlowSpecificationCommand4NewLE20THCIConnectionHandlehhhmmmm @ 298 NONAME
	_ZN25CFlowSpecificationCommand4NewLEv @ 299 NONAME
	_ZN25CFlowSpecificationCommand5ResetE20THCIConnectionHandlehhhmmmm @ 300 NONAME
	_ZN25CReadAFHChannelMapCommand4NewLE20THCIConnectionHandle @ 301 NONAME
	_ZN25CReadAFHChannelMapCommand4NewLEv @ 302 NONAME
	_ZN25CReadAFHChannelMapCommand5ResetE20THCIConnectionHandle @ 303 NONAME
	_ZN25CReadClassOfDeviceCommand4NewLEv @ 304 NONAME
	_ZN25CReadClassOfDeviceCommand5ResetEv @ 305 NONAME
	_ZN25CReadCurrentIACLAPCommand4NewLEv @ 306 NONAME
	_ZN25CReadCurrentIACLAPCommand5ResetEv @ 307 NONAME
	_ZN25CReadStoredLinkKeyCommand4NewLERK10TBTDevAddrh @ 308 NONAME
	_ZN25CReadStoredLinkKeyCommand4NewLEv @ 309 NONAME
	_ZN25CReadStoredLinkKeyCommand5ResetERK10TBTDevAddrh @ 310 NONAME
	_ZN25CRemoteNameRequestCommand4NewLERK10TBTDevAddr26THCIPageScanRepetitionMode17THCIReservedOctet15THCIClockOffset @ 311 NONAME
	_ZN25CRemoteNameRequestCommand4NewLEv @ 312 NONAME
	_ZN25CRemoteNameRequestCommand5ResetERK10TBTDevAddr26THCIPageScanRepetitionMode17THCIReservedOctet15THCIClockOffset @ 313 NONAME
	_ZN25CWriteLoopbackModeCommand4NewLEh @ 314 NONAME
	_ZN25CWriteLoopbackModeCommand4NewLEv @ 315 NONAME
	_ZN25CWriteLoopbackModeCommand5ResetEh @ 316 NONAME
	_ZN25CWritePageScanTypeCommand4NewLEh @ 317 NONAME
	_ZN25CWritePageScanTypeCommand4NewLEv @ 318 NONAME
	_ZN25CWritePageScanTypeCommand5ResetEh @ 319 NONAME
	_ZN25CWriteVoiceSettingCommand4NewLEt @ 320 NONAME
	_ZN25CWriteVoiceSettingCommand4NewLEv @ 321 NONAME
	_ZN25CWriteVoiceSettingCommand5ResetEt @ 322 NONAME
	_ZN25TLinkKeyNotificationEvent4CastERK13THCIEventBase @ 323 NONAME
	_ZN25TLinkKeyNotificationEventC1ERK10TBTDevAddrRK8TPckgBufI11TLinkKeyV10EhR5TDes8 @ 324 NONAME
	_ZN25TLinkKeyNotificationEventC1ERK6TDesC8 @ 325 NONAME
	_ZN25TLinkKeyNotificationEventC2ERK10TBTDevAddrRK8TPckgBufI11TLinkKeyV10EhR5TDes8 @ 326 NONAME
	_ZN25TLinkKeyNotificationEventC2ERK6TDesC8 @ 327 NONAME
	_ZN25TLinkKeyNotificationEventD1Ev @ 328 NONAME
	_ZN25TLinkKeyNotificationEventD2Ev @ 329 NONAME
	_ZN25TReadPINTypeCompleteEvent4CastERK13THCIEventBase @ 330 NONAME
	_ZN25TReadPINTypeCompleteEventC1E13THCIErrorCodehhR5TDes8 @ 331 NONAME
	_ZN25TReadPINTypeCompleteEventC1ERK6TDesC8 @ 332 NONAME
	_ZN25TReadPINTypeCompleteEventC2E13THCIErrorCodehhR5TDes8 @ 333 NONAME
	_ZN25TReadPINTypeCompleteEventC2ERK6TDesC8 @ 334 NONAME
	_ZN25TVendorDebugCompleteEvent4CastERK13THCIEventBase @ 335 NONAME
	_ZN25TVendorDebugCompleteEventC1ERK6TDesC8 @ 336 NONAME
	_ZN25TVendorDebugCompleteEventC1EhtRK6TDesC8R5TDes8 @ 337 NONAME
	_ZN25TVendorDebugCompleteEventC2ERK6TDesC8 @ 338 NONAME
	_ZN25TVendorDebugCompleteEventC2EhtRK6TDesC8R5TDes8 @ 339 NONAME
	_ZN26CReadEncryptionModeCommand4NewLEv @ 340 NONAME
	_ZN26CReadEncryptionModeCommand5ResetEv @ 341 NONAME
	_ZN26CReadPageScanPeriodCommand4NewLEv @ 342 NONAME
	_ZN26CReadPageScanPeriodCommand5ResetEv @ 343 NONAME
	_ZN26CWriteClassOfDeviceCommand4NewLEm @ 344 NONAME
	_ZN26CWriteClassOfDeviceCommand4NewLEv @ 345 NONAME
	_ZN26CWriteClassOfDeviceCommand5ResetEm @ 346 NONAME
	_ZN26CWriteCurrentIACLAPCommand4NewLEhRK6RArrayImE @ 347 NONAME
	_ZN26CWriteCurrentIACLAPCommand4NewLEv @ 348 NONAME
	_ZN26CWriteCurrentIACLAPCommand5ResetEhRK6RArrayImE @ 349 NONAME
	_ZN26CWriteStoredLinkKeyCommand4NewLEhRK6RArrayI10TBTDevAddrERKS0_I8TPckgBufI11TLinkKeyV10EE @ 350 NONAME
	_ZN26CWriteStoredLinkKeyCommand4NewLEv @ 351 NONAME
	_ZN26CWriteStoredLinkKeyCommand5ResetEhRK6RArrayI10TBTDevAddrERKS0_I8TPckgBufI11TLinkKeyV10EE @ 352 NONAME
	_ZN26TSetEventMaskCompleteEvent4CastERK13THCIEventBase @ 353 NONAME
	_ZN26TSetEventMaskCompleteEventC1E13THCIErrorCodehR5TDes8 @ 354 NONAME
	_ZN26TSetEventMaskCompleteEventC1ERK6TDesC8 @ 355 NONAME
	_ZN26TSetEventMaskCompleteEventC2E13THCIErrorCodehR5TDes8 @ 356 NONAME
	_ZN26TSetEventMaskCompleteEventC2ERK6TDesC8 @ 357 NONAME
	_ZN26TWritePINTypeCompleteEvent4CastERK13THCIEventBase @ 358 NONAME
	_ZN26TWritePINTypeCompleteEventC1E13THCIErrorCodehR5TDes8 @ 359 NONAME
	_ZN26TWritePINTypeCompleteEventC1ERK6TDesC8 @ 360 NONAME
	_ZN26TWritePINTypeCompleteEventC2E13THCIErrorCodehR5TDes8 @ 361 NONAME
	_ZN26TWritePINTypeCompleteEventC2ERK6TDesC8 @ 362 NONAME
	_ZN27CCreateACLConnectionCommand4NewLERK10TBTDevAddrt26THCIPageScanRepetitionMode17THCIReservedOctet15THCIClockOffseth @ 363 NONAME
	_ZN27CCreateACLConnectionCommand4NewLEv @ 364 NONAME
	_ZN27CCreateACLConnectionCommand5ResetERK10TBTDevAddrt26THCIPageScanRepetitionMode17THCIReservedOctet15THCIClockOffseth @ 365 NONAME
	_ZN27CDeleteStoredLinkKeyCommand4NewLERK10TBTDevAddrh @ 366 NONAME
	_ZN27CDeleteStoredLinkKeyCommand4NewLEv @ 367 NONAME
	_ZN27CDeleteStoredLinkKeyCommand5ResetERK10TBTDevAddrh @ 368 NONAME
	_ZN27CLinkKeyRequestReplyCommand4NewLERK10TBTDevAddrRK8TPckgBufI11TLinkKeyV10E @ 369 NONAME
	_ZN27CLinkKeyRequestReplyCommand4NewLEv @ 370 NONAME
	_ZN27CLinkKeyRequestReplyCommand5ResetERK10TBTDevAddrRK8TPckgBufI11TLinkKeyV10E @ 371 NONAME
	_ZN27CPINCodeRequestReplyCommand4NewLERK10TBTDevAddrhRK6TDesC8 @ 372 NONAME
	_ZN27CPINCodeRequestReplyCommand4NewLEv @ 373 NONAME
	_ZN27CPINCodeRequestReplyCommand5ResetERK10TBTDevAddrhRK6TDesC8 @ 374 NONAME
	_ZN27CPeriodicInquiryModeCommand4NewLEttmhh @ 375 NONAME
	_ZN27CPeriodicInquiryModeCommand4NewLEv @ 376 NONAME
	_ZN27CPeriodicInquiryModeCommand5ResetEttmhh @ 377 NONAME
	_ZN27CReadInquiryScanTypeCommand4NewLEv @ 378 NONAME
	_ZN27CReadInquiryScanTypeCommand5ResetEv @ 379 NONAME
	_ZN27CWriteEncryptionModeCommand4NewLEh @ 380 NONAME
	_ZN27CWriteEncryptionModeCommand4NewLEv @ 381 NONAME
	_ZN27CWriteEncryptionModeCommand5ResetEh @ 382 NONAME
	_ZN27CWritePageScanPeriodCommand4NewLEh @ 383 NONAME
	_ZN27CWritePageScanPeriodCommand4NewLEv @ 384 NONAME
	_ZN27CWritePageScanPeriodCommand5ResetEh @ 385 NONAME
	_ZN27TDisconnectionCompleteEvent4CastERK13THCIEventBase @ 386 NONAME
	_ZN27TDisconnectionCompleteEventC1E13THCIErrorCode20THCIConnectionHandlehR5TDes8 @ 387 NONAME
	_ZN27TDisconnectionCompleteEventC1ERK6TDesC8 @ 388 NONAME
	_ZN27TDisconnectionCompleteEventC2E13THCIErrorCode20THCIConnectionHandlehR5TDes8 @ 389 NONAME
	_ZN27TDisconnectionCompleteEventC2ERK6TDesC8 @ 390 NONAME
	_ZN27TDisconnectionCompleteEventD1Ev @ 391 NONAME
	_ZN27TDisconnectionCompleteEventD2Ev @ 392 NONAME
	_ZN27TInquiryCancelCompleteEvent4CastERK13THCIEventBase @ 393 NONAME
	_ZN27TInquiryCancelCompleteEventC1E13THCIErrorCodehR5TDes8 @ 394 NONAME
	_ZN27TInquiryCancelCompleteEventC1ERK6TDesC8 @ 395 NONAME
	_ZN27TInquiryCancelCompleteEventC2E13THCIErrorCodehR5TDes8 @ 396 NONAME
	_ZN27TInquiryCancelCompleteEventC2ERK6TDesC8 @ 397 NONAME
	_ZN27TInquiryResultwithRSSIEvent4CastERK13THCIEventBase @ 398 NONAME
	_ZN27TInquiryResultwithRSSIEventC1ERK6TDesC8 @ 399 NONAME
	_ZN27TInquiryResultwithRSSIEventC1EhRK6TArrayI10TBTDevAddrERKS0_I26THCIPageScanRepetitionModeERKS0_I17THCIReservedOctetERKS0_ImERKS0_I15THCIClockOffsetERKS0_I8THCIRssiER5TDes8 @ 400 NONAME
	_ZN27TInquiryResultwithRSSIEventC2ERK6TDesC8 @ 401 NONAME
	_ZN27TInquiryResultwithRSSIEventC2EhRK6TArrayI10TBTDevAddrERKS0_I26THCIPageScanRepetitionModeERKS0_I17THCIReservedOctetERKS0_ImERKS0_I15THCIClockOffsetERKS0_I8THCIRssiER5TDes8 @ 402 NONAME
	_ZN27TInquiryResultwithRSSIEventD1Ev @ 403 NONAME
	_ZN27TInquiryResultwithRSSIEventD2Ev @ 404 NONAME
	_ZN27TReadLMPHandleCompleteEvent4CastERK13THCIEventBase @ 405 NONAME
	_ZN27TReadLMPHandleCompleteEventC1E13THCIErrorCodeh20THCIConnectionHandlehmR5TDes8 @ 406 NONAME
	_ZN27TReadLMPHandleCompleteEventC1ERK6TDesC8 @ 407 NONAME
	_ZN27TReadLMPHandleCompleteEventC2E13THCIErrorCodeh20THCIConnectionHandlehmR5TDes8 @ 408 NONAME
	_ZN27TReadLMPHandleCompleteEventC2ERK6TDesC8 @ 409 NONAME
	_ZN27TReadLocalNameCompleteEvent4CastERK13THCIEventBase @ 410 NONAME
	_ZN27TReadLocalNameCompleteEventC1E13THCIErrorCodehRK6TDesC8R5TDes8 @ 411 NONAME
	_ZN27TReadLocalNameCompleteEventC1ERK6TDesC8 @ 412 NONAME
	_ZN27TReadLocalNameCompleteEventC2E13THCIErrorCodehRK6TDesC8R5TDes8 @ 413 NONAME
	_ZN27TReadLocalNameCompleteEventC2ERK6TDesC8 @ 414 NONAME
	_ZN27TRemoteNameReqCompleteEvent4CastERK13THCIEventBase @ 415 NONAME
	_ZN27TRemoteNameReqCompleteEventC1E13THCIErrorCodeRK10TBTDevAddr6TDesC8R5TDes8 @ 416 NONAME
	_ZN27TRemoteNameReqCompleteEventC1ERK6TDesC8 @ 417 NONAME
	_ZN27TRemoteNameReqCompleteEventC2E13THCIErrorCodeRK10TBTDevAddr6TDesC8R5TDes8 @ 418 NONAME
	_ZN27TRemoteNameReqCompleteEventC2ERK6TDesC8 @ 419 NONAME
	_ZN27TRemoteNameReqCompleteEventD1Ev @ 420 NONAME
	_ZN27TRemoteNameReqCompleteEventD2Ev @ 421 NONAME
	_ZN27TRoleDiscoveryCompleteEvent4CastERK13THCIEventBase @ 422 NONAME
	_ZN27TRoleDiscoveryCompleteEventC1E13THCIErrorCodeh20THCIConnectionHandlehR5TDes8 @ 423 NONAME
	_ZN27TRoleDiscoveryCompleteEventC1ERK6TDesC8 @ 424 NONAME
	_ZN27TRoleDiscoveryCompleteEventC2E13THCIErrorCodeh20THCIConnectionHandlehR5TDes8 @ 425 NONAME
	_ZN27TRoleDiscoveryCompleteEventC2ERK6TDesC8 @ 426 NONAME
	_ZN28CReadHoldModeActivityCommand4NewLEv @ 427 NONAME
	_ZN28CReadHoldModeActivityCommand5ResetEv @ 428 NONAME
	_ZN28CReadLocalVersionInfoCommand4NewLEv @ 429 NONAME
	_ZN28CReadLocalVersionInfoCommand5ResetEv @ 430 NONAME
	_ZN28CReadPageScanActivityCommand4NewLEv @ 431 NONAME
	_ZN28CReadPageScanActivityCommand5ResetEv @ 432 NONAME
	_ZN28CWriteInquiryScanTypeCommand4NewLEh @ 433 NONAME
	_ZN28CWriteInquiryScanTypeCommand4NewLEv @ 434 NONAME
	_ZN28CWriteInquiryScanTypeCommand5ResetEh @ 435 NONAME
	_ZN28TAuthenticationCompleteEvent4CastERK13THCIEventBase @ 436 NONAME
	_ZN28TAuthenticationCompleteEventC1E13THCIErrorCode20THCIConnectionHandleR5TDes8 @ 437 NONAME
	_ZN28TAuthenticationCompleteEventC1ERK6TDesC8 @ 438 NONAME
	_ZN28TAuthenticationCompleteEventC2E13THCIErrorCode20THCIConnectionHandleR5TDes8 @ 439 NONAME
	_ZN28TAuthenticationCompleteEventC2ERK6TDesC8 @ 440 NONAME
	_ZN28TAuthenticationCompleteEventD1Ev @ 441 NONAME
	_ZN28TAuthenticationCompleteEventD2Ev @ 442 NONAME
	_ZN28THostBufferSizeCompleteEvent4CastERK13THCIEventBase @ 443 NONAME
	_ZN28THostBufferSizeCompleteEventC1E13THCIErrorCodehR5TDes8 @ 444 NONAME
	_ZN28THostBufferSizeCompleteEventC1ERK6TDesC8 @ 445 NONAME
	_ZN28THostBufferSizeCompleteEventC2E13THCIErrorCodehR5TDes8 @ 446 NONAME
	_ZN28THostBufferSizeCompleteEventC2ERK6TDesC8 @ 447 NONAME
	_ZN28TReadBufferSizeCompleteEvent4CastERK13THCIEventBase @ 448 NONAME
	_ZN28TReadBufferSizeCompleteEventC1E13THCIErrorCodehthttR5TDes8 @ 449 NONAME
	_ZN28TReadBufferSizeCompleteEventC1ERK6TDesC8 @ 450 NONAME
	_ZN28TReadBufferSizeCompleteEventC2E13THCIErrorCodehthttR5TDes8 @ 451 NONAME
	_ZN28TReadBufferSizeCompleteEventC2ERK6TDesC8 @ 452 NONAME
	_ZN28TReadRemVerInfoCompleteEvent4CastERK13THCIEventBase @ 453 NONAME
	_ZN28TReadRemVerInfoCompleteEventC1E13THCIErrorCode20THCIConnectionHandlehttR5TDes8 @ 454 NONAME
	_ZN28TReadRemVerInfoCompleteEventC1ERK6TDesC8 @ 455 NONAME
	_ZN28TReadRemVerInfoCompleteEventC2E13THCIErrorCode20THCIConnectionHandlehttR5TDes8 @ 456 NONAME
	_ZN28TReadRemVerInfoCompleteEventC2ERK6TDesC8 @ 457 NONAME
	_ZN28TReadRemVerInfoCompleteEventD1Ev @ 458 NONAME
	_ZN28TReadRemVerInfoCompleteEventD2Ev @ 459 NONAME
	_ZN28TReadScanEnableCompleteEvent4CastERK13THCIEventBase @ 460 NONAME
	_ZN28TReadScanEnableCompleteEventC1E13THCIErrorCodehhR5TDes8 @ 461 NONAME
	_ZN28TReadScanEnableCompleteEventC1ERK6TDesC8 @ 462 NONAME
	_ZN28TReadScanEnableCompleteEventC2E13THCIErrorCodehhR5TDes8 @ 463 NONAME
	_ZN28TReadScanEnableCompleteEventC2ERK6TDesC8 @ 464 NONAME
	_ZN28TSetEventFilterCompleteEvent4CastERK13THCIEventBase @ 465 NONAME
	_ZN28TSetEventFilterCompleteEventC1E13THCIErrorCodehR5TDes8 @ 466 NONAME
	_ZN28TSetEventFilterCompleteEventC1ERK6TDesC8 @ 467 NONAME
	_ZN28TSetEventFilterCompleteEventC2E13THCIErrorCodehR5TDes8 @ 468 NONAME
	_ZN28TSetEventFilterCompleteEventC2ERK6TDesC8 @ 469 NONAME
	_ZN28TWriteLocalNameCompleteEvent4CastERK13THCIEventBase @ 470 NONAME
	_ZN28TWriteLocalNameCompleteEventC1E13THCIErrorCodehR5TDes8 @ 471 NONAME
	_ZN28TWriteLocalNameCompleteEventC1ERK6TDesC8 @ 472 NONAME
	_ZN28TWriteLocalNameCompleteEventC2E13THCIErrorCodehR5TDes8 @ 473 NONAME
	_ZN28TWriteLocalNameCompleteEventC2ERK6TDesC8 @ 474 NONAME
	_ZN29CReadRemoteVersionInfoCommand4NewLE20THCIConnectionHandle @ 475 NONAME
	_ZN29CReadRemoteVersionInfoCommand4NewLEv @ 476 NONAME
	_ZN29CReadRemoteVersionInfoCommand5ResetE20THCIConnectionHandle @ 477 NONAME
	_ZN29CWriteHoldModeActivityCommand4NewLEh @ 478 NONAME
	_ZN29CWriteHoldModeActivityCommand4NewLEv @ 479 NONAME
	_ZN29CWriteHoldModeActivityCommand5ResetEh @ 480 NONAME
	_ZN29CWritePageScanActivityCommand4NewLEtt @ 481 NONAME
	_ZN29CWritePageScanActivityCommand4NewLEv @ 482 NONAME
	_ZN29CWritePageScanActivityCommand5ResetEtt @ 483 NONAME
	_ZN29TReadInquiryModeCompleteEvent4CastERK13THCIEventBase @ 484 NONAME
	_ZN29TReadInquiryModeCompleteEventC1E13THCIErrorCodehhR5TDes8 @ 485 NONAME
	_ZN29TReadInquiryModeCompleteEventC1ERK6TDesC8 @ 486 NONAME
	_ZN29TReadInquiryModeCompleteEventC2E13THCIErrorCodehhR5TDes8 @ 487 NONAME
	_ZN29TReadInquiryModeCompleteEventC2ERK6TDesC8 @ 488 NONAME
	_ZN29TReadLinkQualityCompleteEvent4CastERK13THCIEventBase @ 489 NONAME
	_ZN29TReadLinkQualityCompleteEventC1E13THCIErrorCodeh20THCIConnectionHandlehR5TDes8 @ 490 NONAME
	_ZN29TReadLinkQualityCompleteEventC1ERK6TDesC8 @ 491 NONAME
	_ZN29TReadLinkQualityCompleteEventC2E13THCIErrorCodeh20THCIConnectionHandlehR5TDes8 @ 492 NONAME
	_ZN29TReadLinkQualityCompleteEventC2ERK6TDesC8 @ 493 NONAME
	_ZN29TReadPageTimeoutCompleteEvent4CastERK13THCIEventBase @ 494 NONAME
	_ZN29TReadPageTimeoutCompleteEventC1E13THCIErrorCodehtR5TDes8 @ 495 NONAME
	_ZN29TReadPageTimeoutCompleteEventC1ERK6TDesC8 @ 496 NONAME
	_ZN29TReadPageTimeoutCompleteEventC2E13THCIErrorCodehtR5TDes8 @ 497 NONAME
	_ZN29TReadPageTimeoutCompleteEventC2ERK6TDesC8 @ 498 NONAME
	_ZN29TReadRemSuppFeatCompleteEvent4CastERK13THCIEventBase @ 499 NONAME
	_ZN29TReadRemSuppFeatCompleteEventC1E13THCIErrorCode20THCIConnectionHandleyR5TDes8 @ 500 NONAME
	_ZN29TReadRemSuppFeatCompleteEventC1ERK6TDesC8 @ 501 NONAME
	_ZN29TReadRemSuppFeatCompleteEventC2E13THCIErrorCode20THCIConnectionHandleyR5TDes8 @ 502 NONAME
	_ZN29TReadRemSuppFeatCompleteEventC2ERK6TDesC8 @ 503 NONAME
	_ZN29TReadRemSuppFeatCompleteEventD1Ev @ 504 NONAME
	_ZN29TReadRemSuppFeatCompleteEventD2Ev @ 505 NONAME
	_ZN29TWriteScanEnableCompleteEvent4CastERK13THCIEventBase @ 506 NONAME
	_ZN29TWriteScanEnableCompleteEventC1E13THCIErrorCodehR5TDes8 @ 507 NONAME
	_ZN29TWriteScanEnableCompleteEventC1ERK6TDesC8 @ 508 NONAME
	_ZN29TWriteScanEnableCompleteEventC2E13THCIErrorCodehR5TDes8 @ 509 NONAME
	_ZN29TWriteScanEnableCompleteEventC2ERK6TDesC8 @ 510 NONAME
	_ZN30CCreateConnectionCancelCommand4NewLERK10TBTDevAddr @ 511 NONAME
	_ZN30CCreateConnectionCancelCommand4NewLEv @ 512 NONAME
	_ZN30CCreateConnectionCancelCommand5ResetERK10TBTDevAddr @ 513 NONAME
	_ZN30CReadLinkPolicySettingsCommand4NewLE20THCIConnectionHandle @ 514 NONAME
	_ZN30CReadLinkPolicySettingsCommand4NewLEv @ 515 NONAME
	_ZN30CReadLinkPolicySettingsCommand5ResetE20THCIConnectionHandle @ 516 NONAME
	_ZN30CReadTransmitPowerLevelCommand4NewLE20THCIConnectionHandleh @ 517 NONAME
	_ZN30CReadTransmitPowerLevelCommand4NewLEv @ 518 NONAME
	_ZN30CReadTransmitPowerLevelCommand5ResetE20THCIConnectionHandleh @ 519 NONAME
	_ZN30TCreateNewUnitKeyCompleteEvent4CastERK13THCIEventBase @ 520 NONAME
	_ZN30TCreateNewUnitKeyCompleteEventC1E13THCIErrorCodehR5TDes8 @ 521 NONAME
	_ZN30TCreateNewUnitKeyCompleteEventC1ERK6TDesC8 @ 522 NONAME
	_ZN30TCreateNewUnitKeyCompleteEventC2E13THCIErrorCodehR5TDes8 @ 523 NONAME
	_ZN30TCreateNewUnitKeyCompleteEventC2ERK6TDesC8 @ 524 NONAME
	_ZN30TNumberOfCompletedPacketsEvent4CastERK13THCIEventBase @ 525 NONAME
	_ZN30TNumberOfCompletedPacketsEventC1ERK6TDesC8 @ 526 NONAME
	_ZN30TNumberOfCompletedPacketsEventC1EhRK6TArrayI20THCIConnectionHandleERKS0_I25THCINumOfCompletedPacketsER5TDes8 @ 527 NONAME
	_ZN30TNumberOfCompletedPacketsEventC2ERK6TDesC8 @ 528 NONAME
	_ZN30TNumberOfCompletedPacketsEventC2EhRK6TArrayI20THCIConnectionHandleERKS0_I25THCINumOfCompletedPacketsER5TDes8 @ 529 NONAME
	_ZN30TNumberOfCompletedPacketsEventD1Ev @ 530 NONAME
	_ZN30TNumberOfCompletedPacketsEventD2Ev @ 531 NONAME
	_ZN30TReadLoopbackModeCompleteEvent4CastERK13THCIEventBase @ 532 NONAME
	_ZN30TReadLoopbackModeCompleteEventC1E13THCIErrorCodehhR5TDes8 @ 533 NONAME
	_ZN30TReadLoopbackModeCompleteEventC1ERK6TDesC8 @ 534 NONAME
	_ZN30TReadLoopbackModeCompleteEventC2E13THCIErrorCodehhR5TDes8 @ 535 NONAME
	_ZN30TReadLoopbackModeCompleteEventC2ERK6TDesC8 @ 536 NONAME
	_ZN30TReadPageScanTypeCompleteEvent4CastERK13THCIEventBase @ 537 NONAME
	_ZN30TReadPageScanTypeCompleteEventC1E13THCIErrorCodehhR5TDes8 @ 538 NONAME
	_ZN30TReadPageScanTypeCompleteEventC1ERK6TDesC8 @ 539 NONAME
	_ZN30TReadPageScanTypeCompleteEventC2E13THCIErrorCodehhR5TDes8 @ 540 NONAME
	_ZN30TReadPageScanTypeCompleteEventC2ERK6TDesC8 @ 541 NONAME
	_ZN30TReadVoiceSettingCompleteEvent4CastERK13THCIEventBase @ 542 NONAME
	_ZN30TReadVoiceSettingCompleteEventC1E13THCIErrorCodehtR5TDes8 @ 543 NONAME
	_ZN30TReadVoiceSettingCompleteEventC1ERK6TDesC8 @ 544 NONAME
	_ZN30TReadVoiceSettingCompleteEventC2E13THCIErrorCodehtR5TDes8 @ 545 NONAME
	_ZN30TReadVoiceSettingCompleteEventC2ERK6TDesC8 @ 546 NONAME
	_ZN30TWriteInquiryModeCompleteEvent4CastERK13THCIEventBase @ 547 NONAME
	_ZN30TWriteInquiryModeCompleteEventC1E13THCIErrorCodehR5TDes8 @ 548 NONAME
	_ZN30TWriteInquiryModeCompleteEventC1ERK6TDesC8 @ 549 NONAME
	_ZN30TWriteInquiryModeCompleteEventC2E13THCIErrorCodehR5TDes8 @ 550 NONAME
	_ZN30TWriteInquiryModeCompleteEventC2ERK6TDesC8 @ 551 NONAME
	_ZN30TWritePageTimeoutCompleteEvent4CastERK13THCIEventBase @ 552 NONAME
	_ZN30TWritePageTimeoutCompleteEventC1E13THCIErrorCodehR5TDes8 @ 553 NONAME
	_ZN30TWritePageTimeoutCompleteEventC1ERK6TDesC8 @ 554 NONAME
	_ZN30TWritePageTimeoutCompleteEventC2E13THCIErrorCodehR5TDes8 @ 555 NONAME
	_ZN30TWritePageTimeoutCompleteEventC2ERK6TDesC8 @ 556 NONAME
	_ZN31CAcceptConnectionRequestCommand4NewLERK10TBTDevAddrh @ 557 NONAME
	_ZN31CAcceptConnectionRequestCommand4NewLEv @ 558 NONAME
	_ZN31CAcceptConnectionRequestCommand5ResetERK10TBTDevAddrh @ 559 NONAME
	_ZN31CAuthenticationRequestedCommand4NewLE20THCIConnectionHandle @ 560 NONAME
	_ZN31CAuthenticationRequestedCommand4NewLEv @ 561 NONAME
	_ZN31CAuthenticationRequestedCommand5ResetE20THCIConnectionHandle @ 562 NONAME
	_ZN31CExitPeriodicInquiryModeCommand4NewLEv @ 563 NONAME
	_ZN31CExitPeriodicInquiryModeCommand5ResetEv @ 564 NONAME
	_ZN31CReadInquiryScanActivityCommand4NewLEv @ 565 NONAME
	_ZN31CReadInquiryScanActivityCommand5ResetEv @ 566 NONAME
	_ZN31CRejectConnectionRequestCommand4NewLERK10TBTDevAddrh @ 567 NONAME
	_ZN31CRejectConnectionRequestCommand4NewLEv @ 568 NONAME
	_ZN31CRejectConnectionRequestCommand5ResetERK10TBTDevAddrh @ 569 NONAME
	_ZN31CRemoteNameRequestCancelCommand4NewLERK10TBTDevAddr @ 570 NONAME
	_ZN31CRemoteNameRequestCancelCommand4NewLEv @ 571 NONAME
	_ZN31CRemoteNameRequestCancelCommand5ResetERK10TBTDevAddr @ 572 NONAME
	_ZN31CSetConnectionEncryptionCommand4NewLE20THCIConnectionHandleh @ 573 NONAME
	_ZN31CSetConnectionEncryptionCommand4NewLEv @ 574 NONAME
	_ZN31CSetConnectionEncryptionCommand5ResetE20THCIConnectionHandleh @ 575 NONAME
	_ZN31CWriteLinkPolicySettingsCommand4NewLE20THCIConnectionHandlet @ 576 NONAME
	_ZN31CWriteLinkPolicySettingsCommand4NewLEv @ 577 NONAME
	_ZN31CWriteLinkPolicySettingsCommand5ResetE20THCIConnectionHandlet @ 578 NONAME
	_ZN31TFlowSpecificationCompleteEvent4CastERK13THCIEventBase @ 579 NONAME
	_ZN31TFlowSpecificationCompleteEventC1E13THCIErrorCode20THCIConnectionHandlehhhmmmmR5TDes8 @ 580 NONAME
	_ZN31TFlowSpecificationCompleteEventC1ERK6TDesC8 @ 581 NONAME
	_ZN31TFlowSpecificationCompleteEventC2E13THCIErrorCode20THCIConnectionHandlehhhmmmmR5TDes8 @ 582 NONAME
	_ZN31TFlowSpecificationCompleteEventC2ERK6TDesC8 @ 583 NONAME
	_ZN31TFlowSpecificationCompleteEventD1Ev @ 584 NONAME
	_ZN31TFlowSpecificationCompleteEventD2Ev @ 585 NONAME
	_ZN31TReadAFHChannelMapCompleteEvent4CastERK13THCIEventBase @ 586 NONAME
	_ZN31TReadAFHChannelMapCompleteEventC1E13THCIErrorCodeh20THCIConnectionHandleh6TDesC8R5TDes8 @ 587 NONAME
	_ZN31TReadAFHChannelMapCompleteEventC1ERK6TDesC8 @ 588 NONAME
	_ZN31TReadAFHChannelMapCompleteEventC2E13THCIErrorCodeh20THCIConnectionHandleh6TDesC8R5TDes8 @ 589 NONAME
	_ZN31TReadAFHChannelMapCompleteEventC2ERK6TDesC8 @ 590 NONAME
	_ZN31TReadClassOfDeviceCompleteEvent4CastERK13THCIEventBase @ 591 NONAME
	_ZN31TReadClassOfDeviceCompleteEventC1E13THCIErrorCodehmR5TDes8 @ 592 NONAME
	_ZN31TReadClassOfDeviceCompleteEventC1ERK6TDesC8 @ 593 NONAME
	_ZN31TReadClassOfDeviceCompleteEventC2E13THCIErrorCodehmR5TDes8 @ 594 NONAME
	_ZN31TReadClassOfDeviceCompleteEventC2ERK6TDesC8 @ 595 NONAME
	_ZN31TReadCurrentIACLAPCompleteEvent4CastERK13THCIEventBase @ 596 NONAME
	_ZN31TReadCurrentIACLAPCompleteEventC1E13THCIErrorCodehhRK6TArrayImER5TDes8 @ 597 NONAME
	_ZN31TReadCurrentIACLAPCompleteEventC1ERK6TDesC8 @ 598 NONAME
	_ZN31TReadCurrentIACLAPCompleteEventC2E13THCIErrorCodehhRK6TArrayImER5TDes8 @ 599 NONAME
	_ZN31TReadCurrentIACLAPCompleteEventC2ERK6TDesC8 @ 600 NONAME
	_ZN31TReadStoredLinkKeyCompleteEvent4CastERK13THCIEventBase @ 601 NONAME
	_ZN31TReadStoredLinkKeyCompleteEventC1E13THCIErrorCodehttR5TDes8 @ 602 NONAME
	_ZN31TReadStoredLinkKeyCompleteEventC1ERK6TDesC8 @ 603 NONAME
	_ZN31TReadStoredLinkKeyCompleteEventC2E13THCIErrorCodehttR5TDes8 @ 604 NONAME
	_ZN31TReadStoredLinkKeyCompleteEventC2ERK6TDesC8 @ 605 NONAME
	_ZN31TWriteLoopbackModeCompleteEvent4CastERK13THCIEventBase @ 606 NONAME
	_ZN31TWriteLoopbackModeCompleteEventC1E13THCIErrorCodehR5TDes8 @ 607 NONAME
	_ZN31TWriteLoopbackModeCompleteEventC1ERK6TDesC8 @ 608 NONAME
	_ZN31TWriteLoopbackModeCompleteEventC2E13THCIErrorCodehR5TDes8 @ 609 NONAME
	_ZN31TWriteLoopbackModeCompleteEventC2ERK6TDesC8 @ 610 NONAME
	_ZN31TWritePageScanTypeCompleteEvent4CastERK13THCIEventBase @ 611 NONAME
	_ZN31TWritePageScanTypeCompleteEventC1E13THCIErrorCodehR5TDes8 @ 612 NONAME
	_ZN31TWritePageScanTypeCompleteEventC1ERK6TDesC8 @ 613 NONAME
	_ZN31TWritePageScanTypeCompleteEventC2E13THCIErrorCodehR5TDes8 @ 614 NONAME
	_ZN31TWritePageScanTypeCompleteEventC2ERK6TDesC8 @ 615 NONAME
	_ZN31TWriteVoiceSettingCompleteEvent4CastERK13THCIEventBase @ 616 NONAME
	_ZN31TWriteVoiceSettingCompleteEventC1E13THCIErrorCodehR5TDes8 @ 617 NONAME
	_ZN31TWriteVoiceSettingCompleteEventC1ERK6TDesC8 @ 618 NONAME
	_ZN31TWriteVoiceSettingCompleteEventC2E13THCIErrorCodehR5TDes8 @ 619 NONAME
	_ZN31TWriteVoiceSettingCompleteEventC2ERK6TDesC8 @ 620 NONAME
	_ZN32CReadAuthenticationEnableCommand4NewLEv @ 621 NONAME
	_ZN32CReadAuthenticationEnableCommand5ResetEv @ 622 NONAME
	_ZN32CReadFailedContactCounterCommand4NewLE20THCIConnectionHandle @ 623 NONAME
	_ZN32CReadFailedContactCounterCommand4NewLEv @ 624 NONAME
	_ZN32CReadFailedContactCounterCommand5ResetE20THCIConnectionHandle @ 625 NONAME
	_ZN32CReadNumberOfSupportedIACCommand4NewLEv @ 626 NONAME
	_ZN32CReadNumberOfSupportedIACCommand5ResetEv @ 627 NONAME
	_ZN32CWriteInquiryScanActivityCommand4NewLEtt @ 628 NONAME
	_ZN32CWriteInquiryScanActivityCommand4NewLEv @ 629 NONAME
	_ZN32CWriteInquiryScanActivityCommand5ResetEtt @ 630 NONAME
	_ZN32TReadEncryptionModeCompleteEvent4CastERK13THCIEventBase @ 631 NONAME
	_ZN32TReadEncryptionModeCompleteEventC1E13THCIErrorCodehhR5TDes8 @ 632 NONAME
	_ZN32TReadEncryptionModeCompleteEventC1ERK6TDesC8 @ 633 NONAME
	_ZN32TReadEncryptionModeCompleteEventC2E13THCIErrorCodehhR5TDes8 @ 634 NONAME
	_ZN32TReadEncryptionModeCompleteEventC2ERK6TDesC8 @ 635 NONAME
	_ZN32TReadPageScanPeriodCompleteEvent4CastERK13THCIEventBase @ 636 NONAME
	_ZN32TReadPageScanPeriodCompleteEventC1E13THCIErrorCodehhR5TDes8 @ 637 NONAME
	_ZN32TReadPageScanPeriodCompleteEventC1ERK6TDesC8 @ 638 NONAME
	_ZN32TReadPageScanPeriodCompleteEventC2E13THCIErrorCodehhR5TDes8 @ 639 NONAME
	_ZN32TReadPageScanPeriodCompleteEventC2ERK6TDesC8 @ 640 NONAME
	_ZN32TWriteClassOfDeviceCompleteEvent4CastERK13THCIEventBase @ 641 NONAME
	_ZN32TWriteClassOfDeviceCompleteEventC1E13THCIErrorCodehR5TDes8 @ 642 NONAME
	_ZN32TWriteClassOfDeviceCompleteEventC1ERK6TDesC8 @ 643 NONAME
	_ZN32TWriteClassOfDeviceCompleteEventC2E13THCIErrorCodehR5TDes8 @ 644 NONAME
	_ZN32TWriteClassOfDeviceCompleteEventC2ERK6TDesC8 @ 645 NONAME
	_ZN32TWriteCurrentIACLAPCompleteEvent4CastERK13THCIEventBase @ 646 NONAME
	_ZN32TWriteCurrentIACLAPCompleteEventC1E13THCIErrorCodehR5TDes8 @ 647 NONAME
	_ZN32TWriteCurrentIACLAPCompleteEventC1ERK6TDesC8 @ 648 NONAME
	_ZN32TWriteCurrentIACLAPCompleteEventC2E13THCIErrorCodehR5TDes8 @ 649 NONAME
	_ZN32TWriteCurrentIACLAPCompleteEventC2ERK6TDesC8 @ 650 NONAME
	_ZN32TWriteStoredLinkKeyCompleteEvent4CastERK13THCIEventBase @ 651 NONAME
	_ZN32TWriteStoredLinkKeyCompleteEventC1E13THCIErrorCodehhR5TDes8 @ 652 NONAME
	_ZN32TWriteStoredLinkKeyCompleteEventC1ERK6TDesC8 @ 653 NONAME
	_ZN32TWriteStoredLinkKeyCompleteEventC2E13THCIErrorCodehhR5TDes8 @ 654 NONAME
	_ZN32TWriteStoredLinkKeyCompleteEventC2ERK6TDesC8 @ 655 NONAME
	_ZN33CEnableDeviceUnderTestModeCommand4NewLEv @ 656 NONAME
	_ZN33CEnableDeviceUnderTestModeCommand5ResetEv @ 657 NONAME
	_ZN33CReadAutomaticFlushTimeoutCommand4NewLE20THCIConnectionHandle @ 658 NONAME
	_ZN33CReadAutomaticFlushTimeoutCommand4NewLEv @ 659 NONAME
	_ZN33CReadAutomaticFlushTimeoutCommand5ResetE20THCIConnectionHandle @ 660 NONAME
	_ZN33CReadLocalExtendedFeaturesCommand4NewLEh @ 661 NONAME
	_ZN33CReadLocalExtendedFeaturesCommand4NewLEv @ 662 NONAME
	_ZN33CReadLocalExtendedFeaturesCommand5ResetEh @ 663 NONAME
	_ZN33CResetFailedContactCounterCommand4NewLE20THCIConnectionHandle @ 664 NONAME
	_ZN33CResetFailedContactCounterCommand4NewLEv @ 665 NONAME
	_ZN33CResetFailedContactCounterCommand5ResetE20THCIConnectionHandle @ 666 NONAME
	_ZN33CWriteAuthenticationEnableCommand4NewLEh @ 667 NONAME
	_ZN33CWriteAuthenticationEnableCommand4NewLEv @ 668 NONAME
	_ZN33CWriteAuthenticationEnableCommand5ResetEh @ 669 NONAME
	_ZN33TConnectionPacketTypeChangedEvent4CastERK13THCIEventBase @ 670 NONAME
	_ZN33TConnectionPacketTypeChangedEventC1E13THCIErrorCode20THCIConnectionHandletR5TDes8 @ 671 NONAME
	_ZN33TConnectionPacketTypeChangedEventC1ERK6TDesC8 @ 672 NONAME
	_ZN33TConnectionPacketTypeChangedEventC2E13THCIErrorCode20THCIConnectionHandletR5TDes8 @ 673 NONAME
	_ZN33TConnectionPacketTypeChangedEventC2ERK6TDesC8 @ 674 NONAME
	_ZN33TConnectionPacketTypeChangedEventD1Ev @ 675 NONAME
	_ZN33TConnectionPacketTypeChangedEventD2Ev @ 676 NONAME
	_ZN33TDeleteStoredLinkKeyCompleteEvent4CastERK13THCIEventBase @ 677 NONAME
	_ZN33TDeleteStoredLinkKeyCompleteEventC1E13THCIErrorCodehtR5TDes8 @ 678 NONAME
	_ZN33TDeleteStoredLinkKeyCompleteEventC1ERK6TDesC8 @ 679 NONAME
	_ZN33TDeleteStoredLinkKeyCompleteEventC2E13THCIErrorCodehtR5TDes8 @ 680 NONAME
	_ZN33TDeleteStoredLinkKeyCompleteEventC2ERK6TDesC8 @ 681 NONAME
	_ZN33TLinkKeyRequestReplyCompleteEvent4CastERK13THCIEventBase @ 682 NONAME
	_ZN33TLinkKeyRequestReplyCompleteEventC1E13THCIErrorCodehRK10TBTDevAddrR5TDes8 @ 683 NONAME
	_ZN33TLinkKeyRequestReplyCompleteEventC1ERK6TDesC8 @ 684 NONAME
	_ZN33TLinkKeyRequestReplyCompleteEventC2E13THCIErrorCodehRK10TBTDevAddrR5TDes8 @ 685 NONAME
	_ZN33TLinkKeyRequestReplyCompleteEventC2ERK6TDesC8 @ 686 NONAME
	_ZN33TPINCodeRequestReplyCompleteEvent4CastERK13THCIEventBase @ 687 NONAME
	_ZN33TPINCodeRequestReplyCompleteEventC1E13THCIErrorCodehRK10TBTDevAddrR5TDes8 @ 688 NONAME
	_ZN33TPINCodeRequestReplyCompleteEventC1ERK6TDesC8 @ 689 NONAME
	_ZN33TPINCodeRequestReplyCompleteEventC2E13THCIErrorCodehRK10TBTDevAddrR5TDes8 @ 690 NONAME
	_ZN33TPINCodeRequestReplyCompleteEventC2ERK6TDesC8 @ 691 NONAME
	_ZN33TPeriodicInquiryModeCompleteEvent4CastERK13THCIEventBase @ 692 NONAME
	_ZN33TPeriodicInquiryModeCompleteEventC1E13THCIErrorCodehR5TDes8 @ 693 NONAME
	_ZN33TPeriodicInquiryModeCompleteEventC1ERK6TDesC8 @ 694 NONAME
	_ZN33TPeriodicInquiryModeCompleteEventC2E13THCIErrorCodehR5TDes8 @ 695 NONAME
	_ZN33TPeriodicInquiryModeCompleteEventC2ERK6TDesC8 @ 696 NONAME
	_ZN33TReadInquiryScanTypeCompleteEvent4CastERK13THCIEventBase @ 697 NONAME
	_ZN33TReadInquiryScanTypeCompleteEventC1E13THCIErrorCodehhR5TDes8 @ 698 NONAME
	_ZN33TReadInquiryScanTypeCompleteEventC1ERK6TDesC8 @ 699 NONAME
	_ZN33TReadInquiryScanTypeCompleteEventC2E13THCIErrorCodehhR5TDes8 @ 700 NONAME
	_ZN33TReadInquiryScanTypeCompleteEventC2ERK6TDesC8 @ 701 NONAME
	_ZN33TWriteEncryptionModeCompleteEvent4CastERK13THCIEventBase @ 702 NONAME
	_ZN33TWriteEncryptionModeCompleteEventC1E13THCIErrorCodehR5TDes8 @ 703 NONAME
	_ZN33TWriteEncryptionModeCompleteEventC1ERK6TDesC8 @ 704 NONAME
	_ZN33TWriteEncryptionModeCompleteEventC2E13THCIErrorCodehR5TDes8 @ 705 NONAME
	_ZN33TWriteEncryptionModeCompleteEventC2ERK6TDesC8 @ 706 NONAME
	_ZN33TWritePageScanPeriodCompleteEvent4CastERK13THCIEventBase @ 707 NONAME
	_ZN33TWritePageScanPeriodCompleteEventC1E13THCIErrorCodehR5TDes8 @ 708 NONAME
	_ZN33TWritePageScanPeriodCompleteEventC1ERK6TDesC8 @ 709 NONAME
	_ZN33TWritePageScanPeriodCompleteEventC2E13THCIErrorCodehR5TDes8 @ 710 NONAME
	_ZN33TWritePageScanPeriodCompleteEventC2ERK6TDesC8 @ 711 NONAME
	_ZN34CChangeConnectionPacketTypeCommand4NewLE20THCIConnectionHandlet @ 712 NONAME
	_ZN34CChangeConnectionPacketTypeCommand4NewLEv @ 713 NONAME
	_ZN34CChangeConnectionPacketTypeCommand5ResetE20THCIConnectionHandlet @ 714 NONAME
	_ZN34CReadLinkSupervisionTimeoutCommand4NewLE20THCIConnectionHandle @ 715 NONAME
	_ZN34CReadLinkSupervisionTimeoutCommand4NewLEv @ 716 NONAME
	_ZN34CReadLinkSupervisionTimeoutCommand5ResetE20THCIConnectionHandle @ 717 NONAME
	_ZN34CReadLocalSupportedCommandsCommand4NewLEv @ 718 NONAME
	_ZN34CReadLocalSupportedCommandsCommand5ResetEv @ 719 NONAME
	_ZN34CReadLocalSupportedFeaturesCommand4NewLEv @ 720 NONAME
	_ZN34CReadLocalSupportedFeaturesCommand5ResetEv @ 721 NONAME
	_ZN34CReadRemoteExtendedFeaturesCommand4NewLE20THCIConnectionHandleh @ 722 NONAME
	_ZN34CReadRemoteExtendedFeaturesCommand4NewLEv @ 723 NONAME
	_ZN34CReadRemoteExtendedFeaturesCommand5ResetE20THCIConnectionHandleh @ 724 NONAME
	_ZN34CSetupSynchronousConnectionCommand4NewLE20THCIConnectionHandlemmtthtRK10TBTDevAddr @ 725 NONAME
	_ZN34CSetupSynchronousConnectionCommand4NewLEv @ 726 NONAME
	_ZN34CSetupSynchronousConnectionCommand5ResetE20THCIConnectionHandlemmtthtRK10TBTDevAddr @ 727 NONAME
	_ZN34CWriteAutomaticFlushTimeoutCommand4NewLE20THCIConnectionHandlet @ 728 NONAME
	_ZN34CWriteAutomaticFlushTimeoutCommand4NewLEv @ 729 NONAME
	_ZN34CWriteAutomaticFlushTimeoutCommand5ResetE20THCIConnectionHandlet @ 730 NONAME
	_ZN34TPageScanRepetitionModeChangeEvent4CastERK13THCIEventBase @ 731 NONAME
	_ZN34TPageScanRepetitionModeChangeEventC1ERK10TBTDevAddr26THCIPageScanRepetitionModeR5TDes8 @ 732 NONAME
	_ZN34TPageScanRepetitionModeChangeEventC1ERK6TDesC8 @ 733 NONAME
	_ZN34TPageScanRepetitionModeChangeEventC2ERK10TBTDevAddr26THCIPageScanRepetitionModeR5TDes8 @ 734 NONAME
	_ZN34TPageScanRepetitionModeChangeEventC2ERK6TDesC8 @ 735 NONAME
	_ZN34TPageScanRepetitionModeChangeEventD1Ev @ 736 NONAME
	_ZN34TPageScanRepetitionModeChangeEventD2Ev @ 737 NONAME
	_ZN34TReadHoldModeActivityCompleteEvent4CastERK13THCIEventBase @ 738 NONAME
	_ZN34TReadHoldModeActivityCompleteEventC1E13THCIErrorCodehhR5TDes8 @ 739 NONAME
	_ZN34TReadHoldModeActivityCompleteEventC1ERK6TDesC8 @ 740 NONAME
	_ZN34TReadHoldModeActivityCompleteEventC2E13THCIErrorCodehhR5TDes8 @ 741 NONAME
	_ZN34TReadHoldModeActivityCompleteEventC2ERK6TDesC8 @ 742 NONAME
	_ZN34TReadLocalVersionInfoCompleteEvent4CastERK13THCIEventBase @ 743 NONAME
	_ZN34TReadLocalVersionInfoCompleteEventC1E13THCIErrorCodehhthttR5TDes8 @ 744 NONAME
	_ZN34TReadLocalVersionInfoCompleteEventC1ERK6TDesC8 @ 745 NONAME
	_ZN34TReadLocalVersionInfoCompleteEventC2E13THCIErrorCodehhthttR5TDes8 @ 746 NONAME
	_ZN34TReadLocalVersionInfoCompleteEventC2ERK6TDesC8 @ 747 NONAME
	_ZN34TReadPageScanActivityCompleteEvent4CastERK13THCIEventBase @ 748 NONAME
	_ZN34TReadPageScanActivityCompleteEventC1E13THCIErrorCodehttR5TDes8 @ 749 NONAME
	_ZN34TReadPageScanActivityCompleteEventC1ERK6TDesC8 @ 750 NONAME
	_ZN34TReadPageScanActivityCompleteEventC2E13THCIErrorCodehttR5TDes8 @ 751 NONAME
	_ZN34TReadPageScanActivityCompleteEventC2ERK6TDesC8 @ 752 NONAME
	_ZN34TSynchronousConnectionChangedEvent4CastERK13THCIEventBase @ 753 NONAME
	_ZN34TSynchronousConnectionChangedEventC1E13THCIErrorCode20THCIConnectionHandlehhttR5TDes8 @ 754 NONAME
	_ZN34TSynchronousConnectionChangedEventC1ERK6TDesC8 @ 755 NONAME
	_ZN34TSynchronousConnectionChangedEventC2E13THCIErrorCode20THCIConnectionHandlehhttR5TDes8 @ 756 NONAME
	_ZN34TSynchronousConnectionChangedEventC2ERK6TDesC8 @ 757 NONAME
	_ZN34TSynchronousConnectionChangedEventD1Ev @ 758 NONAME
	_ZN34TSynchronousConnectionChangedEventD2Ev @ 759 NONAME
	_ZN34TWriteInquiryScanTypeCompleteEvent4CastERK13THCIEventBase @ 760 NONAME
	_ZN34TWriteInquiryScanTypeCompleteEventC1E13THCIErrorCodehR5TDes8 @ 761 NONAME
	_ZN34TWriteInquiryScanTypeCompleteEventC1ERK6TDesC8 @ 762 NONAME
	_ZN34TWriteInquiryScanTypeCompleteEventC2E13THCIErrorCodehR5TDes8 @ 763 NONAME
	_ZN34TWriteInquiryScanTypeCompleteEventC2ERK6TDesC8 @ 764 NONAME
	_ZN35CLinkKeyRequestReplyNegativeCommand4NewLERK10TBTDevAddr @ 765 NONAME
	_ZN35CLinkKeyRequestReplyNegativeCommand4NewLEv @ 766 NONAME
	_ZN35CLinkKeyRequestReplyNegativeCommand5ResetERK10TBTDevAddr @ 767 NONAME
	_ZN35CPINCodeRequestReplyNegativeCommand4NewLERK10TBTDevAddr @ 768 NONAME
	_ZN35CPINCodeRequestReplyNegativeCommand4NewLEv @ 769 NONAME
	_ZN35CPINCodeRequestReplyNegativeCommand5ResetERK10TBTDevAddr @ 770 NONAME
	_ZN35CReadConnectionAcceptTimeoutCommand4NewLEv @ 771 NONAME
	_ZN35CReadConnectionAcceptTimeoutCommand5ResetEv @ 772 NONAME
	_ZN35CReadRemoteSupportedFeaturesCommand4NewLE20THCIConnectionHandle @ 773 NONAME
	_ZN35CReadRemoteSupportedFeaturesCommand4NewLEv @ 774 NONAME
	_ZN35CReadRemoteSupportedFeaturesCommand5ResetE20THCIConnectionHandle @ 775 NONAME
	_ZN35CWriteLinkSupervisionTimeoutCommand4NewLE20THCIConnectionHandlet @ 776 NONAME
	_ZN35CWriteLinkSupervisionTimeoutCommand4NewLEv @ 777 NONAME
	_ZN35CWriteLinkSupervisionTimeoutCommand5ResetE20THCIConnectionHandlet @ 778 NONAME
	_ZN35TSynchronousConnectionCompleteEvent4CastERK13THCIEventBase @ 779 NONAME
	_ZN35TSynchronousConnectionCompleteEventC1E13THCIErrorCode20THCIConnectionHandleRK10TBTDevAddrhhhtthR5TDes8 @ 780 NONAME
	_ZN35TSynchronousConnectionCompleteEventC1ERK6TDesC8 @ 781 NONAME
	_ZN35TSynchronousConnectionCompleteEventC2E13THCIErrorCode20THCIConnectionHandleRK10TBTDevAddrhhhtthR5TDes8 @ 782 NONAME
	_ZN35TSynchronousConnectionCompleteEventC2ERK6TDesC8 @ 783 NONAME
	_ZN35TSynchronousConnectionCompleteEventD1Ev @ 784 NONAME
	_ZN35TSynchronousConnectionCompleteEventD2Ev @ 785 NONAME
	_ZN35TWriteHoldModeActivityCompleteEvent4CastERK13THCIEventBase @ 786 NONAME
	_ZN35TWriteHoldModeActivityCompleteEventC1E13THCIErrorCodehR5TDes8 @ 787 NONAME
	_ZN35TWriteHoldModeActivityCompleteEventC1ERK6TDesC8 @ 788 NONAME
	_ZN35TWriteHoldModeActivityCompleteEventC2E13THCIErrorCodehR5TDes8 @ 789 NONAME
	_ZN35TWriteHoldModeActivityCompleteEventC2ERK6TDesC8 @ 790 NONAME
	_ZN35TWritePageScanActivityCompleteEvent4CastERK13THCIEventBase @ 791 NONAME
	_ZN35TWritePageScanActivityCompleteEventC1E13THCIErrorCodehR5TDes8 @ 792 NONAME
	_ZN35TWritePageScanActivityCompleteEventC1ERK6TDesC8 @ 793 NONAME
	_ZN35TWritePageScanActivityCompleteEventC2E13THCIErrorCodehR5TDes8 @ 794 NONAME
	_ZN35TWritePageScanActivityCompleteEventC2ERK6TDesC8 @ 795 NONAME
	_ZN36CHostNumberOfCompletedPacketsCommand4NewLEhRK6RArrayI20THCIConnectionHandleERKS0_I25THCINumOfCompletedPacketsE @ 796 NONAME
	_ZN36CHostNumberOfCompletedPacketsCommand4NewLEv @ 797 NONAME
	_ZN36CHostNumberOfCompletedPacketsCommand5ResetEhRK6RArrayI20THCIConnectionHandleERKS0_I25THCINumOfCompletedPacketsE @ 798 NONAME
	_ZN36CReadAFHChannelAssessmentModeCommand4NewLEv @ 799 NONAME
	_ZN36CReadAFHChannelAssessmentModeCommand5ResetEv @ 800 NONAME
	_ZN36CWriteConnectionAcceptTimeoutCommand4NewLEt @ 801 NONAME
	_ZN36CWriteConnectionAcceptTimeoutCommand4NewLEv @ 802 NONAME
	_ZN36CWriteConnectionAcceptTimeoutCommand5ResetEt @ 803 NONAME
	_ZN36TCreateConnectionCancelCompleteEvent4CastERK13THCIEventBase @ 804 NONAME
	_ZN36TCreateConnectionCancelCompleteEventC1E13THCIErrorCodehRK10TBTDevAddrR5TDes8 @ 805 NONAME
	_ZN36TCreateConnectionCancelCompleteEventC1ERK6TDesC8 @ 806 NONAME
	_ZN36TCreateConnectionCancelCompleteEventC2E13THCIErrorCodehRK10TBTDevAddrR5TDes8 @ 807 NONAME
	_ZN36TCreateConnectionCancelCompleteEventC2ERK6TDesC8 @ 808 NONAME
	_ZN36TReadLinkPolicySettingsCompleteEvent4CastERK13THCIEventBase @ 809 NONAME
	_ZN36TReadLinkPolicySettingsCompleteEventC1E13THCIErrorCodeh20THCIConnectionHandletR5TDes8 @ 810 NONAME
	_ZN36TReadLinkPolicySettingsCompleteEventC1ERK6TDesC8 @ 811 NONAME
	_ZN36TReadLinkPolicySettingsCompleteEventC2E13THCIErrorCodeh20THCIConnectionHandletR5TDes8 @ 812 NONAME
	_ZN36TReadLinkPolicySettingsCompleteEventC2ERK6TDesC8 @ 813 NONAME
	_ZN36TReadTransmitPowerLevelCompleteEvent4CastERK13THCIEventBase @ 814 NONAME
	_ZN36TReadTransmitPowerLevelCompleteEventC1E13THCIErrorCodeh20THCIConnectionHandlehR5TDes8 @ 815 NONAME
	_ZN36TReadTransmitPowerLevelCompleteEventC1ERK6TDesC8 @ 816 NONAME
	_ZN36TReadTransmitPowerLevelCompleteEventC2E13THCIErrorCodeh20THCIConnectionHandlehR5TDes8 @ 817 NONAME
	_ZN36TReadTransmitPowerLevelCompleteEventC2ERK6TDesC8 @ 818 NONAME
	_ZN37CReadDefaultLinkPolicySettingsCommand4NewLEv @ 819 NONAME
	_ZN37CReadDefaultLinkPolicySettingsCommand5ResetEv @ 820 NONAME
	_ZN37CWriteAFHChannelAssessmentModeCommand4NewLEh @ 821 NONAME
	_ZN37CWriteAFHChannelAssessmentModeCommand4NewLEv @ 822 NONAME
	_ZN37CWriteAFHChannelAssessmentModeCommand5ResetEh @ 823 NONAME
	_ZN37TExitPeriodicInquiryModeCompleteEvent4CastERK13THCIEventBase @ 824 NONAME
	_ZN37TExitPeriodicInquiryModeCompleteEventC1E13THCIErrorCodehR5TDes8 @ 825 NONAME
	_ZN37TExitPeriodicInquiryModeCompleteEventC1ERK6TDesC8 @ 826 NONAME
	_ZN37TExitPeriodicInquiryModeCompleteEventC2E13THCIErrorCodehR5TDes8 @ 827 NONAME
	_ZN37TExitPeriodicInquiryModeCompleteEventC2ERK6TDesC8 @ 828 NONAME
	_ZN37TReadInquiryScanActivityCompleteEvent4CastERK13THCIEventBase @ 829 NONAME
	_ZN37TReadInquiryScanActivityCompleteEventC1E13THCIErrorCodehttR5TDes8 @ 830 NONAME
	_ZN37TReadInquiryScanActivityCompleteEventC1ERK6TDesC8 @ 831 NONAME
	_ZN37TReadInquiryScanActivityCompleteEventC2E13THCIErrorCodehttR5TDes8 @ 832 NONAME
	_ZN37TReadInquiryScanActivityCompleteEventC2ERK6TDesC8 @ 833 NONAME
	_ZN37TRemoteNameRequestCancelCompleteEvent4CastERK13THCIEventBase @ 834 NONAME
	_ZN37TRemoteNameRequestCancelCompleteEventC1E13THCIErrorCodehRK10TBTDevAddrR5TDes8 @ 835 NONAME
	_ZN37TRemoteNameRequestCancelCompleteEventC1ERK6TDesC8 @ 836 NONAME
	_ZN37TRemoteNameRequestCancelCompleteEventC2E13THCIErrorCodehRK10TBTDevAddrR5TDes8 @ 837 NONAME
	_ZN37TRemoteNameRequestCancelCompleteEventC2ERK6TDesC8 @ 838 NONAME
	_ZN37TWriteLinkPolicySettingsCompleteEvent4CastERK13THCIEventBase @ 839 NONAME
	_ZN37TWriteLinkPolicySettingsCompleteEventC1E13THCIErrorCodeh20THCIConnectionHandleR5TDes8 @ 840 NONAME
	_ZN37TWriteLinkPolicySettingsCompleteEventC1ERK6TDesC8 @ 841 NONAME
	_ZN37TWriteLinkPolicySettingsCompleteEventC2E13THCIErrorCodeh20THCIConnectionHandleR5TDes8 @ 842 NONAME
	_ZN37TWriteLinkPolicySettingsCompleteEventC2ERK6TDesC8 @ 843 NONAME
	_ZN38CSetControllerToHostFlowControlCommand4NewLEh @ 844 NONAME
	_ZN38CSetControllerToHostFlowControlCommand4NewLEv @ 845 NONAME
	_ZN38CSetControllerToHostFlowControlCommand5ResetEh @ 846 NONAME
	_ZN38CWriteDefaultLinkPolicySettingsCommand4NewLEt @ 847 NONAME
	_ZN38CWriteDefaultLinkPolicySettingsCommand4NewLEv @ 848 NONAME
	_ZN38CWriteDefaultLinkPolicySettingsCommand5ResetEt @ 849 NONAME
	_ZN38TReadAuthenticationEnableCompleteEvent4CastERK13THCIEventBase @ 850 NONAME
	_ZN38TReadAuthenticationEnableCompleteEventC1E13THCIErrorCodehhR5TDes8 @ 851 NONAME
	_ZN38TReadAuthenticationEnableCompleteEventC1ERK6TDesC8 @ 852 NONAME
	_ZN38TReadAuthenticationEnableCompleteEventC2E13THCIErrorCodehhR5TDes8 @ 853 NONAME
	_ZN38TReadAuthenticationEnableCompleteEventC2ERK6TDesC8 @ 854 NONAME
	_ZN38TReadFailedContactCounterCompleteEvent4CastERK13THCIEventBase @ 855 NONAME
	_ZN38TReadFailedContactCounterCompleteEventC1E13THCIErrorCodeh20THCIConnectionHandletR5TDes8 @ 856 NONAME
	_ZN38TReadFailedContactCounterCompleteEventC1ERK6TDesC8 @ 857 NONAME
	_ZN38TReadFailedContactCounterCompleteEventC2E13THCIErrorCodeh20THCIConnectionHandletR5TDes8 @ 858 NONAME
	_ZN38TReadFailedContactCounterCompleteEventC2ERK6TDesC8 @ 859 NONAME
	_ZN38TReadNumberOfSupportedIACCompleteEvent4CastERK13THCIEventBase @ 860 NONAME
	_ZN38TReadNumberOfSupportedIACCompleteEventC1E13THCIErrorCodehhR5TDes8 @ 861 NONAME
	_ZN38TReadNumberOfSupportedIACCompleteEventC1ERK6TDesC8 @ 862 NONAME
	_ZN38TReadNumberOfSupportedIACCompleteEventC2E13THCIErrorCodehhR5TDes8 @ 863 NONAME
	_ZN38TReadNumberOfSupportedIACCompleteEventC2ERK6TDesC8 @ 864 NONAME
	_ZN38TWriteInquiryScanActivityCompleteEvent4CastERK13THCIEventBase @ 865 NONAME
	_ZN38TWriteInquiryScanActivityCompleteEventC1E13THCIErrorCodehR5TDes8 @ 866 NONAME
	_ZN38TWriteInquiryScanActivityCompleteEventC1ERK6TDesC8 @ 867 NONAME
	_ZN38TWriteInquiryScanActivityCompleteEventC2E13THCIErrorCodehR5TDes8 @ 868 NONAME
	_ZN38TWriteInquiryScanActivityCompleteEventC2ERK6TDesC8 @ 869 NONAME
	_ZN39CReadNumBroadcastRetransmissionsCommand4NewLEv @ 870 NONAME
	_ZN39CReadNumBroadcastRetransmissionsCommand5ResetEv @ 871 NONAME
	_ZN39CSetAFHHostChannelClassificationCommand4NewLERK6TDesC8 @ 872 NONAME
	_ZN39CSetAFHHostChannelClassificationCommand4NewLEv @ 873 NONAME
	_ZN39CSetAFHHostChannelClassificationCommand5ResetERK6TDesC8 @ 874 NONAME
	_ZN39TEnableDeviceUnderTestModeCompleteEvent4CastERK13THCIEventBase @ 875 NONAME
	_ZN39TEnableDeviceUnderTestModeCompleteEventC1E13THCIErrorCodehR5TDes8 @ 876 NONAME
	_ZN39TEnableDeviceUnderTestModeCompleteEventC1ERK6TDesC8 @ 877 NONAME
	_ZN39TEnableDeviceUnderTestModeCompleteEventC2E13THCIErrorCodehR5TDes8 @ 878 NONAME
	_ZN39TEnableDeviceUnderTestModeCompleteEventC2ERK6TDesC8 @ 879 NONAME
	_ZN39TReadAutomaticFlushTimeoutCompleteEvent4CastERK13THCIEventBase @ 880 NONAME
	_ZN39TReadAutomaticFlushTimeoutCompleteEventC1E13THCIErrorCodeh20THCIConnectionHandletR5TDes8 @ 881 NONAME
	_ZN39TReadAutomaticFlushTimeoutCompleteEventC1ERK6TDesC8 @ 882 NONAME
	_ZN39TReadAutomaticFlushTimeoutCompleteEventC2E13THCIErrorCodeh20THCIConnectionHandletR5TDes8 @ 883 NONAME
	_ZN39TReadAutomaticFlushTimeoutCompleteEventC2ERK6TDesC8 @ 884 NONAME
	_ZN39TReadLocalExtendedFeaturesCompleteEvent4CastERK13THCIEventBase @ 885 NONAME
	_ZN39TReadLocalExtendedFeaturesCompleteEventC1E13THCIErrorCodehhhyR5TDes8 @ 886 NONAME
	_ZN39TReadLocalExtendedFeaturesCompleteEventC1ERK6TDesC8 @ 887 NONAME
	_ZN39TReadLocalExtendedFeaturesCompleteEventC2E13THCIErrorCodehhhyR5TDes8 @ 888 NONAME
	_ZN39TReadLocalExtendedFeaturesCompleteEventC2ERK6TDesC8 @ 889 NONAME
	_ZN39TResetFailedContactCounterCompleteEvent4CastERK13THCIEventBase @ 890 NONAME
	_ZN39TResetFailedContactCounterCompleteEventC1E13THCIErrorCodeh20THCIConnectionHandleR5TDes8 @ 891 NONAME
	_ZN39TResetFailedContactCounterCompleteEventC1ERK6TDesC8 @ 892 NONAME
	_ZN39TResetFailedContactCounterCompleteEventC2E13THCIErrorCodeh20THCIConnectionHandleR5TDes8 @ 893 NONAME
	_ZN39TResetFailedContactCounterCompleteEventC2ERK6TDesC8 @ 894 NONAME
	_ZN39TWriteAuthenticationEnableCompleteEvent4CastERK13THCIEventBase @ 895 NONAME
	_ZN39TWriteAuthenticationEnableCompleteEventC1E13THCIErrorCodehR5TDes8 @ 896 NONAME
	_ZN39TWriteAuthenticationEnableCompleteEventC1ERK6TDesC8 @ 897 NONAME
	_ZN39TWriteAuthenticationEnableCompleteEventC2E13THCIErrorCodehR5TDes8 @ 898 NONAME
	_ZN39TWriteAuthenticationEnableCompleteEventC2ERK6TDesC8 @ 899 NONAME
	_ZN40CReadSynchronousFlowControlEnableCommand4NewLEv @ 900 NONAME
	_ZN40CReadSynchronousFlowControlEnableCommand5ResetEv @ 901 NONAME
	_ZN40CWriteNumBroadcastRetransmissionsCommand4NewLEh @ 902 NONAME
	_ZN40CWriteNumBroadcastRetransmissionsCommand4NewLEv @ 903 NONAME
	_ZN40CWriteNumBroadcastRetransmissionsCommand5ResetEh @ 904 NONAME
	_ZN40TReadLinkSupervisionTimeoutCompleteEvent4CastERK13THCIEventBase @ 905 NONAME
	_ZN40TReadLinkSupervisionTimeoutCompleteEventC1E13THCIErrorCodeh20THCIConnectionHandletR5TDes8 @ 906 NONAME
	_ZN40TReadLinkSupervisionTimeoutCompleteEventC1ERK6TDesC8 @ 907 NONAME
	_ZN40TReadLinkSupervisionTimeoutCompleteEventC2E13THCIErrorCodeh20THCIConnectionHandletR5TDes8 @ 908 NONAME
	_ZN40TReadLinkSupervisionTimeoutCompleteEventC2ERK6TDesC8 @ 909 NONAME
	_ZN40TReadLocalSupportedCommandsCompleteEvent4CastERK13THCIEventBase @ 910 NONAME
	_ZN40TReadLocalSupportedCommandsCompleteEventC1E13THCIErrorCodeh6TDesC8R5TDes8 @ 911 NONAME
	_ZN40TReadLocalSupportedCommandsCompleteEventC1ERK6TDesC8 @ 912 NONAME
	_ZN40TReadLocalSupportedCommandsCompleteEventC2E13THCIErrorCodeh6TDesC8R5TDes8 @ 913 NONAME
	_ZN40TReadLocalSupportedCommandsCompleteEventC2ERK6TDesC8 @ 914 NONAME
	_ZN40TReadLocalSupportedFeaturesCompleteEvent4CastERK13THCIEventBase @ 915 NONAME
	_ZN40TReadLocalSupportedFeaturesCompleteEventC1E13THCIErrorCodehyR5TDes8 @ 916 NONAME
	_ZN40TReadLocalSupportedFeaturesCompleteEventC1ERK6TDesC8 @ 917 NONAME
	_ZN40TReadLocalSupportedFeaturesCompleteEventC2E13THCIErrorCodehyR5TDes8 @ 918 NONAME
	_ZN40TReadLocalSupportedFeaturesCompleteEventC2ERK6TDesC8 @ 919 NONAME
	_ZN40TReadRemoteExtendedFeaturesCompleteEvent4CastERK13THCIEventBase @ 920 NONAME
	_ZN40TReadRemoteExtendedFeaturesCompleteEventC1E13THCIErrorCode20THCIConnectionHandlehhyR5TDes8 @ 921 NONAME
	_ZN40TReadRemoteExtendedFeaturesCompleteEventC1ERK6TDesC8 @ 922 NONAME
	_ZN40TReadRemoteExtendedFeaturesCompleteEventC2E13THCIErrorCode20THCIConnectionHandlehhyR5TDes8 @ 923 NONAME
	_ZN40TReadRemoteExtendedFeaturesCompleteEventC2ERK6TDesC8 @ 924 NONAME
	_ZN40TReadRemoteExtendedFeaturesCompleteEventD1Ev @ 925 NONAME
	_ZN40TReadRemoteExtendedFeaturesCompleteEventD2Ev @ 926 NONAME
	_ZN40TWriteAutomaticFlushTimeoutCompleteEvent4CastERK13THCIEventBase @ 927 NONAME
	_ZN40TWriteAutomaticFlushTimeoutCompleteEventC1E13THCIErrorCodeh20THCIConnectionHandleR5TDes8 @ 928 NONAME
	_ZN40TWriteAutomaticFlushTimeoutCompleteEventC1ERK6TDesC8 @ 929 NONAME
	_ZN40TWriteAutomaticFlushTimeoutCompleteEventC2E13THCIErrorCodeh20THCIConnectionHandleR5TDes8 @ 930 NONAME
	_ZN40TWriteAutomaticFlushTimeoutCompleteEventC2ERK6TDesC8 @ 931 NONAME
	_ZN41CWriteSynchronousFlowControlEnableCommand4NewLEh @ 932 NONAME
	_ZN41CWriteSynchronousFlowControlEnableCommand4NewLEv @ 933 NONAME
	_ZN41CWriteSynchronousFlowControlEnableCommand5ResetEh @ 934 NONAME
	_ZN41TLinkKeyRequestReplyNegativeCompleteEvent4CastERK13THCIEventBase @ 935 NONAME
	_ZN41TLinkKeyRequestReplyNegativeCompleteEventC1E13THCIErrorCodehRK10TBTDevAddrR5TDes8 @ 936 NONAME
	_ZN41TLinkKeyRequestReplyNegativeCompleteEventC1ERK6TDesC8 @ 937 NONAME
	_ZN41TLinkKeyRequestReplyNegativeCompleteEventC2E13THCIErrorCodehRK10TBTDevAddrR5TDes8 @ 938 NONAME
	_ZN41TLinkKeyRequestReplyNegativeCompleteEventC2ERK6TDesC8 @ 939 NONAME
	_ZN41TPINCodeRequestReplyNegativeCompleteEvent4CastERK13THCIEventBase @ 940 NONAME
	_ZN41TPINCodeRequestReplyNegativeCompleteEventC1E13THCIErrorCodehRK10TBTDevAddrR5TDes8 @ 941 NONAME
	_ZN41TPINCodeRequestReplyNegativeCompleteEventC1ERK6TDesC8 @ 942 NONAME
	_ZN41TPINCodeRequestReplyNegativeCompleteEventC2E13THCIErrorCodehRK10TBTDevAddrR5TDes8 @ 943 NONAME
	_ZN41TPINCodeRequestReplyNegativeCompleteEventC2ERK6TDesC8 @ 944 NONAME
	_ZN41TReadConnectionAcceptTimeoutCompleteEvent4CastERK13THCIEventBase @ 945 NONAME
	_ZN41TReadConnectionAcceptTimeoutCompleteEventC1E13THCIErrorCodehtR5TDes8 @ 946 NONAME
	_ZN41TReadConnectionAcceptTimeoutCompleteEventC1ERK6TDesC8 @ 947 NONAME
	_ZN41TReadConnectionAcceptTimeoutCompleteEventC2E13THCIErrorCodehtR5TDes8 @ 948 NONAME
	_ZN41TReadConnectionAcceptTimeoutCompleteEventC2ERK6TDesC8 @ 949 NONAME
	_ZN41TWriteLinkSupervisionTimeoutCompleteEvent4CastERK13THCIEventBase @ 950 NONAME
	_ZN41TWriteLinkSupervisionTimeoutCompleteEventC1E13THCIErrorCodeh20THCIConnectionHandleR5TDes8 @ 951 NONAME
	_ZN41TWriteLinkSupervisionTimeoutCompleteEventC1ERK6TDesC8 @ 952 NONAME
	_ZN41TWriteLinkSupervisionTimeoutCompleteEventC2E13THCIErrorCodeh20THCIConnectionHandleR5TDes8 @ 953 NONAME
	_ZN41TWriteLinkSupervisionTimeoutCompleteEventC2ERK6TDesC8 @ 954 NONAME
	_ZN42CAcceptSynchronousConnectionRequestCommand4NewLERK10TBTDevAddrmmttht @ 955 NONAME
	_ZN42CAcceptSynchronousConnectionRequestCommand4NewLEv @ 956 NONAME
	_ZN42CAcceptSynchronousConnectionRequestCommand5ResetERK10TBTDevAddrmmttht @ 957 NONAME
	_ZN42CRejectSynchronousConnectionRequestCommand4NewLERK10TBTDevAddrh @ 958 NONAME
	_ZN42CRejectSynchronousConnectionRequestCommand4NewLEv @ 959 NONAME
	_ZN42CRejectSynchronousConnectionRequestCommand5ResetERK10TBTDevAddrh @ 960 NONAME
	_ZN42THostNumberOfCompletedPacketsCompleteEvent4CastERK13THCIEventBase @ 961 NONAME
	_ZN42THostNumberOfCompletedPacketsCompleteEventC1E13THCIErrorCodehR5TDes8 @ 962 NONAME
	_ZN42THostNumberOfCompletedPacketsCompleteEventC1ERK6TDesC8 @ 963 NONAME
	_ZN42THostNumberOfCompletedPacketsCompleteEventC2E13THCIErrorCodehR5TDes8 @ 964 NONAME
	_ZN42THostNumberOfCompletedPacketsCompleteEventC2ERK6TDesC8 @ 965 NONAME
	_ZN42TReadAFHChannelAssessmentModeCompleteEvent4CastERK13THCIEventBase @ 966 NONAME
	_ZN42TReadAFHChannelAssessmentModeCompleteEventC1E13THCIErrorCodehhR5TDes8 @ 967 NONAME
	_ZN42TReadAFHChannelAssessmentModeCompleteEventC1ERK6TDesC8 @ 968 NONAME
	_ZN42TReadAFHChannelAssessmentModeCompleteEventC2E13THCIErrorCodehhR5TDes8 @ 969 NONAME
	_ZN42TReadAFHChannelAssessmentModeCompleteEventC2ERK6TDesC8 @ 970 NONAME
	_ZN42TWriteConnectionAcceptTimeoutCompleteEvent4CastERK13THCIEventBase @ 971 NONAME
	_ZN42TWriteConnectionAcceptTimeoutCompleteEventC1E13THCIErrorCodehR5TDes8 @ 972 NONAME
	_ZN42TWriteConnectionAcceptTimeoutCompleteEventC1ERK6TDesC8 @ 973 NONAME
	_ZN42TWriteConnectionAcceptTimeoutCompleteEventC2E13THCIErrorCodehR5TDes8 @ 974 NONAME
	_ZN42TWriteConnectionAcceptTimeoutCompleteEventC2ERK6TDesC8 @ 975 NONAME
	_ZN43TReadDefaultLinkPolicySettingsCompleteEvent4CastERK13THCIEventBase @ 976 NONAME
	_ZN43TReadDefaultLinkPolicySettingsCompleteEventC1E13THCIErrorCodehtR5TDes8 @ 977 NONAME
	_ZN43TReadDefaultLinkPolicySettingsCompleteEventC1ERK6TDesC8 @ 978 NONAME
	_ZN43TReadDefaultLinkPolicySettingsCompleteEventC2E13THCIErrorCodehtR5TDes8 @ 979 NONAME
	_ZN43TReadDefaultLinkPolicySettingsCompleteEventC2ERK6TDesC8 @ 980 NONAME
	_ZN43TWriteAFHChannelAssessmentModeCompleteEvent4CastERK13THCIEventBase @ 981 NONAME
	_ZN43TWriteAFHChannelAssessmentModeCompleteEventC1E13THCIErrorCodehR5TDes8 @ 982 NONAME
	_ZN43TWriteAFHChannelAssessmentModeCompleteEventC1ERK6TDesC8 @ 983 NONAME
	_ZN43TWriteAFHChannelAssessmentModeCompleteEventC2E13THCIErrorCodehR5TDes8 @ 984 NONAME
	_ZN43TWriteAFHChannelAssessmentModeCompleteEventC2ERK6TDesC8 @ 985 NONAME
	_ZN44TSetControllerToHostFlowControlCompleteEvent4CastERK13THCIEventBase @ 986 NONAME
	_ZN44TSetControllerToHostFlowControlCompleteEventC1E13THCIErrorCodehR5TDes8 @ 987 NONAME
	_ZN44TSetControllerToHostFlowControlCompleteEventC1ERK6TDesC8 @ 988 NONAME
	_ZN44TSetControllerToHostFlowControlCompleteEventC2E13THCIErrorCodehR5TDes8 @ 989 NONAME
	_ZN44TSetControllerToHostFlowControlCompleteEventC2ERK6TDesC8 @ 990 NONAME
	_ZN44TWriteDefaultLinkPolicySettingsCompleteEvent4CastERK13THCIEventBase @ 991 NONAME
	_ZN44TWriteDefaultLinkPolicySettingsCompleteEventC1E13THCIErrorCodehR5TDes8 @ 992 NONAME
	_ZN44TWriteDefaultLinkPolicySettingsCompleteEventC1ERK6TDesC8 @ 993 NONAME
	_ZN44TWriteDefaultLinkPolicySettingsCompleteEventC2E13THCIErrorCodehR5TDes8 @ 994 NONAME
	_ZN44TWriteDefaultLinkPolicySettingsCompleteEventC2ERK6TDesC8 @ 995 NONAME
	_ZN45TReadNumBroadcastRetransmissionsCompleteEvent4CastERK13THCIEventBase @ 996 NONAME
	_ZN45TReadNumBroadcastRetransmissionsCompleteEventC1E13THCIErrorCodehhR5TDes8 @ 997 NONAME
	_ZN45TReadNumBroadcastRetransmissionsCompleteEventC1ERK6TDesC8 @ 998 NONAME
	_ZN45TReadNumBroadcastRetransmissionsCompleteEventC2E13THCIErrorCodehhR5TDes8 @ 999 NONAME
	_ZN45TReadNumBroadcastRetransmissionsCompleteEventC2ERK6TDesC8 @ 1000 NONAME
	_ZN45TSetAFHHostChannelClassificationCompleteEvent4CastERK13THCIEventBase @ 1001 NONAME
	_ZN45TSetAFHHostChannelClassificationCompleteEventC1E13THCIErrorCodehR5TDes8 @ 1002 NONAME
	_ZN45TSetAFHHostChannelClassificationCompleteEventC1ERK6TDesC8 @ 1003 NONAME
	_ZN45TSetAFHHostChannelClassificationCompleteEventC2E13THCIErrorCodehR5TDes8 @ 1004 NONAME
	_ZN45TSetAFHHostChannelClassificationCompleteEventC2ERK6TDesC8 @ 1005 NONAME
	_ZN46TReadSynchronousFlowControlEnableCompleteEvent4CastERK13THCIEventBase @ 1006 NONAME
	_ZN46TReadSynchronousFlowControlEnableCompleteEventC1E13THCIErrorCodehhR5TDes8 @ 1007 NONAME
	_ZN46TReadSynchronousFlowControlEnableCompleteEventC1ERK6TDesC8 @ 1008 NONAME
	_ZN46TReadSynchronousFlowControlEnableCompleteEventC2E13THCIErrorCodehhR5TDes8 @ 1009 NONAME
	_ZN46TReadSynchronousFlowControlEnableCompleteEventC2ERK6TDesC8 @ 1010 NONAME
	_ZN46TWriteNumBroadcastRetransmissionsCompleteEvent4CastERK13THCIEventBase @ 1011 NONAME
	_ZN46TWriteNumBroadcastRetransmissionsCompleteEventC1E13THCIErrorCodehR5TDes8 @ 1012 NONAME
	_ZN46TWriteNumBroadcastRetransmissionsCompleteEventC1ERK6TDesC8 @ 1013 NONAME
	_ZN46TWriteNumBroadcastRetransmissionsCompleteEventC2E13THCIErrorCodehR5TDes8 @ 1014 NONAME
	_ZN46TWriteNumBroadcastRetransmissionsCompleteEventC2ERK6TDesC8 @ 1015 NONAME
	_ZN47TWriteSynchronousFlowControlEnableCompleteEvent4CastERK13THCIEventBase @ 1016 NONAME
	_ZN47TWriteSynchronousFlowControlEnableCompleteEventC1E13THCIErrorCodehR5TDes8 @ 1017 NONAME
	_ZN47TWriteSynchronousFlowControlEnableCompleteEventC1ERK6TDesC8 @ 1018 NONAME
	_ZN47TWriteSynchronousFlowControlEnableCompleteEventC2E13THCIErrorCodehR5TDes8 @ 1019 NONAME
	_ZN47TWriteSynchronousFlowControlEnableCompleteEventC2ERK6TDesC8 @ 1020 NONAME
	_ZNK13CFlushCommand16ConnectionHandleEv @ 1021 NONAME
	_ZNK13THCIEventBase18AsConnectionHandleEi @ 1022 NONAME
	_ZNK13THCIEventBase18AsConnectionHandleEiii @ 1023 NONAME
	_ZNK13THCIEventBase8AsStringEi @ 1024 NONAME
	_ZNK13THCIEventBase8AsTUint8Ei @ 1025 NONAME
	_ZNK13THCIEventBase8AsTUint8Eiii @ 1026 NONAME
	_ZNK13THCIEventBase9AsDevAddrEi @ 1027 NONAME
	_ZNK13THCIEventBase9AsDevAddrEiii @ 1028 NONAME
	_ZNK13THCIEventBase9AsLinkKeyEi @ 1029 NONAME
	_ZNK13THCIEventBase9AsLinkKeyEiii @ 1030 NONAME
	_ZNK13THCIEventBase9AsTUint16Ei @ 1031 NONAME
	_ZNK13THCIEventBase9AsTUint16Eiii @ 1032 NONAME
	_ZNK13THCIEventBase9AsTUint32Eih @ 1033 NONAME
	_ZNK13THCIEventBase9AsTUint32Eiiih @ 1034 NONAME
	_ZNK13THCIEventBase9AsTUint64Ei @ 1035 NONAME
	_ZNK13THCIEventBase9AsTUint64Eiii @ 1036 NONAME
	_ZNK13THCIEventBase9ErrorCodeEv @ 1037 NONAME
	_ZNK13THCIEventBase9EventCodeEv @ 1038 NONAME
	_ZNK15CHCICommandBase15CreditsConsumedEv @ 1039 NONAME
	_ZNK15CHCICommandBase25ExpectsCommandStatusEventEv @ 1040 NONAME
	_ZNK15CHCICommandBase27ExpectsCommandCompleteEventEv @ 1041 NONAME
	_ZNK15CHCICommandBase6OpcodeEv @ 1042 NONAME
	_ZNK15CInquiryCommand12NumResponsesEv @ 1043 NONAME
	_ZNK15CInquiryCommand13InquiryLengthEv @ 1044 NONAME
	_ZNK15CInquiryCommand3LAPEv @ 1045 NONAME
	_ZNK16CHoldModeCommand16ConnectionHandleEv @ 1046 NONAME
	_ZNK16CHoldModeCommand19HoldModeMaxIntervalEv @ 1047 NONAME
	_ZNK16CHoldModeCommand19HoldModeMinIntervalEv @ 1048 NONAME
	_ZNK16CParkModeCommand16ConnectionHandleEv @ 1049 NONAME
	_ZNK16CParkModeCommand17BeaconMaxIntervalEv @ 1050 NONAME
	_ZNK16CParkModeCommand17BeaconMinIntervalEv @ 1051 NONAME
	_ZNK16CQOSSetupCommand11ServiceTypeEv @ 1052 NONAME
	_ZNK16CQOSSetupCommand13PeakBandwidthEv @ 1053 NONAME
	_ZNK16CQOSSetupCommand14DelayVariationEv @ 1054 NONAME
	_ZNK16CQOSSetupCommand16ConnectionHandleEv @ 1055 NONAME
	_ZNK16CQOSSetupCommand5FlagsEv @ 1056 NONAME
	_ZNK16CQOSSetupCommand7LatencyEv @ 1057 NONAME
	_ZNK16CQOSSetupCommand9TokenRateEv @ 1058 NONAME
	_ZNK16CReadRSSICommand16ConnectionHandleEv @ 1059 NONAME
	_ZNK16TModeChangeEvent11CurrentModeEv @ 1060 NONAME
	_ZNK16TModeChangeEvent16ConnectionHandleEv @ 1061 NONAME
	_ZNK16TModeChangeEvent8IntervalEv @ 1062 NONAME
	_ZNK16TRoleChangeEvent6BDADDREv @ 1063 NONAME
	_ZNK16TRoleChangeEvent7NewroleEv @ 1064 NONAME
	_ZNK17CReadClockCommand10WhichClockEv @ 1065 NONAME
	_ZNK17CReadClockCommand16ConnectionHandleEv @ 1066 NONAME
	_ZNK17CSniffModeCommand12SniffAttemptEv @ 1067 NONAME
	_ZNK17CSniffModeCommand12SniffTimeoutEv @ 1068 NONAME
	_ZNK17CSniffModeCommand16ConnectionHandleEv @ 1069 NONAME
	_ZNK17CSniffModeCommand16SniffMaxIntervalEv @ 1070 NONAME
	_ZNK17CSniffModeCommand16SniffMinIntervalEv @ 1071 NONAME
	_ZNK17TVendorDebugEvent15VendorDebugDataEv @ 1072 NONAME
	_ZNK17TVendorDebugEvent16VendorDebugEventEv @ 1073 NONAME
	_ZNK18CDisconnectCommand16ConnectionHandleEv @ 1074 NONAME
	_ZNK18CDisconnectCommand6ReasonEv @ 1075 NONAME
	_ZNK18CSwitchRoleCommand4RoleEv @ 1076 NONAME
	_ZNK18CSwitchRoleCommand6BDADDREv @ 1077 NONAME
	_ZNK18TQOSViolationEvent16ConnectionHandleEv @ 1078 NONAME
	_ZNK19TChangeLinkKeyEvent16ConnectionHandleEv @ 1079 NONAME
	_ZNK19TCommandStatusEvent13CommandOpcodeEv @ 1080 NONAME
	_ZNK19TCommandStatusEvent20NumHCICommandPacketsEv @ 1081 NONAME
	_ZNK19TFlushCompleteEvent16ConnectionHandleEv @ 1082 NONAME
	_ZNK19TFlushOccurredEvent16ConnectionHandleEv @ 1083 NONAME
	_ZNK19THardwareErrorEvent12HardwareCodeEv @ 1084 NONAME
	_ZNK19TInquiryResultEvent11ClockOffsetEi @ 1085 NONAME
	_ZNK19TInquiryResultEvent12NumResponsesEv @ 1086 NONAME
	_ZNK19TInquiryResultEvent13ClassOfDeviceEi @ 1087 NONAME
	_ZNK19TInquiryResultEvent22PageScanRepetitionModeEi @ 1088 NONAME
	_ZNK19TInquiryResultEvent6BDADDREi @ 1089 NONAME
	_ZNK19TInquiryResultEvent9Reserved1Ei @ 1090 NONAME
	_ZNK19TInquiryResultEvent9Reserved2Ei @ 1091 NONAME
	_ZNK19TMasterLinkKeyEvent16ConnectionHandleEv @ 1092 NONAME
	_ZNK19TMasterLinkKeyEvent7KeyFlagEv @ 1093 NONAME
	_ZNK20CExitParkModeCommand16ConnectionHandleEv @ 1094 NONAME
	_ZNK20CSetEventMaskCommand9EventMaskEv @ 1095 NONAME
	_ZNK20CWritePINTypeCommand7PINTypeEv @ 1096 NONAME
	_ZNK20TLinkKeyRequestEvent6BDADDREv @ 1097 NONAME
	_ZNK20TMaxSlotsChangeEvent11LMPMaxSlotsEv @ 1098 NONAME
	_ZNK20TMaxSlotsChangeEvent16ConnectionHandleEv @ 1099 NONAME
	_ZNK20TPINCodeRequestEvent6BDADDREv @ 1100 NONAME
	_ZNK20TReturnLinkKeysEvent6BDADDREi @ 1101 NONAME
	_ZNK20TReturnLinkKeysEvent7LinkKeyEi @ 1102 NONAME
	_ZNK20TReturnLinkKeysEvent7NumKeysEv @ 1103 NONAME
	_ZNK21CChangeLinkKeyCommand16ConnectionHandleEv @ 1104 NONAME
	_ZNK21CExitSniffModeCommand16ConnectionHandleEv @ 1105 NONAME
	_ZNK21CMasterLinkKeyCommand7KeyFlagEv @ 1106 NONAME
	_ZNK21CReadLMPHandleCommand16ConnectionHandleEv @ 1107 NONAME
	_ZNK21CRoleDiscoveryCommand16ConnectionHandleEv @ 1108 NONAME
	_ZNK21TLoopbackCommandEvent16HCICommandPacketEv @ 1109 NONAME
	_ZNK21TReadClockOffsetEvent11ClockOffsetEv @ 1110 NONAME
	_ZNK21TReadClockOffsetEvent16ConnectionHandleEv @ 1111 NONAME
	_ZNK22CHostBufferSizeCommand23HostACLDataPacketLengthEv @ 1112 NONAME
	_ZNK22CHostBufferSizeCommand26HostTotalNumACLDataPacketsEv @ 1113 NONAME
	_ZNK22CHostBufferSizeCommand31HostSynchronousDataPacketLengthEv @ 1114 NONAME
	_ZNK22CHostBufferSizeCommand34HostTotalNumSynchronousDataPacketsEv @ 1115 NONAME
	_ZNK22CSetEventFilterCommand10FilterTypeEv @ 1116 NONAME
	_ZNK22CSetEventFilterCommand19FilterConditionTypeEv @ 1117 NONAME
	_ZNK22CSetEventFilterCommand9ConditionEv @ 1118 NONAME
	_ZNK22CWriteLocalNameCommand9LocalNameEv @ 1119 NONAME
	_ZNK22TEncryptionChangeEvent16ConnectionHandleEv @ 1120 NONAME
	_ZNK22TEncryptionChangeEvent16EncryptionEnableEv @ 1121 NONAME
	_ZNK22TQOSSetupCompleteEvent11ServiceTypeEv @ 1122 NONAME
	_ZNK22TQOSSetupCompleteEvent13PeakBandwidthEv @ 1123 NONAME
	_ZNK22TQOSSetupCompleteEvent14DelayVariationEv @ 1124 NONAME
	_ZNK22TQOSSetupCompleteEvent16ConnectionHandleEv @ 1125 NONAME
	_ZNK22TQOSSetupCompleteEvent5FlagsEv @ 1126 NONAME
	_ZNK22TQOSSetupCompleteEvent7LatencyEv @ 1127 NONAME
	_ZNK22TQOSSetupCompleteEvent9TokenRateEv @ 1128 NONAME
	_ZNK22TReadRSSICompleteEvent16ConnectionHandleEv @ 1129 NONAME
	_ZNK22TReadRSSICompleteEvent4RSSIEv @ 1130 NONAME
	_ZNK23CReadClockOffsetCommand16ConnectionHandleEv @ 1131 NONAME
	_ZNK23CReadLinkQualityCommand16ConnectionHandleEv @ 1132 NONAME
	_ZNK23CWriteScanEnableCommand10ScanEnableEv @ 1133 NONAME
	_ZNK23TConnectionRequestEvent13ClassOfDeviceEv @ 1134 NONAME
	_ZNK23TConnectionRequestEvent6BDADDREv @ 1135 NONAME
	_ZNK23TConnectionRequestEvent8LinkTypeEv @ 1136 NONAME
	_ZNK23TReadClockCompleteEvent16ConnectionHandleEv @ 1137 NONAME
	_ZNK23TReadClockCompleteEvent5ClockEv @ 1138 NONAME
	_ZNK23TReadClockCompleteEvent8AccuracyEv @ 1139 NONAME
	_ZNK24CAddSCOConnectionCommand10PacketTypeEv @ 1140 NONAME
	_ZNK24CAddSCOConnectionCommand16ConnectionHandleEv @ 1141 NONAME
	_ZNK24CAddSCOConnectionCommand6BDADDREv @ 1142 NONAME
	_ZNK24CWriteInquiryModeCommand11InquiryModeEv @ 1143 NONAME
	_ZNK24CWritePageTimeoutCommand11PageTimeoutEv @ 1144 NONAME
	_ZNK24TConnectionCompleteEvent14EncryptionModeEv @ 1145 NONAME
	_ZNK24TConnectionCompleteEvent16ConnectionHandleEv @ 1146 NONAME
	_ZNK24TConnectionCompleteEvent6BDADDREv @ 1147 NONAME
	_ZNK24TConnectionCompleteEvent8LinkTypeEv @ 1148 NONAME
	_ZNK24TDataBufferOverflowEvent8LinkTypeEv @ 1149 NONAME
	_ZNK24THCICommandCompleteEvent13CommandOpcodeEv @ 1150 NONAME
	_ZNK24THCICommandCompleteEvent20NumHCICommandPacketsEv @ 1151 NONAME
	_ZNK24TPageScanModeChangeEvent12PageScanModeEv @ 1152 NONAME
	_ZNK24TPageScanModeChangeEvent6BDADDREv @ 1153 NONAME
	_ZNK24TReadBdaddrCompleteEvent6BDADDREv @ 1154 NONAME
	_ZNK25CFlowSpecificationCommand11ServiceTypeEv @ 1155 NONAME
	_ZNK25CFlowSpecificationCommand13AccessLatencyEv @ 1156 NONAME
	_ZNK25CFlowSpecificationCommand13FlowDirectionEv @ 1157 NONAME
	_ZNK25CFlowSpecificationCommand13PeakBandwidthEv @ 1158 NONAME
	_ZNK25CFlowSpecificationCommand15TokenBucketSizeEv @ 1159 NONAME
	_ZNK25CFlowSpecificationCommand16ConnectionHandleEv @ 1160 NONAME
	_ZNK25CFlowSpecificationCommand5FlagsEv @ 1161 NONAME
	_ZNK25CFlowSpecificationCommand9TokenRateEv @ 1162 NONAME
	_ZNK25CReadAFHChannelMapCommand16ConnectionHandleEv @ 1163 NONAME
	_ZNK25CReadStoredLinkKeyCommand11ReadAllFlagEv @ 1164 NONAME
	_ZNK25CReadStoredLinkKeyCommand6BDADDREv @ 1165 NONAME
	_ZNK25CRemoteNameRequestCommand11ClockOffsetEv @ 1166 NONAME
	_ZNK25CRemoteNameRequestCommand22PageScanRepetitionModeEv @ 1167 NONAME
	_ZNK25CRemoteNameRequestCommand6BDADDREv @ 1168 NONAME
	_ZNK25CRemoteNameRequestCommand8ReservedEv @ 1169 NONAME
	_ZNK25CWriteLoopbackModeCommand12LoopbackModeEv @ 1170 NONAME
	_ZNK25CWritePageScanTypeCommand12PageScanTypeEv @ 1171 NONAME
	_ZNK25CWriteVoiceSettingCommand12VoiceSettingEv @ 1172 NONAME
	_ZNK25TLinkKeyNotificationEvent6BDADDREv @ 1173 NONAME
	_ZNK25TLinkKeyNotificationEvent7KeyTypeEv @ 1174 NONAME
	_ZNK25TLinkKeyNotificationEvent7LinkKeyEv @ 1175 NONAME
	_ZNK25TReadPINTypeCompleteEvent7PINTypeEv @ 1176 NONAME
	_ZNK25TVendorDebugCompleteEvent15VendorDebugDataEv @ 1177 NONAME
	_ZNK26CWriteClassOfDeviceCommand13ClassOfDeviceEv @ 1178 NONAME
	_ZNK26CWriteCurrentIACLAPCommand13NumCurrentIACEv @ 1179 NONAME
	_ZNK26CWriteCurrentIACLAPCommand6IACLAPEi @ 1180 NONAME
	_ZNK26CWriteStoredLinkKeyCommand14NumKeysToWriteEv @ 1181 NONAME
	_ZNK26CWriteStoredLinkKeyCommand6BDADDREi @ 1182 NONAME
	_ZNK26CWriteStoredLinkKeyCommand7LinkKeyEi @ 1183 NONAME
	_ZNK27CCreateACLConnectionCommand10PacketTypeEv @ 1184 NONAME
	_ZNK27CCreateACLConnectionCommand11ClockOffsetEv @ 1185 NONAME
	_ZNK27CCreateACLConnectionCommand15AllowRoleSwitchEv @ 1186 NONAME
	_ZNK27CCreateACLConnectionCommand22PageScanRepetitionModeEv @ 1187 NONAME
	_ZNK27CCreateACLConnectionCommand6BDADDREv @ 1188 NONAME
	_ZNK27CCreateACLConnectionCommand8ReservedEv @ 1189 NONAME
	_ZNK27CDeleteStoredLinkKeyCommand13DeleteAllFlagEv @ 1190 NONAME
	_ZNK27CDeleteStoredLinkKeyCommand6BDADDREv @ 1191 NONAME
	_ZNK27CLinkKeyRequestReplyCommand6BDADDREv @ 1192 NONAME
	_ZNK27CLinkKeyRequestReplyCommand7LinkKeyEv @ 1193 NONAME
	_ZNK27CPINCodeRequestReplyCommand13PINCodeLengthEv @ 1194 NONAME
	_ZNK27CPINCodeRequestReplyCommand6BDADDREv @ 1195 NONAME
	_ZNK27CPINCodeRequestReplyCommand7PINCodeEv @ 1196 NONAME
	_ZNK27CPeriodicInquiryModeCommand12NumResponsesEv @ 1197 NONAME
	_ZNK27CPeriodicInquiryModeCommand13InquiryLengthEv @ 1198 NONAME
	_ZNK27CPeriodicInquiryModeCommand15MaxPeriodLengthEv @ 1199 NONAME
	_ZNK27CPeriodicInquiryModeCommand15MinPeriodLengthEv @ 1200 NONAME
	_ZNK27CPeriodicInquiryModeCommand3LAPEv @ 1201 NONAME
	_ZNK27CWriteEncryptionModeCommand14EncryptionModeEv @ 1202 NONAME
	_ZNK27CWritePageScanPeriodCommand18PageScanPeriodModeEv @ 1203 NONAME
	_ZNK27TDisconnectionCompleteEvent16ConnectionHandleEv @ 1204 NONAME
	_ZNK27TDisconnectionCompleteEvent6ReasonEv @ 1205 NONAME
	_ZNK27TInquiryResultwithRSSIEvent11ClockOffsetEi @ 1206 NONAME
	_ZNK27TInquiryResultwithRSSIEvent12NumResponsesEv @ 1207 NONAME
	_ZNK27TInquiryResultwithRSSIEvent13ClassOfDeviceEi @ 1208 NONAME
	_ZNK27TInquiryResultwithRSSIEvent22PageScanRepetitionModeEi @ 1209 NONAME
	_ZNK27TInquiryResultwithRSSIEvent4RSSIEi @ 1210 NONAME
	_ZNK27TInquiryResultwithRSSIEvent6BDADDREi @ 1211 NONAME
	_ZNK27TInquiryResultwithRSSIEvent8ReservedEi @ 1212 NONAME
	_ZNK27TReadLMPHandleCompleteEvent10Reserved32Ev @ 1213 NONAME
	_ZNK27TReadLMPHandleCompleteEvent16ConnectionHandleEv @ 1214 NONAME
	_ZNK27TReadLMPHandleCompleteEvent9LMPHandleEv @ 1215 NONAME
	_ZNK27TReadLocalNameCompleteEvent9LocalNameEv @ 1216 NONAME
	_ZNK27TRemoteNameReqCompleteEvent10RemoteNameEv @ 1217 NONAME
	_ZNK27TRemoteNameReqCompleteEvent6BDADDREv @ 1218 NONAME
	_ZNK27TRoleDiscoveryCompleteEvent11CurrentRoleEv @ 1219 NONAME
	_ZNK27TRoleDiscoveryCompleteEvent16ConnectionHandleEv @ 1220 NONAME
	_ZNK28CWriteInquiryScanTypeCommand8ScanTypeEv @ 1221 NONAME
	_ZNK28TAuthenticationCompleteEvent16ConnectionHandleEv @ 1222 NONAME
	_ZNK28TReadBufferSizeCompleteEvent21HCACLDataPacketLengthEv @ 1223 NONAME
	_ZNK28TReadBufferSizeCompleteEvent24HCTotalNumACLDataPacketsEv @ 1224 NONAME
	_ZNK28TReadBufferSizeCompleteEvent29HCSynchronousDataPacketLengthEv @ 1225 NONAME
	_ZNK28TReadBufferSizeCompleteEvent32HCTotalNumSynchronousDataPacketsEv @ 1226 NONAME
	_ZNK28TReadRemVerInfoCompleteEvent10LMPVersionEv @ 1227 NONAME
	_ZNK28TReadRemVerInfoCompleteEvent13LMPSubversionEv @ 1228 NONAME
	_ZNK28TReadRemVerInfoCompleteEvent16ConnectionHandleEv @ 1229 NONAME
	_ZNK28TReadRemVerInfoCompleteEvent16ManufacturerNameEv @ 1230 NONAME
	_ZNK28TReadScanEnableCompleteEvent10ScanEnableEv @ 1231 NONAME
	_ZNK29CReadRemoteVersionInfoCommand16ConnectionHandleEv @ 1232 NONAME
	_ZNK29CWriteHoldModeActivityCommand16HoldModeActivityEv @ 1233 NONAME
	_ZNK29CWritePageScanActivityCommand14PageScanWindowEv @ 1234 NONAME
	_ZNK29CWritePageScanActivityCommand16PageScanIntervalEv @ 1235 NONAME
	_ZNK29TReadInquiryModeCompleteEvent11InquiryModeEv @ 1236 NONAME
	_ZNK29TReadLinkQualityCompleteEvent11LinkQualityEv @ 1237 NONAME
	_ZNK29TReadLinkQualityCompleteEvent16ConnectionHandleEv @ 1238 NONAME
	_ZNK29TReadPageTimeoutCompleteEvent11PageTimeoutEv @ 1239 NONAME
	_ZNK29TReadRemSuppFeatCompleteEvent11LMPFeaturesEv @ 1240 NONAME
	_ZNK29TReadRemSuppFeatCompleteEvent16ConnectionHandleEv @ 1241 NONAME
	_ZNK30CCreateConnectionCancelCommand6BDADDREv @ 1242 NONAME
	_ZNK30CReadLinkPolicySettingsCommand16ConnectionHandleEv @ 1243 NONAME
	_ZNK30CReadTransmitPowerLevelCommand16ConnectionHandleEv @ 1244 NONAME
	_ZNK30CReadTransmitPowerLevelCommand4TypeEv @ 1245 NONAME
	_ZNK30TNumberOfCompletedPacketsEvent15NumberofHandlesEv @ 1246 NONAME
	_ZNK30TNumberOfCompletedPacketsEvent16ConnectionHandleEi @ 1247 NONAME
	_ZNK30TNumberOfCompletedPacketsEvent23HCNumOfCompletedPacketsEi @ 1248 NONAME
	_ZNK30TReadLoopbackModeCompleteEvent12LoopbackModeEv @ 1249 NONAME
	_ZNK30TReadPageScanTypeCompleteEvent12PageScanTypeEv @ 1250 NONAME
	_ZNK30TReadVoiceSettingCompleteEvent12VoiceSettingEv @ 1251 NONAME
	_ZNK31CAcceptConnectionRequestCommand4RoleEv @ 1252 NONAME
	_ZNK31CAcceptConnectionRequestCommand6BDADDREv @ 1253 NONAME
	_ZNK31CAuthenticationRequestedCommand16ConnectionHandleEv @ 1254 NONAME
	_ZNK31CRejectConnectionRequestCommand6BDADDREv @ 1255 NONAME
	_ZNK31CRejectConnectionRequestCommand6ReasonEv @ 1256 NONAME
	_ZNK31CRemoteNameRequestCancelCommand6BDADDREv @ 1257 NONAME
	_ZNK31CSetConnectionEncryptionCommand16ConnectionHandleEv @ 1258 NONAME
	_ZNK31CSetConnectionEncryptionCommand16EncryptionEnableEv @ 1259 NONAME
	_ZNK31CWriteLinkPolicySettingsCommand16ConnectionHandleEv @ 1260 NONAME
	_ZNK31CWriteLinkPolicySettingsCommand18LinkPolicySettingsEv @ 1261 NONAME
	_ZNK31TFlowSpecificationCompleteEvent11ServiceTypeEv @ 1262 NONAME
	_ZNK31TFlowSpecificationCompleteEvent13AccessLatencyEv @ 1263 NONAME
	_ZNK31TFlowSpecificationCompleteEvent13FlowDirectionEv @ 1264 NONAME
	_ZNK31TFlowSpecificationCompleteEvent13PeakBandwidthEv @ 1265 NONAME
	_ZNK31TFlowSpecificationCompleteEvent15TokenBucketSizeEv @ 1266 NONAME
	_ZNK31TFlowSpecificationCompleteEvent16ConnectionHandleEv @ 1267 NONAME
	_ZNK31TFlowSpecificationCompleteEvent5FlagsEv @ 1268 NONAME
	_ZNK31TFlowSpecificationCompleteEvent9TokenRateEv @ 1269 NONAME
	_ZNK31TReadAFHChannelMapCompleteEvent13AFHChannelMapEv @ 1270 NONAME
	_ZNK31TReadAFHChannelMapCompleteEvent16ConnectionHandleEv @ 1271 NONAME
	_ZNK31TReadAFHChannelMapCompleteEvent7AFHModeEv @ 1272 NONAME
	_ZNK31TReadClassOfDeviceCompleteEvent13ClassOfDeviceEv @ 1273 NONAME
	_ZNK31TReadCurrentIACLAPCompleteEvent13NumCurrentIACEv @ 1274 NONAME
	_ZNK31TReadCurrentIACLAPCompleteEvent6IACLAPEi @ 1275 NONAME
	_ZNK31TReadStoredLinkKeyCompleteEvent10MaxNumKeysEv @ 1276 NONAME
	_ZNK31TReadStoredLinkKeyCompleteEvent11NumKeysReadEv @ 1277 NONAME
	_ZNK32CReadFailedContactCounterCommand16ConnectionHandleEv @ 1278 NONAME
	_ZNK32CWriteInquiryScanActivityCommand17InquiryScanWindowEv @ 1279 NONAME
	_ZNK32CWriteInquiryScanActivityCommand19InquiryScanIntervalEv @ 1280 NONAME
	_ZNK32TReadEncryptionModeCompleteEvent14EncryptionModeEv @ 1281 NONAME
	_ZNK32TReadPageScanPeriodCompleteEvent18PageScanPeriodModeEv @ 1282 NONAME
	_ZNK32TWriteStoredLinkKeyCompleteEvent14NumKeysWrittenEv @ 1283 NONAME
	_ZNK33CReadAutomaticFlushTimeoutCommand16ConnectionHandleEv @ 1284 NONAME
	_ZNK33CReadLocalExtendedFeaturesCommand10PageNumberEv @ 1285 NONAME
	_ZNK33CResetFailedContactCounterCommand16ConnectionHandleEv @ 1286 NONAME
	_ZNK33CWriteAuthenticationEnableCommand20AuthenticationEnableEv @ 1287 NONAME
	_ZNK33TConnectionPacketTypeChangedEvent10PacketTypeEv @ 1288 NONAME
	_ZNK33TConnectionPacketTypeChangedEvent16ConnectionHandleEv @ 1289 NONAME
	_ZNK33TDeleteStoredLinkKeyCompleteEvent14NumKeysDeletedEv @ 1290 NONAME
	_ZNK33TLinkKeyRequestReplyCompleteEvent6BDADDREv @ 1291 NONAME
	_ZNK33TPINCodeRequestReplyCompleteEvent6BDADDREv @ 1292 NONAME
	_ZNK33TReadInquiryScanTypeCompleteEvent15InquiryScanTypeEv @ 1293 NONAME
	_ZNK34CChangeConnectionPacketTypeCommand10PacketTypeEv @ 1294 NONAME
	_ZNK34CChangeConnectionPacketTypeCommand16ConnectionHandleEv @ 1295 NONAME
	_ZNK34CReadLinkSupervisionTimeoutCommand16ConnectionHandleEv @ 1296 NONAME
	_ZNK34CReadRemoteExtendedFeaturesCommand10PageNumberEv @ 1297 NONAME
	_ZNK34CReadRemoteExtendedFeaturesCommand16ConnectionHandleEv @ 1298 NONAME
	_ZNK34CSetupSynchronousConnectionCommand10MaxLatencyEv @ 1299 NONAME
	_ZNK34CSetupSynchronousConnectionCommand10PacketTypeEv @ 1300 NONAME
	_ZNK34CSetupSynchronousConnectionCommand12VoiceSettingEv @ 1301 NONAME
	_ZNK34CSetupSynchronousConnectionCommand16ConnectionHandleEv @ 1302 NONAME
	_ZNK34CSetupSynchronousConnectionCommand16ReceiveBandwidthEv @ 1303 NONAME
	_ZNK34CSetupSynchronousConnectionCommand17TransmitBandwidthEv @ 1304 NONAME
	_ZNK34CSetupSynchronousConnectionCommand20RetransmissionEffortEv @ 1305 NONAME
	_ZNK34CSetupSynchronousConnectionCommand6BDADDREv @ 1306 NONAME
	_ZNK34CWriteAutomaticFlushTimeoutCommand12FlushTimeoutEv @ 1307 NONAME
	_ZNK34CWriteAutomaticFlushTimeoutCommand16ConnectionHandleEv @ 1308 NONAME
	_ZNK34TPageScanRepetitionModeChangeEvent22PageScanRepetitionModeEv @ 1309 NONAME
	_ZNK34TPageScanRepetitionModeChangeEvent6BDADDREv @ 1310 NONAME
	_ZNK34TReadHoldModeActivityCompleteEvent16HoldModeActivityEv @ 1311 NONAME
	_ZNK34TReadLocalVersionInfoCompleteEvent10LMPVersionEv @ 1312 NONAME
	_ZNK34TReadLocalVersionInfoCompleteEvent13LMPSubversionEv @ 1313 NONAME
	_ZNK34TReadLocalVersionInfoCompleteEvent16ManufacturerNameEv @ 1314 NONAME
	_ZNK34TReadLocalVersionInfoCompleteEvent7VersionEv @ 1315 NONAME
	_ZNK34TReadLocalVersionInfoCompleteEvent8RevisionEv @ 1316 NONAME
	_ZNK34TReadPageScanActivityCompleteEvent14PageScanwindowEv @ 1317 NONAME
	_ZNK34TReadPageScanActivityCompleteEvent16PageScanIntervalEv @ 1318 NONAME
	_ZNK34TSynchronousConnectionChangedEvent14RxPacketLengthEv @ 1319 NONAME
	_ZNK34TSynchronousConnectionChangedEvent14TxPacketLengthEv @ 1320 NONAME
	_ZNK34TSynchronousConnectionChangedEvent16ConnectionHandleEv @ 1321 NONAME
	_ZNK34TSynchronousConnectionChangedEvent20RetransmissionWindowEv @ 1322 NONAME
	_ZNK34TSynchronousConnectionChangedEvent20TransmissionIntervalEv @ 1323 NONAME
	_ZNK35CLinkKeyRequestReplyNegativeCommand6BDADDREv @ 1324 NONAME
	_ZNK35CPINCodeRequestReplyNegativeCommand6BDADDREv @ 1325 NONAME
	_ZNK35CReadRemoteSupportedFeaturesCommand16ConnectionHandleEv @ 1326 NONAME
	_ZNK35CWriteLinkSupervisionTimeoutCommand16ConnectionHandleEv @ 1327 NONAME
	_ZNK35CWriteLinkSupervisionTimeoutCommand22LinkSupervisionTimeoutEv @ 1328 NONAME
	_ZNK35TSynchronousConnectionCompleteEvent15RxPacket_LengthEv @ 1329 NONAME
	_ZNK35TSynchronousConnectionCompleteEvent15TxPacket_LengthEv @ 1330 NONAME
	_ZNK35TSynchronousConnectionCompleteEvent16ConnectionHandleEv @ 1331 NONAME
	_ZNK35TSynchronousConnectionCompleteEvent20RetransmissionWindowEv @ 1332 NONAME
	_ZNK35TSynchronousConnectionCompleteEvent20TransmissionIntervalEv @ 1333 NONAME
	_ZNK35TSynchronousConnectionCompleteEvent6BDADDREv @ 1334 NONAME
	_ZNK35TSynchronousConnectionCompleteEvent7AirModeEv @ 1335 NONAME
	_ZNK35TSynchronousConnectionCompleteEvent8LinkTypeEv @ 1336 NONAME
	_ZNK36CHostNumberOfCompletedPacketsCommand15NumberOfHandlesEv @ 1337 NONAME
	_ZNK36CHostNumberOfCompletedPacketsCommand16ConnectionHandleEi @ 1338 NONAME
	_ZNK36CHostNumberOfCompletedPacketsCommand25HostNumOfCompletedPacketsEi @ 1339 NONAME
	_ZNK36CWriteConnectionAcceptTimeoutCommand17ConnAcceptTimeoutEv @ 1340 NONAME
	_ZNK36TCreateConnectionCancelCompleteEvent6BDADDREv @ 1341 NONAME
	_ZNK36TReadLinkPolicySettingsCompleteEvent16ConnectionHandleEv @ 1342 NONAME
	_ZNK36TReadLinkPolicySettingsCompleteEvent18LinkPolicySettingsEv @ 1343 NONAME
	_ZNK36TReadTransmitPowerLevelCompleteEvent16ConnectionHandleEv @ 1344 NONAME
	_ZNK36TReadTransmitPowerLevelCompleteEvent18TransmitPowerLevelEv @ 1345 NONAME
	_ZNK37CWriteAFHChannelAssessmentModeCommand24AFHChannelAssessmentModeEv @ 1346 NONAME
	_ZNK37TReadInquiryScanActivityCompleteEvent17InquiryScanWindowEv @ 1347 NONAME
	_ZNK37TReadInquiryScanActivityCompleteEvent19InquiryScanIntervalEv @ 1348 NONAME
	_ZNK37TRemoteNameRequestCancelCompleteEvent6BDADDREv @ 1349 NONAME
	_ZNK37TWriteLinkPolicySettingsCompleteEvent16ConnectionHandleEv @ 1350 NONAME
	_ZNK38CSetControllerToHostFlowControlCommand17FlowControlEnableEv @ 1351 NONAME
	_ZNK38CWriteDefaultLinkPolicySettingsCommand25DefaultLinkPolicySettingsEv @ 1352 NONAME
	_ZNK38TReadAuthenticationEnableCompleteEvent20AuthenticationEnableEv @ 1353 NONAME
	_ZNK38TReadFailedContactCounterCompleteEvent16ConnectionHandleEv @ 1354 NONAME
	_ZNK38TReadFailedContactCounterCompleteEvent20FailedContactCounterEv @ 1355 NONAME
	_ZNK38TReadNumberOfSupportedIACCompleteEvent13NumSupportIACEv @ 1356 NONAME
	_ZNK39CSetAFHHostChannelClassificationCommand28AFHHostChannelClassificationEv @ 1357 NONAME
	_ZNK39TReadAutomaticFlushTimeoutCompleteEvent12FlushTimeoutEv @ 1358 NONAME
	_ZNK39TReadAutomaticFlushTimeoutCompleteEvent16ConnectionHandleEv @ 1359 NONAME
	_ZNK39TReadLocalExtendedFeaturesCompleteEvent10PageNumberEv @ 1360 NONAME
	_ZNK39TReadLocalExtendedFeaturesCompleteEvent17MaximumPageNumberEv @ 1361 NONAME
	_ZNK39TReadLocalExtendedFeaturesCompleteEvent19ExtendedLMPFeaturesEv @ 1362 NONAME
	_ZNK39TResetFailedContactCounterCompleteEvent16ConnectionHandleEv @ 1363 NONAME
	_ZNK40CWriteNumBroadcastRetransmissionsCommand27NumBroadcastRetransmissionsEv @ 1364 NONAME
	_ZNK40TReadLinkSupervisionTimeoutCompleteEvent16ConnectionHandleEv @ 1365 NONAME
	_ZNK40TReadLinkSupervisionTimeoutCompleteEvent22LinkSupervisionTimeoutEv @ 1366 NONAME
	_ZNK40TReadLocalSupportedCommandsCompleteEvent17SupportedCommandsEv @ 1367 NONAME
	_ZNK40TReadLocalSupportedFeaturesCompleteEvent11LMPFeaturesEv @ 1368 NONAME
	_ZNK40TReadRemoteExtendedFeaturesCompleteEvent10PageNumberEv @ 1369 NONAME
	_ZNK40TReadRemoteExtendedFeaturesCompleteEvent16ConnectionHandleEv @ 1370 NONAME
	_ZNK40TReadRemoteExtendedFeaturesCompleteEvent17MaximumPageNumberEv @ 1371 NONAME
	_ZNK40TReadRemoteExtendedFeaturesCompleteEvent19ExtendedLMPFeaturesEv @ 1372 NONAME
	_ZNK40TWriteAutomaticFlushTimeoutCompleteEvent16ConnectionHandleEv @ 1373 NONAME
	_ZNK41CWriteSynchronousFlowControlEnableCommand28SynchronousFlowControlEnableEv @ 1374 NONAME
	_ZNK41TLinkKeyRequestReplyNegativeCompleteEvent6BDADDREv @ 1375 NONAME
	_ZNK41TPINCodeRequestReplyNegativeCompleteEvent6BDADDREv @ 1376 NONAME
	_ZNK41TReadConnectionAcceptTimeoutCompleteEvent17ConnAcceptTimeoutEv @ 1377 NONAME
	_ZNK41TWriteLinkSupervisionTimeoutCompleteEvent16ConnectionHandleEv @ 1378 NONAME
	_ZNK42CAcceptSynchronousConnectionRequestCommand10MaxLatencyEv @ 1379 NONAME
	_ZNK42CAcceptSynchronousConnectionRequestCommand10PacketTypeEv @ 1380 NONAME
	_ZNK42CAcceptSynchronousConnectionRequestCommand13ContentFormatEv @ 1381 NONAME
	_ZNK42CAcceptSynchronousConnectionRequestCommand16ReceiveBandwidthEv @ 1382 NONAME
	_ZNK42CAcceptSynchronousConnectionRequestCommand17TransmitBandwidthEv @ 1383 NONAME
	_ZNK42CAcceptSynchronousConnectionRequestCommand20RetransmissionEffortEv @ 1384 NONAME
	_ZNK42CAcceptSynchronousConnectionRequestCommand6BDADDREv @ 1385 NONAME
	_ZNK42CRejectSynchronousConnectionRequestCommand6BDADDREv @ 1386 NONAME
	_ZNK42CRejectSynchronousConnectionRequestCommand6ReasonEv @ 1387 NONAME
	_ZNK42TReadAFHChannelAssessmentModeCompleteEvent24AFHChannelAssessmentModeEv @ 1388 NONAME
	_ZNK43TReadDefaultLinkPolicySettingsCompleteEvent25DefaultLinkPolicySettingsEv @ 1389 NONAME
	_ZNK45TReadNumBroadcastRetransmissionsCompleteEvent27NumBroadcastRetransmissionsEv @ 1390 NONAME
	_ZNK46TReadSynchronousFlowControlEnableCompleteEvent28SynchronousFlowControlEnableEv @ 1391 NONAME
	_ZN19CVendorDebugCommand10ConstructLEv @ 1392 NONAME
	_ZN19CVendorDebugCommand10Extension_EjRPvS0_ @ 1393 NONAME
	_ZN19CVendorDebugCommand18SetCreditsConsumedEj @ 1394 NONAME
	_ZN19CVendorDebugCommand28SetExpectsCommandStatusEventEi @ 1395 NONAME
	_ZN19CVendorDebugCommand30SetExpectsCommandCompleteEventEi @ 1396 NONAME
	_ZN19CVendorDebugCommandC1Et @ 1397 NONAME
	_ZN19CVendorDebugCommandC2Et @ 1398 NONAME
	_ZN19CVendorDebugCommand25SetExpectsCompletingEventEi @ 1399 NONAME
	_ZNK25TVendorDebugCompleteEvent16VendorDebugEventEv @ 1400 NONAME
	_ZNK13THCIEventBase22AsNullTerminatedStringEi @ 1401 NONAME
	_ZN17TNopCompleteEvent4CastERK13THCIEventBase @ 1402 NONAME
	_ZN17TNopCompleteEventC1ERK6TDesC8 @ 1403 NONAME
	_ZN17TNopCompleteEventC1EhR5TDes8 @ 1404 NONAME
	_ZN17TNopCompleteEventC2ERK6TDesC8 @ 1405 NONAME
	_ZN17TNopCompleteEventC2EhR5TDes8 @ 1406 NONAME
	_ZN20TSniffSubratingEvent4CastERK13THCIEventBase @ 1407 NONAME
	_ZN20TSniffSubratingEventC1E13THCIErrorCode20THCIConnectionHandlettttR5TDes8 @ 1408 NONAME
	_ZN20TSniffSubratingEventC1ERK6TDesC8 @ 1409 NONAME
	_ZN20TSniffSubratingEventC2E13THCIErrorCode20THCIConnectionHandlettttR5TDes8 @ 1410 NONAME
	_ZN20TSniffSubratingEventC2ERK6TDesC8 @ 1411 NONAME
	_ZN20TSniffSubratingEventD1Ev @ 1412 NONAME
	_ZN20TSniffSubratingEventD2Ev @ 1413 NONAME
	_ZN21CEnhancedFlushCommand4NewLE20THCIConnectionHandleh @ 1414 NONAME
	_ZN21CEnhancedFlushCommand4NewLEv @ 1415 NONAME
	_ZN21CEnhancedFlushCommand5ResetE20THCIConnectionHandleh @ 1416 NONAME
	_ZN22CSniffSubratingCommand4NewLE20THCIConnectionHandlettt @ 1417 NONAME
	_ZN22CSniffSubratingCommand4NewLEv @ 1418 NONAME
	_ZN22CSniffSubratingCommand5ResetE20THCIConnectionHandlettt @ 1419 NONAME
	_ZN24CReadLocalOOBDataCommand4NewLEv @ 1420 NONAME
	_ZN24CReadLocalOOBDataCommand5ResetEv @ 1421 NONAME
	_ZN24TUserPasskeyRequestEvent4CastERK13THCIEventBase @ 1422 NONAME
	_ZN24TUserPasskeyRequestEventC1ERK10TBTDevAddrR5TDes8 @ 1423 NONAME
	_ZN24TUserPasskeyRequestEventC1ERK6TDesC8 @ 1424 NONAME
	_ZN24TUserPasskeyRequestEventC2ERK10TBTDevAddrR5TDes8 @ 1425 NONAME
	_ZN24TUserPasskeyRequestEventC2ERK6TDesC8 @ 1426 NONAME
	_ZN24TUserPasskeyRequestEventD1Ev @ 1427 NONAME
	_ZN24TUserPasskeyRequestEventD2Ev @ 1428 NONAME
	_ZN25TIOCapabilityRequestEvent4CastERK13THCIEventBase @ 1429 NONAME
	_ZN25TIOCapabilityRequestEventC1ERK10TBTDevAddrR5TDes8 @ 1430 NONAME
	_ZN25TIOCapabilityRequestEventC1ERK6TDesC8 @ 1431 NONAME
	_ZN25TIOCapabilityRequestEventC2ERK10TBTDevAddrR5TDes8 @ 1432 NONAME
	_ZN25TIOCapabilityRequestEventC2ERK6TDesC8 @ 1433 NONAME
	_ZN25TIOCapabilityRequestEventD1Ev @ 1434 NONAME
	_ZN25TIOCapabilityRequestEventD2Ev @ 1435 NONAME
	_ZN26TIOCapabilityResponseEvent4CastERK13THCIEventBase @ 1436 NONAME
	_ZN26TIOCapabilityResponseEventC1ERK10TBTDevAddrhhhR5TDes8 @ 1437 NONAME
	_ZN26TIOCapabilityResponseEventC1ERK6TDesC8 @ 1438 NONAME
	_ZN26TIOCapabilityResponseEventC2ERK10TBTDevAddrhhhR5TDes8 @ 1439 NONAME
	_ZN26TIOCapabilityResponseEventC2ERK6TDesC8 @ 1440 NONAME
	_ZN26TIOCapabilityResponseEventD1Ev @ 1441 NONAME
	_ZN26TIOCapabilityResponseEventD2Ev @ 1442 NONAME
	_ZN26TKeypressNotificationEvent4CastERK13THCIEventBase @ 1443 NONAME
	_ZN26TKeypressNotificationEventC1ERK10TBTDevAddrhR5TDes8 @ 1444 NONAME
	_ZN26TKeypressNotificationEventC1ERK6TDesC8 @ 1445 NONAME
	_ZN26TKeypressNotificationEventC2ERK10TBTDevAddrhR5TDes8 @ 1446 NONAME
	_ZN26TKeypressNotificationEventC2ERK6TDesC8 @ 1447 NONAME
	_ZN26TKeypressNotificationEventD1Ev @ 1448 NONAME
	_ZN26TKeypressNotificationEventD2Ev @ 1449 NONAME
	_ZN26TRemoteOOBDataRequestEvent4CastERK13THCIEventBase @ 1450 NONAME
	_ZN26TRemoteOOBDataRequestEventC1ERK10TBTDevAddrR5TDes8 @ 1451 NONAME
	_ZN26TRemoteOOBDataRequestEventC1ERK6TDesC8 @ 1452 NONAME
	_ZN26TRemoteOOBDataRequestEventC2ERK10TBTDevAddrR5TDes8 @ 1453 NONAME
	_ZN26TRemoteOOBDataRequestEventC2ERK6TDesC8 @ 1454 NONAME
	_ZN26TRemoteOOBDataRequestEventD1Ev @ 1455 NONAME
	_ZN26TRemoteOOBDataRequestEventD2Ev @ 1456 NONAME
	_ZN27TEnhancedFlushCompleteEvent4CastERK13THCIEventBase @ 1457 NONAME
	_ZN27TEnhancedFlushCompleteEventC1E20THCIConnectionHandleR5TDes8 @ 1458 NONAME
	_ZN27TEnhancedFlushCompleteEventC1ERK6TDesC8 @ 1459 NONAME
	_ZN27TEnhancedFlushCompleteEventC2E20THCIConnectionHandleR5TDes8 @ 1460 NONAME
	_ZN27TEnhancedFlushCompleteEventC2ERK6TDesC8 @ 1461 NONAME
	_ZN27TEnhancedFlushCompleteEventD1Ev @ 1462 NONAME
	_ZN27TEnhancedFlushCompleteEventD2Ev @ 1463 NONAME
	_ZN27TExtendedInquiryResultEvent4CastERK13THCIEventBase @ 1464 NONAME
	_ZN27TExtendedInquiryResultEventC1ERK6TDesC8 @ 1465 NONAME
	_ZN27TExtendedInquiryResultEventC1EhRK10TBTDevAddr26THCIPageScanRepetitionMode17THCIReservedOctetm15THCIClockOffset8THCIRssiRK6TDesC8R5TDes8 @ 1466 NONAME
	_ZN27TExtendedInquiryResultEventC2ERK6TDesC8 @ 1467 NONAME
	_ZN27TExtendedInquiryResultEventC2EhRK10TBTDevAddr26THCIPageScanRepetitionMode17THCIReservedOctetm15THCIClockOffset8THCIRssiRK6TDesC8R5TDes8 @ 1468 NONAME
	_ZN27TExtendedInquiryResultEventD1Ev @ 1469 NONAME
	_ZN27TExtendedInquiryResultEventD2Ev @ 1470 NONAME
	_ZN27TSimplePairingCompleteEvent4CastERK13THCIEventBase @ 1471 NONAME
	_ZN27TSimplePairingCompleteEventC1E13THCIErrorCodeRK10TBTDevAddrR5TDes8 @ 1472 NONAME
	_ZN27TSimplePairingCompleteEventC1ERK6TDesC8 @ 1473 NONAME
	_ZN27TSimplePairingCompleteEventC2E13THCIErrorCodeRK10TBTDevAddrR5TDes8 @ 1474 NONAME
	_ZN27TSimplePairingCompleteEventC2ERK6TDesC8 @ 1475 NONAME
	_ZN27TSimplePairingCompleteEventD1Ev @ 1476 NONAME
	_ZN27TSimplePairingCompleteEventD2Ev @ 1477 NONAME
	_ZN28CRefreshEncryptionKeyCommand4NewLE20THCIConnectionHandle @ 1478 NONAME
	_ZN28CRefreshEncryptionKeyCommand4NewLEv @ 1479 NONAME
	_ZN28CRefreshEncryptionKeyCommand5ResetE20THCIConnectionHandle @ 1480 NONAME
	_ZN28TSniffSubratingCompleteEvent4CastERK13THCIEventBase @ 1481 NONAME
	_ZN28TSniffSubratingCompleteEventC1E13THCIErrorCodeh20THCIConnectionHandleR5TDes8 @ 1482 NONAME
	_ZN28TSniffSubratingCompleteEventC1ERK6TDesC8 @ 1483 NONAME
	_ZN28TSniffSubratingCompleteEventC2E13THCIErrorCodeh20THCIConnectionHandleR5TDes8 @ 1484 NONAME
	_ZN28TSniffSubratingCompleteEventC2ERK6TDesC8 @ 1485 NONAME
	_ZN29CReadSimplePairingModeCommand4NewLEv @ 1486 NONAME
	_ZN29CReadSimplePairingModeCommand5ResetEv @ 1487 NONAME
	_ZN29TUserConfirmationRequestEvent4CastERK13THCIEventBase @ 1488 NONAME
	_ZN29TUserConfirmationRequestEventC1ERK10TBTDevAddrmR5TDes8 @ 1489 NONAME
	_ZN29TUserConfirmationRequestEventC1ERK6TDesC8 @ 1490 NONAME
	_ZN29TUserConfirmationRequestEventC2ERK10TBTDevAddrmR5TDes8 @ 1491 NONAME
	_ZN29TUserConfirmationRequestEventC2ERK6TDesC8 @ 1492 NONAME
	_ZN29TUserConfirmationRequestEventD1Ev @ 1493 NONAME
	_ZN29TUserConfirmationRequestEventD2Ev @ 1494 NONAME
	_ZN29TUserPasskeyNotificationEvent4CastERK13THCIEventBase @ 1495 NONAME
	_ZN29TUserPasskeyNotificationEventC1ERK10TBTDevAddrmR5TDes8 @ 1496 NONAME
	_ZN29TUserPasskeyNotificationEventC1ERK6TDesC8 @ 1497 NONAME
	_ZN29TUserPasskeyNotificationEventC2ERK10TBTDevAddrmR5TDes8 @ 1498 NONAME
	_ZN29TUserPasskeyNotificationEventC2ERK6TDesC8 @ 1499 NONAME
	_ZN29TUserPasskeyNotificationEventD1Ev @ 1500 NONAME
	_ZN29TUserPasskeyNotificationEventD2Ev @ 1501 NONAME
	_ZN30CWriteSimplePairingModeCommand4NewLEh @ 1502 NONAME
	_ZN30CWriteSimplePairingModeCommand4NewLEv @ 1503 NONAME
	_ZN30CWriteSimplePairingModeCommand5ResetEh @ 1504 NONAME
	_ZN30TReadLocalOOBDataCompleteEvent4CastERK13THCIEventBase @ 1505 NONAME
	_ZN30TReadLocalOOBDataCompleteEventC1E13THCIErrorCodehRK5TBuf8ILi16EES4_R5TDes8 @ 1506 NONAME
	_ZN30TReadLocalOOBDataCompleteEventC1ERK6TDesC8 @ 1507 NONAME
	_ZN30TReadLocalOOBDataCompleteEventC2E13THCIErrorCodehRK5TBuf8ILi16EES4_R5TDes8 @ 1508 NONAME
	_ZN30TReadLocalOOBDataCompleteEventC2ERK6TDesC8 @ 1509 NONAME
	_ZN31CUserPasskeyRequestReplyCommand4NewLERK10TBTDevAddrm @ 1510 NONAME
	_ZN31CUserPasskeyRequestReplyCommand4NewLEv @ 1511 NONAME
	_ZN31CUserPasskeyRequestReplyCommand5ResetERK10TBTDevAddrm @ 1512 NONAME
	_ZN32CIOCapabilityRequestReplyCommand4NewLERK10TBTDevAddrhhh @ 1513 NONAME
	_ZN32CIOCapabilityRequestReplyCommand4NewLEv @ 1514 NONAME
	_ZN32CIOCapabilityRequestReplyCommand5ResetERK10TBTDevAddrhhh @ 1515 NONAME
	_ZN32CSendKeypressNotificationCommand4NewLERK10TBTDevAddrh @ 1516 NONAME
	_ZN32CSendKeypressNotificationCommand4NewLEv @ 1517 NONAME
	_ZN32CSendKeypressNotificationCommand5ResetERK10TBTDevAddrh @ 1518 NONAME
	_ZN33CRemoteOOBDataRequestReplyCommand4NewLERK10TBTDevAddrRK5TBuf8ILi16EES6_ @ 1519 NONAME
	_ZN33CRemoteOOBDataRequestReplyCommand4NewLEv @ 1520 NONAME
	_ZN33CRemoteOOBDataRequestReplyCommand5ResetERK10TBTDevAddrRK5TBuf8ILi16EES6_ @ 1521 NONAME
	_ZN34TEncryptionKeyRefreshCompleteEvent4CastERK13THCIEventBase @ 1522 NONAME
	_ZN34TEncryptionKeyRefreshCompleteEventC1E13THCIErrorCode20THCIConnectionHandleR5TDes8 @ 1523 NONAME
	_ZN34TEncryptionKeyRefreshCompleteEventC1ERK6TDesC8 @ 1524 NONAME
	_ZN34TEncryptionKeyRefreshCompleteEventC2E13THCIErrorCode20THCIConnectionHandleR5TDes8 @ 1525 NONAME
	_ZN34TEncryptionKeyRefreshCompleteEventC2ERK6TDesC8 @ 1526 NONAME
	_ZN34TEncryptionKeyRefreshCompleteEventD1Ev @ 1527 NONAME
	_ZN34TEncryptionKeyRefreshCompleteEventD2Ev @ 1528 NONAME
	_ZN35CReadExtendedInquiryResponseCommand4NewLEv @ 1529 NONAME
	_ZN35CReadExtendedInquiryResponseCommand5ResetEv @ 1530 NONAME
	_ZN35CWriteSimplePairingDebugModeCommand4NewLEh @ 1531 NONAME
	_ZN35CWriteSimplePairingDebugModeCommand4NewLEv @ 1532 NONAME
	_ZN35CWriteSimplePairingDebugModeCommand5ResetEh @ 1533 NONAME
	_ZN35TLinkSupervisionTimeoutChangedEvent4CastERK13THCIEventBase @ 1534 NONAME
	_ZN35TLinkSupervisionTimeoutChangedEventC1E20THCIConnectionHandletR5TDes8 @ 1535 NONAME
	_ZN35TLinkSupervisionTimeoutChangedEventC1ERK6TDesC8 @ 1536 NONAME
	_ZN35TLinkSupervisionTimeoutChangedEventC2E20THCIConnectionHandletR5TDes8 @ 1537 NONAME
	_ZN35TLinkSupervisionTimeoutChangedEventC2ERK6TDesC8 @ 1538 NONAME
	_ZN35TLinkSupervisionTimeoutChangedEventD1Ev @ 1539 NONAME
	_ZN35TLinkSupervisionTimeoutChangedEventD2Ev @ 1540 NONAME
	_ZN35TReadSimplePairingModeCompleteEvent4CastERK13THCIEventBase @ 1541 NONAME
	_ZN35TReadSimplePairingModeCompleteEventC1E13THCIErrorCodehhR5TDes8 @ 1542 NONAME
	_ZN35TReadSimplePairingModeCompleteEventC1ERK6TDesC8 @ 1543 NONAME
	_ZN35TReadSimplePairingModeCompleteEventC2E13THCIErrorCodehhR5TDes8 @ 1544 NONAME
	_ZN35TReadSimplePairingModeCompleteEventC2ERK6TDesC8 @ 1545 NONAME
	_ZN36CUserConfirmationRequestReplyCommand4NewLERK10TBTDevAddr @ 1546 NONAME
	_ZN36CUserConfirmationRequestReplyCommand4NewLEv @ 1547 NONAME
	_ZN36CUserConfirmationRequestReplyCommand5ResetERK10TBTDevAddr @ 1548 NONAME
	_ZN36CWriteExtendedInquiryResponseCommand4NewLEhRK6TDesC8 @ 1549 NONAME
	_ZN36CWriteExtendedInquiryResponseCommand4NewLEv @ 1550 NONAME
	_ZN36CWriteExtendedInquiryResponseCommand5ResetEhRK6TDesC8 @ 1551 NONAME
	_ZN36TWriteSimplePairingModeCompleteEvent4CastERK13THCIEventBase @ 1552 NONAME
	_ZN36TWriteSimplePairingModeCompleteEventC1E13THCIErrorCodehR5TDes8 @ 1553 NONAME
	_ZN36TWriteSimplePairingModeCompleteEventC1ERK6TDesC8 @ 1554 NONAME
	_ZN36TWriteSimplePairingModeCompleteEventC2E13THCIErrorCodehR5TDes8 @ 1555 NONAME
	_ZN36TWriteSimplePairingModeCompleteEventC2ERK6TDesC8 @ 1556 NONAME
	_ZN37TUserPasskeyRequestReplyCompleteEvent4CastERK13THCIEventBase @ 1557 NONAME
	_ZN37TUserPasskeyRequestReplyCompleteEventC1E13THCIErrorCodehRK10TBTDevAddrR5TDes8 @ 1558 NONAME
	_ZN37TUserPasskeyRequestReplyCompleteEventC1ERK6TDesC8 @ 1559 NONAME
	_ZN37TUserPasskeyRequestReplyCompleteEventC2E13THCIErrorCodehRK10TBTDevAddrR5TDes8 @ 1560 NONAME
	_ZN37TUserPasskeyRequestReplyCompleteEventC2ERK6TDesC8 @ 1561 NONAME
	_ZN38TIOCapabilityRequestReplyCompleteEvent4CastERK13THCIEventBase @ 1562 NONAME
	_ZN38TIOCapabilityRequestReplyCompleteEventC1E13THCIErrorCodehRK10TBTDevAddrR5TDes8 @ 1563 NONAME
	_ZN38TIOCapabilityRequestReplyCompleteEventC1ERK6TDesC8 @ 1564 NONAME
	_ZN38TIOCapabilityRequestReplyCompleteEventC2E13THCIErrorCodehRK10TBTDevAddrR5TDes8 @ 1565 NONAME
	_ZN38TIOCapabilityRequestReplyCompleteEventC2ERK6TDesC8 @ 1566 NONAME
	_ZN38TSendKeypressNotificationCompleteEvent4CastERK13THCIEventBase @ 1567 NONAME
	_ZN38TSendKeypressNotificationCompleteEventC1E13THCIErrorCodehRK10TBTDevAddrR5TDes8 @ 1568 NONAME
	_ZN38TSendKeypressNotificationCompleteEventC1ERK6TDesC8 @ 1569 NONAME
	_ZN38TSendKeypressNotificationCompleteEventC2E13THCIErrorCodehRK10TBTDevAddrR5TDes8 @ 1570 NONAME
	_ZN38TSendKeypressNotificationCompleteEventC2ERK6TDesC8 @ 1571 NONAME
	_ZN39CUserPasskeyRequestNegativeReplyCommand4NewLERK10TBTDevAddr @ 1572 NONAME
	_ZN39CUserPasskeyRequestNegativeReplyCommand4NewLEv @ 1573 NONAME
	_ZN39CUserPasskeyRequestNegativeReplyCommand5ResetERK10TBTDevAddr @ 1574 NONAME
	_ZN39TRemoteOOBDataRequestReplyCompleteEvent4CastERK13THCIEventBase @ 1575 NONAME
	_ZN39TRemoteOOBDataRequestReplyCompleteEventC1E13THCIErrorCodehRK10TBTDevAddrR5TDes8 @ 1576 NONAME
	_ZN39TRemoteOOBDataRequestReplyCompleteEventC1ERK6TDesC8 @ 1577 NONAME
	_ZN39TRemoteOOBDataRequestReplyCompleteEventC2E13THCIErrorCodehRK10TBTDevAddrR5TDes8 @ 1578 NONAME
	_ZN39TRemoteOOBDataRequestReplyCompleteEventC2ERK6TDesC8 @ 1579 NONAME
	_ZN40CIOCapabilityRequestNegativeReplyCommand4NewLERK10TBTDevAddrh @ 1580 NONAME
	_ZN40CIOCapabilityRequestNegativeReplyCommand4NewLEv @ 1581 NONAME
	_ZN40CIOCapabilityRequestNegativeReplyCommand5ResetERK10TBTDevAddrh @ 1582 NONAME
	_ZN41CReadDefaultErroneousDataReportingCommand4NewLEv @ 1583 NONAME
	_ZN41CReadDefaultErroneousDataReportingCommand5ResetEv @ 1584 NONAME
	_ZN41CRemoteOOBDataRequestNegativeReplyCommand4NewLERK10TBTDevAddr @ 1585 NONAME
	_ZN41CRemoteOOBDataRequestNegativeReplyCommand4NewLEv @ 1586 NONAME
	_ZN41CRemoteOOBDataRequestNegativeReplyCommand5ResetERK10TBTDevAddr @ 1587 NONAME
	_ZN41TReadExtendedInquiryResponseCompleteEvent4CastERK13THCIEventBase @ 1588 NONAME
	_ZN41TReadExtendedInquiryResponseCompleteEventC1E13THCIErrorCodehhRK6TDesC8R5TDes8 @ 1589 NONAME
	_ZN41TReadExtendedInquiryResponseCompleteEventC1ERK6TDesC8 @ 1590 NONAME
	_ZN41TReadExtendedInquiryResponseCompleteEventC2E13THCIErrorCodehhRK6TDesC8R5TDes8 @ 1591 NONAME
	_ZN41TReadExtendedInquiryResponseCompleteEventC2ERK6TDesC8 @ 1592 NONAME
	_ZN41TWriteSimplePairingDebugModeCompleteEvent4CastERK13THCIEventBase @ 1593 NONAME
	_ZN41TWriteSimplePairingDebugModeCompleteEventC1E13THCIErrorCodehR5TDes8 @ 1594 NONAME
	_ZN41TWriteSimplePairingDebugModeCompleteEventC1ERK6TDesC8 @ 1595 NONAME
	_ZN41TWriteSimplePairingDebugModeCompleteEventC2E13THCIErrorCodehR5TDes8 @ 1596 NONAME
	_ZN41TWriteSimplePairingDebugModeCompleteEventC2ERK6TDesC8 @ 1597 NONAME
	_ZN42CWriteDefaultErroneousDataReportingCommand4NewLEh @ 1598 NONAME
	_ZN42CWriteDefaultErroneousDataReportingCommand4NewLEv @ 1599 NONAME
	_ZN42CWriteDefaultErroneousDataReportingCommand5ResetEh @ 1600 NONAME
	_ZN42TUserConfirmationRequestReplyCompleteEvent4CastERK13THCIEventBase @ 1601 NONAME
	_ZN42TUserConfirmationRequestReplyCompleteEventC1E13THCIErrorCodehRK10TBTDevAddrR5TDes8 @ 1602 NONAME
	_ZN42TUserConfirmationRequestReplyCompleteEventC1ERK6TDesC8 @ 1603 NONAME
	_ZN42TUserConfirmationRequestReplyCompleteEventC2E13THCIErrorCodehRK10TBTDevAddrR5TDes8 @ 1604 NONAME
	_ZN42TUserConfirmationRequestReplyCompleteEventC2ERK6TDesC8 @ 1605 NONAME
	_ZN42TWriteExtendedInquiryResponseCompleteEvent4CastERK13THCIEventBase @ 1606 NONAME
	_ZN42TWriteExtendedInquiryResponseCompleteEventC1E13THCIErrorCodehR5TDes8 @ 1607 NONAME
	_ZN42TWriteExtendedInquiryResponseCompleteEventC1ERK6TDesC8 @ 1608 NONAME
	_ZN42TWriteExtendedInquiryResponseCompleteEventC2E13THCIErrorCodehR5TDes8 @ 1609 NONAME
	_ZN42TWriteExtendedInquiryResponseCompleteEventC2ERK6TDesC8 @ 1610 NONAME
	_ZN44CUserConfirmationRequestNegativeReplyCommand4NewLERK10TBTDevAddr @ 1611 NONAME
	_ZN44CUserConfirmationRequestNegativeReplyCommand4NewLEv @ 1612 NONAME
	_ZN44CUserConfirmationRequestNegativeReplyCommand5ResetERK10TBTDevAddr @ 1613 NONAME
	_ZN45CReadInquiryResponseTransmitPowerLevelCommand4NewLEv @ 1614 NONAME
	_ZN45CReadInquiryResponseTransmitPowerLevelCommand5ResetEv @ 1615 NONAME
	_ZN45TRemoteHostSupportedFeaturesNotificationEvent4CastERK13THCIEventBase @ 1616 NONAME
	_ZN45TRemoteHostSupportedFeaturesNotificationEventC1ERK10TBTDevAddryR5TDes8 @ 1617 NONAME
	_ZN45TRemoteHostSupportedFeaturesNotificationEventC1ERK6TDesC8 @ 1618 NONAME
	_ZN45TRemoteHostSupportedFeaturesNotificationEventC2ERK10TBTDevAddryR5TDes8 @ 1619 NONAME
	_ZN45TRemoteHostSupportedFeaturesNotificationEventC2ERK6TDesC8 @ 1620 NONAME
	_ZN45TRemoteHostSupportedFeaturesNotificationEventD1Ev @ 1621 NONAME
	_ZN45TRemoteHostSupportedFeaturesNotificationEventD2Ev @ 1622 NONAME
	_ZN45TUserPasskeyRequestNegativeReplyCompleteEvent4CastERK13THCIEventBase @ 1623 NONAME
	_ZN45TUserPasskeyRequestNegativeReplyCompleteEventC1E13THCIErrorCodehRK10TBTDevAddrR5TDes8 @ 1624 NONAME
	_ZN45TUserPasskeyRequestNegativeReplyCompleteEventC1ERK6TDesC8 @ 1625 NONAME
	_ZN45TUserPasskeyRequestNegativeReplyCompleteEventC2E13THCIErrorCodehRK10TBTDevAddrR5TDes8 @ 1626 NONAME
	_ZN45TUserPasskeyRequestNegativeReplyCompleteEventC2ERK6TDesC8 @ 1627 NONAME
	_ZN46CWriteInquiryResponseTransmitPowerLevelCommand4NewLEa @ 1628 NONAME
	_ZN46CWriteInquiryResponseTransmitPowerLevelCommand4NewLEv @ 1629 NONAME
	_ZN46CWriteInquiryResponseTransmitPowerLevelCommand5ResetEa @ 1630 NONAME
	_ZN46TIOCapabilityRequestNegativeReplyCompleteEvent4CastERK13THCIEventBase @ 1631 NONAME
	_ZN46TIOCapabilityRequestNegativeReplyCompleteEventC1E13THCIErrorCodehRK10TBTDevAddrR5TDes8 @ 1632 NONAME
	_ZN46TIOCapabilityRequestNegativeReplyCompleteEventC1ERK6TDesC8 @ 1633 NONAME
	_ZN46TIOCapabilityRequestNegativeReplyCompleteEventC2E13THCIErrorCodehRK10TBTDevAddrR5TDes8 @ 1634 NONAME
	_ZN46TIOCapabilityRequestNegativeReplyCompleteEventC2ERK6TDesC8 @ 1635 NONAME
	_ZN47TReadDefaultErroneousDataReportingCompleteEvent4CastERK13THCIEventBase @ 1636 NONAME
	_ZN47TReadDefaultErroneousDataReportingCompleteEventC1E13THCIErrorCodehhR5TDes8 @ 1637 NONAME
	_ZN47TReadDefaultErroneousDataReportingCompleteEventC1ERK6TDesC8 @ 1638 NONAME
	_ZN47TReadDefaultErroneousDataReportingCompleteEventC2E13THCIErrorCodehhR5TDes8 @ 1639 NONAME
	_ZN47TReadDefaultErroneousDataReportingCompleteEventC2ERK6TDesC8 @ 1640 NONAME
	_ZN47TRemoteOOBDataRequestNegativeReplyCompleteEvent4CastERK13THCIEventBase @ 1641 NONAME
	_ZN47TRemoteOOBDataRequestNegativeReplyCompleteEventC1E13THCIErrorCodehRK10TBTDevAddrR5TDes8 @ 1642 NONAME
	_ZN47TRemoteOOBDataRequestNegativeReplyCompleteEventC1ERK6TDesC8 @ 1643 NONAME
	_ZN47TRemoteOOBDataRequestNegativeReplyCompleteEventC2E13THCIErrorCodehRK10TBTDevAddrR5TDes8 @ 1644 NONAME
	_ZN47TRemoteOOBDataRequestNegativeReplyCompleteEventC2ERK6TDesC8 @ 1645 NONAME
	_ZN48TWriteDefaultErroneousDataReportingCompleteEvent4CastERK13THCIEventBase @ 1646 NONAME
	_ZN48TWriteDefaultErroneousDataReportingCompleteEventC1E13THCIErrorCodehR5TDes8 @ 1647 NONAME
	_ZN48TWriteDefaultErroneousDataReportingCompleteEventC1ERK6TDesC8 @ 1648 NONAME
	_ZN48TWriteDefaultErroneousDataReportingCompleteEventC2E13THCIErrorCodehR5TDes8 @ 1649 NONAME
	_ZN48TWriteDefaultErroneousDataReportingCompleteEventC2ERK6TDesC8 @ 1650 NONAME
	_ZN50TUserConfirmationRequestNegativeReplyCompleteEvent4CastERK13THCIEventBase @ 1651 NONAME
	_ZN50TUserConfirmationRequestNegativeReplyCompleteEventC1E13THCIErrorCodehRK10TBTDevAddrR5TDes8 @ 1652 NONAME
	_ZN50TUserConfirmationRequestNegativeReplyCompleteEventC1ERK6TDesC8 @ 1653 NONAME
	_ZN50TUserConfirmationRequestNegativeReplyCompleteEventC2E13THCIErrorCodehRK10TBTDevAddrR5TDes8 @ 1654 NONAME
	_ZN50TUserConfirmationRequestNegativeReplyCompleteEventC2ERK6TDesC8 @ 1655 NONAME
	_ZN51TReadInquiryResponseTransmitPowerLevelCompleteEvent4CastERK13THCIEventBase @ 1656 NONAME
	_ZN51TReadInquiryResponseTransmitPowerLevelCompleteEventC1E13THCIErrorCodehaR5TDes8 @ 1657 NONAME
	_ZN51TReadInquiryResponseTransmitPowerLevelCompleteEventC1ERK6TDesC8 @ 1658 NONAME
	_ZN51TReadInquiryResponseTransmitPowerLevelCompleteEventC2E13THCIErrorCodehaR5TDes8 @ 1659 NONAME
	_ZN51TReadInquiryResponseTransmitPowerLevelCompleteEventC2ERK6TDesC8 @ 1660 NONAME
	_ZN52TWriteInquiryResponseTransmitPowerLevelCompleteEvent4CastERK13THCIEventBase @ 1661 NONAME
	_ZN52TWriteInquiryResponseTransmitPowerLevelCompleteEventC1E13THCIErrorCodehR5TDes8 @ 1662 NONAME
	_ZN52TWriteInquiryResponseTransmitPowerLevelCompleteEventC1ERK6TDesC8 @ 1663 NONAME
	_ZN52TWriteInquiryResponseTransmitPowerLevelCompleteEventC2E13THCIErrorCodehR5TDes8 @ 1664 NONAME
	_ZN52TWriteInquiryResponseTransmitPowerLevelCompleteEventC2ERK6TDesC8 @ 1665 NONAME
	_ZNK13THCIEventBase19AsSimplePairingHashEi @ 1666 NONAME
	_ZNK13THCIEventBase25AsSimplePairingRandomizerEi @ 1667 NONAME
	_ZNK13THCIEventBase7AsTInt8Ei @ 1668 NONAME
	_ZNK13THCIEventBase7AsTInt8Eiii @ 1669 NONAME
	_ZNK20TSniffSubratingEvent16ConnectionHandleEv @ 1670 NONAME
	_ZNK20TSniffSubratingEvent19MinimumLocalTimeoutEv @ 1671 NONAME
	_ZNK20TSniffSubratingEvent20MinimumRemoteTimeoutEv @ 1672 NONAME
	_ZNK20TSniffSubratingEvent21MaximumReceiveLatencyEv @ 1673 NONAME
	_ZNK20TSniffSubratingEvent22MaximumTransmitLatencyEv @ 1674 NONAME
	_ZNK21CEnhancedFlushCommand10PacketTypeEv @ 1675 NONAME
	_ZNK21CEnhancedFlushCommand16ConnectionHandleEv @ 1676 NONAME
	_ZNK22CSniffSubratingCommand14MaximumLatencyEv @ 1677 NONAME
	_ZNK22CSniffSubratingCommand16ConnectionHandleEv @ 1678 NONAME
	_ZNK22CSniffSubratingCommand19MinimumLocalTimeoutEv @ 1679 NONAME
	_ZNK22CSniffSubratingCommand20MinimumRemoteTimeoutEv @ 1680 NONAME
	_ZNK24TUserPasskeyRequestEvent6BDADDREv @ 1681 NONAME
	_ZNK25TIOCapabilityRequestEvent6BDADDREv @ 1682 NONAME
	_ZNK26TIOCapabilityResponseEvent12IOCapabilityEv @ 1683 NONAME
	_ZNK26TIOCapabilityResponseEvent14OOBDataPresentEv @ 1684 NONAME
	_ZNK26TIOCapabilityResponseEvent26AuthenticationRequirementsEv @ 1685 NONAME
	_ZNK26TIOCapabilityResponseEvent6BDADDREv @ 1686 NONAME
	_ZNK26TKeypressNotificationEvent16NotificationTypeEv @ 1687 NONAME
	_ZNK26TKeypressNotificationEvent6BDADDREv @ 1688 NONAME
	_ZNK26TRemoteOOBDataRequestEvent6BDADDREv @ 1689 NONAME
	_ZNK27TEnhancedFlushCompleteEvent16ConnectionHandleEv @ 1690 NONAME
	_ZNK27TExtendedInquiryResultEvent11ClockOffsetEv @ 1691 NONAME
	_ZNK27TExtendedInquiryResultEvent12NumResponsesEv @ 1692 NONAME
	_ZNK27TExtendedInquiryResultEvent13ClassOfDeviceEv @ 1693 NONAME
	_ZNK27TExtendedInquiryResultEvent22PageScanRepetitionModeEv @ 1694 NONAME
	_ZNK27TExtendedInquiryResultEvent23ExtendedInquiryResponseEv @ 1695 NONAME
	_ZNK27TExtendedInquiryResultEvent4RSSIEv @ 1696 NONAME
	_ZNK27TExtendedInquiryResultEvent6BDADDREv @ 1697 NONAME
	_ZNK27TExtendedInquiryResultEvent8ReservedEv @ 1698 NONAME
	_ZNK27TSimplePairingCompleteEvent6BDADDREv @ 1699 NONAME
	_ZNK28CRefreshEncryptionKeyCommand16ConnectionHandleEv @ 1700 NONAME
	_ZNK28TSniffSubratingCompleteEvent16ConnectionHandleEv @ 1701 NONAME
	_ZNK29TUserConfirmationRequestEvent12NumericValueEv @ 1702 NONAME
	_ZNK29TUserConfirmationRequestEvent6BDADDREv @ 1703 NONAME
	_ZNK29TUserPasskeyNotificationEvent6BDADDREv @ 1704 NONAME
	_ZNK29TUserPasskeyNotificationEvent7PasskeyEv @ 1705 NONAME
	_ZNK30CWriteSimplePairingModeCommand17SimplePairingModeEv @ 1706 NONAME
	_ZNK30TReadLocalOOBDataCompleteEvent8OOBDataCEv @ 1707 NONAME
	_ZNK30TReadLocalOOBDataCompleteEvent8OOBDataREv @ 1708 NONAME
	_ZNK31CUserPasskeyRequestReplyCommand12NumericValueEv @ 1709 NONAME
	_ZNK31CUserPasskeyRequestReplyCommand6BDADDREv @ 1710 NONAME
	_ZNK32CIOCapabilityRequestReplyCommand12IOCapabilityEv @ 1711 NONAME
	_ZNK32CIOCapabilityRequestReplyCommand14OOBDataPresentEv @ 1712 NONAME
	_ZNK32CIOCapabilityRequestReplyCommand26AuthenticationRequirementsEv @ 1713 NONAME
	_ZNK32CIOCapabilityRequestReplyCommand6BDADDREv @ 1714 NONAME
	_ZNK32CSendKeypressNotificationCommand16NotificationTypeEv @ 1715 NONAME
	_ZNK32CSendKeypressNotificationCommand6BDADDREv @ 1716 NONAME
	_ZNK33CRemoteOOBDataRequestReplyCommand6BDADDREv @ 1717 NONAME
	_ZNK33CRemoteOOBDataRequestReplyCommand8OOBDataCEv @ 1718 NONAME
	_ZNK33CRemoteOOBDataRequestReplyCommand8OOBDataREv @ 1719 NONAME
	_ZNK34TEncryptionKeyRefreshCompleteEvent16ConnectionHandleEv @ 1720 NONAME
	_ZNK35CWriteSimplePairingDebugModeCommand22SimplePairingDebugModeEv @ 1721 NONAME
	_ZNK35TLinkSupervisionTimeoutChangedEvent16ConnectionHandleEv @ 1722 NONAME
	_ZNK35TLinkSupervisionTimeoutChangedEvent22LinkSupervisionTimeoutEv @ 1723 NONAME
	_ZNK35TReadSimplePairingModeCompleteEvent17SimplePairingModeEv @ 1724 NONAME
	_ZNK36CUserConfirmationRequestReplyCommand6BDADDREv @ 1725 NONAME
	_ZNK36CWriteExtendedInquiryResponseCommand11FECRequiredEv @ 1726 NONAME
	_ZNK36CWriteExtendedInquiryResponseCommand23ExtendedInquiryResponseEv @ 1727 NONAME
	_ZNK37TUserPasskeyRequestReplyCompleteEvent6BDADDREv @ 1728 NONAME
	_ZNK38TIOCapabilityRequestReplyCompleteEvent6BDADDREv @ 1729 NONAME
	_ZNK38TSendKeypressNotificationCompleteEvent6BDADDREv @ 1730 NONAME
	_ZNK39CUserPasskeyRequestNegativeReplyCommand6BDADDREv @ 1731 NONAME
	_ZNK39TRemoteOOBDataRequestReplyCompleteEvent6BDADDREv @ 1732 NONAME
	_ZNK40CIOCapabilityRequestNegativeReplyCommand6BDADDREv @ 1733 NONAME
	_ZNK40CIOCapabilityRequestNegativeReplyCommand6ReasonEv @ 1734 NONAME
	_ZNK41CRemoteOOBDataRequestNegativeReplyCommand6BDADDREv @ 1735 NONAME
	_ZNK41TReadExtendedInquiryResponseCompleteEvent11FECRequiredEv @ 1736 NONAME
	_ZNK41TReadExtendedInquiryResponseCompleteEvent23ExtendedInquiryResponseEv @ 1737 NONAME
	_ZNK42CWriteDefaultErroneousDataReportingCommand22ErroneousDataReportingEv @ 1738 NONAME
	_ZNK42TUserConfirmationRequestReplyCompleteEvent6BDADDREv @ 1739 NONAME
	_ZNK44CUserConfirmationRequestNegativeReplyCommand6BDADDREv @ 1740 NONAME
	_ZNK45TRemoteHostSupportedFeaturesNotificationEvent21HostSupportedFeaturesEv @ 1741 NONAME
	_ZNK45TRemoteHostSupportedFeaturesNotificationEvent6BDADDREv @ 1742 NONAME
	_ZNK45TUserPasskeyRequestNegativeReplyCompleteEvent6BDADDREv @ 1743 NONAME
	_ZNK46CWriteInquiryResponseTransmitPowerLevelCommand12TxPowerLevelEv @ 1744 NONAME
	_ZNK46TIOCapabilityRequestNegativeReplyCompleteEvent6BDADDREv @ 1745 NONAME
	_ZNK47TReadDefaultErroneousDataReportingCompleteEvent22ErroneousDataReportingEv @ 1746 NONAME
	_ZNK47TRemoteOOBDataRequestNegativeReplyCompleteEvent6BDADDREv @ 1747 NONAME
	_ZNK50TUserConfirmationRequestNegativeReplyCompleteEvent6BDADDREv @ 1748 NONAME
	_ZNK51TReadInquiryResponseTransmitPowerLevelCompleteEvent12TxPowerLevelEv @ 1749 NONAME
	_ZNK13THCIEventBase21AsBluetoothDeviceNameEi @ 1750 NONAME
	_ZN13THCIEventBaseC1ERK6TDesC8 @ 1751 NONAME
	_ZN13THCIEventBaseC2ERK6TDesC8 @ 1752 NONAME
	_ZN19CVendorDebugCommand10SetMatcherEP26MVendorDebugCommandMatcher @ 1753 NONAME

