EXPORTS
	_ZN5ESock22CMobilityMsgPluginInfo4NewLEPv @ 1 NONAME
	_ZN5ESock19TNewCarrierAccepted9DispatchLERN13NetInterfaces17TInterfaceControlERKjRN8Elements12RResponseMsgE @ 2 NONAME
	_ZN5ESock19TNewCarrierRejected9DispatchLERN13NetInterfaces17TInterfaceControlERKjRN8Elements12RResponseMsgE @ 3 NONAME
	_ZN5ESock23TIgnorePreferredCarrier9DispatchLERN13NetInterfaces17TInterfaceControlERKjRN8Elements12RResponseMsgE @ 4 NONAME
	_ZN5ESock23TRequestDataTransferred9DispatchLERN13NetInterfaces17TInterfaceControlERKjRN8Elements12RResponseMsgE @ 5 NONAME
	_ZN5ESock24TMobilitySubscriptionMsg9DispatchLERN13NetInterfaces17TInterfaceControlERKjRN8Elements12RResponseMsgE @ 6 NONAME
	_ZN5ESock26TMigrateToPreferredCarrier9DispatchLERN13NetInterfaces17TInterfaceControlERKjRN8Elements12RResponseMsgE @ 7 NONAME
	_ZN5ESock28CDataMonitoringMsgPluginInfo4NewLEPv @ 8 NONAME
	_ZN5ESock28TRequestDataSentNotification9DispatchLERN13NetInterfaces17TInterfaceControlERKjRN8Elements12RResponseMsgE @ 9 NONAME
	_ZN5ESock29TCancelDataTransferredRequest9DispatchLERN13NetInterfaces17TInterfaceControlERKjRN8Elements12RResponseMsgE @ 10 NONAME
	_ZN5ESock30TMobilitySubscriptionCancelMsg9DispatchLERN13NetInterfaces17TInterfaceControlERKjRN8Elements12RResponseMsgE @ 11 NONAME
	_ZN5ESock32TRequestDataReceivedNotification9DispatchLERN13NetInterfaces17TInterfaceControlERKjRN8Elements12RResponseMsgE @ 12 NONAME
	_ZN5ESock34TCancelDataSentNotificationRequest9DispatchLERN13NetInterfaces17TInterfaceControlERKjRN8Elements12RResponseMsgE @ 13 NONAME
	_ZN5ESock38TCancelDataReceivedNotificationRequest9DispatchLERN13NetInterfaces17TInterfaceControlERKjRN8Elements12RResponseMsgE @ 14 NONAME
	_ZNK5ESock22CMobilityMsgPluginInfo19ImplementationProxyEv @ 15 NONAME
	_ZNK5ESock22CMobilityMsgPluginInfo28ImplementationProxyTableSizeEv @ 16 NONAME
	_ZNK5ESock28CDataMonitoringMsgPluginInfo19ImplementationProxyEv @ 17 NONAME
	_ZNK5ESock28CDataMonitoringMsgPluginInfo28ImplementationProxyTableSizeEv @ 18 NONAME
	_ZTIN4Meta5TMetaIiEE @ 19 NONAME
	_ZTIN4Meta5TMetaIjEE @ 20 NONAME
	_ZTIN5ESock19TNewCarrierAcceptedE @ 21 NONAME
	_ZTIN5ESock19TNewCarrierRejectedE @ 22 NONAME
	_ZTIN5ESock22CMobilityMsgPluginInfoE @ 23 NONAME
	_ZTIN5ESock23TIgnorePreferredCarrierE @ 24 NONAME
	_ZTIN5ESock23TRequestDataTransferredE @ 25 NONAME
	_ZTIN5ESock24TMobilitySubscriptionMsgE @ 26 NONAME
	_ZTIN5ESock26TMigrateToPreferredCarrierE @ 27 NONAME
	_ZTIN5ESock28CDataMonitoringMsgPluginInfoE @ 28 NONAME
	_ZTIN5ESock28TRequestDataSentNotificationE @ 29 NONAME
	_ZTIN5ESock29TCancelDataTransferredRequestE @ 30 NONAME
	_ZTIN5ESock30TMobilitySubscriptionCancelMsgE @ 31 NONAME
	_ZTIN5ESock32TRequestDataReceivedNotificationE @ 32 NONAME
	_ZTIN5ESock34TCancelDataSentNotificationRequestE @ 33 NONAME
	_ZTIN5ESock38TCancelDataReceivedNotificationRequestE @ 34 NONAME
	_ZTVN4Meta5TMetaIiEE @ 35 NONAME
	_ZTVN4Meta5TMetaIjEE @ 36 NONAME
	_ZTVN5ESock19TNewCarrierAcceptedE @ 37 NONAME
	_ZTVN5ESock19TNewCarrierRejectedE @ 38 NONAME
	_ZTVN5ESock22CMobilityMsgPluginInfoE @ 39 NONAME
	_ZTVN5ESock23TIgnorePreferredCarrierE @ 40 NONAME
	_ZTVN5ESock23TRequestDataTransferredE @ 41 NONAME
	_ZTVN5ESock24TMobilitySubscriptionMsgE @ 42 NONAME
	_ZTVN5ESock26TMigrateToPreferredCarrierE @ 43 NONAME
	_ZTVN5ESock28CDataMonitoringMsgPluginInfoE @ 44 NONAME
	_ZTVN5ESock28TRequestDataSentNotificationE @ 45 NONAME
	_ZTVN5ESock29TCancelDataTransferredRequestE @ 46 NONAME
	_ZTVN5ESock30TMobilitySubscriptionCancelMsgE @ 47 NONAME
	_ZTVN5ESock32TRequestDataReceivedNotificationE @ 48 NONAME
	_ZTVN5ESock34TCancelDataSentNotificationRequestE @ 49 NONAME
	_ZTVN5ESock38TCancelDataReceivedNotificationRequestE @ 50 NONAME
	_ZN5ESock19TNewCarrierAccepted19GetVDataTableStaticEv @ 51 NONAME
	_ZN5ESock19TNewCarrierRejected19GetVDataTableStaticEv @ 52 NONAME
	_ZN5ESock23TIgnorePreferredCarrier19GetVDataTableStaticEv @ 53 NONAME
	_ZN5ESock23TRequestDataTransferred19GetVDataTableStaticEv @ 54 NONAME
	_ZN5ESock24TMobilitySubscriptionMsg19GetVDataTableStaticEv @ 55 NONAME
	_ZN5ESock26TMigrateToPreferredCarrier19GetVDataTableStaticEv @ 56 NONAME
	_ZN5ESock28TRequestDataSentNotification19GetVDataTableStaticEv @ 57 NONAME
	_ZN5ESock29TCancelDataTransferredRequest19GetVDataTableStaticEv @ 58 NONAME
	_ZN5ESock30TMobilitySubscriptionCancelMsg19GetVDataTableStaticEv @ 59 NONAME
	_ZN5ESock32TRequestDataReceivedNotification19GetVDataTableStaticEv @ 60 NONAME
	_ZN5ESock34TCancelDataSentNotificationRequest19GetVDataTableStaticEv @ 61 NONAME
	_ZN5ESock38TCancelDataReceivedNotificationRequest19GetVDataTableStaticEv @ 62 NONAME
	_ZNK5ESock19TNewCarrierAccepted12GetAttribPtrEi @ 63 NONAME
	_ZNK5ESock19TNewCarrierAccepted13GetVDataTableEv @ 64 NONAME
	_ZNK5ESock19TNewCarrierRejected12GetAttribPtrEi @ 65 NONAME
	_ZNK5ESock19TNewCarrierRejected13GetVDataTableEv @ 66 NONAME
	_ZNK5ESock23TIgnorePreferredCarrier12GetAttribPtrEi @ 67 NONAME
	_ZNK5ESock23TIgnorePreferredCarrier13GetVDataTableEv @ 68 NONAME
	_ZNK5ESock23TRequestDataTransferred12GetAttribPtrEi @ 69 NONAME
	_ZNK5ESock23TRequestDataTransferred13GetVDataTableEv @ 70 NONAME
	_ZNK5ESock24TMobilitySubscriptionMsg12GetAttribPtrEi @ 71 NONAME
	_ZNK5ESock24TMobilitySubscriptionMsg13GetVDataTableEv @ 72 NONAME
	_ZNK5ESock26TMigrateToPreferredCarrier12GetAttribPtrEi @ 73 NONAME
	_ZNK5ESock26TMigrateToPreferredCarrier13GetVDataTableEv @ 74 NONAME
	_ZNK5ESock28TRequestDataSentNotification12GetAttribPtrEi @ 75 NONAME
	_ZNK5ESock28TRequestDataSentNotification13GetVDataTableEv @ 76 NONAME
	_ZNK5ESock29TCancelDataTransferredRequest12GetAttribPtrEi @ 77 NONAME
	_ZNK5ESock29TCancelDataTransferredRequest13GetVDataTableEv @ 78 NONAME
	_ZNK5ESock30TMobilitySubscriptionCancelMsg12GetAttribPtrEi @ 79 NONAME
	_ZNK5ESock30TMobilitySubscriptionCancelMsg13GetVDataTableEv @ 80 NONAME
	_ZNK5ESock32TRequestDataReceivedNotification12GetAttribPtrEi @ 81 NONAME
	_ZNK5ESock32TRequestDataReceivedNotification13GetVDataTableEv @ 82 NONAME
	_ZNK5ESock34TCancelDataSentNotificationRequest12GetAttribPtrEi @ 83 NONAME
	_ZNK5ESock34TCancelDataSentNotificationRequest13GetVDataTableEv @ 84 NONAME
	_ZNK5ESock38TCancelDataReceivedNotificationRequest12GetAttribPtrEi @ 85 NONAME
	_ZNK5ESock38TCancelDataReceivedNotificationRequest13GetVDataTableEv @ 86 NONAME


