EXPORTS
	_ZN20CRemConCoreApiTarget10F1ResponseER14TRequestStatusi @ 1 NONAME
	_ZN20CRemConCoreApiTarget10F2ResponseER14TRequestStatusi @ 2 NONAME
	_ZN20CRemConCoreApiTarget10F3ResponseER14TRequestStatusi @ 3 NONAME
	_ZN20CRemConCoreApiTarget10F4ResponseER14TRequestStatusi @ 4 NONAME
	_ZN20CRemConCoreApiTarget10F5ResponseER14TRequestStatusi @ 5 NONAME
	_ZN20CRemConCoreApiTarget10UpResponseER14TRequestStatusi @ 6 NONAME
	_ZN20CRemConCoreApiTarget10_0ResponseER14TRequestStatusi @ 7 NONAME
	_ZN20CRemConCoreApiTarget10_1ResponseER14TRequestStatusi @ 8 NONAME
	_ZN20CRemConCoreApiTarget10_2ResponseER14TRequestStatusi @ 9 NONAME
	_ZN20CRemConCoreApiTarget10_3ResponseER14TRequestStatusi @ 10 NONAME
	_ZN20CRemConCoreApiTarget10_4ResponseER14TRequestStatusi @ 11 NONAME
	_ZN20CRemConCoreApiTarget10_5ResponseER14TRequestStatusi @ 12 NONAME
	_ZN20CRemConCoreApiTarget10_6ResponseER14TRequestStatusi @ 13 NONAME
	_ZN20CRemConCoreApiTarget10_7ResponseER14TRequestStatusi @ 14 NONAME
	_ZN20CRemConCoreApiTarget10_8ResponseER14TRequestStatusi @ 15 NONAME
	_ZN20CRemConCoreApiTarget10_9ResponseER14TRequestStatusi @ 16 NONAME
	_ZN20CRemConCoreApiTarget11DotResponseER14TRequestStatusi @ 17 NONAME
	_ZN20CRemConCoreApiTarget12DownResponseER14TRequestStatusi @ 18 NONAME
	_ZN20CRemConCoreApiTarget12ExitResponseER14TRequestStatusi @ 19 NONAME
	_ZN20CRemConCoreApiTarget12HelpResponseER14TRequestStatusi @ 20 NONAME
	_ZN20CRemConCoreApiTarget12LeftResponseER14TRequestStatusi @ 21 NONAME
	_ZN20CRemConCoreApiTarget12MuteResponseER14TRequestStatusi @ 22 NONAME
	_ZN20CRemConCoreApiTarget12PlayResponseER14TRequestStatusi @ 23 NONAME
	_ZN20CRemConCoreApiTarget12StopResponseER14TRequestStatusi @ 24 NONAME
	_ZN20CRemConCoreApiTarget13AngleResponseER14TRequestStatusi @ 25 NONAME
	_ZN20CRemConCoreApiTarget13ClearResponseER14TRequestStatusi @ 26 NONAME
	_ZN20CRemConCoreApiTarget13EjectResponseER14TRequestStatusi @ 27 NONAME
	_ZN20CRemConCoreApiTarget13EnterResponseER14TRequestStatusi @ 28 NONAME
	_ZN20CRemConCoreApiTarget13PauseResponseER14TRequestStatusi @ 29 NONAME
	_ZN20CRemConCoreApiTarget13PowerResponseER14TRequestStatusi @ 30 NONAME
	_ZN20CRemConCoreApiTarget13RightResponseER14TRequestStatusi @ 31 NONAME
	_ZN20CRemConCoreApiTarget14LeftUpResponseER14TRequestStatusi @ 32 NONAME
	_ZN20CRemConCoreApiTarget14PageUpResponseER14TRequestStatusi @ 33 NONAME
	_ZN20CRemConCoreApiTarget14RecordResponseER14TRequestStatusi @ 34 NONAME
	_ZN20CRemConCoreApiTarget14RewindResponseER14TRequestStatusi @ 35 NONAME
	_ZN20CRemConCoreApiTarget14SelectResponseER14TRequestStatusi @ 36 NONAME
	_ZN20CRemConCoreApiTarget15ForwardResponseER14TRequestStatusi @ 37 NONAME
	_ZN20CRemConCoreApiTarget15RightUpResponseER14TRequestStatusi @ 38 NONAME
	_ZN20CRemConCoreApiTarget16BackwardResponseER14TRequestStatusi @ 39 NONAME
	_ZN20CRemConCoreApiTarget16LeftDownResponseER14TRequestStatusi @ 40 NONAME
	_ZN20CRemConCoreApiTarget16PageDownResponseER14TRequestStatusi @ 41 NONAME
	_ZN20CRemConCoreApiTarget16RootMenuResponseER14TRequestStatusi @ 42 NONAME
	_ZN20CRemConCoreApiTarget16VolumeUpResponseER14TRequestStatusi @ 43 NONAME
	_ZN20CRemConCoreApiTarget17ChannelUpResponseER14TRequestStatusi @ 44 NONAME
	_ZN20CRemConCoreApiTarget17RightDownResponseER14TRequestStatusi @ 45 NONAME
	_ZN20CRemConCoreApiTarget17SetupMenuResponseER14TRequestStatusi @ 46 NONAME
	_ZN20CRemConCoreApiTarget18SubpictureResponseER14TRequestStatusi @ 47 NONAME
	_ZN20CRemConCoreApiTarget18VolumeDownResponseER14TRequestStatusi @ 48 NONAME
	_ZN20CRemConCoreApiTarget19ChannelDownResponseER14TRequestStatusi @ 49 NONAME
	_ZN20CRemConCoreApiTarget19FastForwardResponseER14TRequestStatusi @ 50 NONAME
	_ZN20CRemConCoreApiTarget19InputSelectResponseER14TRequestStatusi @ 51 NONAME
	_ZN20CRemConCoreApiTarget19SoundSelectResponseER14TRequestStatusi @ 52 NONAME
	_ZN20CRemConCoreApiTarget20ContentsMenuResponseER14TRequestStatusi @ 53 NONAME
	_ZN20CRemConCoreApiTarget20FavoriteMenuResponseER14TRequestStatusi @ 54 NONAME
	_ZN20CRemConCoreApiTarget20TuneFunctionResponseER14TRequestStatusi @ 55 NONAME
	_ZN20CRemConCoreApiTarget23PreviousChannelResponseER14TRequestStatusi @ 56 NONAME
	_ZN20CRemConCoreApiTarget25PausePlayFunctionResponseER14TRequestStatusi @ 57 NONAME
	_ZN20CRemConCoreApiTarget26DisplayInformationResponseER14TRequestStatusi @ 58 NONAME
	_ZN20CRemConCoreApiTarget26SelectDiskFunctionResponseER14TRequestStatusi @ 59 NONAME
	_ZN20CRemConCoreApiTarget29RestoreVolumeFunctionResponseER14TRequestStatusi @ 60 NONAME
	_ZN20CRemConCoreApiTarget29SelectAvInputFunctionResponseER14TRequestStatusi @ 61 NONAME
	_ZN20CRemConCoreApiTarget32SelectAudioInputFunctionResponseER14TRequestStatusi @ 62 NONAME
	_ZN20CRemConCoreApiTarget4NewLER24CRemConInterfaceSelectorR28MRemConCoreApiTargetObserver @ 63 NONAME
	_ZN20CRemConCoreApiTargetD0Ev @ 64 NONAME
	_ZN20CRemConCoreApiTargetD1Ev @ 65 NONAME
	_ZN20CRemConCoreApiTargetD2Ev @ 66 NONAME
	_ZN24CRemConCoreApiController10SubpictureER14TRequestStatusRj26TRemConCoreApiButtonAction @ 67 NONAME
	_ZN24CRemConCoreApiController10VolumeDownER14TRequestStatusRj26TRemConCoreApiButtonAction @ 68 NONAME
	_ZN24CRemConCoreApiController11ChannelDownER14TRequestStatusRj26TRemConCoreApiButtonAction @ 69 NONAME
	_ZN24CRemConCoreApiController11FastForwardER14TRequestStatusRj26TRemConCoreApiButtonAction @ 70 NONAME
	_ZN24CRemConCoreApiController11InputSelectER14TRequestStatusRj26TRemConCoreApiButtonAction @ 71 NONAME
	_ZN24CRemConCoreApiController11SoundSelectER14TRequestStatusRj26TRemConCoreApiButtonAction @ 72 NONAME
	_ZN24CRemConCoreApiController12ContentsMenuER14TRequestStatusRj26TRemConCoreApiButtonAction @ 73 NONAME
	_ZN24CRemConCoreApiController12FavoriteMenuER14TRequestStatusRj26TRemConCoreApiButtonAction @ 74 NONAME
	_ZN24CRemConCoreApiController12TuneFunctionER14TRequestStatusRjijj26TRemConCoreApiButtonAction @ 75 NONAME
	_ZN24CRemConCoreApiController15PreviousChannelER14TRequestStatusRj26TRemConCoreApiButtonAction @ 76 NONAME
	_ZN24CRemConCoreApiController17PausePlayFunctionER14TRequestStatusRj26TRemConCoreApiButtonAction @ 77 NONAME
	_ZN24CRemConCoreApiController18DisplayInformationER14TRequestStatusRj26TRemConCoreApiButtonAction @ 78 NONAME
	_ZN24CRemConCoreApiController18SelectDiskFunctionER14TRequestStatusRjj26TRemConCoreApiButtonAction @ 79 NONAME
	_ZN24CRemConCoreApiController21RestoreVolumeFunctionER14TRequestStatusRj26TRemConCoreApiButtonAction @ 80 NONAME
	_ZN24CRemConCoreApiController21SelectAvInputFunctionER14TRequestStatusRjh26TRemConCoreApiButtonAction @ 81 NONAME
	_ZN24CRemConCoreApiController24SelectAudioInputFunctionER14TRequestStatusRjh26TRemConCoreApiButtonAction @ 82 NONAME
	_ZN24CRemConCoreApiController2F1ER14TRequestStatusRj26TRemConCoreApiButtonAction @ 83 NONAME
	_ZN24CRemConCoreApiController2F2ER14TRequestStatusRj26TRemConCoreApiButtonAction @ 84 NONAME
	_ZN24CRemConCoreApiController2F3ER14TRequestStatusRj26TRemConCoreApiButtonAction @ 85 NONAME
	_ZN24CRemConCoreApiController2F4ER14TRequestStatusRj26TRemConCoreApiButtonAction @ 86 NONAME
	_ZN24CRemConCoreApiController2F5ER14TRequestStatusRj26TRemConCoreApiButtonAction @ 87 NONAME
	_ZN24CRemConCoreApiController2UpER14TRequestStatusRj26TRemConCoreApiButtonAction @ 88 NONAME
	_ZN24CRemConCoreApiController2_0ER14TRequestStatusRj26TRemConCoreApiButtonAction @ 89 NONAME
	_ZN24CRemConCoreApiController2_1ER14TRequestStatusRj26TRemConCoreApiButtonAction @ 90 NONAME
	_ZN24CRemConCoreApiController2_2ER14TRequestStatusRj26TRemConCoreApiButtonAction @ 91 NONAME
	_ZN24CRemConCoreApiController2_3ER14TRequestStatusRj26TRemConCoreApiButtonAction @ 92 NONAME
	_ZN24CRemConCoreApiController2_4ER14TRequestStatusRj26TRemConCoreApiButtonAction @ 93 NONAME
	_ZN24CRemConCoreApiController2_5ER14TRequestStatusRj26TRemConCoreApiButtonAction @ 94 NONAME
	_ZN24CRemConCoreApiController2_6ER14TRequestStatusRj26TRemConCoreApiButtonAction @ 95 NONAME
	_ZN24CRemConCoreApiController2_7ER14TRequestStatusRj26TRemConCoreApiButtonAction @ 96 NONAME
	_ZN24CRemConCoreApiController2_8ER14TRequestStatusRj26TRemConCoreApiButtonAction @ 97 NONAME
	_ZN24CRemConCoreApiController2_9ER14TRequestStatusRj26TRemConCoreApiButtonAction @ 98 NONAME
	_ZN24CRemConCoreApiController3DotER14TRequestStatusRj26TRemConCoreApiButtonAction @ 99 NONAME
	_ZN24CRemConCoreApiController4DownER14TRequestStatusRj26TRemConCoreApiButtonAction @ 100 NONAME
	_ZN24CRemConCoreApiController4ExitER14TRequestStatusRj26TRemConCoreApiButtonAction @ 101 NONAME
	_ZN24CRemConCoreApiController4HelpER14TRequestStatusRj26TRemConCoreApiButtonAction @ 102 NONAME
	_ZN24CRemConCoreApiController4LeftER14TRequestStatusRj26TRemConCoreApiButtonAction @ 103 NONAME
	_ZN24CRemConCoreApiController4MuteER14TRequestStatusRj26TRemConCoreApiButtonAction @ 104 NONAME
	_ZN24CRemConCoreApiController4NewLER24CRemConInterfaceSelectorR32MRemConCoreApiControllerObserver @ 105 NONAME
	_ZN24CRemConCoreApiController4PlayER14TRequestStatusRj26TRemConCoreApiButtonAction27TRemConCoreApiPlaybackSpeed @ 106 NONAME
	_ZN24CRemConCoreApiController4StopER14TRequestStatusRj26TRemConCoreApiButtonAction @ 107 NONAME
	_ZN24CRemConCoreApiController5AngleER14TRequestStatusRj26TRemConCoreApiButtonAction @ 108 NONAME
	_ZN24CRemConCoreApiController5ClearER14TRequestStatusRj26TRemConCoreApiButtonAction @ 109 NONAME
	_ZN24CRemConCoreApiController5EjectER14TRequestStatusRj26TRemConCoreApiButtonAction @ 110 NONAME
	_ZN24CRemConCoreApiController5EnterER14TRequestStatusRj26TRemConCoreApiButtonAction @ 111 NONAME
	_ZN24CRemConCoreApiController5PauseER14TRequestStatusRj26TRemConCoreApiButtonAction @ 112 NONAME
	_ZN24CRemConCoreApiController5PowerER14TRequestStatusRj26TRemConCoreApiButtonAction @ 113 NONAME
	_ZN24CRemConCoreApiController5RightER14TRequestStatusRj26TRemConCoreApiButtonAction @ 114 NONAME
	_ZN24CRemConCoreApiController6LeftUpER14TRequestStatusRj26TRemConCoreApiButtonAction @ 115 NONAME
	_ZN24CRemConCoreApiController6PageUpER14TRequestStatusRj26TRemConCoreApiButtonAction @ 116 NONAME
	_ZN24CRemConCoreApiController6RecordER14TRequestStatusRj26TRemConCoreApiButtonAction @ 117 NONAME
	_ZN24CRemConCoreApiController6RewindER14TRequestStatusRj26TRemConCoreApiButtonAction @ 118 NONAME
	_ZN24CRemConCoreApiController6SelectER14TRequestStatusRj26TRemConCoreApiButtonAction @ 119 NONAME
	_ZN24CRemConCoreApiController7ForwardER14TRequestStatusRj26TRemConCoreApiButtonAction @ 120 NONAME
	_ZN24CRemConCoreApiController7RightUpER14TRequestStatusRj26TRemConCoreApiButtonAction @ 121 NONAME
	_ZN24CRemConCoreApiController8BackwardER14TRequestStatusRj26TRemConCoreApiButtonAction @ 122 NONAME
	_ZN24CRemConCoreApiController8LeftDownER14TRequestStatusRj26TRemConCoreApiButtonAction @ 123 NONAME
	_ZN24CRemConCoreApiController8PageDownER14TRequestStatusRj26TRemConCoreApiButtonAction @ 124 NONAME
	_ZN24CRemConCoreApiController8RootMenuER14TRequestStatusRj26TRemConCoreApiButtonAction @ 125 NONAME
	_ZN24CRemConCoreApiController8VolumeUpER14TRequestStatusRj26TRemConCoreApiButtonAction @ 126 NONAME
	_ZN24CRemConCoreApiController9ChannelUpER14TRequestStatusRj26TRemConCoreApiButtonAction @ 127 NONAME
	_ZN24CRemConCoreApiController9RightDownER14TRequestStatusRj26TRemConCoreApiButtonAction @ 128 NONAME
	_ZN24CRemConCoreApiController9SetupMenuER14TRequestStatusRj26TRemConCoreApiButtonAction @ 129 NONAME
	_ZN24CRemConCoreApiControllerD0Ev @ 130 NONAME
	_ZN24CRemConCoreApiControllerD1Ev @ 131 NONAME
	_ZN24CRemConCoreApiControllerD2Ev @ 132 NONAME
	_ZN28MRemConCoreApiTargetObserver11MrccatoPlayE27TRemConCoreApiPlaybackSpeed26TRemConCoreApiButtonAction @ 133 NONAME
	_ZN28MRemConCoreApiTargetObserver14MrccatoCommandE25TRemConCoreApiOperationId26TRemConCoreApiButtonAction @ 134 NONAME
	_ZN28MRemConCoreApiTargetObserver19MrccatoTuneFunctionEijj26TRemConCoreApiButtonAction @ 135 NONAME
	_ZN28MRemConCoreApiTargetObserver25MrccatoSelectDiskFunctionEj26TRemConCoreApiButtonAction @ 136 NONAME
	_ZN28MRemConCoreApiTargetObserver28MrccatoSelectAvInputFunctionEh26TRemConCoreApiButtonAction @ 137 NONAME
	_ZN28MRemConCoreApiTargetObserver31MrccatoSelectAudioInputFunctionEh26TRemConCoreApiButtonAction @ 138 NONAME
	_ZN32MRemConCoreApiControllerObserver15MrccacoResponseE25TRemConCoreApiOperationIdi @ 139 NONAME
	_ZTI28MRemConCoreApiTargetObserver @ 140 NONAME ; #<TI>#
	_ZTI32MRemConCoreApiControllerObserver @ 141 NONAME ; #<TI>#
	_ZTV28MRemConCoreApiTargetObserver @ 142 NONAME ; #<VT>#
	_ZTV32MRemConCoreApiControllerObserver @ 143 NONAME ; #<VT>#
	_ZN20CRemConCoreApiTarget12SendResponseER14TRequestStatus25TRemConCoreApiOperationIdi @ 144 NONAME
	_ZN20CRemConCoreApiTarget4NewLER24CRemConInterfaceSelectorR28MRemConCoreApiTargetObserverRK6RArrayI25TRemConCoreApiOperationIdE @ 145 NONAME

