EXPORTS
	_ZN20RLbsLocInfoConverter10ConstructLEv @ 1 NONAME
	_ZN20RLbsLocInfoConverter20ConvertLocationInfoLER13RPointerArrayI20CLbsLocationInfoBaseEmm4TUidR14TRequestStatus @ 2 NONAME
	_ZN20RLbsLocInfoConverter20ConvertLocationInfoLER20CLbsLocationInfoBasemRKm4TUidR14TRequestStatus @ 3 NONAME
	_ZN20RLbsLocInfoConverter25CancelConvertLocationInfoEv @ 4 NONAME
	_ZN20RLbsLocInfoConverter5CloseEv @ 5 NONAME
	_ZN20RLbsLocInfoConverter5OpenLER21RLbsLocMonitorSession @ 6 NONAME
	_ZN20RLbsLocInfoConverterC1Ev @ 7 NONAME
	_ZN20RLbsLocInfoConverterC2Ev @ 8 NONAME
	_ZN20RLbsLocInfoConverterD1Ev @ 9 NONAME
	_ZN20RLbsLocInfoConverterD2Ev @ 10 NONAME
	_ZN21RLbsLocMonitorSession5CloseEv @ 11 NONAME
	_ZN21RLbsLocMonitorSession7ConnectEv @ 12 NONAME
	_ZN21RLbsLocMonitorSession7VersionEv @ 13 NONAME
	_ZN21RLbsLocMonitorSessionC1Ev @ 14 NONAME
	_ZN21RLbsLocMonitorSessionC2Ev @ 15 NONAME
	_ZN23CLbsLocMonitorPtrHolder10ConstructLEii @ 16 NONAME
	_ZN23CLbsLocMonitorPtrHolder3PtrEi @ 17 NONAME
	_ZN23CLbsLocMonitorPtrHolder4NewLEii @ 18 NONAME
	_ZN23CLbsLocMonitorPtrHolder4PtrCEi @ 19 NONAME
	_ZN23CLbsLocMonitorPtrHolderD0Ev @ 20 NONAME
	_ZN23CLbsLocMonitorPtrHolderD1Ev @ 21 NONAME
	_ZN23CLbsLocMonitorPtrHolderD2Ev @ 22 NONAME
	_ZN28RLbsLocMonitorAreaPositioner10ConstructLEv @ 23 NONAME
	_ZN28RLbsLocMonitorAreaPositioner5CloseEv @ 24 NONAME
	_ZN28RLbsLocMonitorAreaPositioner5OpenLER21RLbsLocMonitorSession @ 25 NONAME
	_ZN28RLbsLocMonitorAreaPositioner8DestructEv @ 26 NONAME
	_ZN28RLbsLocMonitorAreaPositionerC1Ev @ 27 NONAME
	_ZN28RLbsLocMonitorAreaPositionerC2Ev @ 28 NONAME
	_ZNK21RLbsLocMonitorSession15WipeOutDatabaseER14TRequestStatus @ 29 NONAME
	_ZNK21RLbsLocMonitorSession21CancelDatabaseWipeOutEv @ 30 NONAME
	_ZNK28RLbsLocMonitorAreaPositioner20GetLastKnownPositionER17TPositionInfoBaseR14TRequestStatus @ 31 NONAME
	_ZNK28RLbsLocMonitorAreaPositioner20SetLastKnownPositionERK17TPositionInfoBase @ 32 NONAME
	_ZNK28RLbsLocMonitorAreaPositioner24GetLastKnownPositionAreaER17TPositionInfoBaseR21TPositionAreaInfoBaseR17TPosAreaReqParamsR14TRequestStatus @ 33 NONAME
	_ZNK28RLbsLocMonitorAreaPositioner26CancelGetLastKnownPositionEv @ 34 NONAME
	_ZNK28RLbsLocMonitorAreaPositioner30CancelGetLastKnownPositionAreaEv @ 35 NONAME
	_ZTI20RLbsLocInfoConverter @ 36 NONAME
	_ZTI21RLbsLocMonitorSession @ 37 NONAME
	_ZTI23CLbsLocMonitorPtrHolder @ 38 NONAME
	_ZTI28CLbsLocInfoConversionHandler @ 39 NONAME
	_ZTI28RLbsLocMonitorAreaPositioner @ 40 NONAME
	_ZTV20RLbsLocInfoConverter @ 41 NONAME
	_ZTV21RLbsLocMonitorSession @ 42 NONAME
	_ZTV23CLbsLocMonitorPtrHolder @ 43 NONAME
	_ZTV28CLbsLocInfoConversionHandler @ 44 NONAME
	_ZTV28RLbsLocMonitorAreaPositioner @ 45 NONAME

