EXPORTS
	??0?$TSdpIntBuf@E@@QAE@ABE@Z @ 1 NONAME ; TSdpIntBuf<unsigned char>::TSdpIntBuf<unsigned char>(unsigned char const &)
	??0?$TSdpIntBuf@G@@QAE@ABG@Z @ 2 NONAME ; TSdpIntBuf<unsigned short>::TSdpIntBuf<unsigned short>(unsigned short const &)
	??0?$TSdpIntBuf@K@@QAE@ABK@Z @ 3 NONAME ; TSdpIntBuf<unsigned long>::TSdpIntBuf<unsigned long>(unsigned long const &)
	??0CBuilderAdapterVisitor@@QAE@PAVMSdpElementBuilder@@@Z @ 4 NONAME ; CBuilderAdapterVisitor::CBuilderAdapterVisitor(class MSdpElementBuilder *)
	??0CRecordAttr@@QAE@XZ @ 5 NONAME ; CRecordAttr::CRecordAttr(void)
	??0RSdp@@QAE@XZ @ 6 NONAME ; RSdp::RSdp(void)
	??0RSdpDatabase@@QAE@XZ @ 7 NONAME ; RSdpDatabase::RSdpDatabase(void)
	??0TAttrRange@@QAE@G@Z @ 8 NONAME ; TAttrRange::TAttrRange(unsigned short)
	??0TAttrRange@@QAE@GG@Z @ 9 NONAME ; TAttrRange::TAttrRange(unsigned short, unsigned short)
	??0TAttrRange@@QAE@XZ @ 10 NONAME ; TAttrRange::TAttrRange(void)
	??0TElementEncoder@@QAE@AAVTDes8@@@Z @ 11 NONAME ; TElementEncoder::TElementEncoder(class TDes8 &)
	??1CElementParser@@UAE@XZ @ 12 NONAME ; CElementParser::~CElementParser(void)
	??1CRecordAttr@@UAE@XZ @ 13 NONAME ; CRecordAttr::~CRecordAttr(void)
	??1CSdpAttrIdMatchList@@UAE@XZ @ 14 NONAME ; CSdpAttrIdMatchList::~CSdpAttrIdMatchList(void)
	??1CSdpAttrValueList@@UAE@XZ @ 15 NONAME ABSENT ; CSdpAttrValueList::~CSdpAttrValueList(void)
	??1CSdpDatabase@@UAE@XZ @ 16 NONAME ; CSdpDatabase::~CSdpDatabase(void)
	??1CSdpSearchPattern@@UAE@XZ @ 17 NONAME ; CSdpSearchPattern::~CSdpSearchPattern(void)
	??1CSdpServRecord@@UAE@XZ @ 18 NONAME ABSENT ; CSdpServRecord::~CSdpServRecord(void)
	?AcceptVisitorL@CSdpAttr@@QAEXAAVMAttributeVisitor@@@Z @ 19 NONAME ; void CSdpAttr::AcceptVisitorL(class MAttributeVisitor &)
	?AcceptVisitorL@CSdpAttrValueList@@UAEXAAVMSdpAttributeValueVisitor@@@Z @ 20 NONAME ABSENT ; void CSdpAttrValueList::AcceptVisitorL(class MSdpAttributeValueVisitor &)
	?AddAttribute@CSdpServRecord@@QAEXPAVCSdpAttr@@@Z @ 21 NONAME ; void CSdpServRecord::AddAttribute(class CSdpAttr *)
	?AddL@CSdpAttrIdMatchList@@QAEXUTAttrRange@@@Z @ 22 NONAME ; void CSdpAttrIdMatchList::AddL(struct TAttrRange)
	?AddL@CSdpSearchPattern@@QAEHABVTUUID@@@Z @ 23 NONAME ; int CSdpSearchPattern::AddL(class TUUID const &)
	?AddRecord@CSdpDatabase@@QAEXPAVCSdpServRecord@@@Z @ 24 NONAME ; void CSdpDatabase::AddRecord(class CSdpServRecord *)
	?AppendValueL@CSdpAttrValueList@@QAEXPAVCSdpAttrValue@@@Z @ 25 NONAME ; void CSdpAttrValueList::AppendValueL(class CSdpAttrValue *)
	?At@CSdpSearchPattern@@QBE?BVTUUID@@H@Z @ 26 NONAME ; class TUUID const CSdpSearchPattern::At(int) const
	?AttrCount@CSizeAccumulator@@QAEHH@Z @ 27 NONAME ; int CSizeAccumulator::AttrCount(int)
	?AttributeOf@CSizeAccumulator@@QAEPAVCAttrSizeItem@@HH@Z @ 28 NONAME ; class CAttrSizeItem * CSizeAccumulator::AttributeOf(int, int)
	?BufferedParseL@CElementParser@@QAEHABVTDesC8@@@Z @ 29 NONAME ; int CElementParser::BufferedParseL(class TDesC8 const &)
	?BuildBooleanL@CSdpAttrValueList@@UAEPAVMSdpElementBuilder@@H@Z @ 30 NONAME ABSENT ; class MSdpElementBuilder * CSdpAttrValueList::BuildBooleanL(int)
	?BuildBooleanL@MSdpElementBuilder@@UAEPAV1@H@Z @ 31 NONAME ; class MSdpElementBuilder * MSdpElementBuilder::BuildBooleanL(int)
	?BuildDEAL@CSdpAttrValueList@@UAEPAVMSdpElementBuilder@@XZ @ 32 NONAME ABSENT ; class MSdpElementBuilder * CSdpAttrValueList::BuildDEAL(void)
	?BuildDEAL@MSdpElementBuilder@@UAEPAV1@XZ @ 33 NONAME ; class MSdpElementBuilder * MSdpElementBuilder::BuildDEAL(void)
	?BuildDESL@CSdpAttrValueList@@UAEPAVMSdpElementBuilder@@XZ @ 34 NONAME ABSENT ; class MSdpElementBuilder * CSdpAttrValueList::BuildDESL(void)
	?BuildDESL@MSdpElementBuilder@@UAEPAV1@XZ @ 35 NONAME ; class MSdpElementBuilder * MSdpElementBuilder::BuildDESL(void)
	?BuildEncodedL@CSdpAttrValueList@@UAEPAVMSdpElementBuilder@@ABVTDesC8@@@Z @ 36 NONAME ABSENT ; class MSdpElementBuilder * CSdpAttrValueList::BuildEncodedL(class TDesC8 const &)
	?BuildIntL@CSdpAttrValueList@@UAEPAVMSdpElementBuilder@@ABVTDesC8@@@Z @ 37 NONAME ABSENT ; class MSdpElementBuilder * CSdpAttrValueList::BuildIntL(class TDesC8 const &)
	?BuildIntL@MSdpElementBuilder@@UAEPAV1@ABVTDesC8@@@Z @ 38 NONAME ; class MSdpElementBuilder * MSdpElementBuilder::BuildIntL(class TDesC8 const &)
	?BuildNilL@CSdpAttrValueList@@UAEPAVMSdpElementBuilder@@XZ @ 39 NONAME ABSENT ; class MSdpElementBuilder * CSdpAttrValueList::BuildNilL(void)
	?BuildNilL@MSdpElementBuilder@@UAEPAV1@XZ @ 40 NONAME ; class MSdpElementBuilder * MSdpElementBuilder::BuildNilL(void)
	?BuildStringL@CSdpAttrValueList@@UAEPAVMSdpElementBuilder@@ABVTDesC8@@@Z @ 41 NONAME ABSENT ; class MSdpElementBuilder * CSdpAttrValueList::BuildStringL(class TDesC8 const &)
	?BuildStringL@MSdpElementBuilder@@UAEPAV1@ABVTDesC8@@@Z @ 42 NONAME ; class MSdpElementBuilder * MSdpElementBuilder::BuildStringL(class TDesC8 const &)
	?BuildURLL@CSdpAttrValueList@@UAEPAVMSdpElementBuilder@@ABVTDesC8@@@Z @ 43 NONAME ABSENT ; class MSdpElementBuilder * CSdpAttrValueList::BuildURLL(class TDesC8 const &)
	?BuildURLL@MSdpElementBuilder@@UAEPAV1@ABVTDesC8@@@Z @ 44 NONAME ; class MSdpElementBuilder * MSdpElementBuilder::BuildURLL(class TDesC8 const &)
	?BuildUUIDL@CSdpAttrValueList@@UAEPAVMSdpElementBuilder@@ABVTUUID@@@Z @ 45 NONAME ABSENT ; class MSdpElementBuilder * CSdpAttrValueList::BuildUUIDL(class TUUID const &)
	?BuildUUIDL@MSdpElementBuilder@@UAEPAV1@ABVTUUID@@@Z @ 46 NONAME ; class MSdpElementBuilder * MSdpElementBuilder::BuildUUIDL(class TUUID const &)
	?BuildUintL@CSdpAttrValueList@@UAEPAVMSdpElementBuilder@@ABVTDesC8@@@Z @ 47 NONAME ABSENT ; class MSdpElementBuilder * CSdpAttrValueList::BuildUintL(class TDesC8 const &)
	?BuildUintL@MSdpElementBuilder@@UAEPAV1@ABVTDesC8@@@Z @ 48 NONAME ; class MSdpElementBuilder * MSdpElementBuilder::BuildUintL(class TDesC8 const &)
	?BuildUnknownL@CSdpAttrValueList@@UAEPAVMSdpElementBuilder@@EEABVTDesC8@@@Z @ 49 NONAME ABSENT ; class MSdpElementBuilder * CSdpAttrValueList::BuildUnknownL(unsigned char, unsigned char, class TDesC8 const &)
	?BuildUnknownL@MSdpElementBuilder@@UAEPAV1@EEABVTDesC8@@@Z @ 50 NONAME ; class MSdpElementBuilder * MSdpElementBuilder::BuildUnknownL(unsigned char, unsigned char, class TDesC8 const &)
	?Builder@CElementParser@@QAEPAVMSdpElementBuilder@@XZ @ 51 NONAME ; class MSdpElementBuilder * CElementParser::Builder(void)
	?CHandleItemL@CHandleItem@@SAPAV1@KPAVCSdpServRecord@@@Z @ 52 NONAME ; class CHandleItem * CHandleItem::CHandleItemL(unsigned long, class CSdpServRecord *)
	?ClientUid@CSdpServRecord@@QBE?AVTUid@@XZ @ 53 NONAME ; class TUid CSdpServRecord::ClientUid(void) const
	?Close@RSdpDatabase@@UAEXXZ @ 54 NONAME ; void RSdpDatabase::Close(void)
	?Connect@RSdp@@QAEHXZ @ 55 NONAME ; int RSdp::Connect(void)
	?ConstructL@CSdpSearchPattern@@QAEXXZ @ 56 NONAME ; void CSdpSearchPattern::ConstructL(void)
	?Count@CSdpAttrIdMatchList@@QBEHXZ @ 57 NONAME ; int CSdpAttrIdMatchList::Count(void) const
	?Count@CSdpSearchPattern@@QBEHXZ @ 58 NONAME ; int CSdpSearchPattern::Count(void) const
	?CrcAttribs@CSizeAccumulator@@QAEGXZ @ 59 NONAME ; unsigned short CSizeAccumulator::CrcAttribs(void)
	?CreateServiceRecordL@RSdpDatabase@@QAEXAAVCSdpAttrValueDES@@AAK@Z @ 60 NONAME ; void RSdpDatabase::CreateServiceRecordL(class CSdpAttrValueDES &, unsigned long &)
	?CreateServiceRecordL@RSdpDatabase@@QAEXABVTUUID@@AAK@Z @ 61 NONAME ; void RSdpDatabase::CreateServiceRecordL(class TUUID const &, unsigned long &)
	?DataSize@CSdpAttrValueList@@UBEIXZ @ 62 NONAME ABSENT ; unsigned int CSdpAttrValueList::DataSize(void) const
	?DeleteAttributeL@RSdpDatabase@@QAEXKG@Z @ 63 NONAME ; void RSdpDatabase::DeleteAttributeL(unsigned long, unsigned short)
	?DeleteRecordL@RSdpDatabase@@QAEXK@Z @ 64 NONAME ; void RSdpDatabase::DeleteRecordL(unsigned long)
	?EncodeAttributeL@CAttrEncoderVisitor@@SAXVTElementEncoder@@AAVCSdpAttrValue@@@Z @ 65 NONAME ; void CAttrEncoderVisitor::EncodeAttributeL(class TElementEncoder, class CSdpAttrValue &)
	?EncodeAttributesL@CAttrExtractVisitor@@SAXVTElementEncoder@@AAVCSdpServRecord@@AAVCSdpAttrIdMatchList@@@Z @ 66 NONAME ; void CAttrExtractVisitor::EncodeAttributesL(class TElementEncoder, class CSdpServRecord &, class CSdpAttrIdMatchList &)
	?EncodeDbL@CSdpDatabase@@QAEXXZ @ 67 NONAME ; void CSdpDatabase::EncodeDbL(void)
	?EncodeL@CSdpAttrIdMatchList@@QBEIVTElementEncoder@@@Z @ 68 NONAME ; unsigned int CSdpAttrIdMatchList::EncodeL(class TElementEncoder) const
	?EncodedSize@TElementEncoder@@SAHW4TSdpElementType@@I@Z @ 69 NONAME ; int TElementEncoder::EncodedSize(enum TSdpElementType, unsigned int)
	?EndListL@CSdpAttrValueList@@UAEPAVMSdpElementBuilder@@XZ @ 70 NONAME ABSENT ; class MSdpElementBuilder * CSdpAttrValueList::EndListL(void)
	?EndListL@MSdpElementBuilder@@UAEPAV1@XZ @ 71 NONAME ; class MSdpElementBuilder * MSdpElementBuilder::EndListL(void)
	?Find@CSdpSearchPattern@@QBEHABVTUUID@@AAH@Z @ 72 NONAME ; int CSdpSearchPattern::Find(class TUUID const &, int &) const
	?GetUint@SdpUtil@@SAIABVTDesC8@@@Z @ 73 NONAME ; unsigned int SdpUtil::GetUint(class TDesC8 const &)
	?Handle@CSdpServRecord@@QBEKXZ @ 74 NONAME ; unsigned long CSdpServRecord::Handle(void) const
	?HandleAt@CSizeAccumulator@@QAEKH@Z @ 75 NONAME ; unsigned long CSizeAccumulator::HandleAt(int)
	?HandleCount@CSizeAccumulator@@QAEHXZ @ 76 NONAME ; int CSizeAccumulator::HandleCount(void)
	?HandleSize@CSizeAccumulator@@QAEIH@Z @ 77 NONAME ; unsigned int CSizeAccumulator::HandleSize(int)
	?HeaderSize@TElementEncoder@@SAHW4TSdpElementType@@I@Z @ 78 NONAME ; int TElementEncoder::HeaderSize(enum TSdpElementType, unsigned int)
	?InMatchList@CSdpAttrIdMatchList@@QBEHG@Z @ 79 NONAME ; int CSdpAttrIdMatchList::InMatchList(unsigned short) const
	?InMatchList@CSdpAttrIdMatchList@@QBEHGAAH@Z @ 80 NONAME ; int CSdpAttrIdMatchList::InMatchList(unsigned short, int &) const
	?IsContiguousWith@TAttrRange@@QBEHG@Z @ 81 NONAME ; int TAttrRange::IsContiguousWith(unsigned short) const
	?IsContiguousWith@TAttrRange@@QBEHU1@@Z @ 82 NONAME ; int TAttrRange::IsContiguousWith(struct TAttrRange) const
	?IsEmpty@CSdpSearchPattern@@QAEHXZ @ 83 NONAME ; int CSdpSearchPattern::IsEmpty(void)
	?IsInRange@TAttrRange@@QBEHG@Z @ 84 NONAME ; int TAttrRange::IsInRange(unsigned short) const
	?MSAVV_ExtensionInterfaceL@MSdpAttributeValueVisitor@@UAEXVTUid@@AAPAX@Z @ 85 NONAME ; void MSdpAttributeValueVisitor::MSAVV_ExtensionInterfaceL(class TUid, void * &)
	?MSEB_ExtensionInterfaceL@MSdpElementBuilder@@QAEXVTUid@@AAPAX@Z @ 86 NONAME ; void MSdpElementBuilder::MSEB_ExtensionInterfaceL(class TUid, void * &)
	?NewBoolL@CSdpAttrValueBoolean@@SAPAV1@H@Z @ 87 NONAME ; class CSdpAttrValueBoolean * CSdpAttrValueBoolean::NewBoolL(int)
	?NewDEAL@CSdpAttrValueDEA@@SAPAV1@PAVMSdpElementBuilder@@@Z @ 88 NONAME ; class CSdpAttrValueDEA * CSdpAttrValueDEA::NewDEAL(class MSdpElementBuilder *)
	?NewDESL@CSdpAttrValueDES@@SAPAV1@PAVMSdpElementBuilder@@@Z @ 89 NONAME ; class CSdpAttrValueDES * CSdpAttrValueDES::NewDESL(class MSdpElementBuilder *)
	?NewEncodedL@CSdpAttrValueEncoded@@SAPAV1@ABVTDesC8@@@Z @ 90 NONAME ; class CSdpAttrValueEncoded * CSdpAttrValueEncoded::NewEncodedL(class TDesC8 const &)
	?NewIntL@CSdpAttrValueInt@@SAPAV1@ABVTDesC8@@@Z @ 91 NONAME ; class CSdpAttrValueInt * CSdpAttrValueInt::NewIntL(class TDesC8 const &)
	?NewL@CElementParser@@SAPAV1@PAVMSdpElementBuilder@@@Z @ 92 NONAME ; class CElementParser * CElementParser::NewL(class MSdpElementBuilder *)
	?NewL@CHandleItem@@SAPAV1@XZ @ 93 NONAME ; class CHandleItem * CHandleItem::NewL(void)
	?NewL@CResponseSizeVisitor@@CAPAV1@XZ @ 94 NONAME ABSENT ; class CResponseSizeVisitor * CResponseSizeVisitor::NewL(void)
	?NewL@CSdpAttr@@SAPAV1@GPAVMSdpElementBuilder@@@Z @ 95 NONAME ; class CSdpAttr * CSdpAttr::NewL(unsigned short, class MSdpElementBuilder *)
	?NewL@CSdpAttrIdMatchList@@SAPAV1@ABV1@@Z @ 96 NONAME ; class CSdpAttrIdMatchList * CSdpAttrIdMatchList::NewL(class CSdpAttrIdMatchList const &)
	?NewL@CSdpAttrIdMatchList@@SAPAV1@XZ @ 97 NONAME ; class CSdpAttrIdMatchList * CSdpAttrIdMatchList::NewL(void)
	?NewL@CSdpDatabase@@SAPAV1@XZ @ 98 NONAME ; class CSdpDatabase * CSdpDatabase::NewL(void)
	?NewL@CSdpSearchPattern@@SAPAV1@XZ @ 99 NONAME ; class CSdpSearchPattern * CSdpSearchPattern::NewL(void)
	?NewL@CSdpServRecord@@SAPAV1@XZ @ 100 NONAME ; class CSdpServRecord * CSdpServRecord::NewL(void)
	?NewL@CServiceSearchVisitor@@SAPAV1@ABVCSdpSearchPattern@@@Z @ 101 NONAME ; class CServiceSearchVisitor * CServiceSearchVisitor::NewL(class CSdpSearchPattern const &)
	?NewL@CSizeAccumulator@@SAPAV1@XZ @ 102 NONAME ; class CSizeAccumulator * CSizeAccumulator::NewL(void)
	?NewLC@CHandleItem@@SAPAV1@XZ @ 103 NONAME ; class CHandleItem * CHandleItem::NewLC(void)
	?NewLC@CResponseSizeVisitor@@CAPAV1@XZ @ 104 NONAME ABSENT ; class CResponseSizeVisitor * CResponseSizeVisitor::NewLC(void)
	?NewLC@CSdpDatabase@@SAPAV1@XZ @ 105 NONAME ; class CSdpDatabase * CSdpDatabase::NewLC(void)
	?NewLC@CServiceSearchVisitor@@SAPAV1@ABVCSdpSearchPattern@@@Z @ 106 NONAME ; class CServiceSearchVisitor * CServiceSearchVisitor::NewLC(class CSdpSearchPattern const &)
	?NewLC@CSizeAccumulator@@SAPAV1@XZ @ 107 NONAME ; class CSizeAccumulator * CSizeAccumulator::NewLC(void)
	?NewNilL@CSdpAttrValueNil@@SAPAV1@XZ @ 108 NONAME ; class CSdpAttrValueNil * CSdpAttrValueNil::NewNilL(void)
	?NewRecordL@CSdpDatabase@@QAEPAVCSdpServRecord@@XZ @ 109 NONAME ; class CSdpServRecord * CSdpDatabase::NewRecordL(void)
	?NewServerSideL@CSdpServRecord@@SAPAV1@ABVTUid@@@Z @ 110 NONAME ; class CSdpServRecord * CSdpServRecord::NewServerSideL(class TUid const &)
	?NewStringL@CSdpAttrValueString@@SAPAV1@ABVTDesC8@@@Z @ 111 NONAME ; class CSdpAttrValueString * CSdpAttrValueString::NewStringL(class TDesC8 const &)
	?NewURLL@CSdpAttrValueURL@@SAPAV1@ABVTDesC8@@@Z @ 112 NONAME ; class CSdpAttrValueURL * CSdpAttrValueURL::NewURLL(class TDesC8 const &)
	?NewUUIDL@CSdpAttrValueUUID@@SAPAV1@ABVTUUID@@@Z @ 113 NONAME ; class CSdpAttrValueUUID * CSdpAttrValueUUID::NewUUIDL(class TUUID const &)
	?NewUintL@CSdpAttrValueUint@@SAPAV1@ABVTDesC8@@@Z @ 114 NONAME ; class CSdpAttrValueUint * CSdpAttrValueUint::NewUintL(class TDesC8 const &)
	?NextFreeHandle@CSdpDatabase@@QAEKXZ @ 115 NONAME ; unsigned long CSdpDatabase::NextFreeHandle(void)
	?Open@RSdpDatabase@@UAEHAAVRSdp@@@Z @ 116 NONAME ; int RSdpDatabase::Open(class RSdp &)
	?ParseDbL_Obscelete_DoesNothing@CSdpDatabase@@QAEXXZ @ 117 NONAME ; void CSdpDatabase::ParseDbL_Obscelete_DoesNothing(void)
	?ParseElementsL@CElementParser@@QAEHABVTDesC8@@@Z @ 118 NONAME ; int CElementParser::ParseElementsL(class TDesC8 const &)
	?PutUint@SdpUtil@@SAXPAE_JH@Z @ 119 NONAME ; void SdpUtil::PutUint(unsigned char *, long long, int)
	?PutUint@TElementEncoder@@SAXPAEIH@Z @ 120 NONAME ; void TElementEncoder::PutUint(unsigned char *, unsigned int, int)
	?Remove@CSdpSearchPattern@@QAEHABVTUUID@@@Z @ 121 NONAME ; int CSdpSearchPattern::Remove(class TUUID const &)
	?RemoveL@CSdpAttrIdMatchList@@QAEXUTAttrRange@@@Z @ 122 NONAME ; void CSdpAttrIdMatchList::RemoveL(struct TAttrRange)
	?Reset@CElementParser@@QAEXPAVMSdpElementBuilder@@@Z @ 123 NONAME ; void CElementParser::Reset(class MSdpElementBuilder *)
	?Reset@CElementParser@@QAEXXZ @ 124 NONAME ; void CElementParser::Reset(void)
	?Reset@CSdpSearchPattern@@QAEXXZ @ 125 NONAME ; void CSdpSearchPattern::Reset(void)
	?ResourceCount@RSdp@@QAEHXZ @ 126 NONAME ; int RSdp::ResourceCount(void)
	?ResourceCountMarkEnd@RSdp@@QAEXXZ @ 127 NONAME ; void RSdp::ResourceCountMarkEnd(void)
	?ResourceCountMarkStart@RSdp@@QAEXXZ @ 128 NONAME ; void RSdp::ResourceCountMarkStart(void)
	?SearchDbL@CServiceSearchVisitor@@SAXAAVCSdpDatabase@@ABVCSdpSearchPattern@@AAVMServiceSearchHandler@@@Z @ 129 NONAME ; void CServiceSearchVisitor::SearchDbL(class CSdpDatabase &, class CSdpSearchPattern const &, class MServiceSearchHandler &)
	?SetBuilder@CElementParser@@QAEXPAVMSdpElementBuilder@@@Z @ 130 NONAME ; void CElementParser::SetBuilder(class MSdpElementBuilder *)
	?SizeDescriptor@TElementEncoder@@SA?AW4TSdpElementSizeDesc@@W4TSdpElementType@@I@Z @ 131 NONAME ; enum TSdpElementSizeDesc TElementEncoder::SizeDescriptor(enum TSdpElementType, unsigned int)
	?SizeLeft@CSizeAccumulator@@QAEIXZ @ 132 NONAME ; unsigned int CSizeAccumulator::SizeLeft(void)
	?SizeRespARL@CResponseSizeVisitor@@SAXAAVCSdpServRecord@@ABVCSdpAttrIdMatchList@@AAVCSizeAccumulator@@@Z @ 133 NONAME ; void CResponseSizeVisitor::SizeRespARL(class CSdpServRecord &, class CSdpAttrIdMatchList const &, class CSizeAccumulator &)
	?SizeRespSAL@CResponseSizeVisitor@@SAXAAVCSdpDatabase@@ABVCSdpSearchPattern@@ABVCSdpAttrIdMatchList@@AAVCSizeAccumulator@@@Z @ 134 NONAME ; void CResponseSizeVisitor::SizeRespSAL(class CSdpDatabase &, class CSdpSearchPattern const &, class CSdpAttrIdMatchList const &, class CSizeAccumulator &)
	?SizeRespSSL@CResponseSizeVisitor@@SAXAAVCSdpDatabase@@ABVCSdpSearchPattern@@AAVCSizeAccumulator@@@Z @ 135 NONAME ; void CResponseSizeVisitor::SizeRespSSL(class CSdpDatabase &, class CSdpSearchPattern const &, class CSizeAccumulator &)
	?StartAt@CSizeAccumulator@@QAEHIAAIAAH1@Z @ 136 NONAME ; int CSizeAccumulator::StartAt(unsigned int, unsigned int &, int &, int &)
	?StartListL@CSdpAttrValueList@@UAEPAVMSdpElementBuilder@@XZ @ 137 NONAME ABSENT ; class MSdpElementBuilder * CSdpAttrValueList::StartListL(void)
	?StartListL@MSdpElementBuilder@@UAEPAV1@XZ @ 138 NONAME ; class MSdpElementBuilder * MSdpElementBuilder::StartListL(void)
	?UpdateAttributeL@RSdpDatabase@@QAEXKGAAVCSdpAttrValue@@@Z @ 139 NONAME ; void RSdpDatabase::UpdateAttributeL(unsigned long, unsigned short, class CSdpAttrValue &)
	?UpdateAttributeL@RSdpDatabase@@QAEXKGABVTDesC16@@@Z @ 140 NONAME ; void RSdpDatabase::UpdateAttributeL(unsigned long, unsigned short, class TDesC16 const &)
	?UpdateAttributeL@RSdpDatabase@@QAEXKGABVTDesC8@@@Z @ 141 NONAME ; void RSdpDatabase::UpdateAttributeL(unsigned long, unsigned short, class TDesC8 const &)
	?UpdateAttributeL@RSdpDatabase@@QAEXKGI@Z @ 142 NONAME ; void RSdpDatabase::UpdateAttributeL(unsigned long, unsigned short, unsigned int)
	?Version@RSdp@@QBE?AVTVersion@@XZ @ 143 NONAME ; class TVersion RSdp::Version(void) const
	?WriteBoolean@TElementEncoder@@QAEHH@Z @ 144 NONAME ; int TElementEncoder::WriteBoolean(int)
	?WriteDEA@TElementEncoder@@QAEHI@Z @ 145 NONAME ; int TElementEncoder::WriteDEA(unsigned int)
	?WriteDES@TElementEncoder@@QAEHI@Z @ 146 NONAME ; int TElementEncoder::WriteDES(unsigned int)
	?WriteDesc@TElementEncoder@@QAEHABVTDesC8@@@Z @ 147 NONAME ; int TElementEncoder::WriteDesc(class TDesC8 const &)
	?WriteElement@TElementEncoder@@QAEHW4TSdpElementType@@ABVTDesC8@@@Z @ 148 NONAME ; int TElementEncoder::WriteElement(enum TSdpElementType, class TDesC8 const &)
	?WriteHeader@TElementEncoder@@QAEHW4TSdpElementType@@I@Z @ 149 NONAME ; int TElementEncoder::WriteHeader(enum TSdpElementType, unsigned int)
	?WriteInt@TElementEncoder@@QAEHABVTDesC8@@@Z @ 150 NONAME ; int TElementEncoder::WriteInt(class TDesC8 const &)
	?WriteInt@TElementEncoder@@QAEHHH@Z @ 151 NONAME ; int TElementEncoder::WriteInt(int, int)
	?WriteNil@TElementEncoder@@QAEHXZ @ 152 NONAME ; int TElementEncoder::WriteNil(void)
	?WriteString@TElementEncoder@@QAEHABVTDesC8@@@Z @ 153 NONAME ; int TElementEncoder::WriteString(class TDesC8 const &)
	?WriteURL@TElementEncoder@@QAEHABVTDesC8@@@Z @ 154 NONAME ; int TElementEncoder::WriteURL(class TDesC8 const &)
	?WriteUUID@TElementEncoder@@QAEHABVTUUID@@@Z @ 155 NONAME ; int TElementEncoder::WriteUUID(class TUUID const &)
	?WriteUint@TElementEncoder@@QAEHABVTDesC8@@@Z @ 156 NONAME ; int TElementEncoder::WriteUint(class TDesC8 const &)
	?WriteUint@TElementEncoder@@QAEHIH@Z @ 157 NONAME ; int TElementEncoder::WriteUint(unsigned int, int)
	?__DbgTestInvariant@CSdpAttrIdMatchList@@QBEXXZ @ 158 NONAME ; void CSdpAttrIdMatchList::__DbgTestInvariant(void) const
	?GetUint128@SdpUtil@@SAXABVTDesC8@@AA_K1@Z @ 159 NONAME ; void SdpUtil::GetUint128(class TDesC8 const &, unsigned long long &, unsigned long long &)
	?GetUint64@SdpUtil@@SAXABVTDesC8@@AA_K@Z @ 160 NONAME ; void SdpUtil::GetUint64(class TDesC8 const &, unsigned long long &)
	?PutUint128@SdpUtil@@SAXPAEAB_K1@Z @ 161 NONAME ; void SdpUtil::PutUint128(unsigned char *, unsigned long long const &, unsigned long long const &)
	?PutUint64@SdpUtil@@SAXPAEAB_K@Z @ 162 NONAME ; void SdpUtil::PutUint64(unsigned char *, unsigned long long const &)
	?__DbgCheckHeap@RSdp@@QAEHH@Z @ 163 NONAME ; int RSdp::__DbgCheckHeap(int)
	?__DbgFailNext@RSdp@@QAEHH@Z @ 164 NONAME ; int RSdp::__DbgFailNext(int)
	?__DbgMarkEnd@RSdp@@QAEHH@Z @ 165 NONAME ; int RSdp::__DbgMarkEnd(int)
	?__DbgMarkHeap@RSdp@@QAEHXZ @ 166 NONAME ; int RSdp::__DbgMarkHeap(void)
	?RecordStateChange@CSdpServRecord@@QAEXXZ @ 167 NONAME ; void CSdpServRecord::RecordStateChange(void)
	?EncodeAttributeL@CAttrEncoderVisitor@@QAEXAAVCSdpAttrValue@@@Z @ 168 NONAME ; void CAttrEncoderVisitor::EncodeAttributeL(class CSdpAttrValue &)
	?NewL@CAttrEncoderVisitor@@SAPAV1@VTElementEncoder@@@Z @ 169 NONAME ; class CAttrEncoderVisitor * CAttrEncoderVisitor::NewL(class TElementEncoder)
	?NewLC@CAttrEncoderVisitor@@SAPAV1@VTElementEncoder@@@Z @ 170 NONAME ; class CAttrEncoderVisitor * CAttrEncoderVisitor::NewLC(class TElementEncoder)
	?SetEncodedValue@CSdpAttrValueEncoded@@QAEXABVTDesC8@@@Z @ 171 NONAME ; void CSdpAttrValueEncoded::SetEncodedValue(class TDesC8 const &)
	?SetUintValue@CSdpAttrValueUint@@QAEXABVTDesC8@@@Z @ 172 NONAME ; void CSdpAttrValueUint::SetUintValue(class TDesC8 const &)
	?DeleteAttribute@RSdpDatabase@@QAEXKG@Z @ 173 NONAME ; void RSdpDatabase::DeleteAttribute(unsigned long, unsigned short)
	?DeleteRecord@RSdpDatabase@@QAEXK@Z @ 174 NONAME ; void RSdpDatabase::DeleteRecord(unsigned long)
	?InMatchListRange@CSdpAttrIdMatchList@@QBEHGAAH@Z @ 175 NONAME ; int CSdpAttrIdMatchList::InMatchListRange(unsigned short, int &) const
	??0?$TSdpIntBuf@_K@@QAE@AB_K@Z @ 176 NONAME ; TSdpIntBuf<unsigned long long>::TSdpIntBuf<unsigned long long>(unsigned long long const &)
	?Uint128@CSdpAttrValue@@QBEXAA_K0@Z @ 177 NONAME ; void CSdpAttrValue::Uint128(unsigned long long &, unsigned long long &) const
	?Uint64@CSdpAttrValue@@QBEXAA_K@Z @ 178 NONAME ; void CSdpAttrValue::Uint64(unsigned long long &) const
	??1CAttrUuidVisitor@@UAE@XZ @ 179 NONAME ; CAttrUuidVisitor::~CAttrUuidVisitor(void)
	?GetUuids@CAttrUuidVisitor@@QAEAAVRUUIDContainer@@XZ @ 180 NONAME ; class RUUIDContainer & CAttrUuidVisitor::GetUuids(void)
	?NewL@CAttrUuidVisitor@@SAPAV1@XZ @ 181 NONAME ; class CAttrUuidVisitor * CAttrUuidVisitor::NewL(void)

