EXPORTS
	_ZN11TChargeCard10SetNatRuleERK7TDesC16 @ 1 NONAME
	_ZN11TChargeCard11SetIntlRuleERK7TDesC16 @ 2 NONAME
	_ZN11TChargeCard12SetLocalRuleERK7TDesC16 @ 3 NONAME
	_ZN11TChargeCard6SetPinERK7TDesC16 @ 4 NONAME
	_ZN11TChargeCard9SetNumberERK7TDesC16 @ 5 NONAME
	_ZN11TChargeCardC1ERK4TBufILi32EERKS0_ILi8EES3_S3_S3_ @ 6 NONAME
	_ZN11TChargeCardC1Ev @ 7 NONAME
	_ZN11TChargeCardC2ERK4TBufILi32EERKS0_ILi8EES3_S3_S3_ @ 8 NONAME
	_ZN11TChargeCardC2Ev @ 9 NONAME
	_ZN13TDialLocation10SetNatCodeERK7TDesC16 @ 10 NONAME
	_ZN13TDialLocation11SetAreaCodeERK7TDesC16 @ 11 NONAME
	_ZN13TDialLocation14SetNatPrefCodeERK7TDesC16 @ 12 NONAME
	_ZN13TDialLocation15SetIntlPrefCodeERK7TDesC16 @ 13 NONAME
	_ZN13TDialLocation19SetDialOutLocalCodeERK7TDesC16 @ 14 NONAME
	_ZN13TDialLocation20SetDialLocationFlagsEj @ 15 NONAME
	_ZN13TDialLocation20SetPauseAfterDialoutEj @ 16 NONAME
	_ZN13TDialLocation25SetDisableCallWaitingCodeERK7TDesC16 @ 17 NONAME
	_ZN13TDialLocation26SetDialOutLongDistanceCodeERK7TDesC16 @ 18 NONAME
	_ZN13TDialLocationC1ERK4TBufILi10EES3_S3_S3_RKS0_ILi4EES6_RKS0_ILi8EEjj @ 19 NONAME
	_ZN13TDialLocationC1Ev @ 20 NONAME
	_ZN13TDialLocationC2ERK4TBufILi10EES3_S3_S3_RKS0_ILi4EES6_RKS0_ILi8EEjj @ 21 NONAME
	_ZN13TDialLocationC2Ev @ 22 NONAME
	_ZN15TelephoneNumber23CalculateDialCityPrefixER4TBufILi50EERK14TCityDialCodesS5_16TCityDialOptions5TChar22TPlusFormatDialOptions @ 23 NONAME
	_ZN15TelephoneNumber5ParseER4TBufILi50EERK13TDialLocationRK11TChargeCardRK7TDesC1610TParseMode @ 24 NONAME
	_ZN15TelephoneNumber5ParseER4TBufILi50EERK13TDialLocationRK7TDesC16 @ 25 NONAME
	_ZN15TelephoneNumber5ParseER4TBufILi50EERK13TDialLocationRK7TDesC1616TCityDialOptions @ 26 NONAME
	_ZNK11TChargeCard22ValidateChargeCardInfoEv @ 27 NONAME
	_ZNK11TChargeCard3PinEv @ 28 NONAME
	_ZNK11TChargeCard6NumberEv @ 29 NONAME
	_ZNK11TChargeCard7NatRuleEv @ 30 NONAME
	_ZNK11TChargeCard8IntlRuleEv @ 31 NONAME
	_ZNK11TChargeCard9LocalRuleEv @ 32 NONAME
	_ZNK13TDialLocation11NatPrefCodeEv @ 33 NONAME
	_ZNK13TDialLocation12IntlPrefCodeEv @ 34 NONAME
	_ZNK13TDialLocation14IsUsePulseDialEv @ 35 NONAME
	_ZNK13TDialLocation16DialOutLocalCodeEv @ 36 NONAME
	_ZNK13TDialLocation17IsDialOutRequiredEv @ 37 NONAME
	_ZNK13TDialLocation17IsPbxUsePulseDialEv @ 38 NONAME
	_ZNK13TDialLocation17PauseAfterDialoutEv @ 39 NONAME
	_ZNK13TDialLocation20IsWaitForDialingToneEv @ 40 NONAME
	_ZNK13TDialLocation20IsWaitForProceedToneEv @ 41 NONAME
	_ZNK13TDialLocation22DisableCallWaitingCodeEv @ 42 NONAME
	_ZNK13TDialLocation23DialOutLongDistanceCodeEv @ 43 NONAME
	_ZNK13TDialLocation24IsDisableCallWaitingCodeEv @ 44 NONAME
	_ZNK13TDialLocation7NatCodeEv @ 45 NONAME
	_ZNK13TDialLocation8AreaCodeEv @ 46 NONAME
	_ZNK13TDialLocation8IsMobileEv @ 47 NONAME

