EXPORTS
	_Z12GDI_Reservedv @ 1 NONAME
	_ZN10CFontCache16RemoveFirstEntryEv @ 2 NONAME
	_ZN10CFontCache6SearchERK9TFontSpec @ 3 NONAME
	_ZN10CFontCache9AddEntryLEP5CFontRK9TFontSpec @ 4 NONAME
	_ZN10CFontCacheC1Ei @ 5 NONAME
	_ZN10CFontCacheC1Ev @ 6 NONAME
	_ZN10CFontCacheC2Ei @ 7 NONAME
	_ZN10CFontCacheC2Ev @ 8 NONAME
	_ZN10CFontCacheD0Ev @ 9 NONAME
	_ZN10CFontCacheD1Ev @ 10 NONAME
	_ZN10CFontCacheD2Ev @ 11 NONAME
	_ZN10TFontStyle10SetPostureE12TFontPosture @ 12 NONAME
	_ZN10TFontStyle12InternalizeLER11RReadStream @ 13 NONAME
	_ZN10TFontStyle15SetStrokeWeightE17TFontStrokeWeight @ 14 NONAME
	_ZN10TFontStyle16SetPrintPositionE18TFontPrintPosition @ 15 NONAME
	_ZN10TFontStyleC1E12TFontPosture17TFontStrokeWeight18TFontPrintPosition @ 16 NONAME
	_ZN10TFontStyleC1Ev @ 17 NONAME
	_ZN10TFontStyleC2E12TFontPosture17TFontStrokeWeight18TFontPrintPosition @ 18 NONAME
	_ZN10TFontStyleC2Ev @ 19 NONAME
	_ZN10TLinearDDA10JumpToRectERK5TRect @ 20 NONAME
	_ZN10TLinearDDA10SingleStepER6TPoint @ 21 NONAME
	_ZN10TLinearDDA12JumpToXCoordEiRi @ 22 NONAME
	_ZN10TLinearDDA12JumpToYCoordERii @ 23 NONAME
	_ZN10TLinearDDA14SingleScanlineER6TPointS1_ @ 24 NONAME
	_ZN10TLinearDDA8NextStepER6TPoint @ 25 NONAME
	_ZN10TLinearDDA9ConstructERK6TPointS2_NS_9TLineModeE @ 26 NONAME
	_ZN10TLinearDDAC1ERKS_ @ 27 NONAME
	_ZN10TLinearDDAC1Ev @ 28 NONAME
	_ZN10TLinearDDAC2ERKS_ @ 29 NONAME
	_ZN10TLinearDDAC2Ev @ 30 NONAME
	_ZN11TZoomFactor11ReleaseFontEP5CFont @ 31 NONAME
	_ZN11TZoomFactor13SetZoomFactorEi @ 32 NONAME
	_ZN11TZoomFactor21GetNearestFontInTwipsERP5CFontRK9TFontSpec @ 33 NONAME
	_ZN11TZoomFactor21SetTwipToPixelMappingERK5TSizeS2_ @ 34 NONAME
	_ZN11TZoomFactorC1Ev @ 35 NONAME
	_ZN11TZoomFactorC2Ev @ 36 NONAME
	_ZN11TZoomFactorD0Ev @ 37 NONAME
	_ZN11TZoomFactorD1Ev @ 38 NONAME
	_ZN11TZoomFactorD2Ev @ 39 NONAME
	_ZN13CPdrModelList13AddDirectoryLERK7TDesC16 @ 40 NONAME
	_ZN13CPdrModelList14ScanForModelsLEv @ 41 NONAME
	_ZN13CPdrModelList20CreatePrinterDriverLEi @ 42 NONAME
	_ZN13CPdrModelList4NewLEv @ 43 NONAME
	_ZN13CPdrModelListD0Ev @ 44 NONAME
	_ZN13CPdrModelListD1Ev @ 45 NONAME
	_ZN13CPdrModelListD2Ev @ 46 NONAME
	_ZN13CPdrModelListixEi @ 47 NONAME
	_ZN13TColor256Util7DefaultEv @ 48 NONAME
	_ZN13TColor256Util9ConstructERK8CPalette @ 49 NONAME
	_ZN14CPrinterDevice13DeleteControlEv @ 50 NONAME
	_ZN14CPrinterDevice18RestorePropertiesLEv @ 51 NONAME
	_ZN14CPrinterDevice21SelectPageSpecInTwipsERK9TPageSpec @ 52 NONAME
	_ZNK9TBidiText26NumberOfLinesInDisplayTextEv @ 53 NONAME
	_ZN14CPrinterDeviceC2Ev @ 54 NONAME
	_ZN14CPrinterDeviceD0Ev @ 55 NONAME
	_ZN14CPrinterDeviceD1Ev @ 56 NONAME
	_ZN14CPrinterDeviceD2Ev @ 57 NONAME
	_ZN14CPrinterDriver20CreatePrinterDeviceLE4TUid @ 58 NONAME
	_ZN14CPrinterDriver22CreatePrinterDriverUILEv @ 59 NONAME
	_ZN14CPrinterDriver4NewLEv @ 60 NONAME
	_ZN14CPrinterDriver5CloseEv @ 61 NONAME
	_ZN14CPrinterDriver8OpenPdrLERK7TDesC16 @ 62 NONAME
	_ZN14CPrinterDriverD0Ev @ 63 NONAME
	_ZN14CPrinterDriverD1Ev @ 64 NONAME
	_ZN14CPrinterDriverD2Ev @ 65 NONAME
	_ZN14CTypefaceStore10ConstructLEv @ 66 NONAME
	_ZN14CTypefaceStore11ReleaseFontEP5CFont @ 67 NONAME
	_ZN14CTypefaceStore14BaselineOffsetEi18TFontPrintPosition @ 68 NONAME
	_ZN14CTypefaceStore14SuperSubHeightEi18TFontPrintPosition @ 69 NONAME
	_ZN14CTypefaceStore8AddFontLEP5CFont @ 70 NONAME
	_ZNK9TBidiText17LineOfDisplayTextEiRi @ 71 NONAME
	_ZN14CTypefaceStoreC2Ev @ 72 NONAME
	_ZN14CTypefaceStoreD0Ev @ 73 NONAME
	_ZN14CTypefaceStoreD1Ev @ 74 NONAME
	_ZN14CTypefaceStoreD2Ev @ 75 NONAME
	_ZN14TPictureHeader12InternalizeLER11RReadStream @ 76 NONAME
	_ZN14TPictureHeader13DeletePictureEv @ 77 NONAME
	_ZN14TPictureHeaderC1Ev @ 78 NONAME
	_ZN14TPictureHeaderC2Ev @ 79 NONAME
	_ZN9TBidiText8WrapTextEiRK5CFontPK12MLineBreakeri @ 80 NONAME
	_ZN15CPrinterControlC2EP12CPrinterPort @ 81 NONAME
	_ZN15CPrinterControlD0Ev @ 82 NONAME
	_ZN15CPrinterControlD1Ev @ 83 NONAME
	_ZN15CPrinterControlD2Ev @ 84 NONAME
	_ZN16CGraphicsContext16DrawTextExtendedERK7TDesC16RK6TPointRKNS_22TDrawTextExtendedParamE @ 85 NONAME
	_ZN16CGraphicsContext21JustificationInPixelsERiS0_ @ 86 NONAME
	_ZN16CGraphicsContext21JustificationInPixelsEiiii @ 87 NONAME
	_ZN16CGraphicsContext8DrawTextERK7TDesC16RK6TPointRKNS_14TDrawTextParamE @ 88 NONAME
	_ZN16CGraphicsContext8ReservedEv @ 89 NONAME
	_ZN16CPrinterDriverUI11AfterPrintLEv @ 90 NONAME
	_ZN16CPrinterDriverUI12BeforePrintLEv @ 91 NONAME
	_ZN16CPrinterDriverUI14SetPropertiesLEv @ 92 NONAME
	_ZN16CPrinterDriverUI16CanSetPropertiesEv @ 93 NONAME
	_ZThn4_N14CPrinterDeviceD1Ev @ 94 NONAME ; #<thunk>#
	_ZN16CPrinterDriverUIC2Ev @ 95 NONAME
	_ZN17TDisplayModeUtils18IsDisplayModeColorE12TDisplayMode @ 96 NONAME
	_ZN17TDisplayModeUtils20NumDisplayModeColorsE12TDisplayMode @ 97 NONAME
	_ZN17TDisplayModeUtils26NumDisplayModeBitsPerPixelE12TDisplayMode @ 98 NONAME
	_ZThn4_N14CPrinterDeviceD0Ev @ 99 NONAME ; #<thunk>#
	_ZN18MGraphicsDeviceMapC2Ev @ 100 NONAME
	_ZN18MGraphicsDeviceMapD0Ev @ 101 NONAME
	_ZN18MGraphicsDeviceMapD1Ev @ 102 NONAME
	_ZN18MGraphicsDeviceMapD2Ev @ 103 NONAME
	_ZN18TPrinterModelEntry12InternalizeLER11RReadStream @ 104 NONAME
	_ZN19TBidirectionalState11ReorderLineEPNS_8TRunInfoEiiiiN5TChar11TBdCategoryES3_ @ 105 NONAME
	_ZN19TBidirectionalState11ReorderTextEPKtiiRPt @ 106 NONAME
	_ZN19TBidirectionalState12ExternalizeLER12RWriteStream @ 107 NONAME
	_ZN19TBidirectionalState12InternalizeLER11RReadStream @ 108 NONAME
	_ZN19TBidirectionalState13ReverseGroupsEPti @ 109 NONAME
	_ZN19TBidirectionalState5ResetEv @ 110 NONAME
	_ZN19TBidirectionalStateC1Ev @ 111 NONAME
	_ZN19TBidirectionalStateC2Ev @ 112 NONAME
	_ZN19TPrinterModelHeader12InternalizeLER11RReadStream @ 113 NONAME
	_ZN20TBidiLogicalToVisual13GetVisualLineER6TDes16ii5TChar @ 114 NONAME
	_ZN20TBidiLogicalToVisual7ReorderEv @ 115 NONAME
	_ZN20TBidiLogicalToVisualC1ERK7TDesC16PN19TBidirectionalState8TRunInfoEi @ 116 NONAME
	_ZN20TBidiLogicalToVisualC1ERK7TDesC16iPN19TBidirectionalState8TRunInfoEi @ 117 NONAME
	_ZN20TBidiLogicalToVisualC2ERK7TDesC16PN19TBidirectionalState8TRunInfoEi @ 118 NONAME
	_ZN20TBidiLogicalToVisualC2ERK7TDesC16iPN19TBidirectionalState8TRunInfoEi @ 119 NONAME
	_ZN4TRgb12InternalizeLER11RReadStream @ 120 NONAME
	_ZN4TRgb5Gray2Ei @ 121 NONAME
	_ZN4TRgb5Gray4Ei @ 122 NONAME
	_ZN4TRgb6Gray16Ei @ 123 NONAME
	_ZN4TRgb6SetRedEi @ 124 NONAME
	_ZN4TRgb7Color16Ei @ 125 NONAME
	_ZN4TRgb7Color4KEi @ 126 NONAME
	_ZN4TRgb7Gray256Ei @ 127 NONAME
	_ZN4TRgb7SetBlueEi @ 128 NONAME
	_ZN4TRgb8Color16MEi @ 129 NONAME
	_ZN4TRgb8Color256Ei @ 130 NONAME
	_ZN4TRgb8Color64KEi @ 131 NONAME
	_ZN4TRgb8SetGreenEi @ 132 NONAME
	_ZN4TRgb9Color16MUEi @ 133 NONAME
	_ZN5CFont14CharactersJoinEii @ 134 NONAME
	_ZNK5CFont16ExtendedFunctionE4TUidPv @ 135 NONAME
	_ZN5CFontD0Ev @ 136 NONAME
	_ZN5CFontD1Ev @ 137 NONAME
	_ZN5CFontD2Ev @ 138 NONAME
	_ZN8CPalette10GetDataPtrEiiR5TPtr8 @ 139 NONAME
	_ZN8CPalette11NewDefaultLE12TDisplayMode @ 140 NONAME
	_ZN8CPalette4NewLEi @ 141 NONAME
	_ZN8CPalette5ClearEv @ 142 NONAME
	_ZN8CPalette8SetEntryEiRK4TRgb @ 143 NONAME
	_ZN8CPaletteC1Ev @ 144 NONAME
	_ZN8CPaletteC2Ev @ 145 NONAME
	_ZN8CPaletteD0Ev @ 146 NONAME
	_ZN8CPaletteD1Ev @ 147 NONAME
	_ZN8CPaletteD2Ev @ 148 NONAME
	_ZN8CPicture14SetCropInTwipsERK8TMargins @ 149 NONAME
	_ZN8CPicture14SetScaleFactorEii @ 150 NONAME
	_ZN8CPicture14SetSizeInTwipsERK5TSize @ 151 NONAME
	_ZN8CPicture15AddCropInPixelsEP18MGraphicsDeviceMapRK8TMargins @ 152 NONAME
	_ZN8CPicture15NativePixelSizeER5TSize @ 153 NONAME
	_ZN8CPicture15ResetToOriginalEv @ 154 NONAME
	_ZN8CPicture15SetSizeInPixelsEP18MGraphicsDeviceMapRK5TSize @ 155 NONAME
	_ZTV8CPicture @ 156 NONAME ; #<VT>#
	_ZN8CPictureC2Ev @ 157 NONAME
	_ZN8CPictureD0Ev @ 158 NONAME
	_ZN8CPictureD1Ev @ 159 NONAME
	_ZN8CPictureD2Ev @ 160 NONAME
	_ZN8TMargins12InternalizeLER11RReadStream @ 161 NONAME
	_ZN9TBidiText17SetTruncationCharE5TChar @ 162 NONAME
	_ZN9TBidiText18TextDirectionalityERK7TDesC16Pi @ 163 NONAME
	_ZN9TBidiText20ScriptDirectionalityE9TLanguage @ 164 NONAME
	_ZN9TBidiText4NewLERK7TDesC16i @ 165 NONAME
	_ZN9TBidiText4NewLERK7TDesC16iNS_15TDirectionalityE @ 166 NONAME
	_ZN9TBidiText8WrapTextEiRK5CFontPK12MLineBreaker @ 167 NONAME
	_ZN9TFontSpec12InternalizeLER11RReadStream @ 168 NONAME
	_ZN9TFontSpecC1ERK7TDesC16i @ 169 NONAME
	_ZN9TFontSpecC1Ev @ 170 NONAME
	_ZN9TFontSpecC2ERK7TDesC16i @ 171 NONAME
	_ZN9TFontSpecC2Ev @ 172 NONAME
	_ZN9TPageSpec12InternalizeLER11RReadStream @ 173 NONAME
	_ZN9TPageSpecC1ENS_16TPageOrientationERK5TSize @ 174 NONAME
	_ZN9TPageSpecC1Ev @ 175 NONAME
	_ZN9TPageSpecC2ENS_16TPageOrientationERK5TSize @ 176 NONAME
	_ZN9TPageSpecC2Ev @ 177 NONAME
	_ZN9TTypeface10SetIsSerifEi @ 178 NONAME
	_ZN9TTypeface11SetIsSymbolEi @ 179 NONAME
	_ZN9TTypeface12InternalizeLER11RReadStream @ 180 NONAME
	_ZN9TTypeface13SetAttributesEi @ 181 NONAME
	_ZN9TTypeface17SetIsProportionalEi @ 182 NONAME
	_ZN9TTypefaceC1Ev @ 183 NONAME
	_ZN9TTypefaceC2Ev @ 184 NONAME
	_ZNK10TFontStyle12ExternalizeLER12RWriteStream @ 185 NONAME
	_ZNK10TFontStyle12StrokeWeightEv @ 186 NONAME
	_ZNK10TFontStyle13PrintPositionEv @ 187 NONAME
	_ZNK10TFontStyle7PostureEv @ 188 NONAME
	_ZNK11TZoomFactor10ZoomFactorEv @ 189 NONAME
	_ZNK11TZoomFactor21VerticalPixelsToTwipsEi @ 190 NONAME
	_ZNK11TZoomFactor21VerticalTwipsToPixelsEi @ 191 NONAME
	_ZNK11TZoomFactor23HorizontalPixelsToTwipsEi @ 192 NONAME
	_ZNK11TZoomFactor23HorizontalTwipsToPixelsEi @ 193 NONAME
	_ZNK13CPdrModelList10ModelCountEv @ 194 NONAME
	_ZNK13CPdrModelList8UidToNumE4TUid @ 195 NONAME
	_ZNK13TColor256Util8Color256E4TRgb @ 196 NONAME
	_ZNK13TColor256Util8Color256EPhPK4TRgbi @ 197 NONAME
	_ZNK14CPrinterDevice16StorePropertiesLEv @ 198 NONAME
	_ZNK14CPrinterDevice21PrintablePageInPixelsEv @ 199 NONAME
	_ZNK14CPrinterDriver5ModelEi @ 200 NONAME
	_ZNK14CPrinterDriver9NumModelsEv @ 201 NONAME
	_ZNK14TPictureHeader12ExternalizeLER12RWriteStream @ 202 NONAME
	_ZNK18MGraphicsDeviceMap13PixelsToTwipsERK5TRect @ 203 NONAME
	_ZNK18MGraphicsDeviceMap13PixelsToTwipsERK6TPoint @ 204 NONAME
	_ZNK18MGraphicsDeviceMap13TwipsToPixelsERK5TRect @ 205 NONAME
	_ZNK18MGraphicsDeviceMap13TwipsToPixelsERK6TPoint @ 206 NONAME
	_ZNK18TPrinterModelEntry12ExternalizeLER12RWriteStream @ 207 NONAME
	_ZNK19TBidirectionalState9IsDefaultEv @ 208 NONAME
	_ZNK19TBidirectionalStateeqERKS_ @ 209 NONAME
	_ZNK19TPrinterModelHeader12ExternalizeLER12RWriteStream @ 210 NONAME
	_ZNK4TRgb10DifferenceERKS_ @ 211 NONAME
	_ZNK4TRgb12ExternalizeLER12RWriteStream @ 212 NONAME
	_ZNK4TRgb5Gray2Ev @ 213 NONAME
	_ZNK4TRgb5Gray4Ev @ 214 NONAME
	_ZNK4TRgb6Gray16Ev @ 215 NONAME
	_ZNK4TRgb7Color16Ev @ 216 NONAME
	_ZNK4TRgb7Color4KEv @ 217 NONAME
	_ZNK4TRgb7Gray256Ev @ 218 NONAME
	_ZNK4TRgb8Color16MEv @ 219 NONAME
	_ZNK4TRgb8Color256Ev @ 220 NONAME
	_ZNK4TRgb8Color64KEv @ 221 NONAME
	_ZNK4TRgb9Color16MUEv @ 222 NONAME
	_ZNK5CFont11MeasureTextERK7TDesC16PKNS_17TMeasureTextInputEPNS_18TMeasureTextOutputE @ 223 NONAME
	_ZNK5CFont15DescentInPixelsEv @ 224 NONAME
	_ZNK5CFont16GetCharacterDataEjR20TOpenFontCharMetricsRPKhR5TSize @ 225 NONAME
	_ZNK5CFont17WidthZeroInPixelsEv @ 226 NONAME
	_ZNK5CFont20GetCharacterPositionERNS_14TPositionParamE @ 227 NONAME
	_ZNK8CPalette12NearestEntryERK4TRgb @ 228 NONAME
	_ZNK8CPalette12NearestIndexERK4TRgb @ 229 NONAME
	_ZNK8CPalette8GetEntryEi @ 230 NONAME
	_ZNK8CPicture10CapabilityEv @ 231 NONAME
	_ZNK8CPicture14GetCropInTwipsER8TMargins @ 232 NONAME
	_ZNK8CPicture14GetSizeInTwipsER5TSize @ 233 NONAME
	_ZNK8CPicture15GetSizeInPixelsEP18MGraphicsDeviceMapR5TSize @ 234 NONAME
	_ZNK8CPicture16ScaleFactorWidthEv @ 235 NONAME
	_ZNK8CPicture17LineBreakPossibleEjii @ 236 NONAME
	_ZNK8CPicture17ScaleFactorHeightEv @ 237 NONAME
	_ZNK8CPicture6StoreLER12CStreamStore @ 238 NONAME
	_ZNK8TMargins12ExternalizeLER12RWriteStream @ 239 NONAME
	_ZNK8TMarginseqERKS_ @ 240 NONAME
	_ZNK8TMarginsneERKS_ @ 241 NONAME
	_ZNK9TBidiText11DisplayTextEv @ 242 NONAME
	_ZNK9TBidiText13WrappingWidthEv @ 243 NONAME
	_ZNK9TBidiText14DirectionalityEv @ 244 NONAME
	_ZNK9TBidiText4TextEv @ 245 NONAME
	_ZNK9TBidiText8DrawTextER16CGraphicsContextRK6TPoint @ 246 NONAME
	_ZNK9TBidiText8DrawTextER16CGraphicsContextRK6TPointi @ 247 NONAME
	_ZNK9TBidiText8DrawTextER16CGraphicsContextRK6TPointiNS0_10TTextAlignE @ 248 NONAME
	_ZNK9TFontSpec12ExternalizeLER12RWriteStream @ 249 NONAME
	_ZNK9TFontSpeceqERKS_ @ 250 NONAME
	_ZNK9TPageSpec12ExternalizeLER12RWriteStream @ 251 NONAME
	_ZNK9TPageSpec16OrientedPageSizeEv @ 252 NONAME
	_ZNK9TPageSpeceqERKS_ @ 253 NONAME
	_ZNK9TPageSpecneERKS_ @ 254 NONAME
	_ZNK9TTypeface10AttributesEv @ 255 NONAME
	_ZNK9TTypeface12ExternalizeLER12RWriteStream @ 256 NONAME
	_ZNK9TTypeface14IsProportionalEv @ 257 NONAME
	_ZNK9TTypeface7IsSerifEv @ 258 NONAME
	_ZNK9TTypeface8IsSymbolEv @ 259 NONAME
	_ZNK9TTypefaceeqERKS_ @ 260 NONAME
	_ZTI10CFontCache @ 261 NONAME ; #<TI>#
	_ZTI11TZoomFactor @ 262 NONAME ; #<TI>#
	_ZTI13CPdrModelList @ 263 NONAME ; #<TI>#
	_ZTI14CPrinterDevice @ 264 NONAME ; #<TI>#
	_ZTI14CTypefaceStore @ 265 NONAME ; #<TI>#
	_ZTI15CPrinterControl @ 266 NONAME ; #<TI>#
	_ZTI16CGraphicsContext @ 267 NONAME ; #<TI>#
	_ZTI16CPrinterDriverUI @ 268 NONAME ; #<TI>#
	_ZTI18MGraphicsDeviceMap @ 269 NONAME ; #<TI>#
	_ZTI5CFont @ 270 NONAME ; #<TI>#
	_ZTI8CPalette @ 271 NONAME ; #<TI>#
	_ZTI8CPicture @ 272 NONAME ; #<TI>#
	_ZTV10CFontCache @ 273 NONAME ; #<VT>#
	_ZTV11TZoomFactor @ 274 NONAME ; #<VT>#
	_ZTV13CPdrModelList @ 275 NONAME ; #<VT>#
	_ZTV14CPrinterDevice @ 276 NONAME ; #<VT>#
	_ZTV14CTypefaceStore @ 277 NONAME ; #<VT>#
	_ZTV15CPrinterControl @ 278 NONAME ; #<VT>#
	_ZTV16CGraphicsContext @ 279 NONAME ; #<VT>#
	_ZTV16CPrinterDriverUI @ 280 NONAME ; #<VT>#
	_ZTV18MGraphicsDeviceMap @ 281 NONAME ; #<VT>#
	_ZTV5CFont @ 282 NONAME ; #<VT>#
	_ZTV8CPalette @ 283 NONAME ; #<VT>#
	_ZTI14CPrinterDriver @ 284 NONAME ; #<TI>#
	_ZTV14CPrinterDriver @ 285 NONAME ; #<VT>#
	_ZN4TRgb8SetAlphaEi @ 286 NONAME
	_ZN4TRgb9Color16MAEj @ 287 NONAME
	_ZNK4TRgb9Color16MAEv @ 288 NONAME
	_ZN11TZoomFactor32GetNearestFontToMaxHeightInTwipsERP5CFontRK9TFontSpeci @ 289 NONAME
	_ZN11TZoomFactor35GetNearestFontToDesignHeightInTwipsERP5CFontRK9TFontSpec @ 290 NONAME
	_ZN14CBitmapContext25Reserved_CBitmapContext_1Ev @ 291 NONAME
	_ZN14CBitmapContext25Reserved_CBitmapContext_2Ev @ 292 NONAME
	_ZN14CBitmapContext25Reserved_CBitmapContext_3Ev @ 293 NONAME
	_ZN16CGraphicsContext12APIExtensionE4TUidRPvS1_ @ 294 NONAME
	_ZN16CGraphicsContext27Reserved_CGraphicsContext_2Ev @ 295 NONAME
	_ZTI14CBitmapContext @ 296 NONAME ; #<TI>#
	_ZTV14CBitmapContext @ 297 NONAME ; #<VT>#
	_ZN14CBitmapContext12APIExtensionE4TUidRPvS1_ @ 298 NONAME
	_ZN14CBitmapContext27Reserved_CGraphicsContext_2Ev @ 299 NONAME
	_ZN19TBidirectionalState11ReorderLineEPNS_8TRunInfoEiiiiN5TChar11TBdCategoryES3_Ri @ 300 NONAME
	_ZN13RRunInfoArray5CloseEv @ 301 NONAME
	_ZN13RRunInfoArray5OpenLEv @ 302 NONAME
	_ZN13RRunInfoArrayC1Ev @ 303 NONAME
	_ZN13RRunInfoArrayC2Ev @ 304 NONAME
	_ZN9TBidiText4NewLEii @ 305 NONAME
	_ZN9TBidiText7SetTextERK7TDesC16NS_15TDirectionalityER13RRunInfoArray @ 306 NONAME
	_ZN9TBidiText7SetTextERK7TDesC16R13RRunInfoArray @ 307 NONAME
	_ZNK9TBidiText11MinimumSizeEiRK5CFontiiPK12MLineBreaker @ 308 NONAME
	_ZNK9TBidiText14TruncationCharEv @ 309 NONAME
	_ZNK5CFont14AscentInPixelsEv @ 310 NONAME
	_ZNK5CFont14HeightInPixelsEv @ 311 NONAME
	_ZNK5CFont15FontSpecInTwipsEv @ 312 NONAME
	_ZNK5CFont17CharWidthInPixelsE5TChar @ 313 NONAME
	_ZNK5CFont17TextWidthInPixelsERK7TDesC16 @ 314 NONAME
	_ZNK5CFont20MaxCharWidthInPixelsEv @ 315 NONAME
	_ZNK5CFont22BaselineOffsetInPixelsEv @ 316 NONAME
	_ZNK5CFont26MaxNormalCharWidthInPixelsEv @ 317 NONAME
	_ZNK5CFont7TypeUidEv @ 318 NONAME
	_ZNK5CFont9TextCountERK7TDesC16i @ 319 NONAME
	_ZNK5CFont9TextCountERK7TDesC16iRi @ 320 NONAME
	_ZNK5CFont17DoDescentInPixelsEv @ 321 NONAME
	_ZNK5CFont18DoExtendedFunctionE4TUidPv @ 322 NONAME
	_ZNK5CFont18DoGetCharacterDataEjR20TOpenFontCharMetricsRPKhR5TSize @ 323 NONAME
	_ZNK5CFont22DoGetCharacterPositionERNS_14TPositionParamE @ 324 NONAME
	_ZN10FontEffect10IsEffectOnENS_7TEffectEm @ 325 NONAME
	_ZN10FontEffect9SetEffectENS_7TEffectEiRm @ 326 NONAME
	_ZN10TFontStyle10SetEffectsEN10FontEffect7TEffectEi @ 327 NONAME
	_ZN10TFontStyle10SetEffectsEm @ 328 NONAME
	_ZNK10TFontStyle10IsEffectOnEN10FontEffect7TEffectE @ 329 NONAME
	_ZNK10TFontStyle7EffectsEv @ 330 NONAME
	_ZN14CTypefaceStore18IncrementFontCountEPK5CFont @ 331 NONAME
	_ZN11GlyphSample17TLanguage2TScriptE9TLanguage @ 332 NONAME
	_ZN11GlyphSample19TScript2GlyphSampleEi @ 333 NONAME
	_ZN9TFontSpec23SetScriptTypeForMetricsE9TLanguage @ 334 NONAME
	_ZN9TTypeface23SetScriptTypeForMetricsE9TLanguage @ 335 NONAME
	_ZN9TTypeface23SetScriptTypeForMetricsEi @ 336 NONAME
	_ZNK10TFontStyleeqERKS_ @ 337 NONAME
	_ZNK9TTypeface20ScriptTypeForMetricsEv @ 338 NONAME
	_ZNK9TFontSpec20ScriptTypeForMetricsEv @ 339 NONAME
	_ZNK5CFont21GetCharacterPosition2ERNS_14TPositionParamER10RShapeInfo @ 340 NONAME
	_ZN10RShapeInfo5CloseEv @ 341 NONAME
	_ZN10RShapeInfoC1Ev @ 342 NONAME
	_ZN10RShapeInfoC2Ev @ 343 NONAME
	_ZN10RShapeInfo6IsOpenEv @ 344 NONAME
	_ZN16CGraphicsContext19GetUnderlineMetricsERiS0_ @ 345 NONAME
	_ZN4TRgb10Color16MAPEj @ 346 NONAME
	_ZNK4TRgb10Color16MAPEv @ 347 NONAME
	_ZN10TLinearDDA13JumpToXCoord2EiRi @ 348 NONAME
	_ZN10TLinearDDA13JumpToYCoord2ERii @ 349 NONAME
	_ZN17TDisplayModeUtils18IsDisplayModeValidE12TDisplayMode @ 350 NONAME
	_ZN4TRgb11_Color16MAPEj @ 351 NONAME
	_ZNK4TRgb11_Color16MAPEv @ 352 NONAME
	_ZN16CGraphicsContext14SetShadowColorERK4TRgb @ 353 NONAME
	_ZN16CGraphicsContext14GetShadowColorER4TRgb @ 354 NONAME
	_ZNK16CGraphicsContext10IsFbsBitGcEv @ 355 NONAME
	_ZN16CGraphicsContext16DrawTextExtendedERK7TDesC16PKNS_15TTextParametersERK6TPointRKNS_22TDrawTextExtendedParamE @ 356 NONAME
	_ZN16CGraphicsContext16DrawTextVerticalERK7TDesC16PKNS_15TTextParametersERK5TRectiiNS_10TTextAlignEi @ 357 NONAME
	_ZN16CGraphicsContext16DrawTextVerticalERK7TDesC16PKNS_15TTextParametersERK6TPointi @ 358 NONAME
	_ZN16CGraphicsContext8DrawTextERK7TDesC16PKNS_15TTextParametersERK5TRectiNS_10TTextAlignEi @ 359 NONAME
	_ZN16CGraphicsContext8DrawTextERK7TDesC16PKNS_15TTextParametersERK6TPoint @ 360 NONAME
	_ZN16CGraphicsContext8DrawTextERK7TDesC16PKNS_15TTextParametersERK6TPointRKNS_14TDrawTextParamE @ 361 NONAME
	_ZNK5CFont17TextWidthInPixelsERK7TDesC16PKNS_17TMeasureTextInputE @ 362 NONAME
	_ZN10RFontTable4OpenER5CFontm @ 363 NONAME
	_ZN10RFontTable5CloseEv @ 364 NONAME
	_ZN10RFontTableC1Ev @ 365 NONAME
	_ZN10RFontTableC2Ev @ 366 NONAME
	_ZN21RGlyphOutlineIterator4NextEv @ 367 NONAME
	_ZN21RGlyphOutlineIterator4OpenER5CFontPKjii @ 368 NONAME
	_ZN21RGlyphOutlineIterator5CloseEv @ 369 NONAME
	_ZN21RGlyphOutlineIteratorC1Ev @ 370 NONAME
	_ZN21RGlyphOutlineIteratorC2Ev @ 371 NONAME
	_ZNK10RFontTable11TableLengthEv @ 372 NONAME
	_ZNK10RFontTable12TableContentEv @ 373 NONAME
	_ZNK21RGlyphOutlineIterator13OutlineLengthEv @ 374 NONAME
	_ZNK21RGlyphOutlineIterator7OutlineEv @ 375 NONAME
	_ZN18RGlyphDataIterator4NextEv @ 376 NONAME ABSENT
	_ZN18RGlyphDataIterator4OpenER5CFontPKji @ 377 NONAME ABSENT
	_ZN18RGlyphDataIterator5CloseEv @ 378 NONAME ABSENT
	_ZN18RGlyphDataIteratorC1Ev @ 379 NONAME ABSENT
	_ZN18RGlyphDataIteratorC2Ev @ 380 NONAME ABSENT
	_ZN18RGlyphMetricsArray3GetER5CFontPKji @ 381 NONAME ABSENT
	_ZN18RGlyphMetricsArray5CloseEv @ 382 NONAME ABSENT
	_ZN18RGlyphMetricsArrayC1Ev @ 383 NONAME ABSENT
	_ZN18RGlyphMetricsArrayC2Ev @ 384 NONAME ABSENT
	_ZNK18RGlyphDataIterator4RectEv @ 385 NONAME ABSENT
	_ZNK18RGlyphDataIterator5ImageEv @ 386 NONAME ABSENT
	_ZNK18RGlyphDataIterator7MetricsEv @ 387 NONAME ABSENT
	_ZNK18RGlyphDataIterator9GlyphCodeEv @ 388 NONAME ABSENT
	_ZNK18RGlyphMetricsArray5CountEv @ 389 NONAME ABSENT
	_ZNK18RGlyphMetricsArrayixEi @ 390 NONAME ABSENT
	_ZN9TTypeface7SetNameERK7TDesC16 @ 391 NONAME
	_ZNK9TTypeface4NameEv @ 392 NONAME
	_ZN12RHexTreeBase15ResetAndDestroyEv @ 393 NONAME
	_ZN12RHexTreeBase5SetAtEjPv @ 394 NONAME
	_ZN12RHexTreeBaseC1EP5RHeap @ 395 NONAME
	_ZN12RHexTreeBaseC2EP5RHeap @ 396 NONAME
	_ZNK12RHexTreeBase2AtEj @ 397 NONAME

