EXPORTS
	?NewServer@@YAHXZ @ 1 NONAME ; int __cdecl NewServer(void)
	??0CModemChangeObserver@@QAE@AAVMModemChangeObserver@@@Z @ 2 NONAME ; CModemChangeObserver::CModemChangeObserver(class MModemChangeObserver &)
	??0CPhoneWatcher@@IAE@AAVCWatcherLog@@H@Z @ 3 NONAME ; CPhoneWatcher::CPhoneWatcher(class CWatcherLog &, int)
	??0CWatcherBase@@IAE@AAVCWatcherLog@@H@Z @ 4 NONAME ; CWatcherBase::CWatcherBase(class CWatcherLog &, int)
	??1CModemChangeObserver@@UAE@XZ @ 5 NONAME ; CModemChangeObserver::~CModemChangeObserver(void)
	??1CPhoneWatcher@@UAE@XZ @ 6 NONAME ; CPhoneWatcher::~CPhoneWatcher(void)
	??1CWatcherBase@@UAE@XZ @ 7 NONAME ; CWatcherBase::~CWatcherBase(void)
	?ConstructL@CModemChangeObserver@@QAEXXZ @ 8 NONAME ; void CModemChangeObserver::ConstructL(void)
	?ConstructL@CPhoneWatcher@@MAEXXZ @ 9 NONAME ; void CPhoneWatcher::ConstructL(void)
	?ConstructL@CWatcherBase@@MAEXXZ @ 10 NONAME ; void CWatcherBase::ConstructL(void)
	?DoCancel@CWatcherBase@@EAEXXZ @ 11 NONAME ; void CWatcherBase::DoCancel(void)
	?HandleStateEventL@CPhoneWatcher@@MAEXH@Z @ 12 NONAME ; void CPhoneWatcher::HandleStateEventL(int)
	?NewL@CIndicatorWatcher@@SAPAV1@AAVRFs@@AAVCWatcherLog@@@Z @ 13 NONAME ; class CIndicatorWatcher * CIndicatorWatcher::NewL(class RFs &, class CWatcherLog &)
	?NewL@CSignalStrengthWatcher@@SAPAV1@AAVRFs@@AAVCWatcherLog@@@Z @ 14 NONAME ; class CSignalStrengthWatcher * CSignalStrengthWatcher::NewL(class RFs &, class CWatcherLog &)
	?PhoneIsOff@CPhoneWatcher@@MAEXXZ @ 15 NONAME ; void CPhoneWatcher::PhoneIsOff(void)
	?PhoneIsOff@MPhoneOnOffObserver@@UAEXXZ @ 16 NONAME ; void MPhoneOnOffObserver::PhoneIsOff(void)
	?PhoneIsOn@MPhoneOnOffObserver@@UAEXXZ @ 17 NONAME ; void MPhoneOnOffObserver::PhoneIsOn(void)
	?RequestNextState@CWatcherBase@@QAEXXZ @ 18 NONAME ; void CWatcherBase::RequestNextState(void)
	?Reset@CPhoneWatcher@@MAEXXZ @ 19 NONAME ; void CPhoneWatcher::Reset(void)
	?RunError@CWatcherBase@@EAEHH@Z @ 20 NONAME ; int CWatcherBase::RunError(int)
	?RunL@CWatcherBase@@EAEXXZ @ 21 NONAME ; void CWatcherBase::RunL(void)
	?HandleModemChangedL@CPhoneWatcher@@EAEXXZ @ 22 NONAME ; void CPhoneWatcher::HandleModemChangedL(void)
	?SetDisabled@CWatcherBase@@QAEXABVTDesC16@@H@Z @ 23 NONAME ; void CWatcherBase::SetDisabled(class TDesC16 const &, int)
	?SuspendFor@CWatcherBase@@QAEXH@Z @ 24 NONAME ; void CWatcherBase::SuspendFor(int)
	?WaitForPhoneToPowerUpL@CWatcherBase@@QAEXXZ @ 25 NONAME ; void CWatcherBase::WaitForPhoneToPowerUpL(void)


