EXPORTS
	??0CCommsDatabaseBase@@IAE@XZ @ 1 NONAME ; protected: __thiscall CCommsDatabaseBase::CCommsDatabaseBase(void)
	??1CCommDbOverrideSettings@@UAE@XZ @ 2 NONAME
	??1CCommsDatabase@@UAE@XZ @ 3 NONAME
	??1CCommsDatabaseBase@@UAE@XZ @ 4 NONAME
	??1CCommsDbTableView@@UAE@XZ @ 5 NONAME
	??1CCommsDbTemplateRecord@@UAE@XZ @ 6 NONAME
	??1CStoreableOverrideSettings@@UAE@XZ @ 7 NONAME
	?BeginTransaction@CCommsDatabaseBase@@QAEHXZ @ 8 NONAME
	?CancelModifications@CCommsDbTemplateRecord@@QAEXXZ @ 9 NONAME
	?CancelRecordChanges@CCommsDbTableView@@QAEXXZ @ 10 NONAME
	?CancelRequestNotification@CCommsDatabaseBase@@QAEXXZ @ 11 NONAME
	?CommitTransaction@CCommsDatabaseBase@@QAEHXZ @ 12 NONAME
	?Delete@CCommsDbTemplateRecord@@QAEHXZ @ 13 NONAME
	?DeleteRecord@CCommsDbTableView@@QAEHXZ @ 14 NONAME
	?ExternalizeL@CStoreableOverrideSettings@@QBEXAAVRWriteStream@@@Z @ 15 NONAME
	?GetBoolOverride@CCommDbOverrideSettings@@QAEHABVTDesC16@@0AAH@Z @ 16 NONAME
	?GetDesOverride@CCommDbOverrideSettings@@QAEHABVTDesC16@@0AAVTDes16@@@Z @ 17 NONAME
	?GetDesOverride@CCommDbOverrideSettings@@QAEHABVTDesC16@@0AAVTDes8@@@Z @ 18 NONAME
	?GetGlobalSettingL@CCommsDatabase@@QAEXABVTDesC16@@AAK@Z @ 19 NONAME
	?GetGlobalSettingL@CCommsDatabase@@QAEXABVTDesC16@@AAVTDes16@@@Z @ 20 NONAME
	?GetIntOverride@CCommDbOverrideSettings@@QAEHABVTDesC16@@0AAK@Z @ 21 NONAME
	?GetLongDesOverride@CCommDbOverrideSettings@@QAEHABVTDesC16@@0AAVTDes16@@@Z @ 22 NONAME
	?GetLongDesOverrideLength@CCommDbOverrideSettings@@QAEHABVTDesC16@@0AAH@Z @ 23 NONAME
	?GetTableName@CCommsDbTemplateRecord@@QBEXAAVTDes16@@@Z @ 24 NONAME
	?GotoFirstRecord@CCommsDbTableView@@QAEHXZ @ 25 NONAME
	?GotoNextRecord@CCommsDbTableView@@QAEHXZ @ 26 NONAME
	?GotoPreviousRecord@CCommsDbTableView@@QAEHXZ @ 27 NONAME
	?InTransaction@CCommsDatabaseBase@@QAEHXZ @ 28 NONAME
	?InsertRecord@CCommsDbTableView@@QAEHAAK@Z @ 29 NONAME
	?InternalizeL@CStoreableOverrideSettings@@QAEXAAVRReadStream@@@Z @ 30 NONAME
	?IsDatabaseWriteLockedL@CCommsDatabaseBase@@QAEHXZ @ 31 NONAME
	?IsOverridden@CCommDbOverrideSettings@@QAEHABVTDesC16@@0W4TValueType@1@@Z @ 32 NONAME
	?Modify@CCommsDbTemplateRecord@@QAEHXZ @ 33 NONAME
	?NewL@CCommDbOverrideSettings@@SAPAV1@W4TParamList@1@W4TCommDbDatabaseType@@@Z @ 34 NONAME
	?NewL@CCommsDatabase@@SAPAV1@W4TCommDbDatabaseType@@@Z @ 35 NONAME
	?NewL@CCommsDbTemplateRecord@@SAPAV1@PAVCCommsDatabaseBase@@ABVTDesC16@@@Z @ 36 NONAME
	?NewL@CStoreableOverrideSettings@@SAPAV1@W4TParamList@CCommDbOverrideSettings@@W4TCommDbDatabaseType@@@Z @ 37 NONAME
	?OpenTableLC@CCommsDatabaseBase@@QAEPAVCCommsDbTableView@@ABVTDesC16@@@Z @ 38 NONAME
	?OpenViewLC@CCommsDatabaseBase@@QAEPAVCCommsDbTableView@@ABVTDesC16@@0@Z @ 39 NONAME
	?OpenViewMatchingBoolLC@CCommsDatabaseBase@@QAEPAVCCommsDbTableView@@ABVTDesC16@@0H@Z @ 40 NONAME
	?OpenViewMatchingTextLC@CCommsDatabaseBase@@QAEPAVCCommsDbTableView@@ABVTDesC16@@00@Z @ 41 NONAME
	?OpenViewMatchingTextLC@CCommsDatabaseBase@@QAEPAVCCommsDbTableView@@ABVTDesC16@@0ABVTDesC8@@@Z @ 42 NONAME
	?OpenViewMatchingUintLC@CCommsDatabaseBase@@QAEPAVCCommsDbTableView@@ABVTDesC16@@0K@Z @ 43 NONAME
	?PutRecordChanges@CCommsDbTableView@@QAEHHH@Z @ 44 NONAME
	?ReadBoolL@CCommsDbTableView@@QAEXABVTDesC16@@AAH@Z @ 45 NONAME
	?ReadBoolL@CCommsDbTemplateRecord@@QAEXABVTDesC16@@AAH@Z @ 46 NONAME
	?ReadColumnLengthL@CCommsDbTableView@@QAEXABVTDesC16@@AAH@Z @ 47 NONAME
	?ReadColumnLengthL@CCommsDbTemplateRecord@@QAEXABVTDesC16@@AAH@Z @ 48 NONAME
	?ReadLongTextLC@CCommsDbTableView@@QAEPAVHBufC16@@ABVTDesC16@@@Z @ 49 NONAME
	?ReadLongTextLC@CCommsDbTemplateRecord@@QAEPAVHBufC16@@ABVTDesC16@@@Z @ 50 NONAME
	?ReadTextL@CCommsDbTableView@@QAEXABVTDesC16@@AAVTDes16@@@Z @ 51 NONAME
	?ReadTextL@CCommsDbTableView@@QAEXABVTDesC16@@AAVTDes8@@@Z @ 52 NONAME
	?ReadTextL@CCommsDbTemplateRecord@@QAEXABVTDesC16@@AAVTDes16@@@Z @ 53 NONAME
	?ReadTextL@CCommsDbTemplateRecord@@QAEXABVTDesC16@@AAVTDes8@@@Z @ 54 NONAME
	?ReadTypeAttribL@CCommsDbTableView@@QAEXABVTDesC16@@AAW4TDbColType@@AAK@Z @ 55 NONAME
	?ReadTypeAttribL@CCommsDbTemplateRecord@@QAEXABVTDesC16@@AAW4TDbColType@@AAK@Z @ 56 NONAME
	?ReadUintL@CCommsDbTableView@@QAEXABVTDesC16@@AAK@Z @ 57 NONAME
	?ReadUintL@CCommsDbTemplateRecord@@QAEXABVTDesC16@@AAK@Z @ 58 NONAME
	?RequestNotification@CCommsDatabaseBase@@QAEHAAVTRequestStatus@@@Z @ 59 NONAME
	?ResolvePhoneNumberFromDatabaseL@CCommsDatabaseBase@@QAEXAAVTDesC16@@AAVTDes16@@W4TParseMode@@KK@Z @ 60 NONAME
	?ResolvePhoneNumberL@CCommsDatabaseBase@@SAXAAVTDesC16@@AAVTDes16@@W4TParseMode@@KK@Z @ 61 NONAME
	?RestoreL@CStoreableOverrideSettings@@QAEXPAVHBufC8@@@Z @ 62 NONAME
	?RollbackTransaction@CCommsDatabaseBase@@QAEXXZ @ 63 NONAME
	?SetBoolOverride@CCommDbOverrideSettings@@QAEHABVTDesC16@@0H@Z @ 64 NONAME
	?SetDesOverride@CCommDbOverrideSettings@@QAEHABVTDesC16@@00@Z @ 65 NONAME
	?SetDesOverride@CCommDbOverrideSettings@@QAEHABVTDesC16@@0ABVTDesC8@@@Z @ 66 NONAME
	?SetGlobalSettingL@CCommsDatabase@@QAEXABVTDesC16@@0@Z @ 67 NONAME
	?SetGlobalSettingL@CCommsDatabase@@QAEXABVTDesC16@@K@Z @ 68 NONAME
	?SetIntOverride@CCommDbOverrideSettings@@QAEHABVTDesC16@@0K@Z @ 69 NONAME
	?SetLongDesOverride@CCommDbOverrideSettings@@QAEHABVTDesC16@@00@Z @ 70 NONAME
	?SetNullL@CCommsDbTableView@@QAEXABVTDesC16@@@Z @ 71 NONAME
	?ShowHiddenRecords@CCommsDatabaseBase@@QAEXXZ @ 72 NONAME
	?StoreLC@CStoreableOverrideSettings@@QAEPAVCBufFlat@@XZ @ 73 NONAME
	?StoreModifications@CCommsDbTemplateRecord@@QAEHXZ @ 74 NONAME
	?TemplateRecordExists@CCommsDbTemplateRecord@@QAEHXZ @ 75 NONAME
	?UpdateRecord@CCommsDbTableView@@QAEHXZ @ 76 NONAME
	?Version@CCommsDatabaseBase@@QBE?AVTVersion@@XZ @ 77 NONAME
	?WriteBoolL@CCommsDbTableView@@QAEXABVTDesC16@@ABH@Z @ 78 NONAME
	?WriteBoolL@CCommsDbTemplateRecord@@QAEXABVTDesC16@@ABH@Z @ 79 NONAME
	?WriteLongTextL@CCommsDbTableView@@QAEXABVTDesC16@@0@Z @ 80 NONAME
	?WriteLongTextL@CCommsDbTemplateRecord@@QAEXABVTDesC16@@0@Z @ 81 NONAME
	?WriteTextL@CCommsDbTableView@@QAEXABVTDesC16@@0@Z @ 82 NONAME
	?WriteTextL@CCommsDbTableView@@QAEXABVTDesC16@@ABVTDesC8@@@Z @ 83 NONAME
	?WriteTextL@CCommsDbTemplateRecord@@QAEXABVTDesC16@@0@Z @ 84 NONAME
	?WriteTextL@CCommsDbTemplateRecord@@QAEXABVTDesC16@@ABVTDesC8@@@Z @ 85 NONAME
	?WriteUintL@CCommsDbTableView@@QAEXABVTDesC16@@ABK@Z @ 86 NONAME
	?WriteUintL@CCommsDbTemplateRecord@@QAEXABVTDesC16@@ABK@Z @ 87 NONAME
	?ClearGlobalSettingL@CCommsDatabase@@QAEXABVTDesC16@@@Z @ 88 NONAME
	?GetCurrentDialInSettingL@CCommsDatabase@@QAEXABVTDesC16@@AAK@Z @ 89 NONAME ; public: void __thiscall CCommsDatabase::GetCurrentDialInSettingL(class TDesC16 const &,unsigned long &)
	?GetCurrentDialOutSettingL@CCommsDatabase@@QAEXABVTDesC16@@AAK@Z @ 90 NONAME ; public: void __thiscall CCommsDatabase::GetCurrentDialOutSettingL(class TDesC16 const &,unsigned long &)
	??1CCommsDbConnectionPrefTableView@@UAE@XZ @ 91 NONAME ; public: virtual __thiscall CCommsDbConnectionPrefTableView::~CCommsDbConnectionPrefTableView(void)
	?ChangeConnectionPreferenceRankL@CCommsDbConnectionPrefTableView@@QAEXK@Z @ 92 NONAME ; public: void __thiscall CCommsDbConnectionPrefTableView::ChangeConnectionPreferenceRankL(unsigned long)
	?ClearAgentAndExtL@CCommsDatabase@@QAEXABVTDesC16@@@Z @ 93 NONAME ; public: void __thiscall CCommsDatabase::ClearAgentAndExtL(class TDesC16 const &)
	?DeleteConnectionPreferenceL@CCommsDbConnectionPrefTableView@@QAEXXZ @ 94 NONAME ; public: void __thiscall CCommsDbConnectionPrefTableView::DeleteConnectionPreferenceL(void)
	?GetAgentExtL@CCommsDatabase@@QAEXABVTDesC16@@AAVTDes16@@@Z @ 95 NONAME ; public: void __thiscall CCommsDatabase::GetAgentExtL(class TDesC16 const &,class TDes16 &)
	?GetAgentL@CCommsDatabase@@QAEXABVTDesC16@@AAVTDes16@@@Z @ 96 NONAME ; public: void __thiscall CCommsDatabase::GetAgentL(class TDesC16 const &,class TDes16 &)
	?GotoFirstRecord@CCommsDbConnectionPrefTableView@@QAEHXZ @ 97 NONAME ; public: int __thiscall CCommsDbConnectionPrefTableView::GotoFirstRecord(void)
	?GotoNextRecord@CCommsDbConnectionPrefTableView@@QAEHXZ @ 98 NONAME ; public: int __thiscall CCommsDbConnectionPrefTableView::GotoNextRecord(void)
	?GotoPreviousRecord@CCommsDbConnectionPrefTableView@@QAEHXZ @ 99 NONAME ; public: int __thiscall CCommsDbConnectionPrefTableView::GotoPreviousRecord(void)
	?InsertConnectionPreferenceL@CCommsDbConnectionPrefTableView@@QAEXABVTCommDbIapConnectionPref@1@H@Z @ 100 NONAME ; public: void __thiscall CCommsDbConnectionPrefTableView::InsertConnectionPreferenceL(class CCommsDbConnectionPrefTableView::TCommDbIapConnectionPref const &,int)
	?InsertConnectionPreferenceL@CCommsDbConnectionPrefTableView@@QAEXABVTCommDbIspConnectionPref@1@H@Z @ 101 NONAME ; public: void __thiscall CCommsDbConnectionPrefTableView::InsertConnectionPreferenceL(class CCommsDbConnectionPrefTableView::TCommDbIspConnectionPref const &,int)
	??8TCommDbIapConnectionPref@CCommsDbConnectionPrefTableView@@QBEHABV01@@Z @ 102 NONAME ; public: int __thiscall CCommsDbConnectionPrefTableView::TCommDbIapConnectionPref::operator==(class CCommsDbConnectionPrefTableView::TCommDbIapConnectionPref const &)const 
	??8TCommDbIspConnectionPref@CCommsDbConnectionPrefTableView@@QBEHABV01@@Z @ 103 NONAME ; public: int __thiscall CCommsDbConnectionPrefTableView::TCommDbIspConnectionPref::operator==(class CCommsDbConnectionPrefTableView::TCommDbIspConnectionPref const &)const 
	?GetConnectionPreferenceOverride@CCommDbOverrideSettings@@QAEHAAVTCommDbIapConnectionPref@CCommsDbConnectionPrefTableView@@@Z @ 104 NONAME ; public: int __thiscall CCommDbOverrideSettings::GetConnectionPreferenceOverride(class CCommsDbConnectionPrefTableView::TCommDbIapConnectionPref &)
	?GetConnectionPreferenceOverride@CCommDbOverrideSettings@@QAEHAAVTCommDbIspConnectionPref@CCommsDbConnectionPrefTableView@@@Z @ 105 NONAME ; public: int __thiscall CCommDbOverrideSettings::GetConnectionPreferenceOverride(class CCommsDbConnectionPrefTableView::TCommDbIspConnectionPref &)
	?OpenConnectionPrefTableInRankOrderLC@CCommsDatabase@@QAEPAVCCommsDbConnectionPrefTableView@@W4TCommDbConnectionDirection@@@Z @ 106 NONAME ; public: class CCommsDbConnectionPrefTableView * __thiscall CCommsDatabase::OpenConnectionPrefTableInRankOrderLC(enum TCommDbConnectionDirection)
	?OpenConnectionPrefTableLC@CCommsDatabase@@QAEPAVCCommsDbConnectionPrefTableView@@W4TCommDbConnectionDirection@@@Z @ 107 NONAME ; public: class CCommsDbConnectionPrefTableView * __thiscall CCommsDatabase::OpenConnectionPrefTableLC(enum TCommDbConnectionDirection)
	?OpenConnectionPrefTableLC@CCommsDatabase@@QAEPAVCCommsDbConnectionPrefTableView@@XZ @ 108 NONAME ; public: class CCommsDbConnectionPrefTableView * __thiscall CCommsDatabase::OpenConnectionPrefTableLC(void)
	?OpenConnectionPrefTableViewOnRankLC@CCommsDatabase@@QAEPAVCCommsDbConnectionPrefTableView@@W4TCommDbConnectionDirection@@K@Z @ 109 NONAME ; public: class CCommsDbConnectionPrefTableView * __thiscall CCommsDatabase::OpenConnectionPrefTableViewOnRankLC(enum TCommDbConnectionDirection,unsigned long)
	?OpenIAPTableViewMatchingBearerSetLC@CCommsDatabase@@QAEPAVCCommsDbTableView@@KW4TCommDbConnectionDirection@@@Z @ 110 NONAME ; public: class CCommsDbTableView * __thiscall CCommsDatabase::OpenIAPTableViewMatchingBearerSetLC(unsigned long,enum TCommDbConnectionDirection)
	?ReadConnectionPreferenceL@CCommsDbConnectionPrefTableView@@QAEXAAVTCommDbIapConnectionPref@1@@Z @ 111 NONAME ; public: void __thiscall CCommsDbConnectionPrefTableView::ReadConnectionPreferenceL(class CCommsDbConnectionPrefTableView::TCommDbIapConnectionPref &)
	?ReadConnectionPreferenceL@CCommsDbConnectionPrefTableView@@QAEXAAVTCommDbIspConnectionPref@1@@Z @ 112 NONAME ; public: void __thiscall CCommsDbConnectionPrefTableView::ReadConnectionPreferenceL(class CCommsDbConnectionPrefTableView::TCommDbIspConnectionPref &)
	?SetAgentExtL@CCommsDatabase@@QAEXABVTDesC16@@0@Z @ 113 NONAME ; public: void __thiscall CCommsDatabase::SetAgentExtL(class TDesC16 const &,class TDesC16 const &)
	?SetAgentL@CCommsDatabase@@QAEXABVTDesC16@@0@Z @ 114 NONAME ; public: void __thiscall CCommsDatabase::SetAgentL(class TDesC16 const &,class TDesC16 const &)
	?SetConnectionPreferenceOverride@CCommDbOverrideSettings@@QAEHABVTCommDbIapConnectionPref@CCommsDbConnectionPrefTableView@@@Z @ 115 NONAME ; public: int __thiscall CCommDbOverrideSettings::SetConnectionPreferenceOverride(class CCommsDbConnectionPrefTableView::TCommDbIapConnectionPref const &)
	?SetConnectionPreferenceOverride@CCommDbOverrideSettings@@QAEHABVTCommDbIspConnectionPref@CCommsDbConnectionPrefTableView@@@Z @ 116 NONAME ; public: int __thiscall CCommDbOverrideSettings::SetConnectionPreferenceOverride(class CCommsDbConnectionPrefTableView::TCommDbIspConnectionPref const &)
	?SwapConnectionPreferencesL@CCommsDbConnectionPrefTableView@@QAEXW4TCommDbConnectionDirection@@KK@Z @ 117 NONAME ; public: void __thiscall CCommsDbConnectionPrefTableView::SwapConnectionPreferencesL(enum TCommDbConnectionDirection,unsigned long,unsigned long)
	?UpdateBearerL@CCommsDbConnectionPrefTableView@@QAEXABVTCommDbIapBearer@1@H@Z @ 118 NONAME ; public: void __thiscall CCommsDbConnectionPrefTableView::UpdateBearerL(class CCommsDbConnectionPrefTableView::TCommDbIapBearer const &,int)
	?UpdateBearerL@CCommsDbConnectionPrefTableView@@QAEXABVTCommDbIspBearer@1@H@Z @ 119 NONAME ; public: void __thiscall CCommsDbConnectionPrefTableView::UpdateBearerL(class CCommsDbConnectionPrefTableView::TCommDbIspBearer const &,int)
	?UpdateDialogPrefL@CCommsDbConnectionPrefTableView@@QAEXABW4TCommDbDialogPref@@@Z @ 120 NONAME ; public: void __thiscall CCommsDbConnectionPrefTableView::UpdateDialogPrefL(enum TCommDbDialogPref const &)
	??0TCommDbIapBearer@CCommsDbConnectionPrefTableView@@QAE@XZ @ 121 NONAME ; public: __thiscall CCommsDbConnectionPrefTableView::TCommDbIapBearer::TCommDbIapBearer(void)
	??0TCommDbIapConnectionPref@CCommsDbConnectionPrefTableView@@QAE@XZ @ 122 NONAME ; public: __thiscall CCommsDbConnectionPrefTableView::TCommDbIapConnectionPref::TCommDbIapConnectionPref(void)
	??0TCommDbIspBearer@CCommsDbConnectionPrefTableView@@QAE@XZ @ 123 NONAME ; public: __thiscall CCommsDbConnectionPrefTableView::TCommDbIspBearer::TCommDbIspBearer(void)
	??0TCommDbIspConnectionPref@CCommsDbConnectionPrefTableView@@QAE@XZ @ 124 NONAME ; public: __thiscall CCommsDbConnectionPrefTableView::TCommDbIspConnectionPref::TCommDbIspConnectionPref(void)
	?OpenViewOnProxyRecordLC@CCommsDatabase@@QAEPAVCCommsDbTableView@@KABVTDesC16@@@Z @ 125 NONAME ; public: class CCommsDbTableView * __thiscall CCommsDatabase::OpenViewOnProxyRecordLC(unsigned long,class TDesC16 const &)
	?GetAgentClientTimeoutL@CCommsDatabase@@QAEHABVTDesC16@@@Z @ 126 NONAME ; public: int __thiscall CCommsDatabase::GetAgentClientTimeoutL(class TDesC16 const &)
	?GetAgentRouteTimeoutL@CCommsDatabase@@QAEHABVTDesC16@@@Z @ 127 NONAME ; public: int __thiscall CCommsDatabase::GetAgentRouteTimeoutL(class TDesC16 const &)
	?SetAgentClientTimeoutL@CCommsDatabase@@QAEXABVTDesC16@@H@Z @ 128 NONAME ; public: void __thiscall CCommsDatabase::SetAgentClientTimeoutL(class TDesC16 const &,int)
	?SetAgentRouteTimeoutL@CCommsDatabase@@QAEXABVTDesC16@@H@Z @ 129 NONAME ; public: void __thiscall CCommsDatabase::SetAgentRouteTimeoutL(class TDesC16 const &,int)
	?Compare@CCommDbOverrideSettings@@QBEHPAV1@@Z @ 130 NONAME ; public: int __thiscall CCommDbOverrideSettings::Compare(class CCommDbOverrideSettings *)const	
	?NewL@CCommsDatabase@@SAPAV1@W4TCommDbDatabaseType@@AAW4TCommDbOpeningMethod@@@Z @ 131 NONAME ; public: static class CCommsDatabase * __cdecl CCommsDatabase::NewL(enum TCommDbDatabaseType,enum TCommDbOpeningMethod &)
	??1CCommsDbProtectTableView@@UAE@XZ @ 132 NONAME ; public: virtual __thiscall CCommsDbProtectTableView::~CCommsDbProtectTableView(void)
	?ProtectRecord@CCommsDbProtectTableView@@QAEHXZ @ 133 NONAME ; public: int __thiscall CCommsDbProtectTableView::ProtectRecord(void)
	?ProtectTable@CCommsDbProtectTableView@@QAEHXZ @ 134 NONAME ; public: int __thiscall CCommsDbProtectTableView::ProtectTable(void)
	?UnprotectRecord@CCommsDbProtectTableView@@QAEHXZ @ 135 NONAME ; public: int __thiscall CCommsDbProtectTableView::UnprotectRecord(void)
	?UnprotectTable@CCommsDbProtectTableView@@QAEHXZ @ 136 NONAME ; public: int __thiscall CCommsDbProtectTableView::UnprotectTable(void)
	?GetRecordAccess@CCommsDbProtectTableView@@QAEHAAH@Z @ 137 NONAME ; public: int __thiscall CCommsDbProtectTableView::GetRecordAccess(int &)
	?GetTableAccess@CCommsDbProtectTableView@@QAEHAAW4TAccess@RDbRowSet@@@Z @ 138 NONAME ; public: int __thiscall CCommsDbProtectTableView::GetTableAccess(enum RDbRowSet::TAccess &)
	??1CCommsDbProtectConnectPrefTableView@@UAE@XZ @ 139 NONAME
	?GetRecordAccess@CCommsDbProtectConnectPrefTableView@@QAEHAAH@Z @ 140 NONAME
	?GetTableAccess@CCommsDbProtectConnectPrefTableView@@QAEHAAW4TAccess@RDbRowSet@@@Z @ 141 NONAME
	?ProtectRecord@CCommsDbProtectConnectPrefTableView@@QAEHXZ @ 142 NONAME
	?ProtectTable@CCommsDbProtectConnectPrefTableView@@QAEHXZ @ 143 NONAME
	?UnprotectRecord@CCommsDbProtectConnectPrefTableView@@QAEHXZ @ 144 NONAME
	?UnprotectTable@CCommsDbProtectConnectPrefTableView@@QAEHXZ @ 145 NONAME
	??0TCommDbConnPref@@QAE@XZ @ 146 NONAME ; public: __thiscall TCommDbConnPref::TCommDbConnPref(void)
	??0TCommDbMultiConnPref@@QAE@XZ @ 147 NONAME ; public: __thiscall TCommDbMultiConnPref::TCommDbMultiConnPref(void)
	?BearerSet@TCommDbConnPref@@QBEKXZ @ 148 NONAME ; public: unsigned long __thiscall TCommDbConnPref::BearerSet(void)const 
	?Compare@TCommDbConnPref@@UBEHABV1@@Z @ 149 NONAME ; public: virtual int __thiscall TCommDbConnPref::Compare(class TCommDbConnPref const &)const 
	?ConnectionAttempts@TCommDbMultiConnPref@@QAEHXZ @ 150 NONAME ; public: int __thiscall TCommDbMultiConnPref::ConnectionAttempts(void)
	?DialogPreference@TCommDbConnPref@@QBE?AW4TCommDbDialogPref@@XZ @ 151 NONAME ; public: enum TCommDbDialogPref  __thiscall TCommDbConnPref::DialogPreference(void)const 
	?Direction@TCommDbConnPref@@QBE?AW4TCommDbConnectionDirection@@XZ @ 152 NONAME ; public: enum TCommDbConnectionDirection  __thiscall TCommDbConnPref::Direction(void)const 
	?GetPreference@TCommDbMultiConnPref@@QAEHHAAVTCommDbConnPref@@@Z @ 153 NONAME ; public: int __thiscall TCommDbMultiConnPref::GetPreference(int,class TCommDbConnPref &)
	?IapId@TCommDbConnPref@@QBEKXZ @ 154 NONAME ; public: unsigned long __thiscall TCommDbConnPref::IapId(void)const 
	?NetId@TCommDbConnPref@@QBEKXZ @ 155 NONAME ; public: unsigned long __thiscall TCommDbConnPref::NetId(void)const 
	?NewL@CCommDbOverrideSettings@@SAPAV1@W4TParamList@1@@Z @ 156 NONAME ; public: static class CCommDbOverrideSettings * __cdecl CCommDbOverrideSettings::NewL(enum CCommDbOverrideSettings::TParamList)
	?NewL@CCommsDatabase@@SAPAV1@AAW4TCommDbOpeningMethod@@@Z @ 157 NONAME ; public: static class CCommsDatabase * __cdecl CCommsDatabase::NewL(enum TCommDbOpeningMethod &)
	?NewL@CCommsDatabase@@SAPAV1@H@Z @ 158 NONAME ; public: static class CCommsDatabase * __cdecl CCommsDatabase::NewL(int)
	?NewL@CCommsDatabase@@SAPAV1@XZ @ 159 NONAME ; public: static class CCommsDatabase * __cdecl CCommsDatabase::NewL(void)
	?NewL@CStoreableOverrideSettings@@SAPAV1@W4TParamList@CCommDbOverrideSettings@@@Z @ 160 NONAME ; public: static class CStoreableOverrideSettings * __cdecl CStoreableOverrideSettings::NewL(enum CCommDbOverrideSettings::TParamList)
	?OpenIAPTableViewMatchingNetworkLC@CCommsDatabase@@QAEPAVCCommsDbTableView@@K@Z @ 161 NONAME ; public: class CCommsDbTableView * __thiscall CCommsDatabase::OpenIAPTableViewMatchingNetworkLC(unsigned long)
	?ReadColumnMaxLengthL@CCommsDbTableView@@QAEXABVTDesC16@@AAH@Z @ 162 NONAME ; public: void __thiscall CCommsDbTableView::ReadColumnMaxLengthL(class TDesC16 const &,int &)
	?SetBearerSet@TCommDbConnPref@@QAEXK@Z @ 163 NONAME ; public: void __thiscall TCommDbConnPref::SetBearerSet(unsigned long)
	?SetConnectionAttempts@TCommDbMultiConnPref@@QAEXH@Z @ 164 NONAME ; public: void __thiscall TCommDbMultiConnPref::SetConnectionAttempts(int)
	?SetDialogPreference@TCommDbConnPref@@QAEXW4TCommDbDialogPref@@@Z @ 165 NONAME ; public: void __thiscall TCommDbConnPref::SetDialogPreference(enum TCommDbDialogPref)
	?SetDirection@TCommDbConnPref@@QAEXW4TCommDbConnectionDirection@@@Z @ 166 NONAME ; public: void __thiscall TCommDbConnPref::SetDirection(enum TCommDbConnectionDirection)
	?SetIapId@TCommDbConnPref@@QAEXK@Z @ 167 NONAME ; public: void __thiscall TCommDbConnPref::SetIapId(unsigned long)
	?SetNetId@TCommDbConnPref@@QAEXK@Z @ 168 NONAME ; public: void __thiscall TCommDbConnPref::SetNetId(unsigned long)
	?SetPreference@TCommDbMultiConnPref@@QAEHHABVTCommDbConnPref@@@Z @ 169 NONAME ; public: int __thiscall TCommDbMultiConnPref::SetPreference(int,class TCommDbConnPref const &)
	?Version@TCommDbConnPref@@SA?AVTVersion@@XZ @ 170 NONAME ; public: static class TVersion  __cdecl TCommDbConnPref::Version(void)
	?Version@TCommDbMultiConnPref@@SA?AVTVersion@@XZ @ 171 NONAME ; public: static class TVersion  __cdecl TCommDbMultiConnPref::Version(void)
	?GetDefaultTsyL@CCommsDatabase@@QAEXAAVTDes16@@@Z @ 172 NONAME ; public: void __thiscall CCommsDatabase::GetDefaultTsyL(class TDes16 &)
	?InsertCopy@CCommsDbTemplateRecord@@QAEHAAK@Z @ 173 NONAME ; int CCommsDbTemplateRecord::InsertCopy(unsigned long &)
	?InsertCopyRecord@CCommsDbTableView@@QAEHAAK@Z @ 174 NONAME ; int CCommsDbTableView::InsertCopyRecord(unsigned long &)
	??1CCommsDatabaseProtect@@UAE@XZ @ 175 NONAME ; CCommsDatabaseProtect::~CCommsDatabaseProtect(void)
	?GetTableAccessL@CCommsDatabaseProtect@@QAE?AW4TAccess@RDbRowSet@@ABVTDesC16@@@Z @ 176 NONAME ; enum RDbRowSet::TAccess CCommsDatabaseProtect::GetTableAccessL(class TDesC16 const &)
	?NewL@CCommsDatabaseProtect@@SAPAV1@AAW4TCommDbOpeningMethod@@@Z @ 177 NONAME ; class CCommsDatabaseProtect * CCommsDatabaseProtect::NewL(enum TCommDbOpeningMethod &)
	?NewL@CCommsDatabaseProtect@@SAPAV1@H@Z @ 178 NONAME ; class CCommsDatabaseProtect * CCommsDatabaseProtect::NewL(int)
	?NewL@CCommsDatabaseProtect@@SAPAV1@XZ @ 179 NONAME ; class CCommsDatabaseProtect * CCommsDatabaseProtect::NewL(void)
	?ProtectTable@CCommsDatabaseProtect@@QAEHABVTDesC16@@@Z @ 180 NONAME ; int CCommsDatabaseProtect::ProtectTable(class TDesC16 const &)
	?ProtectTables@CCommsDatabaseProtect@@QAEHAAVCPtrC16Array@@@Z @ 181 NONAME ; int CCommsDatabaseProtect::ProtectTables(class CPtrC16Array &)
	?UnProtectTable@CCommsDatabaseProtect@@QAEHABVTDesC16@@@Z @ 182 NONAME ; int CCommsDatabaseProtect::UnProtectTable(class TDesC16 const &)
	?UnprotectTables@CCommsDatabaseProtect@@QAEHAAVCPtrC16Array@@@Z @ 183 NONAME ; int CCommsDatabaseProtect::UnprotectTables(class CPtrC16Array &)
	?CheckReadCapability@CCommsDatabaseBase@@QAEHABVTDesC16@@PBVRMessagePtr2@@@Z @ 184 NONAME ; int CCommsDatabaseBase::CheckReadCapability(class TDesC16 const &, class RMessagePtr2 const *)
	?CheckWriteCapability@CCommsDatabaseBase@@QAEHABVTDesC16@@PBVRMessagePtr2@@@Z @ 185 NONAME ; int CCommsDatabaseBase::CheckWriteCapability(class TDesC16 const &, class RMessagePtr2 const *)
	?InitializeFilestore@CCommsDatabaseBase@@SAHXZ @ 186 NONAME ; int CCommsDatabaseBase::InitializeFilestore(void)
	?GetElementIdFromFieldNameL@CommDbShimUtil@@SAKABVTDesC16@@@Z @ 187  NONAME ; unsigned long CommDbShimUtil::GetElementIdFromFieldNameL(class TDesC16 const &)

