EXPORTS
	??0CAudioEqualizer@@IAE@XZ @ 1 NONAME ; CAudioEqualizer::CAudioEqualizer(void)
	??1CAudioEqualizer@@UAE@XZ @ 2 NONAME ; CAudioEqualizer::~CAudioEqualizer(void)
	?BandLevel@CAudioEqualizer@@QBEJE@Z @ 3 NONAME ; long CAudioEqualizer::BandLevel(unsigned char) const
	?BandWidth@CAudioEqualizer@@QBEJE@Z @ 4 NONAME ; long CAudioEqualizer::BandWidth(unsigned char) const
	?CenterFrequency@CAudioEqualizer@@QBEJE@Z @ 5 NONAME ; long CAudioEqualizer::CenterFrequency(unsigned char) const
	?CrossoverFrequency@CAudioEqualizer@@QBEJE@Z @ 6 NONAME ; long CAudioEqualizer::CrossoverFrequency(unsigned char) const
	?DbLevelLimits@CAudioEqualizer@@QAEXAAJ0@Z @ 7 NONAME ; void CAudioEqualizer::DbLevelLimits(long &, long &)
	?DoBandDataL@CAudioEqualizer@@IAEABVTDesC8@@EH@Z @ 8 NONAME ; class TDesC8 const & CAudioEqualizer::DoBandDataL(unsigned char, int)
	?DoEffectData@CAudioEqualizer@@MAEABVTDesC8@@XZ @ 9 NONAME ; class TDesC8 const & CAudioEqualizer::DoEffectData(void)
	?NewL@CAudioEqualizer@@SAPAV1@AAVCMMFDevSound@@@Z @ 10 NONAME ; class CAudioEqualizer * CAudioEqualizer::NewL(class CMMFDevSound &)
	?NewL@CAudioEqualizer@@SAPAV1@AAVCMdaAudioConvertUtility@@@Z @ 11 NONAME ; class CAudioEqualizer * CAudioEqualizer::NewL(class CMdaAudioConvertUtility &)
	?NewL@CAudioEqualizer@@SAPAV1@AAVCMdaAudioInputStream@@@Z @ 12 NONAME ; class CAudioEqualizer * CAudioEqualizer::NewL(class CMdaAudioInputStream &)
	?NewL@CAudioEqualizer@@SAPAV1@AAVCMdaAudioOutputStream@@@Z @ 13 NONAME ; class CAudioEqualizer * CAudioEqualizer::NewL(class CMdaAudioOutputStream &)
	?NewL@CAudioEqualizer@@SAPAV1@AAVCMdaAudioPlayerUtility@@@Z @ 14 NONAME ; class CAudioEqualizer * CAudioEqualizer::NewL(class CMdaAudioPlayerUtility &)
	?NewL@CAudioEqualizer@@SAPAV1@AAVCMdaAudioRecorderUtility@@H@Z @ 15 NONAME ; class CAudioEqualizer * CAudioEqualizer::NewL(class CMdaAudioRecorderUtility &, int)
	?NewL@CAudioEqualizer@@SAPAV1@AAVCMdaAudioToneUtility@@@Z @ 16 NONAME ; class CAudioEqualizer * CAudioEqualizer::NewL(class CMdaAudioToneUtility &)
	?NewL@CAudioEqualizer@@SAPAV1@AAVMCustomInterface@@@Z @ 17 NONAME ; class CAudioEqualizer * CAudioEqualizer::NewL(class MCustomInterface &)
	?NewL@CAudioEqualizer@@SAPAV1@PAVCCustomCommandUtility@@@Z @ 18 NONAME ; class CAudioEqualizer * CAudioEqualizer::NewL(class CCustomCommandUtility *)
	?NewL@CAudioEqualizer@@SAPAV1@XZ @ 19 NONAME ; class CAudioEqualizer * CAudioEqualizer::NewL(void)
	?NumberOfBands@CAudioEqualizer@@QBEEXZ @ 20 NONAME ; unsigned char CAudioEqualizer::NumberOfBands(void) const
	?SetBandDataL@CAudioEqualizer@@IAEXHABVTDesC8@@@Z @ 21 NONAME ; void CAudioEqualizer::SetBandDataL(int, class TDesC8 const &)
	?SetBandLevelL@CAudioEqualizer@@QAEXCJ@Z @ 22 NONAME ; void CAudioEqualizer::SetBandLevelL(signed char, long)
	?SetEffectData@CAudioEqualizer@@MAEXABVTDesC8@@@Z @ 23 NONAME ; void CAudioEqualizer::SetEffectData(class TDesC8 const &)
	?Uid@CAudioEqualizer@@UBE?AVTUid@@XZ @ 24 NONAME ; class TUid CAudioEqualizer::Uid(void) const
	?NewL@CAudioEqualizer@@SAPAV1@AAVCMidiClientUtility@@@Z @ 25 NONAME ; class CAudioEqualizer * CAudioEqualizer::NewL(class CMidiClientUtility &)
	?NewL@CAudioEqualizer@@SAPAV1@AAVCDrmPlayerUtility@@@Z @ 26 NONAME ; class CAudioEqualizer * CAudioEqualizer::NewL(class CDrmPlayerUtility &)
	?NewL@CAudioEqualizer@@SAPAV1@AAVCVideoPlayerUtility@@@Z @ 27 NONAME ; class CAudioEqualizer * CAudioEqualizer::NewL(class CVideoPlayerUtility &)

