EXPORTS
	_ZN13TBTDeviceList18MaxNumberOfDevicesEv @ 1 NONAME
	_ZN13TBTDeviceList5ResetEv @ 2 NONAME
	_ZN13TBTDeviceList9AddDeviceERK10TBTDevAddr @ 3 NONAME
	_ZN13TBTDeviceList9GetDeviceER10TBTDevAddr @ 4 NONAME
	_ZN13TBTDeviceListC1Ev @ 5 NONAME
	_ZN13TBTDeviceListC2Ev @ 6 NONAME
	_ZN13TBTDeviceListcvR5TDes8Ev @ 7 NONAME
	_ZN13TBTDeviceListcvRK6TDesC8Ev @ 8 NONAME
	_ZN23TBTDeviceResponseParams11DeviceClassEv @ 9 NONAME
	_ZN23TBTDeviceResponseParams13SetDeviceNameERK7TDesC16 @ 10 NONAME
	_ZN23TBTDeviceResponseParams14SetDeviceClassE14TBTDeviceClass @ 11 NONAME
	_ZN23TBTDeviceResponseParams16SetDeviceAddressERK10TBTDevAddr @ 12 NONAME
	_ZN23TBTDeviceResponseParams18IsValidDeviceClassEv @ 13 NONAME
	_ZN23TBTDeviceResponseParamsC1Ev @ 14 NONAME
	_ZN23TBTDeviceResponseParamsC2Ev @ 15 NONAME
	_ZN24TBTDeviceSelectionParams11DeviceClassEv @ 16 NONAME
	_ZN24TBTDeviceSelectionParams11IsValidUUIDEv @ 17 NONAME
	_ZN24TBTDeviceSelectionParams14SetDeviceClassE14TBTDeviceClass @ 18 NONAME
	_ZN24TBTDeviceSelectionParams18IsValidDeviceClassEv @ 19 NONAME
	_ZN24TBTDeviceSelectionParams4UUIDEv @ 20 NONAME
	_ZN24TBTDeviceSelectionParams7SetUUIDERK5TUUID @ 21 NONAME
	_ZN24TBTDeviceSelectionParamsC1Ev @ 22 NONAME
	_ZN24TBTDeviceSelectionParamsC2Ev @ 23 NONAME
	_ZNK23TBTDeviceResponseParams10DeviceNameEv @ 24 NONAME
	_ZNK23TBTDeviceResponseParams13IsValidBDAddrEv @ 25 NONAME
	_ZNK23TBTDeviceResponseParams17IsValidDeviceNameEv @ 26 NONAME
	_ZNK23TBTDeviceResponseParams6BDAddrEv @ 27 NONAME
	_ZN23TPbapAuthNotifierParams13SetRemoteAddrERK10TBTDevAddr @ 28 NONAME
	_ZN23TPbapAuthNotifierParams8SetRealmERK7TDesC16 @ 29 NONAME
	_ZN23TPbapAuthNotifierParamsC1Ev @ 30 NONAME
	_ZN23TPbapAuthNotifierParamsC2Ev @ 31 NONAME
	_ZN25TPbapAuthNotifierResponse11SetPasswordERK7TDesC16 @ 32 NONAME
	_ZN25TPbapAuthNotifierResponse13ResetPasswordEv @ 33 NONAME
	_ZN25TPbapAuthNotifierResponseC1Ev @ 34 NONAME
	_ZN25TPbapAuthNotifierResponseC2Ev @ 35 NONAME
	_ZNK23TPbapAuthNotifierParams10RemoteAddrEv @ 36 NONAME
	_ZNK23TPbapAuthNotifierParams12IsValidRealmEv @ 37 NONAME
	_ZNK23TPbapAuthNotifierParams14RealmTruncatedEv @ 38 NONAME
	_ZNK23TPbapAuthNotifierParams17IsValidRemoteAddrEv @ 39 NONAME
	_ZNK23TPbapAuthNotifierParams5RealmEv @ 40 NONAME
	_ZNK25TPbapAuthNotifierResponse15IsValidPasswordEv @ 41 NONAME
	_ZNK25TPbapAuthNotifierResponse8PasswordEv @ 42 NONAME
	_ZN14TPanConnectionC1ER10TBTDevAddri @ 43 NONAME
	_ZN14TPanConnectionC1Ev @ 44 NONAME
	_ZN14TPanConnectionC2ER10TBTDevAddri @ 45 NONAME
	_ZN14TPanConnectionC2Ev @ 46 NONAME
	_ZN18TPanConnectionList19SetCurrentLocalRoleERK5TUUID @ 47 NONAME
	_ZN18TPanConnectionList20AddRemoteConnectionLERK14TPanConnection @ 48 NONAME
	_ZN18TPanConnectionList23GetNextRemoteConnectionEv @ 49 NONAME
	_ZN18TPanConnectionList23RequestedConnectionAddrEv @ 50 NONAME
	_ZN18TPanConnectionList24GetFirstRemoteConnectionEv @ 51 NONAME
	_ZN18TPanConnectionList26SetRequestedConnectionAddrERK10TBTDevAddr @ 52 NONAME
	_ZN18TPanConnectionList28MaxNumberOfRemoteConnectionsEv @ 53 NONAME
	_ZN18TPanConnectionListC1Ev @ 54 NONAME
	_ZN18TPanConnectionListC2Ev @ 55 NONAME
	_ZNK14TPanConnection19RemoteDeviceAddressEv @ 56 NONAME
	_ZNK14TPanConnection19UplinkAccessAllowedEv @ 57 NONAME
	_ZNK14TPanConnection7IsValidEv @ 58 NONAME
	_ZNK18TPanConnectionList16CurrentLocalRoleEv @ 59 NONAME
	_ZN23TBTPasskeyDisplayParamsC1ERK10TBTDevAddrRK7TDesC16mi @ 60 NONAME
	_ZN23TBTPasskeyDisplayParamsC1Ev @ 61 NONAME
	_ZN23TBTPasskeyDisplayParamsC2ERK10TBTDevAddrRK7TDesC16mi @ 62 NONAME
	_ZN23TBTPasskeyDisplayParamsC2Ev @ 63 NONAME
	_ZN24TBTNotifierUpdateParams2C1Ev @ 64 NONAME
	_ZN24TBTNotifierUpdateParams2C2Ev @ 65 NONAME
	_ZN25TBTDeviceNameUpdateParamsC1ERK7TDesC16i @ 66 NONAME
	_ZN25TBTDeviceNameUpdateParamsC1Ev @ 67 NONAME
	_ZN25TBTDeviceNameUpdateParamsC2ERK7TDesC16i @ 68 NONAME
	_ZN25TBTDeviceNameUpdateParamsC2Ev @ 69 NONAME
	_ZN26TBTNumericComparisonParamsC1ERK10TBTDevAddrRK7TDesC16mNS_19TComparisonScenarioEi @ 70 NONAME
	_ZN26TBTNumericComparisonParamsC1Ev @ 71 NONAME
	_ZN26TBTNumericComparisonParamsC2ERK10TBTDevAddrRK7TDesC16mNS_19TComparisonScenarioEi @ 72 NONAME
	_ZN26TBTNumericComparisonParamsC2Ev @ 73 NONAME
	_ZN29TBTPasskeyDisplayUpdateParamsC1E32THCIPasskeyEntryNotificationType @ 74 NONAME
	_ZN29TBTPasskeyDisplayUpdateParamsC1Ev @ 75 NONAME
	_ZN29TBTPasskeyDisplayUpdateParamsC2E32THCIPasskeyEntryNotificationType @ 76 NONAME
	_ZN29TBTPasskeyDisplayUpdateParamsC2Ev @ 77 NONAME
	_ZN29TBTPinCodeEntryNotifierParamsC1ERK10TBTDevAddrRK7TDesC16jiij @ 78 NONAME
	_ZN29TBTPinCodeEntryNotifierParamsC1Ev @ 79 NONAME
	_ZN29TBTPinCodeEntryNotifierParamsC2ERK10TBTDevAddrRK7TDesC16jiij @ 80 NONAME
	_ZN29TBTPinCodeEntryNotifierParamsC2Ev @ 81 NONAME
	_ZNK18TBTNotifierParams210DeviceNameEv @ 82 NONAME
	_ZNK18TBTNotifierParams213DeviceAddressEv @ 83 NONAME
	_ZNK23TBTPasskeyDisplayParams14NumericalValueEv @ 84 NONAME
	_ZNK23TBTPasskeyDisplayParams16LocallyInitiatedEv @ 85 NONAME
	_ZNK24TBTNotifierUpdateParams24TypeEv @ 86 NONAME
	_ZNK25TBTDeviceNameUpdateParams10DeviceNameEv @ 87 NONAME
	_ZNK25TBTDeviceNameUpdateParams6ResultEv @ 88 NONAME
	_ZNK26TBTNumericComparisonParams14NumericalValueEv @ 89 NONAME
	_ZNK26TBTNumericComparisonParams16LocallyInitiatedEv @ 90 NONAME
	_ZNK26TBTNumericComparisonParams18ComparisonScenarioEv @ 91 NONAME
	_ZNK29TBTPasskeyDisplayUpdateParams20KeypressNotificationEv @ 92 NONAME
	_ZNK29TBTPinCodeEntryNotifierParams16LocallyInitiatedEv @ 93 NONAME
	_ZNK29TBTPinCodeEntryNotifierParams16PinCodeMinLengthEv @ 94 NONAME
	_ZNK29TBTPinCodeEntryNotifierParams21StrongPinCodeRequiredEv @ 95 NONAME
	_ZNK29TBTPinCodeEntryNotifierParams27RecommendedPinCodeMinLengthEv @ 96 NONAME
	_ZN25TBTUserConfirmationParamsC1ERK10TBTDevAddrRK7TDesC16i @ 97 NONAME
	_ZN25TBTUserConfirmationParamsC1Ev @ 98 NONAME
	_ZN25TBTUserConfirmationParamsC2ERK10TBTDevAddrRK7TDesC16i @ 99 NONAME
	_ZN25TBTUserConfirmationParamsC2Ev @ 100 NONAME
	_ZNK25TBTUserConfirmationParams16LocallyInitiatedEv @ 101 NONAME

