EXPORTS
	_ZN12RProcessRoot10CancelBindERN10RootServer19TRSSubModuleAddressES2_ @ 1 NONAME
	_ZN12RProcessRoot10LoadModuleER14TRequestStatusRKN10RootServer20TRSStartModuleParamsERK6TDesC8 @ 2 NONAME
	_ZN12RProcessRoot11SendMessageER14TRequestStatusRK5TBuf8ILi32EEiR5TDes8 @ 3 NONAME
	_ZN12RProcessRoot11SendMessageERK5TBuf8ILi32EEiR5TDes8 @ 4 NONAME
	_ZN12RProcessRoot12CancelUnbindERN10RootServer19TRSSubModuleAddressES2_ @ 5 NONAME
	_ZN12RProcessRoot12UnloadModuleER14TRequestStatusRK5TBuf8ILi32EEN7CommsFW15TCFShutdownTypeE @ 6 NONAME
	_ZN12RProcessRoot13GetModuleInfoERK5TBuf8ILi32EERN10RootServer13TRSModuleInfoE @ 7 NONAME
	_ZN12RProcessRoot16CancelLoadModuleERK5TBuf8ILi32EE @ 8 NONAME
	_ZN12RProcessRoot16EnumerateModulesERN10RootServer7TRSIterER5TBuf8ILi32EE @ 9 NONAME
	_ZN12RProcessRoot17EnumerateBindingsERKN7CommsFW19TCFSubModuleAddressERN10RootServer7TRSIterERNS4_14TRSBindingInfoE @ 10 NONAME
	_ZN12RProcessRoot18CancelUnloadModuleERK5TBuf8ILi32EE @ 11 NONAME
	_ZN12RProcessRoot19EnumerateSubModulesERK5TBuf8ILi32EERN10RootServer7TRSIterERS1_ @ 12 NONAME
	_ZN12RProcessRoot4BindER14TRequestStatusRN10RootServer14TRSBindingInfoE @ 13 NONAME
	_ZN12RProcessRoot5CloseEv @ 14 NONAME
	_ZN12RProcessRoot6UnbindER14TRequestStatusRN10RootServer16TRSUnBindingInfoE @ 15 NONAME
	_ZN12RProcessRoot7ConnectERK7TDesC16 @ 16 NONAME
	_ZN12RProcessRoot8ShutdownEv @ 17 NONAME
	_ZN15RProcessRootDbg12__DbgMarkEndEi @ 18 NONAME
	_ZN15RProcessRootDbg13__DbgFailNextEi @ 19 NONAME
	_ZN15RProcessRootDbg13__DbgMarkHeapEv @ 20 NONAME
	_ZN15RProcessRootDbg14__DbgCheckHeapEi @ 21 NONAME
	_ZNK12RProcessRoot7VersionEv @ 22 NONAME


