EXPORTS
	_ZN17CDrmPlayerUtility10GetBalanceERi @ 1 NONAME
	_ZN17CDrmPlayerUtility10GetBitRateERj @ 2 NONAME
	_ZN17CDrmPlayerUtility10SetBalanceEi @ 3 NONAME
	_ZN17CDrmPlayerUtility10SetRepeatsEiRK25TTimeIntervalMicroSeconds @ 4 NONAME
	_ZN17CDrmPlayerUtility11GetPositionER25TTimeIntervalMicroSeconds @ 5 NONAME
	_ZN17CDrmPlayerUtility11SetPositionERK25TTimeIntervalMicroSeconds @ 6 NONAME
	_ZN17CDrmPlayerUtility11SetPriorityEi22TMdaPriorityPreference @ 7 NONAME
	_ZN17CDrmPlayerUtility13NewDesPlayerLERK6TDesC8R23MDrmAudioPlayerCallbacki22TMdaPriorityPreference @ 8 NONAME
	_ZN17CDrmPlayerUtility13SetPlayWindowERK25TTimeIntervalMicroSecondsS2_ @ 9 NONAME
	_ZN17CDrmPlayerUtility13SetVolumeRampERK25TTimeIntervalMicroSeconds @ 10 NONAME
	_ZN17CDrmPlayerUtility14NewFilePlayerLERK7TDesC16R23MDrmAudioPlayerCallbacki22TMdaPriorityPreference @ 11 NONAME
	_ZN17CDrmPlayerUtility15ClearPlayWindowEv @ 12 NONAME
	_ZN17CDrmPlayerUtility17CustomCommandSyncERK8TPckgBufI22TMMFMessageDestinationEiRK6TDesC8S7_ @ 13 NONAME
	_ZN17CDrmPlayerUtility17CustomCommandSyncERK8TPckgBufI22TMMFMessageDestinationEiRK6TDesC8S7_R5TDes8 @ 14 NONAME
	_ZN17CDrmPlayerUtility17GetMetaDataEntryLEi @ 15 NONAME
	_ZN17CDrmPlayerUtility18CustomCommandAsyncERK8TPckgBufI22TMMFMessageDestinationEiRK6TDesC8S7_R14TRequestStatus @ 16 NONAME
	_ZN17CDrmPlayerUtility18CustomCommandAsyncERK8TPckgBufI22TMMFMessageDestinationEiRK6TDesC8S7_R5TDes8R14TRequestStatus @ 17 NONAME
	_ZN17CDrmPlayerUtility21NewDesPlayerReadOnlyLERK6TDesC8R23MDrmAudioPlayerCallbacki22TMdaPriorityPreference @ 18 NONAME
	_ZN17CDrmPlayerUtility24GetAudioLoadingProgressLERi @ 19 NONAME
	_ZN17CDrmPlayerUtility26GetNumberOfMetaDataEntriesERi @ 20 NONAME
	_ZN17CDrmPlayerUtility35RegisterForAudioLoadingNotificationER21MAudioLoadingObserver @ 21 NONAME
	_ZN17CDrmPlayerUtility36ControllerImplementationInformationLEv @ 22 NONAME
	_ZN17CDrmPlayerUtility4NewLER23MDrmAudioPlayerCallbacki22TMdaPriorityPreference @ 23 NONAME
	_ZN17CDrmPlayerUtility4PlayEv @ 24 NONAME
	_ZN17CDrmPlayerUtility4StopEv @ 25 NONAME
	_ZN17CDrmPlayerUtility5CloseEv @ 26 NONAME
	_ZN17CDrmPlayerUtility5PauseEv @ 27 NONAME
	_ZN17CDrmPlayerUtility8DurationEv @ 28 NONAME
	_ZN17CDrmPlayerUtility8OpenDesLERK6TDesC8 @ 29 NONAME
	_ZN17CDrmPlayerUtility8OpenUrlLERK7TDesC16iRK6TDesC8 @ 30 NONAME
	_ZN17CDrmPlayerUtility9GetVolumeERi @ 31 NONAME
	_ZN17CDrmPlayerUtility9MaxVolumeEv @ 32 NONAME
	_ZN17CDrmPlayerUtility9OpenFileLERK7TDesC16 @ 33 NONAME
	_ZN17CDrmPlayerUtility9SetVolumeEi @ 34 NONAME
	_ZN17CDrmPlayerUtilityD0Ev @ 35 NONAME
	_ZN17CDrmPlayerUtilityD1Ev @ 36 NONAME
	_ZN17CDrmPlayerUtilityD2Ev @ 37 NONAME
	_ZTI17CDrmPlayerUtility @ 38 NONAME ; #<TI>#
	_ZTI25CMMFDrmAudioPlayerUtility @ 39 NONAME ; #<TI>#
	_ZTV17CDrmPlayerUtility @ 40 NONAME ; #<VT>#
	_ZTV25CMMFDrmAudioPlayerUtility @ 41 NONAME ; #<VT>#
	_ZN17CDrmPlayerUtility9OpenFileLERK5RFile @ 42 NONAME
	_ZN17CDrmPlayerUtility9OpenFileLERK9TMMSource @ 43 NONAME

