EXPORTS
	??0COMASuplInfoRequest@@QAE@XZ @ 1 NONAME ; COMASuplInfoRequest::COMASuplInfoRequest(void)
	??0COMASuplInfoRequestList@@QAE@XZ @ 2 NONAME ; COMASuplInfoRequestList::COMASuplInfoRequestList(void)
	??0COMASuplPosHandlerBase@@IAE@XZ @ 3 NONAME ; COMASuplPosHandlerBase::COMASuplPosHandlerBase(void)
	??0COMASuplPosSessionBase@@QAE@PAVMOMASuplObserver@@@Z @ 4 NONAME ; COMASuplPosSessionBase::COMASuplPosSessionBase(class MOMASuplObserver *)
	??0COMASuplReqAsstData@@AAE@XZ @ 5 NONAME ; COMASuplReqAsstData::COMASuplReqAsstData(void)
	??0TOMASuplAllowedCapabilities@@QAE@XZ @ 6 NONAME ; TOMASuplAllowedCapabilities::TOMASuplAllowedCapabilities(void)
	??0TOMASuplAltitudeInfo@@QAE@XZ @ 7 NONAME ; TOMASuplAltitudeInfo::TOMASuplAltitudeInfo(void)
	??0TOMASuplNavigationModel@@QAE@XZ @ 8 NONAME ; TOMASuplNavigationModel::TOMASuplNavigationModel(void)
	??0TOMASuplPosProtocol@@QAE@XZ @ 9 NONAME ; TOMASuplPosProtocol::TOMASuplPosProtocol(void)
	??0TOMASuplPosTechnology@@QAE@XZ @ 10 NONAME ; TOMASuplPosTechnology::TOMASuplPosTechnology(void)
	??0TOMASuplPositionEstimate@@QAE@XZ @ 11 NONAME ; TOMASuplPositionEstimate::TOMASuplPositionEstimate(void)
	??0TOMASuplSatelliteInfoElement@@QAE@XZ @ 12 NONAME ; TOMASuplSatelliteInfoElement::TOMASuplSatelliteInfoElement(void)
	??0TOMASuplUncertainty@@QAE@XZ @ 13 NONAME ; TOMASuplUncertainty::TOMASuplUncertainty(void)
	??0TOMASuplUtcTime@@QAE@XZ @ 14 NONAME ; TOMASuplUtcTime::TOMASuplUtcTime(void)
	??1COMASuplHorizAndVertUncertVelocity@@UAE@XZ @ 15 NONAME ; COMASuplHorizAndVertUncertVelocity::~COMASuplHorizAndVertUncertVelocity(void)
	??1COMASuplHorizAndVertVelocity@@UAE@XZ @ 16 NONAME ; COMASuplHorizAndVertVelocity::~COMASuplHorizAndVertVelocity(void)
	??1COMASuplHorizUncertVelocity@@UAE@XZ @ 17 NONAME ; COMASuplHorizUncertVelocity::~COMASuplHorizUncertVelocity(void)
	??1COMASuplHorizVelocity@@UAE@XZ @ 18 NONAME ; COMASuplHorizVelocity::~COMASuplHorizVelocity(void)
	??1COMASuplInfoRequest@@UAE@XZ @ 19 NONAME ; COMASuplInfoRequest::~COMASuplInfoRequest(void)
	??1COMASuplInfoRequestList@@UAE@XZ @ 20 NONAME ; COMASuplInfoRequestList::~COMASuplInfoRequestList(void)
	??1COMASuplPosHandlerBase@@UAE@XZ @ 21 NONAME ; COMASuplPosHandlerBase::~COMASuplPosHandlerBase(void)
	??1COMASuplPosPayload@@UAE@XZ @ 22 NONAME ; COMASuplPosPayload::~COMASuplPosPayload(void)
	??1COMASuplPosSessionBase@@UAE@XZ @ 23 NONAME ; COMASuplPosSessionBase::~COMASuplPosSessionBase(void)
	??1COMASuplPosition@@UAE@XZ @ 24 NONAME ; COMASuplPosition::~COMASuplPosition(void)
	??1COMASuplReqAsstData@@UAE@XZ @ 25 NONAME ; COMASuplReqAsstData::~COMASuplReqAsstData(void)
	??1COMASuplSETCapabilities@@UAE@XZ @ 26 NONAME ; COMASuplSETCapabilities::~COMASuplSETCapabilities(void)
	??1COMASuplVelocity@@UAE@XZ @ 27 NONAME ; COMASuplVelocity::~COMASuplVelocity(void)
	??1TOMASuplNavigationModel@@QAE@XZ @ 28 NONAME ; TOMASuplNavigationModel::~TOMASuplNavigationModel(void)
	?Append@COMASuplInfoRequestList@@QAEHPAVCOMASuplInfoRequest@@@Z @ 29 NONAME ; int COMASuplInfoRequestList::Append(class COMASuplInfoRequest *)
	?CloneL@COMASuplInfoRequest@@UBEPAV1@XZ @ 30 NONAME ; class COMASuplInfoRequest * COMASuplInfoRequest::CloneL(void) const
	?CloneL@COMASuplPosPayload@@UBEPAVCOMASuplInfoRequest@@XZ @ 31 NONAME ; class COMASuplInfoRequest * COMASuplPosPayload::CloneL(void) const
	?CloneL@COMASuplPosition@@UBEPAVCOMASuplInfoRequest@@XZ @ 32 NONAME ; class COMASuplInfoRequest * COMASuplPosition::CloneL(void) const
	?CloneL@COMASuplReqAsstData@@UBEPAVCOMASuplInfoRequest@@XZ @ 33 NONAME ; class COMASuplInfoRequest * COMASuplReqAsstData::CloneL(void) const
	?CloneL@COMASuplSETCapabilities@@UBEPAVCOMASuplInfoRequest@@XZ @ 34 NONAME ; class COMASuplInfoRequest * COMASuplSETCapabilities::CloneL(void) const
	?CloneL@COMASuplVelocity@@UBEPAVCOMASuplInfoRequest@@XZ @ 35 NONAME ; class COMASuplInfoRequest * COMASuplVelocity::CloneL(void) const
	?GetAllowedCapabilities@TOMASuplAllowedCapabilities@@QBEXAAH0000000@Z @ 36 NONAME ; void TOMASuplAllowedCapabilities::GetAllowedCapabilities(int &, int &, int &, int &, int &, int &, int &, int &) const
	?GetAltitudeInfo@TOMASuplAltitudeInfo@@QBEXAAW4TOMASuplAltitudeDirection@1@AAH1@Z @ 37 NONAME ; void TOMASuplAltitudeInfo::GetAltitudeInfo(enum TOMASuplAltitudeInfo::TOMASuplAltitudeDirection &, int &, int &) const
	?GetAltitudeInfo@TOMASuplPositionEstimate@@QBEHAAVTOMASuplAltitudeInfo@@@Z @ 38 NONAME ; int TOMASuplPositionEstimate::GetAltitudeInfo(class TOMASuplAltitudeInfo &) const
	?GetConfidence@TOMASuplPositionEstimate@@QBEHAAH@Z @ 39 NONAME ; int TOMASuplPositionEstimate::GetConfidence(int &) const
	?GetCount@COMASuplInfoRequestList@@QAEHXZ @ 40 NONAME ; int COMASuplInfoRequestList::GetCount(void)
	?GetElement@COMASuplInfoRequestList@@QAEPAVCOMASuplInfoRequest@@H@Z @ 41 NONAME ; class COMASuplInfoRequest * COMASuplInfoRequestList::GetElement(int)
	?GetHorizAndVertVel@COMASuplHorizAndVertVelocity@@QBEXAAG0AAE1@Z @ 42 NONAME ; void COMASuplHorizAndVertVelocity::GetHorizAndVertVel(unsigned short &, unsigned short &, unsigned char &, unsigned char &) const
	?GetHorizUncertVel@COMASuplHorizUncertVelocity@@QBEXAAG0AAE@Z @ 43 NONAME ; void COMASuplHorizUncertVelocity::GetHorizUncertVel(unsigned short &, unsigned short &, unsigned char &) const
	?GetHorizVel@COMASuplHorizVelocity@@QBEXAAG0@Z @ 44 NONAME ; void COMASuplHorizVelocity::GetHorizVel(unsigned short &, unsigned short &) const
	?GetHorizVertUncertVel@COMASuplHorizAndVertUncertVelocity@@QBEXAAG0AAE111@Z @ 45 NONAME ; void COMASuplHorizAndVertUncertVelocity::GetHorizVertUncertVel(unsigned short &, unsigned short &, unsigned char &, unsigned char &, unsigned char &, unsigned char &) const
	?GetNavigationData@COMASuplReqAsstData@@QBEHAAVTOMASuplNavigationModel@@@Z @ 46 NONAME ; int COMASuplReqAsstData::GetNavigationData(class TOMASuplNavigationModel &) const
	?GetNavigationModel@TOMASuplNavigationModel@@QBEXAAH000@Z @ 47 NONAME ; void TOMASuplNavigationModel::GetNavigationModel(int &, int &, int &, int &) const
	?GetPosPayload@COMASuplPosPayload@@QBEXAAPAVHBufC8@@AAW4TOMASuplPosPayloadType@1@@Z @ 48 NONAME ; void COMASuplPosPayload::GetPosPayload(class HBufC8 * &, enum COMASuplPosPayload::TOMASuplPosPayloadType &) const
	?GetPosProtocol@TOMASuplPosProtocol@@QBEXAAH00@Z @ 49 NONAME ; void TOMASuplPosProtocol::GetPosProtocol(int &, int &, int &) const
	?GetPosTechnology@TOMASuplPosTechnology@@QBEXAAH00000@Z @ 50 NONAME ; void TOMASuplPosTechnology::GetPosTechnology(int &, int &, int &, int &, int &, int &) const
	?GetPosition@COMASuplPosition@@QBEXAAVTOMASuplUtcTime@@AAVTOMASuplPositionEstimate@@@Z @ 51 NONAME ; void COMASuplPosition::GetPosition(class TOMASuplUtcTime &, class TOMASuplPositionEstimate &) const
	?GetPositionEstimate@TOMASuplPositionEstimate@@QBEXAAW4TOMASuplLatitudeSign@1@AAH1@Z @ 52 NONAME ; void TOMASuplPositionEstimate::GetPositionEstimate(enum TOMASuplPositionEstimate::TOMASuplLatitudeSign &, int &, int &) const
	?GetReqAsstData@COMASuplReqAsstData@@QBEXAAH0000000@Z @ 53 NONAME ; void COMASuplReqAsstData::GetReqAsstData(int &, int &, int &, int &, int &, int &, int &, int &) const
	?GetSETCapabilities@COMASuplSETCapabilities@@QBEXAAVTOMASuplPosTechnology@@AAW4TOMASuplPrefMethod@1@AAVTOMASuplPosProtocol@@@Z @ 54 NONAME ; void COMASuplSETCapabilities::GetSETCapabilities(class TOMASuplPosTechnology &, enum COMASuplSETCapabilities::TOMASuplPrefMethod &, class TOMASuplPosProtocol &) const
	?GetSatInfoElement@TOMASuplNavigationModel@@QBEHAAV?$RArray@VTOMASuplSatelliteInfoElement@@@@@Z @ 55 NONAME ; int TOMASuplNavigationModel::GetSatInfoElement(class RArray<class TOMASuplSatelliteInfoElement> &) const
	?GetSatInfoElement@TOMASuplNavigationModel@@QBEHAAVTOMASuplSatelliteInfoElement@@H@Z @ 56 NONAME ; int TOMASuplNavigationModel::GetSatInfoElement(class TOMASuplSatelliteInfoElement &, int) const
	?GetSatInfoElement@TOMASuplSatelliteInfoElement@@QBEXAAH0@Z @ 57 NONAME ; void TOMASuplSatelliteInfoElement::GetSatInfoElement(int &, int &) const
	?GetSuplState@COMASuplPosSessionBase@@QBEXAAW4TOMASuplMsg@1@AAW4TOMASuplMsgState@1@@Z @ 58 NONAME ; void COMASuplPosSessionBase::GetSuplState(enum COMASuplPosSessionBase::TOMASuplMsg &, enum COMASuplPosSessionBase::TOMASuplMsgState &) const
	?GetUncertainty@TOMASuplPositionEstimate@@QBEHAAVTOMASuplUncertainty@@@Z @ 59 NONAME ; int TOMASuplPositionEstimate::GetUncertainty(class TOMASuplUncertainty &) const
	?GetUncertainty@TOMASuplUncertainty@@QBEXAAH00@Z @ 60 NONAME ; void TOMASuplUncertainty::GetUncertainty(int &, int &, int &) const
	?GetUtcTime@TOMASuplUtcTime@@QBEXAAVTDateTime@@AAH1@Z @ 61 NONAME ; void TOMASuplUtcTime::GetUtcTime(class TDateTime &, int &, int &) const
	?GetVelocity@COMASuplPosition@@QBEHAAPAVCOMASuplVelocity@@@Z @ 62 NONAME ; int COMASuplPosition::GetVelocity(class COMASuplVelocity * &) const
	?ImplementationUID@COMASuplPosHandlerBase@@QBE?AVTUid@@XZ @ 63 NONAME ; class TUid COMASuplPosHandlerBase::ImplementationUID(void) const
	?NewL@COMASuplHorizAndVertUncertVelocity@@SAPAV1@XZ @ 64 NONAME ; class COMASuplHorizAndVertUncertVelocity * COMASuplHorizAndVertUncertVelocity::NewL(void)
	?NewL@COMASuplHorizAndVertVelocity@@SAPAV1@XZ @ 65 NONAME ; class COMASuplHorizAndVertVelocity * COMASuplHorizAndVertVelocity::NewL(void)
	?NewL@COMASuplHorizUncertVelocity@@SAPAV1@XZ @ 66 NONAME ; class COMASuplHorizUncertVelocity * COMASuplHorizUncertVelocity::NewL(void)
	?NewL@COMASuplHorizVelocity@@SAPAV1@XZ @ 67 NONAME ; class COMASuplHorizVelocity * COMASuplHorizVelocity::NewL(void)
	?NewL@COMASuplInfoRequest@@SAPAV1@XZ @ 68 NONAME ; class COMASuplInfoRequest * COMASuplInfoRequest::NewL(void)
	?NewL@COMASuplInfoRequestList@@SAPAV1@XZ @ 69 NONAME ; class COMASuplInfoRequestList * COMASuplInfoRequestList::NewL(void)
	?NewL@COMASuplPosHandlerBase@@SAPAV1@ABVTUid@@@Z @ 70 NONAME ; class COMASuplPosHandlerBase * COMASuplPosHandlerBase::NewL(class TUid const &)
	?NewL@COMASuplPosPayload@@SAPAV1@XZ @ 71 NONAME ; class COMASuplPosPayload * COMASuplPosPayload::NewL(void)
	?NewL@COMASuplPosition@@SAPAV1@XZ @ 72 NONAME ; class COMASuplPosition * COMASuplPosition::NewL(void)
	?NewL@COMASuplReqAsstData@@SAPAV1@XZ @ 73 NONAME ; class COMASuplReqAsstData * COMASuplReqAsstData::NewL(void)
	?NewL@COMASuplSETCapabilities@@SAPAV1@XZ @ 74 NONAME ; class COMASuplSETCapabilities * COMASuplSETCapabilities::NewL(void)
	?NewL@COMASuplVelocity@@SAPAV1@XZ @ 75 NONAME ; class COMASuplVelocity * COMASuplVelocity::NewL(void)
	?SetAllowedCapabilities@TOMASuplAllowedCapabilities@@QAEXHHHHHHHH@Z @ 76 NONAME ; void TOMASuplAllowedCapabilities::SetAllowedCapabilities(int, int, int, int, int, int, int, int)
	?SetAltitudeInfo@TOMASuplAltitudeInfo@@QAEHW4TOMASuplAltitudeDirection@1@HH@Z @ 77 NONAME ; int TOMASuplAltitudeInfo::SetAltitudeInfo(enum TOMASuplAltitudeInfo::TOMASuplAltitudeDirection, int, int)
	?SetAltitudeInfo@TOMASuplPositionEstimate@@QAEHABVTOMASuplAltitudeInfo@@@Z @ 78 NONAME ; int TOMASuplPositionEstimate::SetAltitudeInfo(class TOMASuplAltitudeInfo const &)
	?SetConfidence@TOMASuplPositionEstimate@@QAEHH@Z @ 79 NONAME ; int TOMASuplPositionEstimate::SetConfidence(int)
	?SetHorizAndVertVel@COMASuplHorizAndVertVelocity@@QAEXFFCC@Z @ 80 NONAME ; void COMASuplHorizAndVertVelocity::SetHorizAndVertVel(short, short, signed char, signed char)
	?SetHorizUncertVel@COMASuplHorizUncertVelocity@@QAEXGGE@Z @ 81 NONAME ; void COMASuplHorizUncertVelocity::SetHorizUncertVel(unsigned short, unsigned short, unsigned char)
	?SetHorizVel@COMASuplHorizVelocity@@QAEXGG@Z @ 82 NONAME ; void COMASuplHorizVelocity::SetHorizVel(unsigned short, unsigned short)
	?SetHorizVertUncertVel@COMASuplHorizAndVertUncertVelocity@@QAEXGGEEEE@Z @ 83 NONAME ; void COMASuplHorizAndVertUncertVelocity::SetHorizVertUncertVel(unsigned short, unsigned short, unsigned char, unsigned char, unsigned char, unsigned char)
	?SetNavigationData@COMASuplReqAsstData@@QAEXABVTOMASuplNavigationModel@@@Z @ 84 NONAME ; void COMASuplReqAsstData::SetNavigationData(class TOMASuplNavigationModel const &)
	?SetNavigationModel@TOMASuplNavigationModel@@QAEHHHHH@Z @ 85 NONAME ; int TOMASuplNavigationModel::SetNavigationModel(int, int, int, int)
	?SetPosMethodAndAllowedCapabilities@COMASuplPosSessionBase@@UAEXVTOMASuplAllowedCapabilities@@W4TOMASuplPositioningMethod@1@@Z @ 86 NONAME ; void COMASuplPosSessionBase::SetPosMethodAndAllowedCapabilities(class TOMASuplAllowedCapabilities, enum COMASuplPosSessionBase::TOMASuplPositioningMethod)
	?SetPosPayload@COMASuplPosPayload@@QAEXPAVHBufC8@@W4TOMASuplPosPayloadType@1@@Z @ 87 NONAME ; void COMASuplPosPayload::SetPosPayload(class HBufC8 *, enum COMASuplPosPayload::TOMASuplPosPayloadType)
	?SetPosProtocol@TOMASuplPosProtocol@@QAEXHHH@Z @ 88 NONAME ; void TOMASuplPosProtocol::SetPosProtocol(int, int, int)
	?SetPosTechnology@TOMASuplPosTechnology@@QAEXHHHHHH@Z @ 89 NONAME ; void TOMASuplPosTechnology::SetPosTechnology(int, int, int, int, int, int)
	?SetPosition@COMASuplPosition@@QAEXABVTOMASuplUtcTime@@ABVTOMASuplPositionEstimate@@@Z @ 90 NONAME ; void COMASuplPosition::SetPosition(class TOMASuplUtcTime const &, class TOMASuplPositionEstimate const &)
	?SetPositionEstimate@TOMASuplPositionEstimate@@QAEHW4TOMASuplLatitudeSign@1@HH@Z @ 91 NONAME ; int TOMASuplPositionEstimate::SetPositionEstimate(enum TOMASuplPositionEstimate::TOMASuplLatitudeSign, int, int)
	?SetReqAsstData@COMASuplReqAsstData@@QAEXHHHHHHHH@Z @ 92 NONAME ; void COMASuplReqAsstData::SetReqAsstData(int, int, int, int, int, int, int, int)
	?SetSETCapabilities@COMASuplSETCapabilities@@QAEXABVTOMASuplPosTechnology@@ABW4TOMASuplPrefMethod@1@ABVTOMASuplPosProtocol@@@Z @ 93 NONAME ; void COMASuplSETCapabilities::SetSETCapabilities(class TOMASuplPosTechnology const &, enum COMASuplSETCapabilities::TOMASuplPrefMethod const &, class TOMASuplPosProtocol const &)
	?SetSatInfoElement@TOMASuplNavigationModel@@QAEHABVTOMASuplSatelliteInfoElement@@H@Z @ 94 NONAME ; int TOMASuplNavigationModel::SetSatInfoElement(class TOMASuplSatelliteInfoElement const &, int)
	?SetSatInfoElement@TOMASuplNavigationModel@@QAEXABV?$RArray@VTOMASuplSatelliteInfoElement@@@@@Z @ 95 NONAME ; void TOMASuplNavigationModel::SetSatInfoElement(class RArray<class TOMASuplSatelliteInfoElement> const &)
	?SetSatInfoElement@TOMASuplSatelliteInfoElement@@QAEHHH@Z @ 96 NONAME ; int TOMASuplSatelliteInfoElement::SetSatInfoElement(int, int)
	?SetStatus@COMASuplInfoRequest@@QAEXH@Z @ 97 NONAME ; void COMASuplInfoRequest::SetStatus(int)
	?SetSuplPayloadType@COMASuplPosPayload@@QAEXW4TOMASuplPosPayloadType@1@@Z @ 98 NONAME ; void COMASuplPosPayload::SetSuplPayloadType(enum COMASuplPosPayload::TOMASuplPosPayloadType)
	?SetSuplState@COMASuplPosSessionBase@@QAEXW4TOMASuplMsg@1@W4TOMASuplMsgState@1@@Z @ 99 NONAME ; void COMASuplPosSessionBase::SetSuplState(enum COMASuplPosSessionBase::TOMASuplMsg, enum COMASuplPosSessionBase::TOMASuplMsgState)
	?SetSuplVelocity@COMASuplPosition@@QAEXPAVCOMASuplVelocity@@@Z @ 100 NONAME ; void COMASuplPosition::SetSuplVelocity(class COMASuplVelocity *)
	?SetType@COMASuplInfoRequest@@QAEXW4TOMASuplInfoType@1@@Z @ 101 NONAME ; void COMASuplInfoRequest::SetType(enum COMASuplInfoRequest::TOMASuplInfoType)
	?SetUncertainty@TOMASuplPositionEstimate@@QAEHABVTOMASuplUncertainty@@@Z @ 102 NONAME ; int TOMASuplPositionEstimate::SetUncertainty(class TOMASuplUncertainty const &)
	?SetUncertainty@TOMASuplUncertainty@@QAEHHHH@Z @ 103 NONAME ; int TOMASuplUncertainty::SetUncertainty(int, int, int)
	?SetUtcTime@TOMASuplUtcTime@@QAEHABVTDateTime@@HH@Z @ 104 NONAME ; int TOMASuplUtcTime::SetUtcTime(class TDateTime const &, int, int)
	?SetVelocity@COMASuplVelocity@@QAEXPAVCOMASuplHorizVelocity@@@Z @ 105 NONAME ; void COMASuplVelocity::SetVelocity(class COMASuplHorizVelocity *)
	?Status@COMASuplInfoRequest@@QBEHXZ @ 106 NONAME ; int COMASuplInfoRequest::Status(void) const
	?SuplObserver@COMASuplPosSessionBase@@UAEPAVMOMASuplObserver@@XZ @ 107 NONAME ; class MOMASuplObserver * COMASuplPosSessionBase::SuplObserver(void)
	?SuplPayloadType@COMASuplPosPayload@@QBE?AW4TOMASuplPosPayloadType@1@XZ @ 108 NONAME ; enum COMASuplPosPayload::TOMASuplPosPayloadType COMASuplPosPayload::SuplPayloadType(void) const
	?Type@COMASuplInfoRequest@@QBE?AW4TOMASuplInfoType@1@XZ @ 109 NONAME ; enum COMASuplInfoRequest::TOMASuplInfoType COMASuplInfoRequest::Type(void) const
	?VelType@COMASuplVelocity@@QBE?AW4TOMASuplVelocityType@@XZ @ 110 NONAME ; enum TOMASuplVelocityType COMASuplVelocity::VelType(void) const
	?Velocity@COMASuplVelocity@@QBEPAVCOMASuplHorizVelocity@@XZ @ 111 NONAME ; class COMASuplHorizVelocity * COMASuplVelocity::Velocity(void) const
	?VersionL@COMASuplPosHandlerBase@@QBEHXZ @ 112 NONAME ; int COMASuplPosHandlerBase::VersionL(void) const
	?SetSLPAddressUsed@COMASuplPosSessionBase@@UAEXABVTDesC16@@@Z @ 113 NONAME ; void COMASuplPosSessionBase::SetSLPAddressUsed(class TDesC16 const &)
	?SetSETCapabilities@COMASuplSETCapabilities@@QAEXABVTOMASuplPosTechnology@@ABW4TOMASuplPrefMethod@1@ABVTOMASuplPosProtocol@@ABVTOMASuplPosProtocolVersion@@@Z @ 114 NONAME ; void COMASuplSETCapabilities::SetSETCapabilities(class TOMASuplPosTechnology const &, enum COMASuplSETCapabilities::TOMASuplPrefMethod const &, class TOMASuplPosProtocol const &, class TOMASuplPosProtocolVersion const &)
	?GetPosProtocolVersion@TOMASuplPosProtocolVersion@@QBEHAAE00@Z @ 115 NONAME ; int TOMASuplPosProtocolVersion::GetPosProtocolVersion(unsigned char &, unsigned char &, unsigned char &) const
	?SetPosProtocolVersion@TOMASuplPosProtocolVersion@@QAEHEEE@Z @ 116 NONAME ; int TOMASuplPosProtocolVersion::SetPosProtocolVersion(unsigned char, unsigned char, unsigned char)
	??0TOMASuplPosProtocolVersion@@QAE@XZ @ 117 NONAME ; TOMASuplPosProtocolVersion::TOMASuplPosProtocolVersion(void)
	?GetSETCapabilities@COMASuplSETCapabilities@@QBEXAAVTOMASuplPosTechnology@@AAW4TOMASuplPrefMethod@1@AAVTOMASuplPosProtocol@@AAVTOMASuplPosProtocolVersion@@@Z @ 118 NONAME ; void COMASuplSETCapabilities::GetSETCapabilities(class TOMASuplPosTechnology &, enum COMASuplSETCapabilities::TOMASuplPrefMethod &, class TOMASuplPosProtocol &, class TOMASuplPosProtocolVersion &) const

