EXPORTS
	_ZN11RRemConBulk10SendCancelEv @ 1 NONAME
	_ZN11RRemConBulk12__DbgMarkEndEi @ 2 NONAME
	_ZN11RRemConBulk13ReceiveCancelEv @ 3 NONAME
	_ZN11RRemConBulk13__DbgFailNextEi @ 4 NONAME
	_ZN11RRemConBulk13__DbgMarkHeapEv @ 5 NONAME
	_ZN11RRemConBulk14SendUnreliableE4TUidjRK6TDesC8 @ 6 NONAME
	_ZN11RRemConBulk14__DbgCheckHeapEi @ 7 NONAME
	_ZN11RRemConBulk4SendER14TRequestStatus4TUidjRK6TDesC8 @ 8 NONAME
	_ZN11RRemConBulk7ConnectEv @ 9 NONAME
	_ZN11RRemConBulk7ReceiveER14TRequestStatusR4TUidRjR5TDes8 @ 10 NONAME
	_ZN11RRemConBulkC1Ev @ 11 NONAME
	_ZN11RRemConBulkC2Ev @ 12 NONAME
	_ZN13RRemConTargetC1Ev @ 13 NONAME
	_ZN13RRemConTargetC2Ev @ 14 NONAME
	_ZN17RRemConController13ConnectBearerER14TRequestStatus @ 15 NONAME
	_ZN17RRemConController16DisconnectBearerER14TRequestStatus @ 16 NONAME
	_ZN17RRemConController16GoConnectionlessEv @ 17 NONAME
	_ZN17RRemConController19ConnectBearerCancelEv @ 18 NONAME
	_ZN17RRemConController20GoConnectionOrientedERK14TRemConAddress @ 19 NONAME
	_ZN17RRemConController22DisconnectBearerCancelEv @ 20 NONAME
	_ZN17RRemConControllerC1Ev @ 21 NONAME
	_ZN17RRemConControllerC2Ev @ 22 NONAME
	_ZN7RRemCon10SendCancelEv @ 23 NONAME
	_ZN7RRemCon10SendNotifyER14TRequestStatus4TUidj21TRemConMessageSubTypeRK6TDesC8 @ 24 NONAME
	_ZN7RRemCon12__DbgMarkEndEi @ 25 NONAME
	_ZN7RRemCon13ReceiveCancelEv @ 26 NONAME
	_ZN7RRemCon13__DbgFailNextEi @ 27 NONAME
	_ZN7RRemCon13__DbgMarkHeapEv @ 28 NONAME
	_ZN7RRemCon14GetConnectionsER7TSglQueI14TRemConAddressE @ 29 NONAME
	_ZN7RRemCon14SendUnreliableE4TUidj21TRemConMessageSubTypeRK6TDesC8 @ 30 NONAME
	_ZN7RRemCon14__DbgCheckHeapEi @ 31 NONAME
	_ZN7RRemCon22RegisterInterestedAPIsERK6TDesC8 @ 32 NONAME
	_ZN7RRemCon23NotifyConnectionsChangeER14TRequestStatus @ 33 NONAME
	_ZN7RRemCon29NotifyConnectionsChangeCancelEv @ 34 NONAME
	_ZN7RRemCon4SendER14TRequestStatus4TUidjRj21TRemConMessageSubTypeRK6TDesC8 @ 35 NONAME
	_ZN7RRemCon7ConnectERK11TPlayerTypeRK14TPlayerSubTypeRK6TDesC8 @ 36 NONAME
	_ZN7RRemCon7ConnectEv @ 37 NONAME
	_ZN7RRemCon7ReceiveER14TRequestStatusR27TRemConClientReceivePackageR5TDes8 @ 38 NONAME
	_ZNK11RRemConBulk7VersionEv @ 39 NONAME
