EXPORTS
	_ZN16SsmMapperUtility10FeatureUidERK4TUid @ 1 NONAME
	_ZN16SsmMapperUtility13FeatureStatusERK4TUid @ 2 NONAME
	_ZN16SsmMapperUtility15GetCurrentStateER9TSsmState @ 3 NONAME
	_ZN16SsmMapperUtility18GetCommandListPathER6TDes16 @ 4 NONAME
	_ZN16SsmMapperUtility5CrUidERK4TUid @ 5 NONAME
	_ZN16SsmMapperUtility5PsUidERK4TUid @ 6 NONAME
	_ZN16SsmMapperUtility7CrValueERK4TUidmR6TDes16 @ 7 NONAME
	_ZN16SsmMapperUtility7CrValueERK4TUidmRi @ 8 NONAME
	_ZN16SsmMapperUtility9CheckCapsERK12RMessagePtr2 @ 9 NONAME
	_ZN17CSsmMapperUtility13FeatureStatusERK4TUid @ 10 NONAME
	_ZN17CSsmMapperUtility18GetCommandListPathER6TDes16 @ 11 NONAME
	_ZN17CSsmMapperUtility4NewLEv @ 12 NONAME
	_ZN17CSsmMapperUtility7CrValueERK4TUidmR6TDes16 @ 13 NONAME
	_ZN17CSsmMapperUtility7CrValueERK4TUidmRi @ 14 NONAME
	_ZN17CSsmMapperUtility9CheckCapsERK12RMessagePtr2 @ 15 NONAME
	_ZN17CSsmMapperUtilityC1Ev @ 16 NONAME
	_ZN17CSsmMapperUtilityC2Ev @ 17 NONAME
	_ZN17CSsmMapperUtilityD0Ev @ 18 NONAME
	_ZN17CSsmMapperUtilityD1Ev @ 19 NONAME
	_ZN17CSsmMapperUtilityD2Ev @ 20 NONAME
	_ZTI17CSsmMapperUtility @ 21 NONAME ; #<TI>#
	_ZTV17CSsmMapperUtility @ 22 NONAME ; #<VT>#

