EXPORTS
	??1CRemConAbsVolController@@UAE@XZ @ 1 NONAME ; CRemConAbsVolController::~CRemConAbsVolController(void)
	??1CRemConAbsVolTarget@@UAE@XZ @ 2 NONAME ; CRemConAbsVolTarget::~CRemConAbsVolTarget(void)
	??1CRemConTrackInfoController@@UAE@XZ @ 3 NONAME ; CRemConTrackInfoController::~CRemConTrackInfoController(void)
	??1CRemConTrackInfoTarget@@UAE@XZ @ 4 NONAME ; CRemConTrackInfoTarget::~CRemConTrackInfoTarget(void)
	?GetAbsoluteVolume@CRemConAbsVolController@@QAEXAAVTRequestStatus@@AAI@Z @ 5 NONAME ; void CRemConAbsVolController::GetAbsoluteVolume(class TRequestStatus &, unsigned int &)
	?GetAbsoluteVolumeResponse@CRemConAbsVolTarget@@QAEXAAVTRequestStatus@@IIH@Z @ 6 NONAME ; void CRemConAbsVolTarget::GetAbsoluteVolumeResponse(class TRequestStatus &, unsigned int, unsigned int, int)
	?GetArtistResponse@CRemConTrackInfoTarget@@QAEXAAVTRequestStatus@@ABVTDesC16@@H@Z @ 7 NONAME ; void CRemConTrackInfoTarget::GetArtistResponse(class TRequestStatus &, class TDesC16 const &, int)
	?GetTrackDurationResponse@CRemConTrackInfoTarget@@QAEXAAVTRequestStatus@@ABVTTime@@H@Z @ 8 NONAME ; void CRemConTrackInfoTarget::GetTrackDurationResponse(class TRequestStatus &, class TTime const &, int)
	?GetTrackNameResponse@CRemConTrackInfoTarget@@QAEXAAVTRequestStatus@@ABVTDesC16@@H@Z @ 9 NONAME ; void CRemConTrackInfoTarget::GetTrackNameResponse(class TRequestStatus &, class TDesC16 const &, int)
	?MrcavcoGetAbsoluteVolumeResponse@MRemConAbsVolControllerObserver@@UAEXIIH@Z @ 10 NONAME ; void MRemConAbsVolControllerObserver::MrcavcoGetAbsoluteVolumeResponse(unsigned int, unsigned int, int)
	?MrcavcoSetAbsoluteVolumeResponse@MRemConAbsVolControllerObserver@@UAEXH@Z @ 11 NONAME ; void MRemConAbsVolControllerObserver::MrcavcoSetAbsoluteVolumeResponse(int)
	?MrcavtoGetAbsoluteVolume@MRemConAbsVolTargetObserver@@UAEXXZ @ 12 NONAME ; void MRemConAbsVolTargetObserver::MrcavtoGetAbsoluteVolume(void)
	?MrcavtoSetAbsoluteVolume@MRemConAbsVolTargetObserver@@UAEXII@Z @ 13 NONAME ; void MRemConAbsVolTargetObserver::MrcavtoSetAbsoluteVolume(unsigned int, unsigned int)
	?MrcticoSetTrackNameResponse@MRemConTrackInfoControllerObserver@@UAEXH@Z @ 14 NONAME ; void MRemConTrackInfoControllerObserver::MrcticoSetTrackNameResponse(int)
	?MrctitoGetArtist@MRemConTrackInfoTargetObserver@@UAEXXZ @ 15 NONAME ; void MRemConTrackInfoTargetObserver::MrctitoGetArtist(void)
	?MrctitoGetTrackDuration@MRemConTrackInfoTargetObserver@@UAEXXZ @ 16 NONAME ; void MRemConTrackInfoTargetObserver::MrctitoGetTrackDuration(void)
	?MrctitoGetTrackName@MRemConTrackInfoTargetObserver@@UAEXXZ @ 17 NONAME ; void MRemConTrackInfoTargetObserver::MrctitoGetTrackName(void)
	?NewL@CRemConAbsVolController@@SAPAV1@AAVCRemConInterfaceSelector@@AAVMRemConAbsVolControllerObserver@@@Z @ 18 NONAME ; class CRemConAbsVolController * CRemConAbsVolController::NewL(class CRemConInterfaceSelector &, class MRemConAbsVolControllerObserver &)
	?NewL@CRemConAbsVolTarget@@SAPAV1@AAVCRemConInterfaceSelector@@AAVMRemConAbsVolTargetObserver@@@Z @ 19 NONAME ; class CRemConAbsVolTarget * CRemConAbsVolTarget::NewL(class CRemConInterfaceSelector &, class MRemConAbsVolTargetObserver &)
	?NewL@CRemConTrackInfoController@@SAPAV1@AAVCRemConInterfaceSelector@@AAVMRemConTrackInfoControllerObserver@@@Z @ 20 NONAME ; class CRemConTrackInfoController * CRemConTrackInfoController::NewL(class CRemConInterfaceSelector &, class MRemConTrackInfoControllerObserver &)
	?NewL@CRemConTrackInfoTarget@@SAPAV1@AAVCRemConInterfaceSelector@@AAVMRemConTrackInfoTargetObserver@@@Z @ 21 NONAME ; class CRemConTrackInfoTarget * CRemConTrackInfoTarget::NewL(class CRemConInterfaceSelector &, class MRemConTrackInfoTargetObserver &)
	?SetAbsoluteVolume@CRemConAbsVolController@@QAEXAAVTRequestStatus@@IIAAI@Z @ 22 NONAME ; void CRemConAbsVolController::SetAbsoluteVolume(class TRequestStatus &, unsigned int, unsigned int, unsigned int &)
	?SetAbsoluteVolumeResponse@CRemConAbsVolTarget@@QAEXAAVTRequestStatus@@H@Z @ 23 NONAME ; void CRemConAbsVolTarget::SetAbsoluteVolumeResponse(class TRequestStatus &, int)
	?SetTrackName@CRemConTrackInfoController@@QAEXAAVTRequestStatus@@ABVTDesC16@@AAI@Z @ 24 NONAME ; void CRemConTrackInfoController::SetTrackName(class TRequestStatus &, class TDesC16 const &, unsigned int &)

