EXPORTS
	??0TPanDeviceRolesList@PanHelper@@QAE@XZ @ 1 NONAME ; PanHelper::TPanDeviceRolesList::TPanDeviceRolesList(void)
	??0TPanDeviceWorthTryingRolesList@PanHelper@@QAE@XZ @ 2 NONAME ; PanHelper::TPanDeviceWorthTryingRolesList::TPanDeviceWorthTryingRolesList(void)
	?CancelFindDevice@RPanRemoteDeviceDiscoverer@PanHelper@@QAEXXZ @ 3 NONAME ; void PanHelper::RPanRemoteDeviceDiscoverer::CancelFindDevice(void)
	?CancelQuery@RPanRemoteSdpQuerier@PanHelper@@QAEXXZ @ 4 NONAME ; void PanHelper::RPanRemoteSdpQuerier::CancelQuery(void)
	?Close@RPanRemoteDeviceDiscoverer@PanHelper@@QAEXXZ @ 5 NONAME ; void PanHelper::RPanRemoteDeviceDiscoverer::Close(void)
	?Close@RPanRemoteSdpQuerier@PanHelper@@QAEXXZ @ 6 NONAME ; void PanHelper::RPanRemoteSdpQuerier::Close(void)
	?FindDevice@RPanRemoteDeviceDiscoverer@PanHelper@@QAEXAAVTDesC16@@AAVTDes8@@AAVTRequestStatus@@@Z @ 7 NONAME ; void PanHelper::RPanRemoteDeviceDiscoverer::FindDevice(class TDesC16 &, class TDes8 &, class TRequestStatus &)
	?IsSupported@TPanDeviceRolesList@PanHelper@@QBEHW4TBluetoothPanRole@@@Z @ 8 NONAME ; int PanHelper::TPanDeviceRolesList::IsSupported(enum TBluetoothPanRole) const
	?IsWorthTryingARole@TPanDeviceWorthTryingRolesList@PanHelper@@QBEHW4TBluetoothPanRole@@@Z @ 9 NONAME ; int PanHelper::TPanDeviceWorthTryingRolesList::IsWorthTryingARole(enum TBluetoothPanRole) const
	?IsWorthTryingGn@TPanDeviceWorthTryingRolesList@PanHelper@@QBEHXZ @ 10 NONAME ; int PanHelper::TPanDeviceWorthTryingRolesList::IsWorthTryingGn(void) const
	?IsWorthTryingNap@TPanDeviceWorthTryingRolesList@PanHelper@@QBEHXZ @ 11 NONAME ; int PanHelper::TPanDeviceWorthTryingRolesList::IsWorthTryingNap(void) const
	?IsWorthTryingU@TPanDeviceWorthTryingRolesList@PanHelper@@QBEHXZ @ 12 NONAME ; int PanHelper::TPanDeviceWorthTryingRolesList::IsWorthTryingU(void) const
	?Open@RPanRemoteDeviceDiscoverer@PanHelper@@QAEHXZ @ 13 NONAME ; int PanHelper::RPanRemoteDeviceDiscoverer::Open(void)
	?Open@RPanRemoteSdpQuerier@PanHelper@@QAEHXZ @ 14 NONAME ; int PanHelper::RPanRemoteSdpQuerier::Open(void)
	?Query@RPanRemoteSdpQuerier@PanHelper@@QAEHABVTBTDevAddr@@AAVTDes8@@AAVTRequestStatus@@@Z @ 15 NONAME ; int PanHelper::RPanRemoteSdpQuerier::Query(class TBTDevAddr const &, class TDes8 &, class TRequestStatus &)
	?ResetWorthTryingRoles@TPanDeviceWorthTryingRolesList@PanHelper@@QAEXXZ @ 16 NONAME ; void PanHelper::TPanDeviceWorthTryingRolesList::ResetWorthTryingRoles(void)
	?SetSupportsGn@TPanDeviceRolesList@PanHelper@@QAEXH@Z @ 17 NONAME ; void PanHelper::TPanDeviceRolesList::SetSupportsGn(int)
	?SetSupportsGn@TPanDeviceRolesList@PanHelper@@QAEXXZ @ 18 NONAME ; void PanHelper::TPanDeviceRolesList::SetSupportsGn(void)
	?SetSupportsNap@TPanDeviceRolesList@PanHelper@@QAEXH@Z @ 19 NONAME ; void PanHelper::TPanDeviceRolesList::SetSupportsNap(int)
	?SetSupportsNap@TPanDeviceRolesList@PanHelper@@QAEXXZ @ 20 NONAME ; void PanHelper::TPanDeviceRolesList::SetSupportsNap(void)
	?SetSupportsU@TPanDeviceRolesList@PanHelper@@QAEXH@Z @ 21 NONAME ; void PanHelper::TPanDeviceRolesList::SetSupportsU(int)
	?SetSupportsU@TPanDeviceRolesList@PanHelper@@QAEXXZ @ 22 NONAME ; void PanHelper::TPanDeviceRolesList::SetSupportsU(void)
	?SetWorthTrying@TPanDeviceWorthTryingRolesList@PanHelper@@QAEXW4TBluetoothPanRole@@H@Z @ 23 NONAME ; void PanHelper::TPanDeviceWorthTryingRolesList::SetWorthTrying(enum TBluetoothPanRole, int)
	?SetWorthTryingGn@TPanDeviceWorthTryingRolesList@PanHelper@@QAEXH@Z @ 24 NONAME ; void PanHelper::TPanDeviceWorthTryingRolesList::SetWorthTryingGn(int)
	?SetWorthTryingGn@TPanDeviceWorthTryingRolesList@PanHelper@@QAEXXZ @ 25 NONAME ; void PanHelper::TPanDeviceWorthTryingRolesList::SetWorthTryingGn(void)
	?SetWorthTryingNap@TPanDeviceWorthTryingRolesList@PanHelper@@QAEXH@Z @ 26 NONAME ; void PanHelper::TPanDeviceWorthTryingRolesList::SetWorthTryingNap(int)
	?SetWorthTryingNap@TPanDeviceWorthTryingRolesList@PanHelper@@QAEXXZ @ 27 NONAME ; void PanHelper::TPanDeviceWorthTryingRolesList::SetWorthTryingNap(void)
	?SetWorthTryingU@TPanDeviceWorthTryingRolesList@PanHelper@@QAEXH@Z @ 28 NONAME ; void PanHelper::TPanDeviceWorthTryingRolesList::SetWorthTryingU(int)
	?SetWorthTryingU@TPanDeviceWorthTryingRolesList@PanHelper@@QAEXXZ @ 29 NONAME ; void PanHelper::TPanDeviceWorthTryingRolesList::SetWorthTryingU(void)
	?SupportsGn@TPanDeviceRolesList@PanHelper@@QBEHXZ @ 30 NONAME ; int PanHelper::TPanDeviceRolesList::SupportsGn(void) const
	?SupportsNap@TPanDeviceRolesList@PanHelper@@QBEHXZ @ 31 NONAME ; int PanHelper::TPanDeviceRolesList::SupportsNap(void) const
	?SupportsU@TPanDeviceRolesList@PanHelper@@QBEHXZ @ 32 NONAME ; int PanHelper::TPanDeviceRolesList::SupportsU(void) const

