EXPORTS
	_ZN20RLbsTransmitPosition10ConstructLER26RLbsTransmitPositionServer @ 1 NONAME
	_ZN20RLbsTransmitPosition16TransmitPositionERK7TDesC16jR14TRequestStatusR13TPositionInfo @ 2 NONAME
	_ZN20RLbsTransmitPosition17ExtendedInterfaceEiPvS0_ @ 3 NONAME
	_ZN20RLbsTransmitPosition18SetTransmitOptionsERK27TLbsTransmitPositionOptions @ 4 NONAME
	_ZN20RLbsTransmitPosition22CancelTransmitPositionEv @ 5 NONAME
	_ZN20RLbsTransmitPosition4OpenER26RLbsTransmitPositionServer @ 6 NONAME
	_ZN20RLbsTransmitPosition5CloseEv @ 7 NONAME
	_ZN20RLbsTransmitPosition8DestructEv @ 8 NONAME
	_ZN20RLbsTransmitPositionC1Ev @ 9 NONAME
	_ZN20RLbsTransmitPositionC2Ev @ 10 NONAME
	_ZN26RLbsTransmitPositionServer17ExtendedInterfaceEiPvS0_ @ 11 NONAME
	_ZN26RLbsTransmitPositionServer5CloseEv @ 12 NONAME
	_ZN26RLbsTransmitPositionServer7ConnectEv @ 13 NONAME
	_ZN26RLbsTransmitPositionServerC1Ev @ 14 NONAME
	_ZN26RLbsTransmitPositionServerC2Ev @ 15 NONAME
	_ZN27TLbsTransmitPositionOptions10SetTimeOutERK25TTimeIntervalMicroSeconds @ 16 NONAME
	_ZN27TLbsTransmitPositionOptionsC1ERK25TTimeIntervalMicroSeconds @ 17 NONAME
	_ZN27TLbsTransmitPositionOptionsC1Ev @ 18 NONAME
	_ZN27TLbsTransmitPositionOptionsC2ERK25TTimeIntervalMicroSeconds @ 19 NONAME
	_ZN27TLbsTransmitPositionOptionsC2Ev @ 20 NONAME
	_ZNK20RLbsTransmitPosition18GetTransmitOptionsER27TLbsTransmitPositionOptions @ 21 NONAME
	_ZNK26RLbsTransmitPositionServer7VersionEv @ 22 NONAME
	_ZNK27TLbsTransmitPositionOptions7TimeOutEv @ 23 NONAME
	_ZN20RLbsTransmitPosition16TransmitPositionERK7TDesC16jR14TRequestStatusR13TPositionInfoS4_S6_ @ 24 NONAME
	_ZN26RLbsTransmitPositionServer10ConstructLEv @ 25 NONAME
	_ZN26RLbsTransmitPositionServer8DestructEv @ 26 NONAME

