EXPORTS
	_ZN8CDscItem11SetTimeoutLEi @ 1 NONAME
	_ZN8CDscItem11SetViewlessEi @ 2 NONAME
	_ZN8CDscItem12SetMonitoredEi @ 3 NONAME
	_ZN8CDscItem14SetFileParamsLERK7TDesC16S2_ @ 4 NONAME
	_ZN8CDscItem14SetStartupTypeE12TStartupType @ 5 NONAME
	_ZN8CDscItem15SetNoOfRetriesLEi @ 6 NONAME
	_ZN8CDscItem15SetStartMethodLE12TStartMethod @ 7 NONAME
	_ZN8CDscItem20SetStartInBackgroundEi @ 8 NONAME
	_ZN8CDscItem4NewLEv @ 9 NONAME
	_ZN8CDscItem8SetDscIdERK4TUid @ 10 NONAME
	_ZN8CDscItem9SetItemIdEi @ 11 NONAME
	_ZN8CDscItemD0Ev @ 12 NONAME
	_ZN8CDscItemD1Ev @ 13 NONAME
	_ZN8CDscItemD2Ev @ 14 NONAME
	_ZN9RDscStore10CreateDscLERK4TUidRK7TDesC16 @ 15 NONAME
	_ZN9RDscStore10CreateDscLEv @ 16 NONAME
	_ZN9RDscStore10DeleteDscLERK4TUid @ 17 NONAME
	_ZN9RDscStore10EnumOpenLCERK4TUid @ 18 NONAME
	_ZN9RDscStore10EnumOpenLCEv @ 19 NONAME
	_ZN9RDscStore11DeleteItemLERK8CDscItem @ 20 NONAME
	_ZN9RDscStore11UpdateItemLERK8CDscItem @ 21 NONAME
	_ZN9RDscStore13EnumReadNextLEv @ 22 NONAME
	_ZN9RDscStore5CloseEv @ 23 NONAME
	_ZN9RDscStore5OpenLEv @ 24 NONAME
	_ZN9RDscStore8AddItemLER8CDscItem @ 25 NONAME
	_ZN9RDscStore8AddItemLER8CDscItem12TDscPosition @ 26 NONAME
	_ZN9RDscStore9EnumCloseEv @ 27 NONAME
	_ZN9RDscStore9ReadItemLER8CDscItem @ 28 NONAME
	_ZN9RDscStoreC1Ev @ 29 NONAME
	_ZN9RDscStoreC2Ev @ 30 NONAME
	_ZNK8CDscItem11NoOfRetriesEv @ 31 NONAME
	_ZNK8CDscItem11StartMethodEv @ 32 NONAME
	_ZNK8CDscItem11StartupTypeEv @ 33 NONAME
	_ZNK8CDscItem17StartInBackgroundEv @ 34 NONAME
	_ZNK8CDscItem17StartupPropertiesEv @ 35 NONAME
	_ZNK8CDscItem4ArgsEv @ 36 NONAME
	_ZNK8CDscItem5DscIdEv @ 37 NONAME
	_ZNK8CDscItem6ItemIdEv @ 38 NONAME
	_ZNK8CDscItem7TimeoutEv @ 39 NONAME
	_ZNK8CDscItem8FileNameEv @ 40 NONAME
	_ZNK8CDscItem8ViewlessEv @ 41 NONAME
	_ZNK8CDscItem9MonitoredEv @ 42 NONAME
	_ZNK9RDscStore10DscExistsLERK4TUid @ 43 NONAME
	_ZNK9RDscStore10DscExistsLEv @ 44 NONAME
	_ZNK9RDscStore11ItemExistsLERK8CDscItem @ 45 NONAME
	_ZNK9RDscStore18GetDscDescriptionLERK4TUidR6TDes16 @ 46 NONAME
	_ZNK9RDscStore8IsOpenedEv @ 47 NONAME
	_ZTI12CDscDatabase @ 48 NONAME
	_ZTV12CDscDatabase @ 49 NONAME
	_ZNK9RDscStore18GetMaxStringLengthERi @ 50 NONAME
	_ZN8CDscItem4NewLERK7TDesC16S2_ @ 51 NONAME
	_ZN8CDscItem5NewLCERK7TDesC16S2_ @ 52 NONAME
	_ZN8CDscItem5NewLCEv @ 53 NONAME
	_ZN8CDscItem5ResetEv @ 54 NONAME

