EXPORTS
	_ZN18CStartupProperties10SetTimeoutEi @ 1 NONAME
	_ZN18CStartupProperties11SetViewlessEi @ 2 NONAME
	_ZN18CStartupProperties12InternalizeLERK6TPtrC8 @ 3 NONAME
	_ZN18CStartupProperties12SetMonitoredEi @ 4 NONAME
	_ZN18CStartupProperties14SetFileParamsLERK7TDesC16S2_ @ 5 NONAME
	_ZN18CStartupProperties14SetNoOfRetriesEi @ 6 NONAME
	_ZN18CStartupProperties14SetStartMethodE12TStartMethod @ 7 NONAME
	_ZN18CStartupProperties14SetStartupTypeE12TStartupType @ 8 NONAME
	_ZN18CStartupProperties17SetRecoveryParamsE15TRecoveryMethodi @ 9 NONAME
	_ZN18CStartupProperties20SetStartInBackgroundEi @ 10 NONAME
	_ZN18CStartupProperties4NewLER15TResourceReader @ 11 NONAME
	_ZN18CStartupProperties4NewLERK7TDesC16S2_ @ 12 NONAME
	_ZN18CStartupProperties4NewLEv @ 13 NONAME
	_ZN18CStartupProperties5NewLCER15TResourceReader @ 14 NONAME
	_ZN18CStartupProperties5NewLCERK7TDesC16S2_ @ 15 NONAME
	_ZN18CStartupProperties5NewLCEv @ 16 NONAME
	_ZN18CStartupPropertiesD0Ev @ 17 NONAME
	_ZN18CStartupPropertiesD1Ev @ 18 NONAME
	_ZN18CStartupPropertiesD2Ev @ 19 NONAME
	_ZNK18CStartupProperties11NoOfRetriesEv @ 20 NONAME
	_ZNK18CStartupProperties11RestartModeEv @ 21 NONAME
	_ZNK18CStartupProperties11StartMethodEv @ 22 NONAME
	_ZNK18CStartupProperties11StartupTypeEv @ 23 NONAME
	_ZNK18CStartupProperties12ExternalizeLER8CBufBase @ 24 NONAME
	_ZNK18CStartupProperties14RecoveryMethodEv @ 25 NONAME
	_ZNK18CStartupProperties17StartInBackgroundEv @ 26 NONAME
	_ZNK18CStartupProperties4ArgsEv @ 27 NONAME
	_ZNK18CStartupProperties4SizeEv @ 28 NONAME
	_ZNK18CStartupProperties7TimeoutEv @ 29 NONAME
	_ZNK18CStartupProperties7VersionEv @ 30 NONAME
	_ZNK18CStartupProperties8FileNameEv @ 31 NONAME
	_ZNK18CStartupProperties8ViewlessEv @ 32 NONAME
	_ZNK18CStartupProperties9MonitoredEv @ 33 NONAME
	_ZNK18CStartupProperties22ActionOnCommandFailureEv @ 34 NONAME
	_ZN18CStartupProperties25SetActionOnCommandFailureE23TActionOnCommandFailure @ 35 NONAME
	_ZN18CStartupProperties5ResetEv @ 36 NONAME

