EXPORTS
	?ApplyL@CTempEnvironmentalReverb@@UAEXXZ @ 1 NONAME ; void CTempEnvironmentalReverb::ApplyL(void)
	?ApplyPresetL@CEnvironmentalReverbUtility@@QAEXH@Z @ 2 NONAME ; void CEnvironmentalReverbUtility::ApplyPresetL(int)
	?CreatePresetL@CEnvironmentalReverbUtility@@QAEXAAVTDesC16@@AAVCEnvironmentalReverb@@@Z @ 3 NONAME ; void CEnvironmentalReverbUtility::CreatePresetL(class TDesC16 &, class CEnvironmentalReverb &)
	?DeletePresetL@CEnvironmentalReverbUtility@@QAEXH@Z @ 4 NONAME ; void CEnvironmentalReverbUtility::DeletePresetL(int)
	?DisableEnvironmentalReverbL@CEnvironmentalReverbUtility@@QAEXXZ @ 5 NONAME ; void CEnvironmentalReverbUtility::DisableEnvironmentalReverbL(void)
	?EnvironmentalReverb@CEnvironmentalReverbUtility@@QAEAAVCEnvironmentalReverb@@XZ @ 6 NONAME ; class CEnvironmentalReverb & CEnvironmentalReverbUtility::EnvironmentalReverb(void)
	?GetPresetL@CEnvironmentalReverbUtility@@QAEABVTDesC16@@H@Z @ 7 NONAME ; class TDesC16 const & CEnvironmentalReverbUtility::GetPresetL(int)
	?ModifyPresetL@CEnvironmentalReverbUtility@@QAEXHAAVTDesC16@@AAVCEnvironmentalReverb@@@Z @ 8 NONAME ; void CEnvironmentalReverbUtility::ModifyPresetL(int, class TDesC16 &, class CEnvironmentalReverb &)
	?NewL@CEnvironmentalReverbUtility@@SAPAV1@AAVCMMFDevSound@@@Z @ 9 NONAME ; class CEnvironmentalReverbUtility * CEnvironmentalReverbUtility::NewL(class CMMFDevSound &)
	?NewL@CEnvironmentalReverbUtility@@SAPAV1@AAVCMdaAudioConvertUtility@@@Z @ 10 NONAME ; class CEnvironmentalReverbUtility * CEnvironmentalReverbUtility::NewL(class CMdaAudioConvertUtility &)
	?NewL@CEnvironmentalReverbUtility@@SAPAV1@AAVCMdaAudioInputStream@@@Z @ 11 NONAME ; class CEnvironmentalReverbUtility * CEnvironmentalReverbUtility::NewL(class CMdaAudioInputStream &)
	?NewL@CEnvironmentalReverbUtility@@SAPAV1@AAVCMdaAudioOutputStream@@@Z @ 12 NONAME ; class CEnvironmentalReverbUtility * CEnvironmentalReverbUtility::NewL(class CMdaAudioOutputStream &)
	?NewL@CEnvironmentalReverbUtility@@SAPAV1@AAVCMdaAudioPlayerUtility@@@Z @ 13 NONAME ; class CEnvironmentalReverbUtility * CEnvironmentalReverbUtility::NewL(class CMdaAudioPlayerUtility &)
	?NewL@CEnvironmentalReverbUtility@@SAPAV1@AAVCMdaAudioRecorderUtility@@@Z @ 14 NONAME ; class CEnvironmentalReverbUtility * CEnvironmentalReverbUtility::NewL(class CMdaAudioRecorderUtility &)
	?NewL@CEnvironmentalReverbUtility@@SAPAV1@AAVCMdaAudioToneUtility@@@Z @ 15 NONAME ; class CEnvironmentalReverbUtility * CEnvironmentalReverbUtility::NewL(class CMdaAudioToneUtility &)
	?NewL@CEnvironmentalReverbUtility@@SAPAV1@AAVMCustomInterface@@@Z @ 16 NONAME ; class CEnvironmentalReverbUtility * CEnvironmentalReverbUtility::NewL(class MCustomInterface &)
	?NewL@CEnvironmentalReverbUtility@@SAPAV1@PAVCCustomCommandUtility@@@Z @ 17 NONAME ; class CEnvironmentalReverbUtility * CEnvironmentalReverbUtility::NewL(class CCustomCommandUtility *)
	?NewL@CTempEnvironmentalReverb@@SAPAV1@PAVCEnvironmentalReverb@@@Z @ 18 NONAME ; class CTempEnvironmentalReverb * CTempEnvironmentalReverb::NewL(class CEnvironmentalReverb *)
	?NumberOfPreDefinedPresets@CEnvironmentalReverbUtility@@QBEKXZ @ 19 NONAME ; unsigned long CEnvironmentalReverbUtility::NumberOfPreDefinedPresets(void) const
	?Presets@CEnvironmentalReverbUtility@@QAE?AV?$TArray@VTEfEnvironmentalReverbUtilityPreset@@@@XZ @ 20 NONAME ; class TArray<class TEfEnvironmentalReverbUtilityPreset> CEnvironmentalReverbUtility::Presets(void)
	?ResetPresetL@CEnvironmentalReverbUtility@@QAEXH@Z @ 21 NONAME ; void CEnvironmentalReverbUtility::ResetPresetL(int)
	?NewL@CEnvironmentalReverbUtility@@SAPAV1@AAVCMidiClientUtility@@@Z @ 22 NONAME ; class CEnvironmentalReverbUtility * CEnvironmentalReverbUtility::NewL(class CMidiClientUtility &)
	?DisableL@CTempEnvironmentalReverb@@UAEXXZ @ 23 NONAME ; void CTempEnvironmentalReverb::DisableL(void)
	?EnableL@CTempEnvironmentalReverb@@UAEXXZ @ 24 NONAME ; void CTempEnvironmentalReverb::EnableL(void)
	?IsEnabled@CTempEnvironmentalReverb@@UBEHXZ @ 25 NONAME ; int CTempEnvironmentalReverb::IsEnabled(void) const
	?IsEnforced@CTempEnvironmentalReverb@@UBEHXZ @ 26 NONAME ; int CTempEnvironmentalReverb::IsEnforced(void) const
	?EnforceL@CTempEnvironmentalReverb@@UAEXH@Z @ 27 NONAME ; void CTempEnvironmentalReverb::EnforceL(int)
	?HaveUpdateRights@CTempEnvironmentalReverb@@UBEHXZ @ 28 NONAME ; int CTempEnvironmentalReverb::HaveUpdateRights(void) const
	?NewL@CEnvironmentalReverbUtility@@SAPAV1@AAVCDrmPlayerUtility@@@Z @ 29 NONAME ; class CEnvironmentalReverbUtility * CEnvironmentalReverbUtility::NewL(class CDrmPlayerUtility &)
	?NewL@CEnvironmentalReverbUtility@@SAPAV1@AAVCVideoPlayerUtility@@@Z @ 30 NONAME ; class CEnvironmentalReverbUtility * CEnvironmentalReverbUtility::NewL(class CVideoPlayerUtility &)

