EXPORTS
	??0CWindowGc@@QAE@PAVCWsScreenDevice@@@Z @ 1 NONAME ; public: __thiscall CWindowGc::CWindowGc(class CWsScreenDevice *)
	??0CWsBitmap@@QAE@AAVRWsSession@@@Z @ 2 NONAME ; public: __thiscall CWsBitmap::CWsBitmap(class RWsSession &)
	??0CWsBitmap@@QAE@XZ @ 3 NONAME ; public: __thiscall CWsBitmap::CWsBitmap(void)
	??0CWsScreenDevice@@QAE@AAVRWsSession@@@Z @ 4 NONAME ; public: __thiscall CWsScreenDevice::CWsScreenDevice(class RWsSession &)
	??0CWsScreenDevice@@QAE@XZ @ 5 NONAME ; public: __thiscall CWsScreenDevice::CWsScreenDevice(void)
	??0RAnim@@IAE@AAVRAnimDll@@@Z @ 6 NONAME ; protected: __thiscall RAnim::RAnim(class RAnimDll &)
	??0RAnim@@IAE@XZ @ 7 NONAME ; protected: __thiscall RAnim::RAnim(void)
	??0RAnimDll@@QAE@AAVRWsSession@@@Z @ 8 NONAME ; public: __thiscall RAnimDll::RAnimDll(class RWsSession &)
	??0RAnimDll@@QAE@XZ @ 9 NONAME ; public: __thiscall RAnimDll::RAnimDll(void)
	??0RBackedUpWindow@@QAE@AAVRWsSession@@@Z @ 10 NONAME ; public: __thiscall RBackedUpWindow::RBackedUpWindow(class RWsSession &)
	??0RBackedUpWindow@@QAE@XZ @ 11 NONAME ; public: __thiscall RBackedUpWindow::RBackedUpWindow(void)
	??0RBlankWindow@@QAE@AAVRWsSession@@@Z @ 12 NONAME ; public: __thiscall RBlankWindow::RBlankWindow(class RWsSession &)
	??0RBlankWindow@@QAE@XZ @ 13 NONAME ; public: __thiscall RBlankWindow::RBlankWindow(void)
	??0RWindow@@QAE@AAVRWsSession@@@Z @ 14 NONAME ; public: __thiscall RWindow::RWindow(class RWsSession &)
	??0RWindow@@QAE@XZ @ 15 NONAME ; public: __thiscall RWindow::RWindow(void)
	??0RWindowGroup@@QAE@AAVRWsSession@@@Z @ 16 NONAME ; public: __thiscall RWindowGroup::RWindowGroup(class RWsSession &)
	??0RWindowGroup@@QAE@XZ @ 17 NONAME ; public: __thiscall RWindowGroup::RWindowGroup(void)
	??0RWsPointerCursor@@QAE@AAVRWsSession@@@Z @ 18 NONAME ; public: __thiscall RWsPointerCursor::RWsPointerCursor(class RWsSession &)
	??0RWsPointerCursor@@QAE@XZ @ 19 NONAME ; public: __thiscall RWsPointerCursor::RWsPointerCursor(void)
	??0RWsSession@@QAE@XZ @ 20 NONAME ; public: __thiscall RWsSession::RWsSession(void)
	??0RWsSprite@@QAE@AAVRWsSession@@@Z @ 21 NONAME ; public: __thiscall RWsSprite::RWsSprite(class RWsSession &)
	??0RWsSprite@@QAE@XZ @ 22 NONAME ; public: __thiscall RWsSprite::RWsSprite(void)
	??0RWsSpriteBase@@IAE@AAVRWsSession@@@Z @ 23 NONAME ; protected: __thiscall RWsSpriteBase::RWsSpriteBase(class RWsSession &)
	??0RWsSpriteBase@@IAE@XZ @ 24 NONAME ; protected: __thiscall RWsSpriteBase::RWsSpriteBase(void)
	??1CWindowGc@@UAE@XZ @ 25 NONAME ; public: virtual __thiscall CWindowGc::~CWindowGc(void)
	??1CWsBitmap@@UAE@XZ @ 26 NONAME ; public: virtual __thiscall CWsBitmap::~CWsBitmap(void)
	??1CWsScreenDevice@@UAE@XZ @ 27 NONAME ; public: virtual __thiscall CWsScreenDevice::~CWsScreenDevice(void)
	??1RAnim@@UAE@XZ @ 28 NONAME ; public: virtual __thiscall RAnim::~RAnim(void)
	??1RAnimDll@@UAE@XZ @ 29 NONAME ; public: virtual __thiscall RAnimDll::~RAnimDll(void)
	?Activate@CWindowGc@@UAEXAAVRDrawableWindow@@@Z @ 30 NONAME ; public: virtual void __thiscall CWindowGc::Activate(class RDrawableWindow &)
	?Activate@RWindowBase@@QAEXXZ @ 31 NONAME ; public: void __thiscall RWindowBase::Activate(void)
	?Activate@RWsSpriteBase@@QAEHXZ @ 32 NONAME ; public: int __thiscall RWsSpriteBase::Activate(void)
	?AddFile@CWsScreenDevice@@UAEHABVTDesC16@@AAH@Z @ 33 NONAME ; public: virtual int __thiscall CWsScreenDevice::AddFile(class TDesC16 const &,int &)
	?AddKeyRect@RWindowBase@@QAEHABVTRect@@HH@Z @ 34 NONAME ; public: int __thiscall RWindowBase::AddKeyRect(class TRect const &,int,int)
	?AddPriorityKey@RWindowGroup@@QAEHIII@Z @ 35 NONAME ; public: int __thiscall RWindowGroup::AddPriorityKey(unsigned int,unsigned int,unsigned int)
	?AllocPointerMoveBuffer@RWindowBase@@QAEHHI@Z @ 36 NONAME ; public: int __thiscall RWindowBase::AllocPointerMoveBuffer(int,unsigned int)
	?AppendMember@RWsSpriteBase@@QAEHABUTSpriteMember@@@Z @ 37 NONAME ; public: int __thiscall RWsSpriteBase::AppendMember(struct TSpriteMember const &)
	?AutoForeground@RWindowGroup@@QAEXH@Z @ 38 NONAME ; public: void __thiscall RWindowGroup::AutoForeground(int)
	?BeginRedraw@RWindow@@QAEXABVTRect@@@Z @ 39 NONAME ; public: void __thiscall RWindow::BeginRedraw(class TRect const &)
	?BeginRedraw@RWindow@@QAEXXZ @ 40 NONAME ; public: void __thiscall RWindow::BeginRedraw(void)
	?BitBlt@CWindowGc@@UAEXABVTPoint@@PBVCFbsBitmap@@@Z @ 41 NONAME ; public: virtual void __thiscall CWindowGc::BitBlt(class TPoint const &,class CFbsBitmap const *)
	?BitBlt@CWindowGc@@UAEXABVTPoint@@PBVCFbsBitmap@@ABVTRect@@@Z @ 42 NONAME ; public: virtual void __thiscall CWindowGc::BitBlt(class TPoint const &,class CFbsBitmap const *,class TRect const &)
	?BitBlt@CWindowGc@@UAEXABVTPoint@@PBVCWsBitmap@@@Z @ 43 NONAME ; public: virtual void __thiscall CWindowGc::BitBlt(class TPoint const &,class CWsBitmap const *)
	?BitBlt@CWindowGc@@UAEXABVTPoint@@PBVCWsBitmap@@ABVTRect@@@Z @ 44 NONAME ; public: virtual void __thiscall CWindowGc::BitBlt(class TPoint const &,class CWsBitmap const *,class TRect const &)
	?BitBltMasked@CWindowGc@@UAEXABVTPoint@@PBVCFbsBitmap@@ABVTRect@@1H@Z @ 45 NONAME ; public: virtual void __thiscall CWindowGc::BitBltMasked(class TPoint const &,class CFbsBitmap const *,class TRect const &,class CFbsBitmap const *,int)
	?BitBltMasked@CWindowGc@@UAEXABVTPoint@@PBVCWsBitmap@@ABVTRect@@1H@Z @ 46 NONAME ; public: virtual void __thiscall CWindowGc::BitBltMasked(class TPoint const &,class CWsBitmap const *,class TRect const &,class CWsBitmap const *,int)
	?BitmapHandle@RBackedUpWindow@@QBEHXZ @ 47 NONAME ; int RBackedUpWindow::BitmapHandle(void) const
	?CancelCaptureKey@RWindowGroup@@QAEXJ@Z @ 48 NONAME ; public: void __thiscall RWindowGroup::CancelCaptureKey(long)
	?CancelCaptureKeyUpAndDowns@RWindowGroup@@QAEXJ@Z @ 49 NONAME ; public: void __thiscall RWindowGroup::CancelCaptureKeyUpAndDowns(long)
	?CancelClippingRect@CWindowGc@@UAEXXZ @ 50 NONAME ; public: virtual void __thiscall CWindowGc::CancelClippingRect(void)
	?CancelClippingRegion@CWindowGc@@UAEXXZ @ 51 NONAME ; public: virtual void __thiscall CWindowGc::CancelClippingRegion(void)
	?CancelPointerRepeatEventRequest@RWindowBase@@QAEXXZ @ 52 NONAME ; public: void __thiscall RWindowBase::CancelPointerRepeatEventRequest(void)
	?CancelTextCursor@RWindowGroup@@QAEXXZ @ 53 NONAME ; public: void __thiscall RWindowGroup::CancelTextCursor(void)
	?CaptureKey@RWindowGroup@@QAEJIII@Z @ 54 NONAME ; public: long __thiscall RWindowGroup::CaptureKey(unsigned int,unsigned int,unsigned int)
	?CaptureKeyUpAndDowns@RWindowGroup@@QAEJIII@Z @ 55 NONAME ; public: long __thiscall RWindowGroup::CaptureKeyUpAndDowns(unsigned int,unsigned int,unsigned int)
	?Child@RWindowTreeNode@@QBEKXZ @ 56 NONAME ; public: unsigned long __thiscall RWindowTreeNode::Child(void)const 
	?ClaimPointerGrab@RWindowBase@@QAEXH@Z @ 57 NONAME ; public: void __thiscall RWindowBase::ClaimPointerGrab(int)
	?ClaimSystemPointerCursorList@RWsSession@@QAEHXZ @ 58 NONAME ; public: int __thiscall RWsSession::ClaimSystemPointerCursorList(void)
	?Clear@CWindowGc@@UAEXABVTRect@@@Z @ 59 NONAME ; public: virtual void __thiscall CWindowGc::Clear(class TRect const &)
	?Clear@CWindowGc@@UAEXXZ @ 60 NONAME ; public: virtual void __thiscall CWindowGc::Clear(void)
	?ClearHotKeys@RWsSession@@QAEHW4THotKey@@@Z @ 61 NONAME ; public: int __thiscall RWsSession::ClearHotKeys(enum THotKey)
	?ClearSystemPointerCursor@RWsSession@@QAEXH@Z @ 62 NONAME ; public: void __thiscall RWsSession::ClearSystemPointerCursor(int)
	?Close@RAnim@@UAEXXZ @ 63 NONAME ; public: virtual void __thiscall RAnim::Close(void)
	?Close@RAnimDll@@UAEXXZ @ 64 NONAME ; public: virtual void __thiscall RAnimDll::Close(void)
	?Close@RWindowTreeNode@@QAEXXZ @ 65 NONAME ; public: void __thiscall RWindowTreeNode::Close(void)
	?Close@RWsSpriteBase@@QAEXXZ @ 66 NONAME ; public: void __thiscall RWsSpriteBase::Close(void)
	?Command@RAnim@@IAEXH@Z @ 67 NONAME ; protected: void __thiscall RAnim::Command(int)
	?Command@RAnim@@IAEXHABVTPtrC8@@@Z @ 68 NONAME ; protected: void __thiscall RAnim::Command(int,class TPtrC8 const &)
	?CommandReply@RAnim@@IAEHH@Z @ 69 NONAME ; protected: int __thiscall RAnim::CommandReply(int)
	?CommandReply@RAnim@@IAEHHABVTPtrC8@@@Z @ 70 NONAME ; protected: int __thiscall RAnim::CommandReply(int,class TPtrC8 const &)
	?ComputeMode@RWsSession@@QAEXW4TComputeMode@1@@Z @ 71 NONAME ; public: void __thiscall RWsSession::ComputeMode(enum RWsSession::TComputeMode)
	?Connect@RWsSession@@QAEHXZ @ 72 NONAME ; public: int __thiscall RWsSession::Connect(void)
	?Construct@CWindowGc@@UAEHXZ @ 73 NONAME ; public: virtual int __thiscall CWindowGc::Construct(void)
	?Construct@CWsScreenDevice@@QAEHXZ @ 74 NONAME ; public: int __thiscall CWsScreenDevice::Construct(void)
	?Construct@RAnim@@IAEHABVRWindowBase@@HABVTDesC8@@@Z @ 75 NONAME ; protected: int __thiscall RAnim::Construct(class RWindowBase const &,int,class TDesC8 const &)
	?Construct@RBackedUpWindow@@QAEHABVRWindowTreeNode@@W4TDisplayMode@@K@Z @ 76 NONAME ; public: int __thiscall RBackedUpWindow::Construct(class RWindowTreeNode const &,enum TDisplayMode,unsigned long)
	?Construct@RBlankWindow@@QAEHABVRWindowTreeNode@@K@Z @ 77 NONAME ; public: int __thiscall RBlankWindow::Construct(class RWindowTreeNode const &,unsigned long)
	?Construct@RWindow@@QAEHABVRWindowTreeNode@@K@Z @ 78 NONAME ; public: int __thiscall RWindow::Construct(class RWindowTreeNode const &,unsigned long)
	?Construct@RWindowGroup@@QAEHK@Z @ 79 NONAME ; public: int __thiscall RWindowGroup::Construct(unsigned long)
	?Construct@RWindowGroup@@QAEHKH@Z @ 80 NONAME ; public: int __thiscall RWindowGroup::Construct(unsigned long,int)
	?Construct@RWsPointerCursor@@QAEHH@Z @ 81 NONAME ; public: int __thiscall RWsPointerCursor::Construct(int)
	?Construct@RWsSprite@@QAEHAAVRWindowTreeNode@@ABVTPoint@@H@Z @ 82 NONAME ; public: int __thiscall RWsSprite::Construct(class RWindowTreeNode &,class TPoint const &,int)
	?CopyRect@CWindowGc@@UAEXABVTPoint@@ABVTRect@@@Z @ 83 NONAME ; public: virtual void __thiscall CWindowGc::CopyRect(class TPoint const &,class TRect const &)
	?CopyScreenToBitmap@CWsScreenDevice@@QBEHPBVCFbsBitmap@@@Z @ 84 NONAME ; public: int __thiscall CWsScreenDevice::CopyScreenToBitmap(class CFbsBitmap const *)const 
	?CopyScreenToBitmap@CWsScreenDevice@@QBEHPBVCFbsBitmap@@ABVTRect@@@Z @ 85 NONAME ; public: int __thiscall CWsScreenDevice::CopyScreenToBitmap(class CFbsBitmap const *,class TRect const &)const 
	?Create@CWsBitmap@@QAEHABVTSize@@W4TDisplayMode@@@Z @ 86 NONAME ; public: int __thiscall CWsBitmap::Create(class TSize const &,enum TDisplayMode)
	?CreateContext@CWsScreenDevice@@UAEHAAPAVCGraphicsContext@@@Z @ 87 NONAME ; public: virtual int __thiscall CWsScreenDevice::CreateContext(class CGraphicsContext * &)
	?Deactivate@CWindowGc@@UAEXXZ @ 88 NONAME ; public: virtual void __thiscall CWindowGc::Deactivate(void)
	?DefaultOwningWindow@RWindowGroup@@QAEXXZ @ 89 NONAME ; public: void __thiscall RWindowGroup::DefaultOwningWindow(void)
	?Destroy@RAnim@@QAEXXZ @ 90 NONAME ; public: void __thiscall RAnim::Destroy(void)
	?Destroy@RAnimDll@@QAEXXZ @ 91 NONAME ; public: void __thiscall RAnimDll::Destroy(void)
	?Destroy@RWindowTreeNode@@QAEXXZ @ 92 NONAME ; public: void __thiscall RWindowTreeNode::Destroy(void)
	?Device@CWindowGc@@UBEPAVCGraphicsDevice@@XZ @ 93 NONAME ; public: virtual class CGraphicsDevice * __thiscall CWindowGc::Device(void)const 
	?DisableGroupChangeEvents@RWindowTreeNode@@QAEXXZ @ 94 NONAME ; public: void __thiscall RWindowTreeNode::DisableGroupChangeEvents(void)
	?DisableKeyClick@RWindowGroup@@QAEXH@Z @ 95 NONAME ; public: void __thiscall RWindowGroup::DisableKeyClick(int)
	?DisableModifierChangedEvents@RWindowTreeNode@@QAEXXZ @ 96 NONAME ; public: void __thiscall RWindowTreeNode::DisableModifierChangedEvents(void)
	?DisableOnEvents@RWindowTreeNode@@QAEXXZ @ 97 NONAME ; public: void __thiscall RWindowTreeNode::DisableOnEvents(void)
	?DisableErrorMessages@RWindowTreeNode@@QAEXXZ @ 98 NONAME ; public: void __thiscall RWindowTreeNode::DisableErrorMessages(void)
	?DisablePointerMoveBuffer@RWindowBase@@QAEXXZ @ 99 NONAME ; public: void __thiscall RWindowBase::DisablePointerMoveBuffer(void)
	?DiscardBrushPattern@CWindowGc@@UAEXXZ @ 100 NONAME ; public: virtual void __thiscall CWindowGc::DiscardBrushPattern(void)
	?DiscardFont@CWindowGc@@UAEXXZ @ 101 NONAME ; public: virtual void __thiscall CWindowGc::DiscardFont(void)
	?DiscardPointerMoveBuffer@RWindowBase@@QAEXXZ @ 102 NONAME ; public: void __thiscall RWindowBase::DiscardPointerMoveBuffer(void)
	?Close@RWsSession@@QAEXXZ @ 103 NONAME ; public: void __thiscall RWsSession::Close(void)
	?DisplayMode@CWsScreenDevice@@UBE?AW4TDisplayMode@@XZ @ 104 NONAME ; public: virtual enum TDisplayMode  __thiscall CWsScreenDevice::DisplayMode(void)const 
	?DrawArc@CWindowGc@@UAEXABVTRect@@ABVTPoint@@1@Z @ 105 NONAME ; public: virtual void __thiscall CWindowGc::DrawArc(class TRect const &,class TPoint const &,class TPoint const &)
	?DrawBitmap@CWindowGc@@UAEXABVTPoint@@PBVCFbsBitmap@@@Z @ 106 NONAME ; public: virtual void __thiscall CWindowGc::DrawBitmap(class TPoint const &,class CFbsBitmap const *)
	?DrawBitmap@CWindowGc@@UAEXABVTRect@@PBVCFbsBitmap@@0@Z @ 107 NONAME ; public: virtual void __thiscall CWindowGc::DrawBitmap(class TRect const &,class CFbsBitmap const *,class TRect const &)
	?DrawBitmap@CWindowGc@@UAEXABVTRect@@PBVCFbsBitmap@@@Z @ 108 NONAME ; public: virtual void __thiscall CWindowGc::DrawBitmap(class TRect const &,class CFbsBitmap const *)
	?DrawEllipse@CWindowGc@@UAEXABVTRect@@@Z @ 109 NONAME ; public: virtual void __thiscall CWindowGc::DrawEllipse(class TRect const &)
	?DrawLine@CWindowGc@@UAEXABVTPoint@@0@Z @ 110 NONAME ; public: virtual void __thiscall CWindowGc::DrawLine(class TPoint const &,class TPoint const &)
	?DrawLineBy@CWindowGc@@UAEXABVTPoint@@@Z @ 111 NONAME ; public: virtual void __thiscall CWindowGc::DrawLineBy(class TPoint const &)
	?DrawLineTo@CWindowGc@@UAEXABVTPoint@@@Z @ 112 NONAME ; public: virtual void __thiscall CWindowGc::DrawLineTo(class TPoint const &)
	?DrawPie@CWindowGc@@UAEXABVTRect@@ABVTPoint@@1@Z @ 113 NONAME ; public: virtual void __thiscall CWindowGc::DrawPie(class TRect const &,class TPoint const &,class TPoint const &)
	?DrawPolyLine@CWindowGc@@UAEXPBV?$CArrayFix@VTPoint@@@@@Z @ 114 NONAME ; public: virtual void __thiscall CWindowGc::DrawPolyLine(class CArrayFix<class TPoint> const *)
	?DrawPolyLine@CWindowGc@@UAEXPBVTPoint@@H@Z @ 115 NONAME ; public: virtual void __thiscall CWindowGc::DrawPolyLine(class TPoint const *,int)
	?DrawPolygon@CWindowGc@@UAEHPBV?$CArrayFix@VTPoint@@@@W4TFillRule@CGraphicsContext@@@Z @ 116 NONAME ; public: virtual int __thiscall CWindowGc::DrawPolygon(class CArrayFix<class TPoint> const *,enum CGraphicsContext::TFillRule)
	?DrawPolygon@CWindowGc@@UAEHPBVTPoint@@HW4TFillRule@CGraphicsContext@@@Z @ 117 NONAME ; public: virtual int __thiscall CWindowGc::DrawPolygon(class TPoint const *,int,enum CGraphicsContext::TFillRule)
	?DrawRect@CWindowGc@@UAEXABVTRect@@@Z @ 118 NONAME ; public: virtual void __thiscall CWindowGc::DrawRect(class TRect const &)
	?DrawRoundRect@CWindowGc@@UAEXABVTRect@@ABVTSize@@@Z @ 119 NONAME ; public: virtual void __thiscall CWindowGc::DrawRoundRect(class TRect const &,class TSize const &)
	?DrawText@CWindowGc@@UAEXABVTDesC16@@ABVTPoint@@@Z @ 120 NONAME ; public: virtual void __thiscall CWindowGc::DrawText(class TDesC16 const &,class TPoint const &)
	?DrawText@CWindowGc@@UAEXABVTDesC16@@ABVTRect@@HW4TTextAlign@CGraphicsContext@@H@Z @ 121 NONAME ; public: virtual void __thiscall CWindowGc::DrawText(class TDesC16 const &,class TRect const &,int,enum CGraphicsContext::TTextAlign,int)
	?DrawTextVertical@CWindowGc@@UAEXABVTDesC16@@ABVTPoint@@H@Z @ 122 NONAME ; public: virtual void __thiscall CWindowGc::DrawTextVertical(class TDesC16 const &,class TPoint const &,int)
	?DrawTextVertical@CWindowGc@@UAEXABVTDesC16@@ABVTRect@@HHW4TTextAlign@CGraphicsContext@@H@Z @ 123 NONAME ; public: virtual void __thiscall CWindowGc::DrawTextVertical(class TDesC16 const &,class TRect const &,int,int,enum CGraphicsContext::TTextAlign,int)
	?Duplicate@CWsBitmap@@QAEHH@Z @ 124 NONAME ; public: int __thiscall CWsBitmap::Duplicate(int)
	?EnableBackup@RWindowBase@@QAEXI@Z @ 125 NONAME ; public: void __thiscall RWindowBase::EnableBackup(unsigned int)
	?EnableGroupChangeEvents@RWindowTreeNode@@QAEHXZ @ 126 NONAME ; public: int __thiscall RWindowTreeNode::EnableGroupChangeEvents(void)
	?EnableModifierChangedEvents@RWindowTreeNode@@QAEHIW4TEventControl@@@Z @ 127 NONAME ; public: int __thiscall RWindowTreeNode::EnableModifierChangedEvents(unsigned int,enum TEventControl)
	?EnableOnEvents@RWindowTreeNode@@QAEHW4TEventControl@@@Z @ 128 NONAME ; public: int __thiscall RWindowTreeNode::EnableOnEvents(enum TEventControl)
	?EnableErrorMessages@RWindowTreeNode@@QAEHW4TEventControl@@@Z @ 129 NONAME ; public: int __thiscall RWindowTreeNode::EnableErrorMessages(enum TEventControl)
	?EnablePointerMoveBuffer@RWindowBase@@QAEXXZ @ 130 NONAME ; public: void __thiscall RWindowBase::EnablePointerMoveBuffer(void)
	?EnableReceiptOfFocus@RWindowGroup@@QAEXH@Z @ 131 NONAME ; public: void __thiscall RWindowGroup::EnableReceiptOfFocus(int)
	?EndRedraw@RWindow@@QAEXXZ @ 132 NONAME ; public: void __thiscall RWindow::EndRedraw(void)
	?EventReady@RWsSession@@QAEXPAVTRequestStatus@@@Z @ 133 NONAME ; public: void __thiscall RWsSession::EventReady(class TRequestStatus *)
	?EventReadyCancel@RWsSession@@QAEXXZ @ 134 NONAME ; public: void __thiscall RWsSession::EventReadyCancel(void)
	?FetchMessage@RWsSession@@QBEHAAVTUid@@AAVTPtr8@@ABVTWsEvent@@@Z @ 135 NONAME ; int RWsSession::FetchMessage(class TUid &, class TPtr8 &, class TWsEvent const &) const
	?FindWindowGroupIdentifier@RWsSession@@QBEHHABVTDesC16@@H@Z @ 136 NONAME ; int RWsSession::FindWindowGroupIdentifier(int, class TDesC16 const &, int) const
	?FindWindowGroupIdentifier@RWsSession@@QBEHHVTThreadId@@@Z @ 137 NONAME ; int RWsSession::FindWindowGroupIdentifier(int, class TThreadId) const
	?Flush@RWsSession@@QAEXXZ @ 138 NONAME ; public: void __thiscall RWsSession::Flush(void)
	?FontHeightInPixels@CWsScreenDevice@@UBEHHH@Z @ 139 NONAME ; public: virtual int __thiscall CWsScreenDevice::FontHeightInPixels(int,int)const 
	?FontHeightInTwips@CWsScreenDevice@@UBEHHH@Z @ 140 NONAME ; public: virtual int __thiscall CWsScreenDevice::FontHeightInTwips(int,int)const 
	?FreePointerMoveBuffer@RWindowBase@@QAEXXZ @ 141 NONAME ; public: void __thiscall RWindowBase::FreePointerMoveBuffer(void)
	?FreeSystemPointerCursorList@RWsSession@@QAEXXZ @ 142 NONAME ; public: void __thiscall RWsSession::FreeSystemPointerCursorList(void)
	?FullOrdinalPosition@RWindowTreeNode@@QBEHXZ @ 143 NONAME ; public: int __thiscall RWindowTreeNode::FullOrdinalPosition(void)const 
	?GetBackgroundColor@RWsSession@@QBE?AVTRgb@@XZ @ 144 NONAME ; public: class TRgb  __thiscall RWsSession::GetBackgroundColor(void)const 
	?GetDefaultOwningWindow@RWsSession@@QBEHXZ @ 145 NONAME ; int RWsSession::GetDefaultOwningWindow(void) const
	?GetDoubleClickSettings@RWsSession@@QBEXAAVTTimeIntervalMicroSeconds32@@AAH@Z @ 146 NONAME ; void RWsSession::GetDoubleClickSettings(class TTimeIntervalMicroSeconds32 &, int &) const
	?GetEvent@RWsSession@@QBEXAAVTWsEvent@@@Z @ 147 NONAME ; void RWsSession::GetEvent(class TWsEvent &) const
	?GetFocusWindowGroup@RWsSession@@QBEHXZ @ 148 NONAME ; int RWsSession::GetFocusWindowGroup(void) const
	?GetFontById@CWsScreenDevice@@QAEHAAPAVCFont@@VTUid@@ABVTAlgStyle@@@Z @ 149 NONAME ; public: int __thiscall CWsScreenDevice::GetFontById(class CFont * &,class TUid,class TAlgStyle const &)
	?GetInvalidRegion@RWindow@@QBEXAAVRRegion@@@Z @ 150 NONAME ; void RWindow::GetInvalidRegion(class RRegion &) const
	?GetKeyboardRepeatRate@RWsSession@@QBEXAAVTTimeIntervalMicroSeconds32@@0@Z @ 151 NONAME ; void RWsSession::GetKeyboardRepeatRate(class TTimeIntervalMicroSeconds32 &, class TTimeIntervalMicroSeconds32 &) const
	?GetModifierState@RWsSession@@QBEHXZ @ 152 NONAME ; public: int __thiscall RWsSession::GetModifierState(void)const 
	?GetNearestFontInPixels@CWsScreenDevice@@UAEHAAPAVCFont@@ABVTFontSpec@@@Z @ 153 NONAME ; public: virtual int __thiscall CWsScreenDevice::GetNearestFontInPixels(class CFont * &,class TFontSpec const &)
	?GetNearestFontInTwips@CWsScreenDevice@@UAEHAAPAVCFont@@ABVTFontSpec@@@Z @ 154 NONAME ; public: virtual int __thiscall CWsScreenDevice::GetNearestFontInTwips(class CFont * &,class TFontSpec const &)
	?GetPalette@CWsScreenDevice@@UBEHAAPAVCPalette@@@Z @ 155 NONAME ; public: virtual int __thiscall CWsScreenDevice::GetPalette(class CPalette * &)const 
	?GetPixel@CWsScreenDevice@@UBEXAAVTRgb@@ABVTPoint@@@Z @ 156 NONAME ; public: virtual void __thiscall CWsScreenDevice::GetPixel(class TRgb &,class TPoint const &)const 
	?GetPriorityKey@RWsSession@@QBEXAAVTWsPriorityKeyEvent@@@Z @ 157 NONAME ; void RWsSession::GetPriorityKey(class TWsPriorityKeyEvent &) const
	?GetRedraw@RWsSession@@QAEXAAVTWsRedrawEvent@@@Z @ 158 NONAME ; public: void __thiscall RWsSession::GetRedraw(class TWsRedrawEvent &)
	?GetScanLine@CWsScreenDevice@@UBEXAAVTDes8@@ABVTPoint@@HW4TDisplayMode@@@Z @ 159 NONAME ; public: virtual void __thiscall CWsScreenDevice::GetScanLine(class TDes8 &,class TPoint const &,int,enum TDisplayMode)const 
	?GetWindowGroupClientThreadId@RWsSession@@QBEHHAAVTThreadId@@@Z @ 160 NONAME ; int RWsSession::GetWindowGroupClientThreadId(int, class TThreadId &) const
	?GetWindowGroupHandle@RWsSession@@QBEHH@Z @ 161 NONAME ; int RWsSession::GetWindowGroupHandle(int) const
	?GetWindowGroupNameFromIdentifier@RWsSession@@QBEHHAAVTDes16@@@Z @ 162 NONAME ; int RWsSession::GetWindowGroupNameFromIdentifier(int, class TDes16 &) const
	?GetWindowGroupOrdinalPriority@RWsSession@@QBEHH@Z @ 163 NONAME ; int RWsSession::GetWindowGroupOrdinalPriority(int) const
	?HeapCount@RWsSession@@QBEHXZ @ 164 NONAME ; public: int __thiscall RWsSession::HeapCount(void)const 
	?HeapSetFail@RWsSession@@QAEXHH@Z @ 165 NONAME ; public: void __thiscall RWsSession::HeapSetFail(int,int)
	?HorizontalPixelsToTwips@CWsScreenDevice@@UBEHH@Z @ 166 NONAME ; public: virtual int __thiscall CWsScreenDevice::HorizontalPixelsToTwips(int)const 
	?HorizontalTwipsToPixels@CWsScreenDevice@@UBEHH@Z @ 167 NONAME ; public: virtual int __thiscall CWsScreenDevice::HorizontalTwipsToPixels(int)const 
	?Identifier@RWindowGroup@@QBEHXZ @ 168 NONAME ; public: int __thiscall RWindowGroup::Identifier(void)const 
	?InquireOffset@RWindowBase@@QBE?AVTPoint@@ABVRWindowTreeNode@@@Z @ 169 NONAME ; public: class TPoint  __thiscall RWindowBase::InquireOffset(class RWindowTreeNode const &)const 
	?InternalizeL@CWsBitmap@@QAEXAAVRReadStream@@@Z @ 170 NONAME ; public: void __thiscall CWsBitmap::InternalizeL(class RReadStream &)
	?Invalidate@RWindow@@QAEXABVTRect@@@Z @ 171 NONAME ; public: void __thiscall RWindow::Invalidate(class TRect const &)
	?Invalidate@RWindow@@QAEXXZ @ 172 NONAME ; public: void __thiscall RWindow::Invalidate(void)
	?Load@CWsBitmap@@QAEHABVTDesC16@@JH@Z @ 173 NONAME ; public: int __thiscall CWsBitmap::Load(class TDesC16 const &,long,int)
	?Load@RAnimDll@@QAEHABVTDesC16@@@Z @ 174 NONAME ; public: int __thiscall RAnimDll::Load(class TDesC16 const &)
	?LogMessage@RWsSession@@QAEXABV?$TBuf@$0IA@@@@Z @ 175 NONAME ; public: void __thiscall RWsSession::LogMessage(class TBuf<128> const &)
	?MaintainBackup@RBackedUpWindow@@QAEXXZ @ 176 NONAME ; public: void __thiscall RBackedUpWindow::MaintainBackup(void)
	?MapColors@CWindowGc@@UAEXABVTRect@@PBVTRgb@@HH@Z @ 177 NONAME ; public: virtual void __thiscall CWindowGc::MapColors(class TRect const &,class TRgb const *,int,int)
	?MoveBy@CWindowGc@@UAEXABVTPoint@@@Z @ 178 NONAME ; public: virtual void __thiscall CWindowGc::MoveBy(class TPoint const &)
	?MoveTo@CWindowGc@@UAEXABVTPoint@@@Z @ 179 NONAME ; public: virtual void __thiscall CWindowGc::MoveTo(class TPoint const &)
	?Name@RWindowGroup@@QBEHAAVTDes16@@@Z @ 180 NONAME ; public: int __thiscall RWindowGroup::Name(class TDes16 &)const 
	?NextSibling@RWindowTreeNode@@QBEKXZ @ 181 NONAME ; public: unsigned long __thiscall RWindowTreeNode::NextSibling(void)const 
	?NumTypefaces@CWsScreenDevice@@UBEHXZ @ 182 NONAME ; public: virtual int __thiscall CWsScreenDevice::NumTypefaces(void)const 
	?NumWindowGroups@RWsSession@@QBEHH@Z @ 183 NONAME ; public: int __thiscall RWsSession::NumWindowGroups(int)const 
	?NumWindowGroups@RWsSession@@QBEHXZ @ 184 NONAME ; public: int __thiscall RWsSession::NumWindowGroups(void)const 
	?OrdinalPosition@RWindowTreeNode@@QBEHXZ @ 185 NONAME ; public: int __thiscall RWindowTreeNode::OrdinalPosition(void)const 
	?PaletteAttributes@CWsScreenDevice@@UBEXAAH0@Z @ 186 NONAME ; public: virtual void __thiscall CWsScreenDevice::PaletteAttributes(int &,int &)const 
	?Parent@RWindowTreeNode@@QBEKXZ @ 187 NONAME ; public: unsigned long __thiscall RWindowTreeNode::Parent(void)const 
	?PasswordEntered@RWsSession@@QAEXXZ @ 188 NONAME ; public: void __thiscall RWsSession::PasswordEntered(void)
	?PasswordWindow@RWindowBase@@QAEHW4TPasswordMode@@@Z @ 189 NONAME ; public: int __thiscall RWindowBase::PasswordWindow(enum TPasswordMode)
	?Plot@CWindowGc@@UAEXABVTPoint@@@Z @ 190 NONAME ; public: virtual void __thiscall CWindowGc::Plot(class TPoint const &)
	?PointerFilter@RWindowBase@@QAEXKK@Z @ 191 NONAME ; public: void __thiscall RWindowBase::PointerFilter(unsigned long,unsigned long)
	?PointerRect@CWsScreenDevice@@QBE?AVTRect@@XZ @ 192 NONAME ; public: class TRect  __thiscall CWsScreenDevice::PointerRect(void)const 
	?Position@RWindowBase@@QBE?AVTPoint@@XZ @ 193 NONAME ; public: class TPoint  __thiscall RWindowBase::Position(void)const 
	?PrevSibling@RWindowTreeNode@@QBEKXZ @ 194 NONAME ; public: unsigned long __thiscall RWindowTreeNode::PrevSibling(void)const 
	?PriorityKeyReady@RWsSession@@QAEXPAVTRequestStatus@@@Z @ 195 NONAME ; public: void __thiscall RWsSession::PriorityKeyReady(class TRequestStatus *)
	?PriorityKeyReadyCancel@RWsSession@@QAEXXZ @ 196 NONAME ; public: void __thiscall RWsSession::PriorityKeyReadyCancel(void)
	?PurgePointerEvents@RWsSession@@QAEXXZ @ 197 NONAME ; public: void __thiscall RWsSession::PurgePointerEvents(void)
	?RectCompare@CWsScreenDevice@@QBEHABVTRect@@0@Z @ 198 NONAME ; int CWsScreenDevice::RectCompare(class TRect const &, class TRect const &) const
	?RedrawReady@RWsSession@@QAEXPAVTRequestStatus@@@Z @ 199 NONAME ; public: void __thiscall RWsSession::RedrawReady(class TRequestStatus *)
	?RedrawReadyCancel@RWsSession@@QAEXXZ @ 200 NONAME ; public: void __thiscall RWsSession::RedrawReadyCancel(void)
	?ReleaseFont@CWsScreenDevice@@UAEXPAVCFont@@@Z @ 201 NONAME ; public: virtual void __thiscall CWsScreenDevice::ReleaseFont(class CFont *)
	?RemoveAllKeyRects@RWindowBase@@QAEXXZ @ 202 NONAME ; public: void __thiscall RWindowBase::RemoveAllKeyRects(void)
	?RemoveFile@CWsScreenDevice@@UAEXH@Z @ 203 NONAME ; public: virtual void __thiscall CWsScreenDevice::RemoveFile(int)
	?RemovePriorityKey@RWindowGroup@@QAEXIII@Z @ 204 NONAME ; public: void __thiscall RWindowGroup::RemovePriorityKey(unsigned int,unsigned int,unsigned int)
	?RequestPointerRepeatEvent@RWindowBase@@QAEXVTTimeIntervalMicroSeconds32@@ABVTRect@@@Z @ 205 NONAME ; public: void __thiscall RWindowBase::RequestPointerRepeatEvent(class TTimeIntervalMicroSeconds32,class TRect const &)
	?Reset@CWindowGc@@UAEXXZ @ 206 NONAME ; public: virtual void __thiscall CWindowGc::Reset(void)
	?Reset@CWsBitmap@@QAEXXZ @ 207 NONAME ; public: void __thiscall CWsBitmap::Reset(void)
	?ResourceCount@RWsSession@@QBEHXZ @ 208 NONAME ; int RWsSession::ResourceCount(void) const
	?RestoreDefaultHotKey@RWsSession@@QAEHW4THotKey@@@Z @ 209 NONAME ; public: int __thiscall RWsSession::RestoreDefaultHotKey(enum THotKey)
	?RetrievePointerMoveBuffer@RWindowBase@@QBEHAAVTDes8@@@Z @ 210 NONAME ; int RWindowBase::RetrievePointerMoveBuffer(class TDes8 &) const
	?Scroll@RDrawableWindow@@QAEXABVTPoint@@@Z @ 211 NONAME ; public: void __thiscall RDrawableWindow::Scroll(class TPoint const &)
	?Scroll@RDrawableWindow@@QAEXABVTPoint@@ABVTRect@@@Z @ 212 NONAME ; public: void __thiscall RDrawableWindow::Scroll(class TPoint const &,class TRect const &)
	?Scroll@RDrawableWindow@@QAEXABVTRect@@ABVTPoint@@0@Z @ 213 NONAME ; public: void __thiscall RDrawableWindow::Scroll(class TRect const &,class TPoint const &,class TRect const &)
	?Scroll@RDrawableWindow@@QAEXABVTRect@@ABVTPoint@@@Z @ 214 NONAME ; public: void __thiscall RDrawableWindow::Scroll(class TRect const &,class TPoint const &)
	?SendEventToWindowGroup@RWsSession@@QAEHHABVTWsEvent@@@Z @ 215 NONAME ; public: int __thiscall RWsSession::SendEventToWindowGroup(int,class TWsEvent const &)
	?SendMessageToWindowGroup@RWsSession@@QAEHHVTUid@@ABVTDesC8@@@Z @ 216 NONAME ; public: int __thiscall RWsSession::SendMessageToWindowGroup(int,class TUid,class TDesC8 const &)
	?SetAutoFlush@RWsSession@@QAEHH@Z @ 217 NONAME ; public: int __thiscall RWsSession::SetAutoFlush(int)
	?SetBackgroundColor@RWindow@@QAEXVTRgb@@@Z @ 218 NONAME ; public: void __thiscall RWindow::SetBackgroundColor(class TRgb)
	?SetBackgroundColor@RWindow@@QAEXXZ @ 219 NONAME ; public: void __thiscall RWindow::SetBackgroundColor(void)
	?SetBackgroundColor@RWsSession@@QAEXVTRgb@@@Z @ 220 NONAME ; public: void __thiscall RWsSession::SetBackgroundColor(class TRgb)
	?SetBrushColor@CWindowGc@@UAEXABVTRgb@@@Z @ 221 NONAME ; public: virtual void __thiscall CWindowGc::SetBrushColor(class TRgb const &)
	?SetBrushOrigin@CWindowGc@@UAEXABVTPoint@@@Z @ 222 NONAME ; public: virtual void __thiscall CWindowGc::SetBrushOrigin(class TPoint const &)
	?SetBrushStyle@CWindowGc@@UAEXW4TBrushStyle@CGraphicsContext@@@Z @ 223 NONAME ; public: virtual void __thiscall CWindowGc::SetBrushStyle(enum CGraphicsContext::TBrushStyle)
	?SetCharJustification@CWindowGc@@UAEXHH@Z @ 224 NONAME ; public: virtual void __thiscall CWindowGc::SetCharJustification(int,int)
	?SetClippingRect@CWindowGc@@UAEXABVTRect@@@Z @ 225 NONAME ; public: virtual void __thiscall CWindowGc::SetClippingRect(class TRect const &)
	?SetClippingRegion@CWindowGc@@UAEHABVTRegion@@@Z @ 226 NONAME ; public: virtual int __thiscall CWindowGc::SetClippingRegion(class TRegion const &)
	?SetColor@RBlankWindow@@QAEXVTRgb@@@Z @ 227 NONAME ; public: void __thiscall RBlankWindow::SetColor(class TRgb)
	?SetCornerType@RWindowBase@@QAEHW4TCornerType@@H@Z @ 228 NONAME ; public: int __thiscall RWindowBase::SetCornerType(enum TCornerType,int)
	?SetCustomPointerCursor@RWindowTreeNode@@QAEXABVRWsPointerCursor@@@Z @ 229 NONAME ; public: void __thiscall RWindowTreeNode::SetCustomPointerCursor(class RWsPointerCursor const &)
	?SetDitherOrigin@CWindowGc@@UAEXABVTPoint@@@Z @ 230 NONAME ; public: virtual void __thiscall CWindowGc::SetDitherOrigin(class TPoint const &)
	?SetDoubleClick@RWsSession@@QAEHABVTTimeIntervalMicroSeconds32@@H@Z @ 231 NONAME ; public: int __thiscall RWsSession::SetDoubleClick(class TTimeIntervalMicroSeconds32 const &,int)
	?SetDrawMode@CWindowGc@@UAEXW4TDrawMode@CGraphicsContext@@@Z @ 232 NONAME ; public: virtual void __thiscall CWindowGc::SetDrawMode(enum CGraphicsContext::TDrawMode)
	?SetExtent@RBlankWindow@@QAEXABVTPoint@@ABVTSize@@@Z @ 233 NONAME ; public: void __thiscall RBlankWindow::SetExtent(class TPoint const &,class TSize const &)
	?SetExtent@RWindow@@QAEXABVTPoint@@ABVTSize@@@Z @ 234 NONAME ; public: void __thiscall RWindow::SetExtent(class TPoint const &,class TSize const &)
	?SetExtentErr@RWindowBase@@QAEHABVTPoint@@ABVTSize@@@Z @ 235 NONAME ; public: int __thiscall RWindowBase::SetExtentErr(class TPoint const &,class TSize const &)
	?SetHotKey@RWsSession@@QAEHW4THotKey@@III@Z @ 236 NONAME ; public: int __thiscall RWsSession::SetHotKey(enum THotKey,unsigned int,unsigned int,unsigned int)
	?SetKeyboardRepeatRate@RWsSession@@QAEHABVTTimeIntervalMicroSeconds32@@0@Z @ 237 NONAME ; public: int __thiscall RWsSession::SetKeyboardRepeatRate(class TTimeIntervalMicroSeconds32 const &,class TTimeIntervalMicroSeconds32 const &)
	?SetModifierState@RWsSession@@QAEHW4TEventModifier@@W4TModifierState@@@Z @ 238 NONAME ; public: int __thiscall RWsSession::SetModifierState(enum TEventModifier,enum TModifierState)
	?SetName@RWindowGroup@@QAEHABVTDesC16@@@Z @ 239 NONAME ; public: int __thiscall RWindowGroup::SetName(class TDesC16 const &)
	?SetOrdinalPosition@RWindowTreeNode@@QAEXH@Z @ 240 NONAME ; public: void __thiscall RWindowTreeNode::SetOrdinalPosition(int)
	?SetOrdinalPosition@RWindowTreeNode@@QAEXHH@Z @ 241 NONAME ; public: void __thiscall RWindowTreeNode::SetOrdinalPosition(int,int)
	?SetOrdinalPriorityAdjust@RWindowGroup@@QAEXH@Z @ 242 NONAME ; public: void __thiscall RWindowGroup::SetOrdinalPriorityAdjust(int)
	?SetOrigin@CWindowGc@@UAEXABVTPoint@@@Z @ 243 NONAME ; public: virtual void __thiscall CWindowGc::SetOrigin(class TPoint const &)
	?SetOwningWindowGroup@RWindowGroup@@QAEXH@Z @ 244 NONAME ; public: void __thiscall RWindowGroup::SetOwningWindowGroup(int)
	?SetPalette@CWsScreenDevice@@UAEXPAVCPalette@@@Z @ 245 NONAME ; public: virtual void __thiscall CWsScreenDevice::SetPalette(class CPalette *)
	?SetPenColor@CWindowGc@@UAEXABVTRgb@@@Z @ 246 NONAME ; public: virtual void __thiscall CWindowGc::SetPenColor(class TRgb const &)
	?SetPenSize@CWindowGc@@UAEXABVTSize@@@Z @ 247 NONAME ; public: virtual void __thiscall CWindowGc::SetPenSize(class TSize const &)
	?SetPenStyle@CWindowGc@@UAEXW4TPenStyle@CGraphicsContext@@@Z @ 248 NONAME ; public: virtual void __thiscall CWindowGc::SetPenStyle(enum CGraphicsContext::TPenStyle)
	?SetPointerCapture@RWindowBase@@QAEXH@Z @ 249 NONAME ; public: void __thiscall RWindowBase::SetPointerCapture(int)
	?SetPointerCursor@RWindowTreeNode@@QAEHH@Z @ 250 NONAME ; public: int __thiscall RWindowTreeNode::SetPointerCursor(int)
	?SetPointerGrab@RWindowBase@@QAEXH@Z @ 251 NONAME ; public: void __thiscall RWindowBase::SetPointerGrab(int)
	?SetPosition@RWindowBase@@QAEXABVTPoint@@@Z @ 252 NONAME ; public: void __thiscall RWindowBase::SetPosition(class TPoint const &)
	?SetPosition@RWsSprite@@QAEXABVTPoint@@@Z @ 253 NONAME ; public: void __thiscall RWsSprite::SetPosition(class TPoint const &)
	?SetRequiredDisplayMode@RWindowBase@@QAEHW4TDisplayMode@@@Z @ 254 NONAME ; public: int __thiscall RWindowBase::SetRequiredDisplayMode(enum TDisplayMode)
	?SetShadowDisabled@RWindowBase@@QAEXH@Z @ 255 NONAME ; public: void __thiscall RWindowBase::SetShadowDisabled(int)
	?SetShadowHeight@RWindowBase@@QAEXH@Z @ 256 NONAME ; public: void __thiscall RWindowBase::SetShadowHeight(int)
	?SetShadowVector@RWsSession@@QAEXABVTPoint@@@Z @ 257 NONAME ; public: void __thiscall RWsSession::SetShadowVector(class TPoint const &)
	?SetShape@RWindowBase@@QAEHABVTRegion@@@Z @ 258 NONAME ; public: int __thiscall RWindowBase::SetShape(class TRegion const &)
	?SetSize@RBlankWindow@@QAEXABVTSize@@@Z @ 259 NONAME ; public: void __thiscall RBlankWindow::SetSize(class TSize const &)
	?SetSize@RWindow@@QAEXABVTSize@@@Z @ 260 NONAME ; public: void __thiscall RWindow::SetSize(class TSize const &)
	?SetSizeErr@RWindowBase@@QAEHABVTSize@@@Z @ 261 NONAME ; public: int __thiscall RWindowBase::SetSizeErr(class TSize const &)
	?SetStrikethroughStyle@CWindowGc@@UAEXW4TFontStrikethrough@@@Z @ 262 NONAME ; public: virtual void __thiscall CWindowGc::SetStrikethroughStyle(enum TFontStrikethrough)
	?SetSystemPointerCursor@RWsSession@@QAEHABVRWsPointerCursor@@H@Z @ 263 NONAME ; public: int __thiscall RWsSession::SetSystemPointerCursor(class RWsPointerCursor const &,int)
	?SetTextCursor@RWindowGroup@@QAEXAAVRWindowBase@@ABVTPoint@@ABUTTextCursor@@@Z @ 264 NONAME ; public: void __thiscall RWindowGroup::SetTextCursor(class RWindowBase &,class TPoint const &,struct TTextCursor const &)
	?SetTextCursor@RWindowGroup@@QAEXAAVRWindowBase@@ABVTPoint@@ABUTTextCursor@@ABVTRect@@@Z @ 265 NONAME ; public: void __thiscall RWindowGroup::SetTextCursor(class RWindowBase &,class TPoint const &,struct TTextCursor const &,class TRect const &)
	?SetUnderlineStyle@CWindowGc@@UAEXW4TFontUnderline@@@Z @ 266 NONAME ; public: virtual void __thiscall CWindowGc::SetUnderlineStyle(enum TFontUnderline)
	?SetVisible@RWindowBase@@QAEXH@Z @ 267 NONAME ; public: void __thiscall RWindowBase::SetVisible(int)
	?SetWindowGroupOrdinalPosition@RWsSession@@QAEHHH@Z @ 268 NONAME ; public: int __thiscall RWsSession::SetWindowGroupOrdinalPosition(int,int)
	?SetWordJustification@CWindowGc@@UAEXHH@Z @ 269 NONAME ; public: virtual void __thiscall CWindowGc::SetWordJustification(int,int)
	?ShadowVector@RWsSession@@QBE?AVTPoint@@XZ @ 270 NONAME ; public: class TPoint  __thiscall RWsSession::ShadowVector(void)const 
	?SimulateRawEvent@RWsSession@@QAEXVTRawEvent@@@Z @ 271 NONAME ; public: void __thiscall RWsSession::SimulateRawEvent(class TRawEvent)
	?Size@RWindowBase@@QBE?AVTSize@@XZ @ 272 NONAME ; public: class TSize  __thiscall RWindowBase::Size(void)const 
	?SizeInPixels@CWsScreenDevice@@UBE?AVTSize@@XZ @ 273 NONAME ; public: virtual class TSize  __thiscall CWsScreenDevice::SizeInPixels(void)const 
	?SizeInTwips@CWsScreenDevice@@UBE?AVTSize@@XZ @ 274 NONAME ; public: virtual class TSize  __thiscall CWsScreenDevice::SizeInTwips(void)const 
	?SystemInfo@RWsSession@@QAEXAAHAAUSSystemInfo@1@@Z @ 275 NONAME ; public: void __thiscall RWsSession::SystemInfo(int &,struct RWsSession::SSystemInfo &)
	?TestWrite@RWsSession@@QAEXHHPBXH@Z @ 276 NONAME ; public: void __thiscall RWsSession::TestWrite(int,int,void const *,int)
	?TestWriteReply@RWsSession@@QAEXHHPBXH@Z @ 277 NONAME ; public: void __thiscall RWsSession::TestWriteReply(int,int,void const *,int)
	?TestWriteReplyP@RWsSession@@QAEXHHPBXHPAVTDes8@@@Z @ 278 NONAME ; public: void __thiscall RWsSession::TestWriteReplyP(int,int,void const *,int,class TDes8 *)
	?TypefaceSupport@CWsScreenDevice@@UBEXAAVTTypefaceSupport@@H@Z @ 279 NONAME ; public: virtual void __thiscall CWsScreenDevice::TypefaceSupport(class TTypefaceSupport &,int)const 
	?UpdateBackupBitmap@RBackedUpWindow@@QAEXXZ @ 280 NONAME ; public: void __thiscall RBackedUpWindow::UpdateBackupBitmap(void)
	?UpdateMember@RWsSpriteBase@@QAEHHABUTSpriteMember@@@Z @ 281 NONAME ; public: int __thiscall RWsSpriteBase::UpdateMember(int,struct TSpriteMember const &)
	?UpdateMember@RWsSpriteBase@@QAEXH@Z @ 282 NONAME ; public: void __thiscall RWsSpriteBase::UpdateMember(int)
	?UpdateScreen@RBackedUpWindow@@QAEXABVTRegion@@@Z @ 283 NONAME ; public: void __thiscall RBackedUpWindow::UpdateScreen(class TRegion const &)
	?UpdateScreen@RBackedUpWindow@@QAEXXZ @ 284 NONAME ; public: void __thiscall RBackedUpWindow::UpdateScreen(void)
	?UseBrushPattern@CWindowGc@@UAEXPBVCFbsBitmap@@@Z @ 285 NONAME ; public: virtual void __thiscall CWindowGc::UseBrushPattern(class CFbsBitmap const *)
	?UseFont@CWindowGc@@UAEXPBVCFont@@@Z @ 286 NONAME ; public: virtual void __thiscall CWindowGc::UseFont(class CFont const *)
	?Version@RWsSession@@QBE?AVTVersion@@XZ @ 287 NONAME ; class TVersion RWsSession::Version(void) const
	?VerticalPixelsToTwips@CWsScreenDevice@@UBEHH@Z @ 288 NONAME ; public: virtual int __thiscall CWsScreenDevice::VerticalPixelsToTwips(int)const 
	?VerticalTwipsToPixels@CWsScreenDevice@@UBEHH@Z @ 289 NONAME ; public: virtual int __thiscall CWsScreenDevice::VerticalTwipsToPixels(int)const 
	?WindowGroupList@RWsSession@@QBEHHPAV?$CArrayFixFlat@H@@@Z @ 290 NONAME ; int RWsSession::WindowGroupList(int, class CArrayFixFlat<int> *) const
	?WindowGroupList@RWsSession@@QBEHPAV?$CArrayFixFlat@H@@@Z @ 291 NONAME ; int RWsSession::WindowGroupList(class CArrayFixFlat<int> *) const
	?RequestOffEvents@RWsSession@@QAEHHPAVRWindowTreeNode@@@Z @ 292 NONAME ; public: int __thiscall RWsSession::RequestOffEvents(int,class RWindowTreeNode *)
	?__DbgTestInvariant@RWindowTreeNode@@QBEXXZ @ 293 NONAME ; public: void __thiscall RWindowTreeNode::__DbgTestInvariant(void)const 
	?DisableScreenChangeEvents@RWindowGroup@@QAEXXZ @ 294 NONAME ; public: void __thiscall RWindowGroup::DisableScreenChangeEvents(void)
	?EnableScreenChangeEvents@RWindowGroup@@QAEHXZ @ 295 NONAME ; public: int __thiscall RWindowGroup::EnableScreenChangeEvents(void)
	?FadeBehind@RWindowBase@@QAEXH@Z @ 296 NONAME ; public: void __thiscall RWindowBase::FadeBehind(int)
	?GetDefaultScreenSizeAndRotation@CWsScreenDevice@@QBEXAAUTPixelsAndRotation@@@Z @ 297 NONAME ; public: void __thiscall CWsScreenDevice::GetDefaultScreenSizeAndRotation(struct TPixelsAndRotation &)const 
	?GetDefaultScreenSizeAndRotation@CWsScreenDevice@@QBEXAAUTPixelsTwipsAndRotation@@@Z @ 298 NONAME ; public: void __thiscall CWsScreenDevice::GetDefaultScreenSizeAndRotation(struct TPixelsTwipsAndRotation &)const 
	?DisplayMode@RWindowBase@@QBE?AW4TDisplayMode@@XZ @ 299 NONAME ; enum TDisplayMode RWindowBase::DisplayMode(void) const
	?GetDefModeMaxNumColors@RWsSession@@QBE?AW4TDisplayMode@@AAH0@Z @ 300 NONAME ; public: enum TDisplayMode  __thiscall RWsSession::GetDefModeMaxNumColors(int &,int &)const 
	?GetScreenModeSizeAndRotation@CWsScreenDevice@@QBEXHAAUTPixelsAndRotation@@@Z @ 301 NONAME ; public: void __thiscall CWsScreenDevice::GetScreenModeSizeAndRotation(int,struct TPixelsAndRotation &)const 
	?GetScreenModeSizeAndRotation@CWsScreenDevice@@QBEXHAAUTPixelsTwipsAndRotation@@@Z @ 302 NONAME ; public: void __thiscall CWsScreenDevice::GetScreenModeSizeAndRotation(int,struct TPixelsTwipsAndRotation &)const 
	?NumScreenModes@CWsScreenDevice@@QBEHXZ @ 303 NONAME ; public: int __thiscall CWsScreenDevice::NumScreenModes(void)const 
	?ScreenModeEnforcement@CWsScreenDevice@@QBE?AW4TScreenModeEnforcement@@XZ @ 304 NONAME ; public: enum TScreenModeEnforcement  __thiscall CWsScreenDevice::ScreenModeEnforcement(void)const 
	?SetFaded@CWindowGc@@UAEXH@Z @ 305 NONAME ; public: virtual void __thiscall CWindowGc::SetFaded(int)
	?SetFaded@RWindowTreeNode@@QAEXHW4TFadeControl@1@@Z @ 306 NONAME ; public: void __thiscall RWindowTreeNode::SetFaded(int,enum RWindowTreeNode::TFadeControl)
	?SetNonFading@RWindowTreeNode@@QAEXH@Z @ 307 NONAME ; public: void __thiscall RWindowTreeNode::SetNonFading(int)
	?SetScreenMode@CWsScreenDevice@@QAEXH@Z @ 308 NONAME ; public: void __thiscall CWsScreenDevice::SetScreenMode(int)
	?SetScreenModeEnforcement@CWsScreenDevice@@QBEXW4TScreenModeEnforcement@@@Z @ 309 NONAME ; public: void __thiscall CWsScreenDevice::SetScreenModeEnforcement(enum TScreenModeEnforcement)const 
	?SetScreenSizeAndRotation@CWsScreenDevice@@QAEXABUTPixelsAndRotation@@@Z @ 310 NONAME ; public: void __thiscall CWsScreenDevice::SetScreenSizeAndRotation(struct TPixelsAndRotation const &)
	?SetScreenSizeAndRotation@CWsScreenDevice@@QAEXABUTPixelsTwipsAndRotation@@@Z @ 311 NONAME ; public: void __thiscall CWsScreenDevice::SetScreenSizeAndRotation(struct TPixelsTwipsAndRotation const &)
	?SimulatePointerEvent@RWindowGroup@@QAEXVTRawEvent@@@Z @ 312 NONAME ; public: void __thiscall RWindowGroup::SimulatePointerEvent(class TRawEvent)
	?GetColorModeList@RWsSession@@QBEHPAV?$CArrayFixFlat@H@@@Z @ 313 NONAME ; public: int __thiscall RWsSession::GetColorModeList(class CArrayFixFlat<int> *)const 
	?IsFaded@RWindowBase@@QBEHXZ @ 314 NONAME ; int RWindowBase::IsFaded(void) const
	?IsNonFading@RWindowBase@@QBEHXZ @ 315 NONAME ; int RWindowBase::IsNonFading(void) const
	?Construct@RAnim@@IAEHABVRWsSprite@@HABVTDesC8@@@Z @ 316 NONAME ; protected: int __thiscall RAnim::Construct(class RWsSprite const &,int,class TDesC8 const &)
	?GetRotationsList@CWsScreenDevice@@QBEHHPAV?$CArrayFixFlat@H@@@Z @ 317 NONAME ; public: int __thiscall CWsScreenDevice::GetRotationsList(int,class CArrayFixFlat<int> *)const 
	?OrdinalPriority@RWindowTreeNode@@QBEHXZ @ 318 NONAME ; public: int __thiscall RWindowTreeNode::OrdinalPriority(void)const 
	?SendEventToAllWindowGroups@RWsSession@@QAEHABVTWsEvent@@@Z @ 319 NONAME ; public: int __thiscall RWsSession::SendEventToAllWindowGroups(class TWsEvent const &)
	?SendEventToAllWindowGroups@RWsSession@@QAEHHABVTWsEvent@@@Z @ 320 NONAME ; public: int __thiscall RWsSession::SendEventToAllWindowGroups(int,class TWsEvent const &)
	?SetCurrentRotations@CWsScreenDevice@@QBEXHW4TGraphicsOrientation@CFbsBitGc@@@Z @ 321 NONAME ; public: void __thiscall CWsScreenDevice::SetCurrentRotations(int,enum CFbsBitGc::TGraphicsOrientation)const 
	?SimulateKeyEvent@RWsSession@@QAEXUTKeyEvent@@@Z @ 322 NONAME ; public: void __thiscall RWsSession::SimulateKeyEvent(struct TKeyEvent)
	?SetRemoveKeyCode@RWsSession@@QAEXH@Z @ 323 NONAME ; public: void __thiscall RWsSession::SetRemoveKeyCode(int)
	?ClearDefaultSystemPointerCursor@RWsSession@@QAEXXZ @ 324 NONAME ; public: void __thiscall RWsSession::ClearDefaultSystemPointerCursor(void)
	?ClearPointerCursor@RWindowTreeNode@@QAEXXZ @ 325 NONAME ; public: void __thiscall RWindowTreeNode::ClearPointerCursor(void)
	?PointerCursorArea@RWsSession@@QBE?AVTRect@@H@Z @ 326 NONAME ; public: class TRect  __thiscall RWsSession::PointerCursorArea(int)const 
	?PointerCursorArea@RWsSession@@QBE?AVTRect@@XZ @ 327 NONAME ; public: class TRect  __thiscall RWsSession::PointerCursorArea(void)const 
	?PointerCursorMode@RWsSession@@QBE?AW4TPointerCursorMode@@XZ @ 328 NONAME ; public: enum TPointerCursorMode  __thiscall RWsSession::PointerCursorMode(void)const 
	?PointerCursorPosition@RWsSession@@QBE?AVTPoint@@XZ @ 329 NONAME ; public: class TPoint  __thiscall RWsSession::PointerCursorPosition(void)const 
	?SetDefaultSystemPointerCursor@RWsSession@@QAEXH@Z @ 330 NONAME ; public: void __thiscall RWsSession::SetDefaultSystemPointerCursor(int)
	?SetPointerCursorArea@RWsSession@@QAEXABVTRect@@@Z @ 331 NONAME ; public: void __thiscall RWsSession::SetPointerCursorArea(class TRect const &)
	?SetPointerCursorArea@RWsSession@@QAEXHABVTRect@@@Z @ 332 NONAME ; public: void __thiscall RWsSession::SetPointerCursorArea(int,class TRect const &)
	?SetPointerCursorMode@RWsSession@@QAEXW4TPointerCursorMode@@@Z @ 333 NONAME ; public: void __thiscall RWsSession::SetPointerCursorMode(enum TPointerCursorMode)
	?SetPointerCursorPosition@RWsSession@@QAEHABVTPoint@@@Z @ 334 NONAME ; public: int __thiscall RWsSession::SetPointerCursorPosition(class TPoint const &)
	?SimulateXyInputType@RWsSession@@QAEXH@Z @ 335 NONAME ; void RWsSession::SimulateXyInputType(int)
	?MoveToGroup@RWindowBase@@QAEHH@Z @ 336 NONAME ; public: int __thiscall RWindowBase::MoveToGroup(int)
	?SendMessageToAllWindowGroups@RWsSession@@QAEHHVTUid@@ABVTDesC8@@@Z @ 337 NONAME ; public: int __thiscall RWsSession::SendMessageToAllWindowGroups(int,class TUid,class TDesC8 const &)
	?SendMessageToAllWindowGroups@RWsSession@@QAEHVTUid@@ABVTDesC8@@@Z @ 338 NONAME ; public: int __thiscall RWsSession::SendMessageToAllWindowGroups(class TUid,class TDesC8 const &)
	?DisableFocusChangeEvents@RWindowTreeNode@@QAEXXZ @ 339 NONAME ; public: void __thiscall RWindowTreeNode::DisableFocusChangeEvents(void)
	?EnableFocusChangeEvents@RWindowTreeNode@@QAEHXZ @ 340 NONAME ; public: int __thiscall RWindowTreeNode::EnableFocusChangeEvents(void)
	?SetDefaultFadingParameters@RWsSession@@QAEXEE@Z @ 341 NONAME ; public: void __thiscall RWsSession::SetDefaultFadingParameters(unsigned char,unsigned char)
	?SetFaded@RWindowTreeNode@@QAEXHW4TFadeControl@1@EE@Z @ 342 NONAME ; public: void __thiscall RWindowTreeNode::SetFaded(int,enum RWindowTreeNode::TFadeControl,unsigned char,unsigned char)
	?SetFadingParameters@CWindowGc@@UAEXEE@Z @ 343 NONAME ; public: virtual void __thiscall CWindowGc::SetFadingParameters(unsigned char,unsigned char)
	?PrepareForSwitchOff@RWsSession@@QAEXXZ @ 344 NONAME ; public: void __thiscall RWsSession::PrepareForSwitchOff(void)
	?SetCustomPalette@CWsScreenDevice@@QAEHPBVCPalette@@@Z @ 345 NONAME ; public: int __thiscall CWsScreenDevice::SetCustomPalette(class CPalette const *)
	??0RDirectScreenAccess@@QAE@AAVRWsSession@@@Z @ 346 NONAME ; public: __thiscall RDirectScreenAccess::RDirectScreenAccess(class RWsSession &)
	??0RDirectScreenAccess@@QAE@XZ @ 347 NONAME ; public: __thiscall RDirectScreenAccess::RDirectScreenAccess(void)
	?Cancel@RDirectScreenAccess@@QAEXXZ @ 348 NONAME ; public: void __thiscall RDirectScreenAccess::Cancel(void)
	?Close@RDirectScreenAccess@@QAEXXZ @ 349 NONAME ; public: void __thiscall RDirectScreenAccess::Close(void)
	?Completed@RDirectScreenAccess@@QAEXXZ @ 350 NONAME ; public: void __thiscall RDirectScreenAccess::Completed(void)
	?Construct@RDirectScreenAccess@@QAEHXZ @ 351 NONAME ; public: int __thiscall RDirectScreenAccess::Construct(void)
	?NewL@CDirectScreenAccess@@SAPAV1@AAVRWsSession@@AAVCWsScreenDevice@@AAVRWindowBase@@AAVMDirectScreenAccess@@@Z @ 352 NONAME ; public: static class CDirectScreenAccess * __cdecl CDirectScreenAccess::NewL(class RWsSession &,class CWsScreenDevice &,class RWindowBase &,class MDirectScreenAccess &)
	?Request@RDirectScreenAccess@@QAEHAAPAVRRegion@@AAVTRequestStatus@@ABVRWindowBase@@@Z @ 353 NONAME ; public: int __thiscall RDirectScreenAccess::Request(class RRegion * &,class TRequestStatus &,class RWindowBase const &)
	?StartL@CDirectScreenAccess@@QAEXXZ @ 354 NONAME ; public: void __thiscall CDirectScreenAccess::StartL(void)
	?SetBufferSizeL@RWsSession@@QAEXH@Z @ 355 NONAME ; public: void __thiscall RWsSession::SetBufferSizeL(int)
	?SetSystemFaded@RWsSession@@QAEHH@Z @ 356 NONAME ; public: int __thiscall RWsSession::SetSystemFaded(int)
	?SetSystemFaded@RWsSession@@QAEHHEE@Z @ 357 NONAME ; public: int __thiscall RWsSession::SetSystemFaded(int,unsigned char,unsigned char)
	?DisableGroupListChangeEvents@RWindowTreeNode@@QAEXXZ @ 358 NONAME ; public: void __thiscall RWindowTreeNode::DisableGroupListChangeEvents(void)
	?EnableGroupListChangeEvents@RWindowTreeNode@@QAEHXZ @ 359 NONAME ; public: int __thiscall RWindowTreeNode::EnableGroupListChangeEvents(void)
	?Construct@RSoundPlugIn@@QAEHVTUid@@@Z @ 360 NONAME ; public: int __thiscall RSoundPlugIn::Construct(class TUid)
	?Destroy@RSoundPlugIn@@QAEXXZ @ 361 NONAME ; public: void __thiscall RSoundPlugIn::Destroy(void)
	?IsLoaded@RSoundPlugIn@@QBEHAAH@Z @ 362 NONAME ; int RSoundPlugIn::IsLoaded(int &) const
	?Load@RSoundPlugIn@@QAEHABVTDesC16@@@Z @ 363 NONAME ; public: int __thiscall RSoundPlugIn::Load(class TDesC16 const &)
	?Unload@RSoundPlugIn@@QAEHXZ @ 364 NONAME ; public: int __thiscall RSoundPlugIn::Unload(void)
	?CurrentScreenMode@CWsScreenDevice@@QBEHXZ @ 365 NONAME ; public: int __thiscall CWsScreenDevice::CurrentScreenMode(void)const 
	?CancelCaptureLongKey@RWindowGroup@@QAEXJ@Z @ 366 NONAME ; public: void __thiscall RWindowGroup::CancelCaptureLongKey(long)
	?CaptureLongKey@RWindowGroup@@QAEJIIIIHI@Z @ 367 NONAME ; public: long __thiscall RWindowGroup::CaptureLongKey(unsigned int,unsigned int,unsigned int,unsigned int,int,unsigned int)
	?CaptureLongKey@RWindowGroup@@QAEJVTTimeIntervalMicroSeconds32@@IIIIHI@Z @ 368 NONAME ; public: long __thiscall RWindowGroup::CaptureLongKey(class TTimeIntervalMicroSeconds32,unsigned int,unsigned int,unsigned int,unsigned int,int,unsigned int)
	?SendEventToOneWindowGroupsPerClient@RWsSession@@QAEHABVTWsEvent@@@Z @ 369 NONAME ; public: int __thiscall RWsSession::SendEventToOneWindowGroupsPerClient(class TWsEvent const &)
	?KeyClickEnabled@RSoundPlugIn@@QBEHXZ @ 370 NONAME ; int RSoundPlugIn::KeyClickEnabled(void) const
	?PenClickEnabled@RSoundPlugIn@@QBEHXZ @ 371 NONAME ; int RSoundPlugIn::PenClickEnabled(void) const
	?SetKeyClick@RSoundPlugIn@@QAEXH@Z @ 372 NONAME ; public: void __thiscall RSoundPlugIn::SetKeyClick(int)
	?SetPenClick@RSoundPlugIn@@QAEXH@Z @ 373 NONAME ; public: void __thiscall RSoundPlugIn::SetPenClick(int)
	?CaptureKey@RWindowGroup@@QAEJIIIH@Z @ 374 NONAME ; public: long __thiscall RWindowGroup::CaptureKey(unsigned int,unsigned int,unsigned int,int)
	?CaptureKeyUpAndDowns@RWindowGroup@@QAEJIIIH@Z @ 375 NONAME ; public: long __thiscall RWindowGroup::CaptureKeyUpAndDowns(unsigned int,unsigned int,unsigned int,int)
	?LogCommand@RWsSession@@QAEXW4TLoggingCommand@1@@Z @ 376 NONAME ; public: void __thiscall RWsSession::LogCommand(enum RWsSession::TLoggingCommand)
	??0RSoundPlugIn@@QAE@AAVRWsSession@@@Z @ 377 NONAME ; public: __thiscall RSoundPlugIn::RSoundPlugIn(class RWsSession &)
	??0RSoundPlugIn@@QAE@XZ @ 378 NONAME ; public: __thiscall RSoundPlugIn::RSoundPlugIn(void)
	?Close@RSoundPlugIn@@QAEXXZ @ 379 NONAME ; public: void __thiscall RSoundPlugIn::Close(void)
	?CommandReply@RSoundPlugIn@@QAEHHABVTPtrC8@@@Z @ 380 NONAME ; public: int __thiscall RSoundPlugIn::CommandReply(int,class TPtrC8 const &)
	?SetCustomTextCursor@RWsSession@@QAEHHABV?$TArray@UTSpriteMember@@@@IW4TCustomTextCursorAlignment@1@@Z @ 381 NONAME ; public: int __thiscall RWsSession::SetCustomTextCursor(int,class TArray<struct TSpriteMember> const &,unsigned int,enum RWsSession::TCustomTextCursorAlignment)
	?HandleTransparencyUpdate@RWindow@@QAEXXZ @ 382 NONAME ; public: void __thiscall RWindow::HandleTransparencyUpdate(void)
	?SetTransparencyBitmap@RWindow@@QAEHABVCFbsBitmap@@@Z @ 383 NONAME ; public: int __thiscall RWindow::SetTransparencyBitmap(class CFbsBitmap const &)
	?SetTransparencyFactor@RWindow@@QAEHABVTRgb@@@Z @ 384 NONAME ; public: int __thiscall RWindow::SetTransparencyFactor(class TRgb const &)
	?SetNonTransparent@RWindow@@QAEXXZ @ 385 NONAME ; public: void __thiscall RWindow::SetNonTransparent(void)
	?TestWriteReplyByProvidingRemoteReadAccess@RWsSession@@QAEHHHABVTDesC8@@ABVTDesC16@@@Z @ 386 NONAME ; public: int __thiscall RWsSession::TestWriteReplyByProvidingRemoteReadAccess(int,int,class TDesC8 const &,class TDesC16 const &)
	?TestWriteReplyByProvidingRemoteReadAccess@RWsSession@@QAEHHHABVTDesC8@@0@Z @ 387 NONAME ; public: int __thiscall RWsSession::TestWriteReplyByProvidingRemoteReadAccess(int,int,class TDesC8 const &,class TDesC8 const &)
	?CommandReply@RAnim@@IAEHHABVTDesC8@@ABVTIpcArgs@@@Z @ 388 NONAME ; int RAnim::CommandReply(int, class TDesC8 const &, class TIpcArgs const &)
	?Construct@RAnim@@IAEHABVRWindowBase@@HABVTDesC8@@ABVTIpcArgs@@@Z @ 389 NONAME ; int RAnim::Construct(class RWindowBase const &, int, class TDesC8 const &, class TIpcArgs const &)
	?Construct@RAnim@@IAEHABVRWsSprite@@HABVTDesC8@@ABVTIpcArgs@@@Z @ 390 NONAME ; int RAnim::Construct(class RWsSprite const &, int, class TDesC8 const &, class TIpcArgs const &)
	?AsyncCommandReply@RAnim@@IAEXAAVTRequestStatus@@HABVTIpcArgs@@@Z @ 391 NONAME ; void RAnim::AsyncCommandReply(class TRequestStatus &, int, class TIpcArgs const &)
	?AbsPosition@RWindowBase@@QBE?AVTPoint@@XZ @ 392 NONAME ; public: class TPoint  __thiscall RWindowBase::AbsPosition(void)const 
	?RectCompare@CWsScreenDevice@@QBEHABVTRect@@0I@Z @ 393 NONAME ; public: int __thiscall CWsScreenDevice::RectCompare(class TRect const &,class TRect const &,unsigned int)const 
	?GetDefaultScreenModeOrigin@CWsScreenDevice@@QBE?AVTPoint@@XZ @ 394 NONAME ; public: class TPoint  __thiscall CWsScreenDevice::GetDefaultScreenModeOrigin(void)const 
	?GetScreenModeOrigin@CWsScreenDevice@@QBE?AVTPoint@@H@Z @ 395 NONAME ; public: class TPoint  __thiscall CWsScreenDevice::GetScreenModeOrigin(int)const 
	?EnableRedrawStore@RWindow@@QAEXH@Z @ 396 NONAME ; void RWindow::EnableRedrawStore(int)
	?AlphaBlendBitmaps@CWindowGc@@UAEHABVTPoint@@PBVCFbsBitmap@@ABVTRect@@10@Z @ 397 NONAME ; void CWindowGc::AlphaBlendBitmaps(class TPoint const &, class CFbsBitmap const *, class TRect const &, class CFbsBitmap const *, class TPoint const &)
	?AlphaBlendBitmaps@CWindowGc@@UAEHABVTPoint@@PBVCWsBitmap@@ABVTRect@@10@Z @ 398 NONAME ; void CWindowGc::AlphaBlendBitmaps(class TPoint const &, class CWsBitmap const *, class TRect const &, class CWsBitmap const *, class TPoint const &)
	?SetOpaque@CWindowGc@@UAEXH@Z @ 399 NONAME ; void CWindowGc::SetOpaque(int)
	?GetCurrentScreenModeAttributes@CWsScreenDevice@@QBE?AVTSizeMode@@XZ @ 400 NONAME ; public: class TSizeMode  __thiscall CWsScreenDevice::GetCurrentScreenModeAttributes(void)const 
	?GetCurrentScreenModeScaledOrigin@CWsScreenDevice@@QBE?AVTPoint@@XZ @ 401 NONAME ; public: class TPoint  __thiscall CWsScreenDevice::GetCurrentScreenModeScaledOrigin(void)const 
	?GetCurrentScreenModeScale@CWsScreenDevice@@QBE?AVTSize@@XZ @ 402 NONAME ; public: class TSize  __thiscall CWsScreenDevice::GetCurrentScreenModeScale(void)const 
	?GetScreenModeScaledOrigin@CWsScreenDevice@@QBE?AVTPoint@@H@Z @ 403 NONAME ; public: class TPoint  __thiscall CWsScreenDevice::GetScreenModeScaledOrigin(int)const 
	?GetScreenModeScale@CWsScreenDevice@@QBE?AVTSize@@H@Z @ 404 NONAME ; public: class TSize  __thiscall CWsScreenDevice::GetScreenModeScale(int)const 
	?SetAppScreenMode@CWsScreenDevice@@QAEXH@Z @ 405 NONAME ; public: void __thiscall CWsScreenDevice::SetAppScreenMode(int)
	?SetCurrentScreenModeAttributes@CWsScreenDevice@@QAEXABVTSizeMode@@@Z @ 406 NONAME ; public: void __thiscall CWsScreenDevice::SetCurrentScreenModeAttributes(class TSizeMode const &)
	?DrawBitmapMasked@CWindowGc@@UAEXABVTRect@@PBVCFbsBitmap@@01H@Z @ 407 NONAME ; void CWindowGc::DrawBitmapMasked(class TRect const &, class CFbsBitmap const *, class TRect const &, class CFbsBitmap const *, int)
	?Construct@CWsScreenDevice@@QAEHH@Z @ 408 NONAME ; int CWsScreenDevice::Construct(int)
	?GetScreenNumber@CWsScreenDevice@@QBEHXZ @ 409 NONAME ; int CWsScreenDevice::GetScreenNumber(void) const
	?GetFocusScreen@RWsSession@@QBEHXZ @ 410 NONAME ; int RWsSession::GetFocusScreen(void) const
	?SetFocusScreen@RWsSession@@QAEHH@Z @ 411 NONAME ; int RWsSession::SetFocusScreen(int)
	?ConstructChildApp@RWindowGroup@@QAEHHK@Z @ 412 NONAME ; public: int __thiscall RWindowGroup::ConstructChildApp(int,unsigned long)
	?ConstructChildApp@RWindowGroup@@QAEHHKH@Z @ 413 NONAME ; public: int __thiscall RWindowGroup::ConstructChildApp(int,unsigned long,int)
	?WindowGroupList@RWsSession@@QBEHHPAV?$RArray@UTWindowGroupChainInfo@RWsSession@@@@@Z @ 414 NONAME ; int RWsSession::WindowGroupList(int, class RArray<struct RWsSession::TWindowGroupChainInfo> *) const
	?WindowGroupList@RWsSession@@QBEHPAV?$RArray@UTWindowGroupChainInfo@RWsSession@@@@@Z @ 415 NONAME ; int RWsSession::WindowGroupList(class RArray<struct RWsSession::TWindowGroupChainInfo> *) const
	?AllowProcessToCreateChildWindowGroups@RWindowGroup@@QAEXVTUid@@@Z @ 416 NONAME ; public: void __thiscall RWindowGroup::AllowProcessToCreateChildWindowGroups(class TUid)
	?SetTransparencyWsBitmap@RWindow@@QAEHABVCWsBitmap@@@Z @ 417 NONAME ; public: int __thiscall RWindow::SetTransparencyWsBitmap(class CWsBitmap const &)
	?GetScreenSizeModeList@CWsScreenDevice@@QBEHPAV?$RArray@H@@@Z @ 418 NONAME ; int CWsScreenDevice::GetScreenSizeModeList(class RArray<int> *) const
	?GetNearestFontToDesignHeightInPixels@CWsScreenDevice@@UAEHAAPAVCFont@@ABVTFontSpec@@@Z @ 419 NONAME ; int CWsScreenDevice::GetNearestFontToDesignHeightInPixels(class CFont * &, class TFontSpec const &)
	?GetNearestFontToDesignHeightInTwips@CWsScreenDevice@@UAEHAAPAVCFont@@ABVTFontSpec@@@Z @ 420 NONAME ; int CWsScreenDevice::GetNearestFontToDesignHeightInTwips(class CFont * &, class TFontSpec const &)
	?GetNearestFontToMaxHeightInPixels@CWsScreenDevice@@UAEHAAPAVCFont@@ABVTFontSpec@@H@Z @ 421 NONAME ; int CWsScreenDevice::GetNearestFontToMaxHeightInPixels(class CFont * &, class TFontSpec const &, int)
	?GetNearestFontToMaxHeightInTwips@CWsScreenDevice@@UAEHAAPAVCFont@@ABVTFontSpec@@H@Z @ 422 NONAME ; int CWsScreenDevice::GetNearestFontToMaxHeightInTwips(class CFont * &, class TFontSpec const &, int)
	?DisableVisibilityChangeEvents@RWindowTreeNode@@QAEXXZ @ 423 NONAME ; void RWindowTreeNode::DisableVisibilityChangeEvents(void)
	?EnableVisibilityChangeEvents@RWindowTreeNode@@QAEHXZ @ 424 NONAME ; int RWindowTreeNode::EnableVisibilityChangeEvents(void)
	?SetTransparencyAlphaChannel@RWindow@@QAEHXZ @ 425 NONAME ; int RWindow::SetTransparencyAlphaChannel(void)
	?SetColor@RBlankWindow@@QAEXXZ @ 426 NONAME ; void RBlankWindow::SetColor(void)
	?SetClientCursorMode@RWsSession@@QAEHW4TPointerCursorMode@@@Z @ 427 NONAME ; int RWsSession::SetClientCursorMode(enum TPointerCursorMode)
	?GetDrawRect@RDrawableWindow@@QBE?AVTRect@@XZ @ 428 NONAME ; class TRect RDrawableWindow::GetDrawRect(void) const
	?DrawWsGraphic@CWindowGc@@UAEXABVTWsGraphicId@@ABVTRect@@@Z @ 429 NONAME
	?DrawWsGraphic@CWindowGc@@UAEXABVTWsGraphicId@@ABVTRect@@ABVTDesC8@@@Z @ 430 NONAME
	?Reserved_CWindowGc_3@CWindowGc@@EAEXXZ @ 431 NONAME ; void CWindowGc::Reserved_CWindowGc_3(void)
	?Reserved_CWindowGc_4@CWindowGc@@EAEXXZ @ 432 NONAME ; void CWindowGc::Reserved_CWindowGc_4(void)
	?Reserved_CWindowGc_5@CWindowGc@@EAEXXZ @ 433 NONAME ; void CWindowGc::Reserved_CWindowGc_5(void)
	?Reserved_CBitmapContext_1@CWindowGc@@EAEXXZ @ 434 NONAME ; void CWindowGc::Reserved_CBitmapContext_1(void)
	?Reserved_CBitmapContext_2@CWindowGc@@EAEXXZ @ 435 NONAME ; void CWindowGc::Reserved_CBitmapContext_2(void)
	?Reserved_CBitmapContext_3@CWindowGc@@EAEXXZ @ 436 NONAME ; void CWindowGc::Reserved_CBitmapContext_3(void)
	?APIExtension@CWindowGc@@MAEHVTUid@@AAPAXPAX@Z @ 437 NONAME ; int CWindowGc::APIExtension(class TUid, int*&, int *)
	?Reserved_CGraphicsContext_2@CWindowGc@@EAEXXZ @ 438 NONAME ; void CWindowGc::Reserved_CGraphicsContext_2(void)
	?DrawBitmapMasked@CWindowGc@@UAEXABVTRect@@PBVCWsBitmap@@01H@Z @ 439 NONAME ; void CWindowGc::DrawBitmapMasked(class TRect const &, class CWsBitmap const *, class TRect const &, class CWsBitmap const *, int)
	?Connect@RWsSession@@QAEHAAVRFs@@@Z @ 440 NONAME ; int RWsSession::Connect(class RFs &)
	?GetScreenModeDisplayMode@CWsScreenDevice@@QBE?AW4TDisplayMode@@ABH@Z @ 441 NONAME ; enum TDisplayMode CWsScreenDevice::GetScreenModeDisplayMode(int const &) const
	?ClearAllRedrawStores@RWsSession@@QAEXXZ @ 442 NONAME ; public: void __thiscall RWsSession::ClearAllRedrawStores(void)
	?WindowGroupId@RWindowTreeNode@@QBEHXZ @ 443 NONAME ; int RWindowTreeNode::WindowGroupId(void) const
	?GetPointerCapturePriority@RWindowBase@@QBEHXZ @ 444 NONAME ; int RWindowBase::GetPointerCapturePriority(void) const
	?SetPointerCapturePriority@RWindowBase@@QAEXH@Z @ 445 NONAME ; void RWindowBase::SetPointerCapturePriority(int)
	?SetTransparentRegion@RWindow@@QAEHABVTRegion@@@Z @ 446 NONAME ; int RWindow::SetTransparentRegion(class TRegion const &)
	?SetTransparencyPolicy@RWindow@@QAEHW4TWsTransparencyPolicy@@@Z @ 447 NONAME ; int RWindow::SetTransparencyPolicy(enum TWsTransparencyPolicy)
	?IsRedrawStoreEnabled@RWindow@@QBEHXZ @ 448 NONAME ; int RWindow::IsRedrawStoreEnabled(void) const
	?SetBackLight@CWsScreenDevice@@QAEHH@Z @ 449 NONAME ; int CWsScreenDevice::SetBackLight(int)
	?SetOrdinalPositionErr@RWindowGroup@@QAEHHH@Z @ 450 NONAME ; int RWindowGroup::SetOrdinalPositionErr(int, int)
	?ClearChildGroup@RWindowGroup@@QAEHXZ @ 451 NONAME ; int RWindowGroup::ClearChildGroup(void)
	?SetChildGroup@RWindowGroup@@QAEHH@Z @ 452 NONAME ; int RWindowGroup::SetChildGroup(int)
	?Uid@TWsGraphicId@@QBE?AVTUid@@XZ @ 453 NONAME ; class TUid TWsGraphicId::Uid(void) const
	??0CWsGraphic@@IAE@XZ @ 454 NONAME ; CWsGraphic::CWsGraphic(void)
	??0RWsGraphicMsgBuf@@QAE@XZ @ 455 NONAME ; RWsGraphicMsgBuf::RWsGraphicMsgBuf(void)
	??0TWsGraphicMsgFixedBase@@IAE@VTUid@@H@Z @ 456 NONAME ; TWsGraphicMsgFixedBase::TWsGraphicMsgFixedBase(class TUid, int)
	??1CWsGraphic@@UAE@XZ @ 457 NONAME ; CWsGraphic::~CWsGraphic(void)
	?Append@RWsGraphicMsgBuf@@QAEHABVTWsGraphicMsgFixedBase@@@Z @ 458 NONAME ; int RWsGraphicMsgBuf::Append(class TWsGraphicMsgFixedBase const &)
	?Append@RWsGraphicMsgBuf@@QAEHVTUid@@ABVTDesC16@@@Z @ 459 NONAME ; int RWsGraphicMsgBuf::Append(class TUid, class TDesC16 const &)
	?Append@RWsGraphicMsgBuf@@QAEHVTUid@@ABVTDesC8@@@Z @ 460 NONAME ; int RWsGraphicMsgBuf::Append(class TUid, class TDesC8 const &)
	?Append@RWsGraphicMsgBuf@@QAEHVTUid@@HAAVTPtr8@@@Z @ 461 NONAME ; int RWsGraphicMsgBuf::Append(class TUid, int, class TPtr8 &)
	?BaseConstructL@CWsGraphic@@IAEXABVTWsGraphicId@@VTUid@@ABVTDesC8@@@Z @ 462 NONAME ; void CWsGraphic::BaseConstructL(class TWsGraphicId const &, class TUid, class TDesC8 const &)
	?BaseConstructL@CWsGraphic@@IAEXVTUid@@0ABVTDesC8@@@Z @ 463 NONAME ; void CWsGraphic::BaseConstructL(class TUid, class TUid, class TDesC8 const &)
	?BaseConstructL@CWsGraphic@@IAEXVTUid@@ABVTDesC8@@@Z @ 464 NONAME ; void CWsGraphic::BaseConstructL(class TUid, class TDesC8 const &)
	?CWsGraphic_Reserved1@CWsGraphic@@EAEHXZ @ 465 NONAME ; int CWsGraphic::CWsGraphic_Reserved1(void)
	?CWsGraphic_Reserved2@CWsGraphic@@EAEHXZ @ 466 NONAME ; int CWsGraphic::CWsGraphic_Reserved2(void)
	?CWsGraphic_Reserved3@CWsGraphic@@EAEHXZ @ 467 NONAME ; int CWsGraphic::CWsGraphic_Reserved3(void)
	?Compare@TWsGraphicId@@QBEHABV1@@Z @ 468 NONAME ; int TWsGraphicId::Compare(class TWsGraphicId const &) const
	?Count@RWsGraphicMsgBuf@@QBEHXZ @ 469 NONAME ; int RWsGraphicMsgBuf::Count(void) const
	?Data@RWsGraphicMsgBuf@@QBE?AVTPtrC8@@H@Z @ 470 NONAME ; class TPtrC8 RWsGraphicMsgBuf::Data(int) const
	?Destroy@CWsGraphic@@QAEXXZ @ 471 NONAME ; void CWsGraphic::Destroy(void)
	?GetFixedMsg@RWsGraphicMsgBuf@@QBEXAAVTWsGraphicMsgFixedBase@@H@Z @ 472 NONAME ; void RWsGraphicMsgBuf::GetFixedMsg(class TWsGraphicMsgFixedBase &, int) const
	?Id@CWsGraphic@@QBEABVTWsGraphicId@@XZ @ 473 NONAME ; class TWsGraphicId const & CWsGraphic::Id(void) const
	?IsActive@CWsGraphic@@QBEHXZ @ 474 NONAME ; int CWsGraphic::IsActive(void) const
	?IsId@TWsGraphicId@@QBEHXZ @ 475 NONAME ; int TWsGraphicId::IsId(void) const
	?OnClientClose@CWsGraphic@@EAEXXZ @ 476 NONAME ; void CWsGraphic::OnClientClose(void)
	?Pckg@RWsGraphicMsgBuf@@QBEABVTDesC8@@XZ @ 477 NONAME ; class TDesC8 const & RWsGraphicMsgBuf::Pckg(void) const
	?Pckg@TWsGraphicMsgFixedBase@@QBE?AVTPtrC8@@XZ @ 478 NONAME ; class TPtrC8 TWsGraphicMsgFixedBase::Pckg(void) const
	?Remove@RWsGraphicMsgBuf@@QAEXH@Z @ 479 NONAME ; void RWsGraphicMsgBuf::Remove(int)
	?SendMessage@CWsGraphic@@IBEXABVTDesC8@@@Z @ 480 NONAME ; void CWsGraphic::SendMessage(class TDesC8 const &) const
	?Set@TWsGraphicId@@QAEXH@Z @ 481 NONAME ; void TWsGraphicId::Set(int)
	?Set@TWsGraphicId@@QAEXVTUid@@@Z @ 482 NONAME ; void TWsGraphicId::Set(class TUid)
	?Share@CWsGraphic@@MAEHVTSecureId@@@Z @ 483 NONAME ; int CWsGraphic::Share(class TSecureId)
	?ShareGlobally@CWsGraphic@@MAEHXZ @ 484 NONAME ; int CWsGraphic::ShareGlobally(void)
	?Size@TWsGraphicMsgFixedBase@@QBEHXZ @ 485 NONAME ; int TWsGraphicMsgFixedBase::Size(void) const
	?TypeId@RWsGraphicMsgBuf@@QBE?AVTUid@@H@Z @ 486 NONAME ; class TUid RWsGraphicMsgBuf::TypeId(int) const
	?TypeId@TWsGraphicMsgFixedBase@@QBE?AVTUid@@XZ @ 487 NONAME ; class TUid TWsGraphicMsgFixedBase::TypeId(void) const
	?UnShare@CWsGraphic@@MAEHVTSecureId@@@Z @ 488 NONAME ; int CWsGraphic::UnShare(class TSecureId)
	?UnShareGlobally@CWsGraphic@@MAEHXZ @ 489 NONAME ; int CWsGraphic::UnShareGlobally(void)
	?Data@RWsGraphicMsgBuf@@QAE?AVTPtr8@@H@Z @ 490 NONAME ; class TPtr8 RWsGraphicMsgBuf::Data(int)
	??0TWsGraphicId@@QAE@ABV0@@Z @ 491 NONAME ; TWsGraphicId::TWsGraphicId(class TWsGraphicId const &)
	??0TWsGraphicId@@QAE@H@Z @ 492 NONAME ; TWsGraphicId::TWsGraphicId(int)
	?Flush@CWsGraphic@@IBEHXZ @ 493 NONAME ; int CWsGraphic::Flush(void) const
	?Construct@RWindowGroup@@QAEHKHPAVCWsScreenDevice@@@Z @ 494 NONAME ; int RWindowGroup::Construct(unsigned long, int, class CWsScreenDevice *)
	?Construct@RWindowGroup@@QAEHKPAVCWsScreenDevice@@@Z @ 495 NONAME ; int RWindowGroup::Construct(unsigned long, class CWsScreenDevice *)
	?GetColorModeList@RWsSession@@QBEHHPAV?$CArrayFixFlat@H@@@Z @ 496 NONAME ; int RWsSession::GetColorModeList(int, class CArrayFixFlat<int> *) const
	?GetDefModeMaxNumColors@RWsSession@@QBE?AW4TDisplayMode@@HAAH0@Z @ 497 NONAME ; enum TDisplayMode RWsSession::GetDefModeMaxNumColors(int, int &, int &) const
	?GetDefaultOwningWindow@RWsSession@@QBEHH@Z @ 498 NONAME ; int RWsSession::GetDefaultOwningWindow(int) const
	?GetFocusWindowGroup@RWsSession@@QBEHH@Z @ 499 NONAME ; int RWsSession::GetFocusWindowGroup(int) const
	?NumWindowGroups@RWsSession@@QBEHHH@Z @ 500 NONAME ; int RWsSession::NumWindowGroups(int, int) const
	?NumberOfScreens@RWsSession@@QBEHXZ @ 501 NONAME ; int RWsSession::NumberOfScreens(void) const
	?WindowGroupList@RWsSession@@QBEHPAV?$CArrayFixFlat@H@@HH@Z @ 502 NONAME ; int RWsSession::WindowGroupList(class CArrayFixFlat<int> *, int, int) const
	??0TWsGraphicId@@QAE@VTUid@@@Z @ 503 NONAME ; TWsGraphicId::TWsGraphicId(class TUid)
	?SetMaxBufferSizeL@RWsSession@@QAEXH@Z @ 504 NONAME ; public: void __thiscall RWsSession::SetMaxBufferSizeL(int)
	?EnableOSB@RWindow@@QAEXH@Z @ 505 NONAME ; void RWindow::EnableOSB(int)
	?Id@TWsGraphicId@@QBEHXZ @ 506 NONAME ; int TWsGraphicId::Id(void) const
	?IsUid@TWsGraphicId@@QBEHXZ @ 507 NONAME ; int TWsGraphicId::IsUid(void) const
	?SetGraphicExtension@CWsGraphic@@IAEXPAVMWsObjectProvider@@@Z @ 508 NONAME ; void CWsGraphic::SetGraphicExtension(class MWsObjectProvider *)
	?SendSynchronMessage@CWsGraphic@@IBEHABVTDesC8@@@Z @ 509 NONAME ; int CWsGraphic::SendSynchronMessage(class TDesC8 const &) const
	?DebugInfo@RWsSession@@QBEHHAAVTDes8@@H@Z @ 510 NONAME ; int RWsSession::DebugInfo(int, class TDes8 &, int) const
	?DebugInfo@RWsSession@@QBEHHH@Z @ 511 NONAME ; int RWsSession::DebugInfo(int, int) const
	?ClientHandle@RWindowTreeNode@@QBEKXZ @ 512 NONAME ; unsigned long RWindowTreeNode::ClientHandle(void) const
	?SetBackgroundSurface@RWindowBase@@QAEHABVTSurfaceId@@@Z @ 513 NONAME ; int RWindowBase::SetBackgroundSurface(class TSurfaceId const &)
	?SetBackgroundOverlay@RWindowBase@@QAEHVTRgb@@@Z @ 514 NONAME ABSENT
	?KeyColor@RWindowBase@@QBE?AVTRgb@@XZ @ 515 NONAME ; class TRgb RWindowBase::KeyColor(void) const
	?NotifyOnPositionChange@RWindowBase@@QAEXAAVTRequestStatus@@@Z @ 516 NONAME ABSENT
	?NotifyOnSizeChange@RWindowBase@@QAEXAAVTRequestStatus@@@Z @ 517 NONAME ABSENT
	?NotifyOnPositionChangeCancel@RWindowBase@@QAEXXZ @ 518 NONAME ABSENT
	?NotifyOnSizeChangeCancel@RWindowBase@@QAEXXZ @ 519 NONAME ABSENT
	?GetBackgroundOverlay@RWindowBase@@QAEHAAVTOverlayConfiguration@@@Z @ 520 NONAME ABSENT
	?GetBackgroundSurface@RWindowBase@@QBEHAAVTSurfaceConfiguration@@@Z @ 521 NONAME ; int RWindowBase::GetBackgroundSurface(class TSurfaceConfiguration &) const
	?PreferredOverlayConfigurationSize@RWsSession@@QAEHXZ @ 522 NONAME ABSENT
	?PreferredSurfaceConfigurationSize@RWsSession@@QBEHXZ @ 523 NONAME ; int RWsSession::PreferredSurfaceConfigurationSize(void) const
	?RegisterSurface@RWsSession@@QAEHHABVTSurfaceId@@@Z @ 524 NONAME ; int RWsSession::RegisterSurface(int, class TSurfaceId const &)
	?RemoveBackgroundOverlay@RWindowBase@@QAEXH@Z @ 525 NONAME ABSENT
	?RemoveBackgroundSurface@RWindowBase@@QAEXH@Z @ 526 NONAME ; void RWindowBase::RemoveBackgroundSurface(int)
	?SetBackgroundOverlay@RWindowBase@@QAEHABVTOverlayConfiguration@@H@Z @ 527 NONAME ABSENT
	?SetBackgroundSurface@RWindowBase@@QAEHABVTSurfaceConfiguration@@H@Z @ 528 NONAME ; int RWindowBase::SetBackgroundSurface(class TSurfaceConfiguration const &, int)
	?UnregisterSurface@RWsSession@@QAEXHABVTSurfaceId@@@Z @ 529 NONAME ; void RWsSession::UnregisterSurface(int, class TSurfaceId const &)
	?ClearRedrawStore@RWindow@@QAEXXZ @ 530 NONAME ; void RWindow::ClearRedrawStore(void)
	?Finish@RWsSession@@QAEHXZ @ 531 NONAME ; int RWsSession::Finish(void)
	?SyncMsgBuf@RWsSession@@QAEXXZ @ 532 NONAME ; void RWsSession::SyncMsgBuf(void)
	?Session@CWsGraphic@@IAEAAVRWsSession@@XZ @ 533 NONAME ; class RWsSession & CWsGraphic::Session(void)
	?ScreenNumber@RWindowTreeNode@@QBEHXZ @ 534 NONAME ; int RWindowTreeNode::ScreenNumber(void) const
	?SetPointerNumber@TWsEvent@@QAEXE@Z @ 535 NONAME ; void TWsEvent::SetPointerNumber(unsigned char)
	?DoGetPointerNumber@TAdvancedPointerEvent@@ABEHXZ @ 536 NONAME ; int TAdvancedPointerEvent::DoGetPointerNumber(void) const
	?ClaimPointerGrab@RWindowBase@@QAEHEH@Z @ 537 NONAME ; int RWindowBase::ClaimPointerGrab(unsigned char, int)
	?RequestPointerRepeatEvent@RWindowBase@@QAEHVTTimeIntervalMicroSeconds32@@ABVTRect@@E@Z @ 538 NONAME ; int RWindowBase::RequestPointerRepeatEvent(class TTimeIntervalMicroSeconds32, class TRect const &, unsigned char)
	?GetExitHighPressureThreshold@RWsSession@@QBEHXZ @ 539 NONAME ; int RWsSession::GetExitHighPressureThreshold(void) const
	?SetCloseProximityThresholds@RWsSession@@QAEHHH@Z @ 540 NONAME ; int RWsSession::SetCloseProximityThresholds(int, int)
	?SetHighPressureThresholds@RWsSession@@QAEHHH@Z @ 541 NONAME ; int RWsSession::SetHighPressureThresholds(int, int)
	?CancelPointerRepeatEventRequest@RWindowBase@@QAEHE@Z @ 542 NONAME ; int RWindowBase::CancelPointerRepeatEventRequest(unsigned char)
	?InitAdvancedPointerEvent@TWsEvent@@QAEXW4TType@TPointerEvent@@IABVTPoint3D@@E@Z @ 543 NONAME ; void TWsEvent::InitAdvancedPointerEvent(enum TPointerEvent::TType, unsigned int, class TPoint3D const &, unsigned char)
	?GetExitCloseProximityThreshold@RWsSession@@QBEHXZ @ 544 NONAME ; int RWsSession::GetExitCloseProximityThreshold(void) const
	?EnableAdvancedPointers@RWindowBase@@QAEXXZ @ 545 NONAME ; void RWindowBase::EnableAdvancedPointers(void)
	?SetPointerZ@TWsEvent@@QAEXH@Z @ 546 NONAME ; void TWsEvent::SetPointerZ(int)
	?DoGetProximityAndPressure@TAdvancedPointerEvent@@ABEHXZ @ 547 NONAME ; int TAdvancedPointerEvent::DoGetProximityAndPressure(void) const
	?DoGetProximity@TAdvancedPointerEvent@@ABEHXZ @ 548 NONAME ; int TAdvancedPointerEvent::DoGetProximity(void) const
	?DoGetPressure@TAdvancedPointerEvent@@ABEHXZ @ 549 NONAME ; int TAdvancedPointerEvent::DoGetPressure(void) const
	?SimulateAdvancedPointerEvent@RWindowGroup@@QAEXVTRawEvent@@@Z @ 550 NONAME ; void RWindowGroup::SimulateAdvancedPointerEvent(class TRawEvent)
	?GetEnterHighPressureThreshold@RWsSession@@QBEHXZ @ 551 NONAME ; int RWsSession::GetEnterHighPressureThreshold(void) const
	?GetEnterCloseProximityThreshold@RWsSession@@QBEHXZ @ 552 NONAME ; int RWsSession::GetEnterCloseProximityThreshold(void) const
	??4TAdvancedPointerEvent@@QAEAAV0@ABV0@@Z @ 553 NONAME ; class TAdvancedPointerEvent & TAdvancedPointerEvent::operator=(class TAdvancedPointerEvent const &)
	??0TAdvancedPointerEvent@@QAE@ABV0@@Z @ 554 NONAME ; TAdvancedPointerEvent::TAdvancedPointerEvent(class TAdvancedPointerEvent const &)
	??0RWsDrawableSource@@QAE@XZ @ 555 NONAME ; RWsDrawableSource::RWsDrawableSource(void)
	?Close@RWsDrawableSource@@QAEXXZ @ 556 NONAME ; void RWsDrawableSource::Close(void)
	?Create@RWsDrawableSource@@QAEHABVRSgDrawable@@@Z @ 557 NONAME ; int RWsDrawableSource::Create(class RSgDrawable const &)
	?DrawableId@RWsDrawableSource@@QBEABVTSgDrawableId@@XZ @ 558 NONAME ; class TSgDrawableId const & RWsDrawableSource::DrawableId(void) const
	?DrawResource@CWindowGc@@QAEXABVTPoint@@ABVRWsDrawableSource@@W4TGraphicsRotation@1@@Z @ 559 NONAME ABSENT ; void CWindowGc::DrawResource(class TPoint const &, class RWsDrawableSource const &, enum CWindowGc::TGraphicsRotation)
	?DrawResource@CWindowGc@@QAEXABVTRect@@ABVRWsDrawableSource@@W4TGraphicsRotation@1@@Z @ 560 NONAME ABSENT ; void CWindowGc::DrawResource(class TRect const &, class RWsDrawableSource const &, enum CWindowGc::TGraphicsRotation)
	?DrawResource@CWindowGc@@QAEXABVTRect@@ABVRWsDrawableSource@@0W4TGraphicsRotation@1@@Z @ 561 NONAME ABSENT ; void CWindowGc::DrawResource(class TRect const &, class RWsDrawableSource const &, class TRect const &, enum CWindowGc::TGraphicsRotation)
	?DrawResource@CWindowGc@@QAEXABVTRect@@ABVRWsDrawableSource@@ABVTDesC8@@@Z @ 562 NONAME ABSENT ; void CWindowGc::DrawResource(class TRect const &, class RWsDrawableSource const &, class TDesC8 const &)
	?Construct@RDirectScreenAccess@@QAEHH@Z @ 563 NONAME ; int RDirectScreenAccess::Construct(int)
	?NewL@CDirectScreenAccess@@SAPAV1@AAVRWsSession@@AAVCWsScreenDevice@@AAVRWindowBase@@AAVMDirectScreenAccess@@H@Z @ 564 NONAME ; class CDirectScreenAccess * CDirectScreenAccess::NewL(class RWsSession &, class CWsScreenDevice &, class RWindowBase &, class MDirectScreenAccess &, int)
	?Create@RWsDrawableSource@@QAEHABVRSgDrawable@@H@Z @ 565 NONAME ; int RWsDrawableSource::Create(class RSgDrawable const &, int)
	??0RWsDrawableSource@@QAE@AAVRWsSession@@@Z @ 566 NONAME ; RWsDrawableSource::RWsDrawableSource(class RWsSession &)
	?ScreenNumber@RWsDrawableSource@@QBEHXZ @ 567 NONAME ; int RWsDrawableSource::ScreenNumber(void) const
	?GetInterface@CWsScreenDevice@@QAEPAXI@Z @ 568 NONAME ; void * CWsScreenDevice::GetInterface(unsigned int)
	?IsCurrentModeDynamic@CWsScreenDevice@@QBEHXZ @ 569 NONAME ; int CWsScreenDevice::IsCurrentModeDynamic(void) const
	?IsModeDynamic@CWsScreenDevice@@QBEHH@Z @ 570 NONAME ; int CWsScreenDevice::IsModeDynamic(int) const
	?Interface@CWindowGc@@QBEPBXVTUid@@@Z @ 571 NONAME ; void const * CWindowGc::Interface(class TUid) const
	?Interface@CWindowGc@@QAEPAXVTUid@@@Z @ 572 NONAME ; void * CWindowGc::Interface(class TUid)
	?Session@RWindowTreeNode@@QBEPAVRWsSession@@XZ @ 573 NONAME ; class RWsSession * RWindowTreeNode::Session(void) const
	?HeapSetBurstFail@RWsSession@@QAEXHHH@Z @ 574 NONAME ; void RWsSession::HeapSetBurstFail(int, int, int)
	?EnableWindowSizeCacheL@RWsSession@@QAEXXZ @ 575 NONAME ; void RWsSession::EnableWindowSizeCacheL(void)
	?SetSurfaceTransparency@RWindowBase@@QAEXH@Z @ 576 NONAME ; void RWindowBase::SetSurfaceTransparency(int)
	?SizeForEgl@RWindowBase@@QBE?AVTSize@@XZ @ 577 NONAME ; class TSize RWindowBase::SizeForEgl(void) const
	?FixNativeOrientation@RWindowBase@@QAEHXZ @ 578 NONAME ; int RWindowBase::FixNativeOrientation(void)
	?SetPurpose@RWindowBase@@QAEXH@Z @ 579 NONAME ; void RWindowBase::SetPurpose(int)
	?SendEffectCommand@RWindowBase@@QAEXHABVTDesC8@@@Z @ 580 NONAME ; void RWindowBase::SendEffectCommand(int, class TDesC8 const &)
	?SendEffectCommand@RWsSession@@QAEXHABVTDesC8@@@Z @ 581 NONAME ; void RWsSession::SendEffectCommand(int, class TDesC8 const &)
	?RegisterEffect@RWsSession@@QAEXHHABV?$TBuf@$0BAA@@@00IV?$TBitFlagsT@K@@@Z @ 582 NONAME ; void RWsSession::RegisterEffect(int, int, class TBuf<256> const &, class TBuf<256> const &, class TBuf<256> const &, unsigned int, class TBitFlagsT<unsigned long>)
	?OverrideEffects@RWindowBase@@QAEXHABV?$TBuf@$0BAA@@@00V?$TBitFlagsT@K@@@Z @ 583 NONAME ; void RWindowBase::OverrideEffects(int, class TBuf<256> const &, class TBuf<256> const &, class TBuf<256> const &, class TBitFlagsT<unsigned long>)
	?OverrideEffects@RWsSession@@QAEXHHABV?$TBuf@$0BAA@@@00V?$TBitFlagsT@K@@@Z @ 584 NONAME ; void RWsSession::OverrideEffects(int, int, class TBuf<256> const &, class TBuf<256> const &, class TBuf<256> const &, class TBitFlagsT<unsigned long>)
	?UnregisterEffect@RWsSession@@QAEXHHI@Z @ 585 NONAME ; void RWsSession::UnregisterEffect(int, int, unsigned int)
	?UnregisterAllEffects@RWsSession@@QAEXXZ @ 586 NONAME ; void RWsSession::UnregisterAllEffects(void)
	?IndicateAppOrientation@RWsSession@@QAEXW4TRenderOrientation@@@Z @ 587 NONAME ; void RWsSession::IndicateAppOrientation(enum TRenderOrientation)

