EXPORTS
	_ZN18CMMFDevSoundServer11StartThreadEPv @ 1 NONAME
	_ZN18CMMFDevSoundServer4NewLEP15CMMFAudioServerR10TProcessId @ 2 NONAME
	_ZTI17TMdaDTMFGenerator @ 3 NONAME ; #<TI>#
	_ZTI17TMdaToneGenerator @ 4 NONAME ; #<TI>#
	_ZTI19CMMFDevSoundSession @ 5 NONAME ; #<TI>#
	_ZTI19CMMFDevSoundUtility @ 6 NONAME ; #<TI>#
	_ZTI21TMdaDualToneGenerator @ 7 NONAME ; #<TI>#
	_ZTI21TMdaSequenceGenerator @ 8 NONAME ; #<TI>#
	_ZTI23TMdaSimpleToneGenerator @ 9 NONAME ; #<TI>#
	_ZTI24CMMFDevSoundEventHandler @ 10 NONAME ; #<TI>#
	_ZTIN18CMMFDevSoundServer22CDelayDevSoundShutDownE @ 11 NONAME ; #<TI>#
	_ZTV17TMdaDTMFGenerator @ 12 NONAME ; #<VT>#
	_ZTV17TMdaToneGenerator @ 13 NONAME ; #<VT>#
	_ZTV19CMMFDevSoundSession @ 14 NONAME ; #<VT>#
	_ZTV19CMMFDevSoundUtility @ 15 NONAME ; #<VT>#
	_ZTV21TMdaDualToneGenerator @ 16 NONAME ; #<VT>#
	_ZTV21TMdaSequenceGenerator @ 17 NONAME ; #<VT>#
	_ZTV23TMdaSimpleToneGenerator @ 18 NONAME ; #<VT>#
	_ZTV24CMMFDevSoundEventHandler @ 19 NONAME ; #<VT>#
	_ZTVN18CMMFDevSoundServer22CDelayDevSoundShutDownE @ 20 NONAME ; #<VT>#
	_ZTI26CRoutingSoundDeviceHandler @ 21 NONAME ; #<TI>#
	_ZTV26CRoutingSoundDeviceHandler @ 22 NONAME ; #<VT>#
	