EXPORTS
	?ProcessAssistanceData@MLbsNetworkProtocolObserver2@@UAEXKABVRLbsAssistanceDataBuilderSet@@HABVTLbsNetSessionIdArray@@@Z @ 1 NONAME ; void MLbsNetworkProtocolObserver2::ProcessAssistanceData(unsigned long, class RLbsAssistanceDataBuilderSet const &, int, class TLbsNetSessionIdArray const &)
	??0TLbsNetSessionIdArray@@QAE@XZ @ 2 NONAME ; TLbsNetSessionIdArray::TLbsNetSessionIdArray(void)
	?SetSessionNum@TLbsNetSessionId@@QAEXK@Z @ 3 NONAME ; void TLbsNetSessionId::SetSessionNum(unsigned long)
	?RespondPrivacyRequest@CLbsNetworkProtocolBase2@@EAEXABVTLbsNetSessionId@@ABW4TLbsPrivacyResponse@CLbsNetworkProtocolBase@@@Z @ 4 NONAME ; void CLbsNetworkProtocolBase2::RespondPrivacyRequest(class TLbsNetSessionId const &, enum CLbsNetworkProtocolBase::TLbsPrivacyResponse const &)
	?GetRequestQuality@TLbsNetPosRequestOptions@@QBEXAAVTLbsNetPosRequestQuality@@@Z @ 5 NONAME ; void TLbsNetPosRequestOptions::GetRequestQuality(class TLbsNetPosRequestQuality &) const
	??0TLbsNetPosRequestOptionsTechnology@@QAE@XZ @ 6 NONAME ; TLbsNetPosRequestOptionsTechnology::TLbsNetPosRequestOptionsTechnology(void)
	?RequestAssistanceData@CLbsNetworkProtocolBase@@UAEXK@Z @ 7 NONAME ; void CLbsNetworkProtocolBase::RequestAssistanceData(unsigned long)
	??0TLbsNetPosRequestOptionsAssistance@@QAE@XZ @ 8 NONAME ; TLbsNetPosRequestOptionsAssistance::TLbsNetPosRequestOptionsAssistance(void)
	?PosMode@TLbsNetPosRequestOptionsTechnology@@QBEKXZ @ 9 NONAME ; unsigned long TLbsNetPosRequestOptionsTechnology::PosMode(void) const
	?PosMode@TLbsNetPosRequestOptionsAssistance@@QBEKXZ @ 10 NONAME ; unsigned long TLbsNetPosRequestOptionsAssistance::PosMode(void) const
	?ProcessAssistanceData@MLbsNetworkProtocolObserver@@UAEXKABVRLbsAssistanceDataBuilderSet@@H@Z @ 11 NONAME ; void MLbsNetworkProtocolObserver::ProcessAssistanceData(unsigned long, class RLbsAssistanceDataBuilderSet const &, int)
	?SessionNum@TLbsNetSessionId@@QBEKXZ @ 12 NONAME ; unsigned long TLbsNetSessionId::SessionNum(void) const
	?RequestAssistanceData@CLbsNetworkProtocolBase2@@UAEXKABVTLbsNetSessionIdArray@@@Z @ 13 NONAME ; void CLbsNetworkProtocolBase2::RequestAssistanceData(unsigned long, class TLbsNetSessionIdArray const &)
	??0TLbsNetProtocolModuleParams@@QAE@AAVMLbsNetworkProtocolObserver@@@Z @ 14 NONAME ; TLbsNetProtocolModuleParams::TLbsNetProtocolModuleParams(class MLbsNetworkProtocolObserver &)
	??0TLbsNetPosRequestOptionsBase@@QAE@XZ @ 15 NONAME ; TLbsNetPosRequestOptionsBase::TLbsNetPosRequestOptionsBase(void)
	?ExtendedInterface@CLbsNetworkProtocolBase2@@UAEPAXHPAX0@Z @ 16 NONAME ; void * CLbsNetworkProtocolBase2::ExtendedInterface(int, void *, void *)
	?RequestTransmitLocation@CLbsNetworkProtocolBase@@UAEXABVTLbsNetSessionId@@ABVTDesC16@@H@Z @ 17 NONAME ; void CLbsNetworkProtocolBase::RequestTransmitLocation(class TLbsNetSessionId const &, class TDesC16 const &, int)
	?SetMinHorizontalAccuracy@TLbsNetPosRequestQuality@@QAEXM@Z @ 18 NONAME ; void TLbsNetPosRequestQuality::SetMinHorizontalAccuracy(float)
	??0TLbsNetPosRequestPrivacy@@QAE@XZ @ 19 NONAME ; TLbsNetPosRequestPrivacy::TLbsNetPosRequestPrivacy(void)
	?Observer@TLbsNetProtocolModuleParams@@QBEAAVMLbsNetworkProtocolObserver@@XZ @ 20 NONAME ; class MLbsNetworkProtocolObserver & TLbsNetProtocolModuleParams::Observer(void) const
	?PosMeans@TLbsNetPosMethod@@QBE?AVTUid@@XZ @ 21 NONAME ; class TUid TLbsNetPosMethod::PosMeans(void) const
	?IncrSession@TLbsNetSessionId@@QAEXXZ @ 22 NONAME ; void TLbsNetSessionId::IncrSession(void)
	?GetCurrentCapabilities@@YAXAAVTLbsNetPosCapabilities@@@Z @ 23 NONAME ; void GetCurrentCapabilities(class TLbsNetPosCapabilities &)
	?SetSessions@TLbsNetSessionIdArray@@QAEHQBVTLbsNetSessionId@@H@Z @ 24 NONAME ; int TLbsNetSessionIdArray::SetSessions(class TLbsNetSessionId const * const, int)
	?ClassType@TLbsNetClassTypeBase@@QBEKXZ @ 25 NONAME ; unsigned long TLbsNetClassTypeBase::ClassType(void) const
	?CancelExternalLocation@CLbsNetworkProtocolBase2@@UAEXABVTLbsNetSessionId@@H@Z @ 26 NONAME ; void CLbsNetworkProtocolBase2::CancelExternalLocation(class TLbsNetSessionId const &, int)
	?ProcessPrivacyRequest@MLbsNetworkProtocolObserver@@UAEXABVTLbsNetSessionId@@HABVTLbsNetPosRequestPrivacy@@ABVTLbsExternalRequestInfo@@@Z @ 27 NONAME ; void MLbsNetworkProtocolObserver::ProcessPrivacyRequest(class TLbsNetSessionId const &, int, class TLbsNetPosRequestPrivacy const &, class TLbsExternalRequestInfo const &)
	?RespondPrivacyRequest@CLbsNetworkProtocolBase@@UAEXABVTLbsNetSessionId@@ABW4TLbsPrivacyResponse@1@@Z @ 28 NONAME ; void CLbsNetworkProtocolBase::RespondPrivacyRequest(class TLbsNetSessionId const &, enum CLbsNetworkProtocolBase::TLbsPrivacyResponse const &)
	?NewClientConnected@TLbsNetPosRequestOptions@@QBEHXZ @ 29 NONAME ; int TLbsNetPosRequestOptions::NewClientConnected(void) const
	?ProcessStatusUpdate@MLbsNetworkProtocolObserver@@UAEXK@Z @ 30 NONAME ; void MLbsNetworkProtocolObserver::ProcessStatusUpdate(unsigned long)
	?Version@MLbsNetworkProtocolObserver2@@UBE?AVTVersion@@XZ @ 31 NONAME ; class TVersion MLbsNetworkProtocolObserver2::Version(void) const
	?ClassSize@TLbsNetClassTypeBase@@QBEIXZ @ 32 NONAME ; unsigned int TLbsNetClassTypeBase::ClassSize(void) const
	?SetPosProtocols@TLbsNetPosCapabilities@@QAEHQBVTUid@@H@Z @ 33 NONAME ; int TLbsNetPosCapabilities::SetPosProtocols(class TUid const * const, int)
	?RespondPrivacyRequest@CLbsNetworkProtocolBase2@@UAEXABVTLbsNetSessionId@@ABW4TLbsPrivacyResponse@CLbsNetworkProtocolBase@@H@Z @ 34 NONAME ; void CLbsNetworkProtocolBase2::RespondPrivacyRequest(class TLbsNetSessionId const &, enum CLbsNetworkProtocolBase::TLbsPrivacyResponse const &, int)
	??0TLbsNetSessionId@@QAE@XZ @ 35 NONAME ; TLbsNetSessionId::TLbsNetSessionId(void)
	?SetNewClientConnected@TLbsNetPosRequestOptions@@QAEXH@Z @ 36 NONAME ; void TLbsNetPosRequestOptions::SetNewClientConnected(int)
	?NumSessions@TLbsNetSessionIdArray@@QBEHXZ @ 37 NONAME ; int TLbsNetSessionIdArray::NumSessions(void) const
	?SetPosMethods@TLbsNetPosRequestMethod@@QAEHQBVTLbsNetPosMethod@@H@Z @ 38 NONAME ; int TLbsNetPosRequestMethod::SetPosMethods(class TLbsNetPosMethod const * const, int)
	?SetMaxFixTime@TLbsNetPosRequestQuality@@QAEXVTTimeIntervalMicroSeconds@@@Z @ 39 NONAME ; void TLbsNetPosRequestQuality::SetMaxFixTime(class TTimeIntervalMicroSeconds)
	??0TLbsNetPosRequestMethod@@QAE@XZ @ 40 NONAME ; TLbsNetPosRequestMethod::TLbsNetPosRequestMethod(void)
	?Version@MLbsNetworkProtocolObserver@@UBE?AVTVersion@@XZ @ 41 NONAME ; class TVersion MLbsNetworkProtocolObserver::Version(void) const
	?SetPosMode@TLbsNetPosRequestOptionsAssistance@@QAEXK@Z @ 42 NONAME ; void TLbsNetPosRequestOptionsAssistance::SetPosMode(unsigned long)
	?MinVerticalAccuracy@TLbsNetPosRequestQuality@@QBEMXZ @ 43 NONAME ; float TLbsNetPosRequestQuality::MinVerticalAccuracy(void) const
	?CancelTransmitLocation@CLbsNetworkProtocolBase@@UAEXABVTLbsNetSessionId@@H@Z @ 44 NONAME ; void CLbsNetworkProtocolBase::CancelTransmitLocation(class TLbsNetSessionId const &, int)
	?ProcessLocationUpdate@@YAXABVTLbsNetSessionId@@ABVTPositionInfoBase@@@Z @ 45 NONAME ; void ProcessLocationUpdate(class TLbsNetSessionId const &, class TPositionInfoBase const &)
	?NumPosMethods@TLbsNetPosCapabilities@@QBEHXZ @ 46 NONAME ; int TLbsNetPosCapabilities::NumPosMethods(void) const
	??0TLbsNetClassTypeBase@@IAE@XZ @ 47 NONAME ; TLbsNetClassTypeBase::TLbsNetClassTypeBase(void)
	?NewL@CLbsNetworkProtocolBase@@SAPAV1@VTUid@@AAVTLbsNetProtocolModuleParams@@@Z @ 48 NONAME ; class CLbsNetworkProtocolBase * CLbsNetworkProtocolBase::NewL(class TUid, class TLbsNetProtocolModuleParams &)
	?ProcessSessionComplete@MLbsNetworkProtocolObserver@@UAEXABVTLbsNetSessionId@@H@Z @ 49 NONAME ; void MLbsNetworkProtocolObserver::ProcessSessionComplete(class TLbsNetSessionId const &, int)
	?SetMinVerticalAccuracy@TLbsNetPosRequestQuality@@QAEXM@Z @ 50 NONAME ; void TLbsNetPosRequestQuality::SetMinVerticalAccuracy(float)
	?NumPosProtocols@TLbsNetPosCapabilities@@QBEHXZ @ 51 NONAME ; int TLbsNetPosCapabilities::NumPosProtocols(void) const
	?SetPosMethods@TLbsNetPosCapabilities@@QAEHQBVTLbsNetPosMethod@@H@Z @ 52 NONAME ; int TLbsNetPosCapabilities::SetPosMethods(class TLbsNetPosMethod const * const, int)
	?MaxFixTime@TLbsNetPosRequestQuality@@QBE?AVTTimeIntervalMicroSeconds@@XZ @ 53 NONAME ; class TTimeIntervalMicroSeconds TLbsNetPosRequestQuality::MaxFixTime(void) const
	?PosMode@TLbsNetPosMethod@@QBEKXZ @ 54 NONAME ; unsigned long TLbsNetPosMethod::PosMode(void) const
	?SetSessionOwner@TLbsNetSessionId@@QAEXVTUid@@@Z @ 55 NONAME ; void TLbsNetSessionId::SetSessionOwner(class TUid)
	?SetDataRequestMask@TLbsNetPosRequestOptionsAssistance@@QAEXK@Z @ 56 NONAME ; void TLbsNetPosRequestOptionsAssistance::SetDataRequestMask(unsigned long)
	?RequestAction@TLbsNetPosRequestPrivacy@@QBE?AW4TLbsRequestAction@1@XZ @ 57 NONAME ; enum TLbsNetPosRequestPrivacy::TLbsRequestAction TLbsNetPosRequestPrivacy::RequestAction(void) const
	?GetPosProtocol@TLbsNetPosCapabilities@@QBEHHAAVTUid@@@Z @ 58 NONAME ; int TLbsNetPosCapabilities::GetPosProtocol(int, class TUid &) const
	?GetPosMethod@TLbsNetPosRequestMethod@@QBEHHAAVTLbsNetPosMethod@@@Z @ 59 NONAME ; int TLbsNetPosRequestMethod::GetPosMethod(int, class TLbsNetPosMethod &) const
	?RequestTransmitLocation@CLbsNetworkProtocolBase2@@EAEXABVTLbsNetSessionId@@ABVTDesC16@@H@Z @ 60 NONAME ; void CLbsNetworkProtocolBase2::RequestTransmitLocation(class TLbsNetSessionId const &, class TDesC16 const &, int)
	?SetRequestAdvice@TLbsNetPosRequestPrivacy@@QAEXW4TLbsRequestAdvice@1@@Z @ 61 NONAME ; void TLbsNetPosRequestPrivacy::SetRequestAdvice(enum TLbsNetPosRequestPrivacy::TLbsRequestAdvice)
	??0TLbsNetPosMethod@@QAE@XZ @ 62 NONAME ; TLbsNetPosMethod::TLbsNetPosMethod(void)
	??0TLbsNetPosRequestQuality@@QAE@XZ @ 63 NONAME ; TLbsNetPosRequestQuality::TLbsNetPosRequestQuality(void)
	?RequestNetworkLocation@CLbsNetworkProtocolBase@@UAEXABVTLbsNetSessionId@@ABVTLbsNetPosRequestOptionsBase@@@Z @ 64 NONAME ; void CLbsNetworkProtocolBase::RequestNetworkLocation(class TLbsNetSessionId const &, class TLbsNetPosRequestOptionsBase const &)
	?ExtendedInterface@MLbsNetworkProtocolObserver2@@EAEPAXHPAX0@Z @ 65 NONAME ; void * MLbsNetworkProtocolObserver2::ExtendedInterface(int, void *, void *)
	?GetPosMethod@TLbsNetPosCapabilities@@QBEHHAAVTLbsNetPosMethod@@@Z @ 66 NONAME ; int TLbsNetPosCapabilities::GetPosMethod(int, class TLbsNetPosMethod &) const
	?RequestAdvice@TLbsNetPosRequestPrivacy@@QBE?AW4TLbsRequestAdvice@1@XZ @ 67 NONAME ; enum TLbsNetPosRequestPrivacy::TLbsRequestAdvice TLbsNetPosRequestPrivacy::RequestAdvice(void) const
	?SetPosMethod@TLbsNetPosMethod@@QAEXVTUid@@K@Z @ 68 NONAME ; void TLbsNetPosMethod::SetPosMethod(class TUid, unsigned long)
	?ProcessAssistanceData@MLbsNetworkProtocolObserver2@@MAEXKABVRLbsAssistanceDataBuilderSet@@H@Z @ 69 NONAME ; void MLbsNetworkProtocolObserver2::ProcessAssistanceData(unsigned long, class RLbsAssistanceDataBuilderSet const &, int)
	?ProcessLocationRequest@MLbsNetworkProtocolObserver@@UAEXABVTLbsNetSessionId@@HW4TLbsNetProtocolService@1@ABVTLbsNetPosRequestQuality@@ABVTLbsNetPosRequestMethod@@@Z @ 70 NONAME ; void MLbsNetworkProtocolObserver::ProcessLocationRequest(class TLbsNetSessionId const &, int, enum MLbsNetworkProtocolObserver::TLbsNetProtocolService, class TLbsNetPosRequestQuality const &, class TLbsNetPosRequestMethod const &)
	?RequestAssistanceData@CLbsNetworkProtocolBase2@@EAEXK@Z @ 71 NONAME ; void CLbsNetworkProtocolBase2::RequestAssistanceData(unsigned long)
	?SessionOwner@TLbsNetSessionId@@QBE?AVTUid@@XZ @ 72 NONAME ; class TUid TLbsNetSessionId::SessionOwner(void) const
	?GetSession@TLbsNetSessionIdArray@@QBEHHAAVTLbsNetSessionId@@@Z @ 73 NONAME ; int TLbsNetSessionIdArray::GetSession(int, class TLbsNetSessionId &) const
	?CancelNetworkLocation@CLbsNetworkProtocolBase@@UAEXABVTLbsNetSessionId@@H@Z @ 74 NONAME ; void CLbsNetworkProtocolBase::CancelNetworkLocation(class TLbsNetSessionId const &, int)
	?CancelSelfLocation@CLbsNetworkProtocolBase@@UAEXABVTLbsNetSessionId@@H@Z @ 75 NONAME ; void CLbsNetworkProtocolBase::CancelSelfLocation(class TLbsNetSessionId const &, int)
	?RequestTransmitLocation@CLbsNetworkProtocolBase2@@UAEXABVTLbsNetSessionId@@ABVTDesC16@@HABVTLbsNetPosRequestOptionsBase@@@Z @ 76 NONAME ; void CLbsNetworkProtocolBase2::RequestTransmitLocation(class TLbsNetSessionId const &, class TDesC16 const &, int, class TLbsNetPosRequestOptionsBase const &)
	??9TLbsNetSessionId@@QBEHABV0@@Z @ 77 NONAME ; int TLbsNetSessionId::operator!=(class TLbsNetSessionId const &) const
	?ExtendedInterface@MLbsNetworkProtocolObserver@@EAEPAXHPAX0@Z @ 78 NONAME ; void * MLbsNetworkProtocolObserver::ExtendedInterface(int, void *, void *)
	?MaxFixAge@TLbsNetPosRequestQuality@@QBE?AVTTimeIntervalMicroSeconds@@XZ @ 79 NONAME ; class TTimeIntervalMicroSeconds TLbsNetPosRequestQuality::MaxFixAge(void) const
	?RespondLocationRequest@CLbsNetworkProtocolBase@@UAEXABVTLbsNetSessionId@@HABVTPositionInfoBase@@@Z @ 80 NONAME ; void CLbsNetworkProtocolBase::RespondLocationRequest(class TLbsNetSessionId const &, int, class TPositionInfoBase const &)
	??8TLbsNetSessionId@@QBEHABV0@@Z @ 81 NONAME ; int TLbsNetSessionId::operator==(class TLbsNetSessionId const &) const
	?DataRequestMask@TLbsNetPosRequestOptionsAssistance@@QBEKXZ @ 82 NONAME ; unsigned long TLbsNetPosRequestOptionsAssistance::DataRequestMask(void) const
	??1CLbsNetworkProtocolBase@@UAE@XZ @ 83 NONAME ; CLbsNetworkProtocolBase::~CLbsNetworkProtocolBase(void)
	?SetPosMode@TLbsNetPosRequestOptionsTechnology@@QAEXK@Z @ 84 NONAME ; void TLbsNetPosRequestOptionsTechnology::SetPosMode(unsigned long)
	??0TLbsNetPosCapabilities@@QAE@XZ @ 85 NONAME ; TLbsNetPosCapabilities::TLbsNetPosCapabilities(void)
	?MinHorizontalAccuracy@TLbsNetPosRequestQuality@@QBEMXZ @ 86 NONAME ; float TLbsNetPosRequestQuality::MinHorizontalAccuracy(void) const
	?SetMaxFixAge@TLbsNetPosRequestQuality@@QAEXVTTimeIntervalMicroSeconds@@@Z @ 87 NONAME ; void TLbsNetPosRequestQuality::SetMaxFixAge(class TTimeIntervalMicroSeconds)
	?RequestSelfLocation@CLbsNetworkProtocolBase@@UAEXABVTLbsNetSessionId@@ABVTLbsNetPosRequestOptionsBase@@@Z @ 88 NONAME ; void CLbsNetworkProtocolBase::RequestSelfLocation(class TLbsNetSessionId const &, class TLbsNetPosRequestOptionsBase const &)
	?SetRequestAction@TLbsNetPosRequestPrivacy@@QAEXW4TLbsRequestAction@1@@Z @ 89 NONAME ; void TLbsNetPosRequestPrivacy::SetRequestAction(enum TLbsNetPosRequestPrivacy::TLbsRequestAction)
	??0TLbsNetPosRequestOptions@@QAE@XZ @ 90 NONAME ; TLbsNetPosRequestOptions::TLbsNetPosRequestOptions(void)
	?NumPosMethods@TLbsNetPosRequestMethod@@QBEHXZ @ 91 NONAME ; int TLbsNetPosRequestMethod::NumPosMethods(void) const
	?SetRequestQuality@TLbsNetPosRequestOptions@@QAEXABVTLbsNetPosRequestQuality@@@Z @ 92 NONAME ; void TLbsNetPosRequestOptions::SetRequestQuality(class TLbsNetPosRequestQuality const &)
	?ExtendedInterface@CLbsNetworkProtocolBase@@UAEPAXHPAX0@Z @ 93 NONAME ; void * CLbsNetworkProtocolBase::ExtendedInterface(int, void *, void *)
	??0TLbsNetSessionId@@QAE@VTUid@@K@Z @ 94 NONAME ; TLbsNetSessionId::TLbsNetSessionId(class TUid, unsigned long)
	?SetGpsTimingOfCellFramesRequested@TLbsNetPosRequestMethod@@QAEXH@Z @ 95 NONAME ; void TLbsNetPosRequestMethod::SetGpsTimingOfCellFramesRequested(int)
	?GpsTimingOfCellFramesRequested@TLbsNetPosRequestMethod@@QBEHXZ @ 96 NONAME ; int TLbsNetPosRequestMethod::GpsTimingOfCellFramesRequested(void) const

