EXPORTS
	_ZN10TBTDevAddr11SetReadableERK7TDesC16 @ 1 NONAME
	_ZN10TBTDevAddr3DesEv @ 2 NONAME
	_ZN10TBTDevAddr5ResetEv @ 3 NONAME
	_ZN10TBTDevAddrC1ERK6TDesC8 @ 4 NONAME
	_ZN10TBTDevAddrC1ERKx @ 5 NONAME
	_ZN10TBTDevAddrC1Ev @ 6 NONAME
	_ZN10TBTDevAddrC2ERK6TDesC8 @ 7 NONAME
	_ZN10TBTDevAddrC2ERKx @ 8 NONAME
	_ZN10TBTDevAddrC2Ev @ 9 NONAME
	_ZN10TBTDevAddrixEi @ 10 NONAME
	_ZN11TBTSockAddr11SetSecurityERK18TBTServiceSecurity @ 11 NONAME
	_ZN11TBTSockAddr4CastERK9TSockAddr @ 12 NONAME
	_ZN11TBTSockAddr9SetBTAddrERK10TBTDevAddr @ 13 NONAME
	_ZN11TBTSockAddrC1ERK9TSockAddr @ 14 NONAME
	_ZN11TBTSockAddrC1Ev @ 15 NONAME
	_ZN11TBTSockAddrC2ERK9TSockAddr @ 16 NONAME
	_ZN11TBTSockAddrC2Ev @ 17 NONAME
	_ZN12TACLSockAddr4CastERK9TSockAddr @ 18 NONAME
	_ZN12TACLSockAddr7SetPortE8TACLPort @ 19 NONAME
	_ZN12TACLSockAddrC1ERK9TSockAddr @ 20 NONAME
	_ZN12TACLSockAddrC1Ev @ 21 NONAME
	_ZN12TACLSockAddrC2ERK9TSockAddr @ 22 NONAME
	_ZN12TACLSockAddrC2Ev @ 23 NONAME
	_ZN12TL2CapConfig18SetChannelPriorityENS_16TChannelPriorityE @ 24 NONAME
	_ZN12TL2CapConfig20SetupReliableChannelEt @ 25 NONAME
	_ZN12TL2CapConfig21SetMaxReceiveUnitSizeEt @ 26 NONAME
	_ZN12TL2CapConfig22SetMaxTransmitUnitSizeEt @ 27 NONAME
	_ZN12TL2CapConfig22SetupUnreliableChannelEt @ 28 NONAME
	_ZN12TL2CapConfig24ConfigureChannelPriorityENS_16TChannelPriorityE @ 29 NONAME
	_ZN12TL2CapConfig24ConfigureReliableChannelEt @ 30 NONAME
	_ZN12TL2CapConfig26ConfigureUnreliableChannelEt @ 31 NONAME
	_ZN12TL2CapConfigC1Ev @ 32 NONAME
	_ZN12TL2CapConfigC2Ev @ 33 NONAME
	_ZN14TBTSyncPacketsC1Em @ 34 NONAME
	_ZN14TBTSyncPacketsC2Em @ 35 NONAME
	_ZN14TL2CAPSockAddr4CastERK9TSockAddr @ 36 NONAME
	_ZN14TL2CAPSockAddr7SetPortEt @ 37 NONAME
	_ZN14TL2CAPSockAddrC1ERK9TSockAddr @ 38 NONAME
	_ZN14TL2CAPSockAddrC1Ev @ 39 NONAME
	_ZN14TL2CAPSockAddrC2ERK9TSockAddr @ 40 NONAME
	_ZN14TL2CAPSockAddrC2Ev @ 41 NONAME
	_ZN15TRfcommSockAddr4CastERK9TSockAddr @ 42 NONAME
	_ZN15TRfcommSockAddrC1ERK9TSockAddr @ 43 NONAME
	_ZN15TRfcommSockAddrC1Ev @ 44 NONAME
	_ZN15TRfcommSockAddrC2ERK9TSockAddr @ 45 NONAME
	_ZN15TRfcommSockAddrC2Ev @ 46 NONAME
	_ZN16CBluetoothSocket10CancelReadEv @ 47 NONAME
	_ZN16CBluetoothSocket10CancelRecvEv @ 48 NONAME
	_ZN16CBluetoothSocket10CancelSendEv @ 49 NONAME
	_ZN16CBluetoothSocket10RemoteNameER9TSockAddr @ 50 NONAME
	_ZN16CBluetoothSocket11CancelIoctlEv @ 51 NONAME
	_ZN16CBluetoothSocket11CancelWriteEv @ 52 NONAME
	_ZN16CBluetoothSocket11SetNotifierER24MBluetoothSocketNotifier @ 53 NONAME
	_ZN16CBluetoothSocket12CancelAcceptEv @ 54 NONAME
	_ZN16CBluetoothSocket12SetLocalPortEi @ 55 NONAME
	_ZN16CBluetoothSocket13CancelConnectEv @ 56 NONAME
	_ZN16CBluetoothSocket13RecvOneOrMoreER5TDes8jR8TPckgBufIiE @ 57 NONAME
	_ZN16CBluetoothSocket15AllowRoleSwitchEv @ 58 NONAME
	_ZN16CBluetoothSocket16RequestSlaveRoleEv @ 59 NONAME
	_ZN16CBluetoothSocket17GetDisconnectDataER5TDes8 @ 60 NONAME
	_ZN16CBluetoothSocket17PhysicalLinkStateERm @ 61 NONAME
	_ZN16CBluetoothSocket17PreventRoleSwitchEv @ 62 NONAME
	_ZN16CBluetoothSocket17RequestMasterRoleEv @ 63 NONAME
	_ZN16CBluetoothSocket18AllowLowPowerModesEm @ 64 NONAME
	_ZN16CBluetoothSocket20PreventLowPowerModesEm @ 65 NONAME
	_ZN16CBluetoothSocket21ActivateParkRequesterEv @ 66 NONAME
	_ZN16CBluetoothSocket22ActivateSniffRequesterEv @ 67 NONAME
	_ZN16CBluetoothSocket27CancelBasebandEventNotifierEv @ 68 NONAME
	_ZN16CBluetoothSocket27CancelLowPowerModeRequesterEv @ 69 NONAME
	_ZN16CBluetoothSocket29ActivateBasebandEventNotifierEm @ 70 NONAME
	_ZN16CBluetoothSocket33RequestChangeSupportedPacketTypesEt @ 71 NONAME
	_ZN16CBluetoothSocket4BindER9TSockAddr @ 72 NONAME
	_ZN16CBluetoothSocket4InfoER13TProtocolDesc @ 73 NONAME
	_ZN16CBluetoothSocket4NameER4TBufILi128EE @ 74 NONAME
	_ZN16CBluetoothSocket4NewLER24MBluetoothSocketNotifierR11RSocketServ @ 75 NONAME
	_ZN16CBluetoothSocket4NewLER24MBluetoothSocketNotifierR11RSocketServRK7TDesC16 @ 76 NONAME
	_ZN16CBluetoothSocket4NewLER24MBluetoothSocketNotifierR11RSocketServjj @ 77 NONAME
	_ZN16CBluetoothSocket4NewLER24MBluetoothSocketNotifierR11RSocketServjjR11RConnection @ 78 NONAME
	_ZN16CBluetoothSocket4ReadER5TDes8 @ 79 NONAME
	_ZN16CBluetoothSocket4RecvER5TDes8j @ 80 NONAME
	_ZN16CBluetoothSocket4RecvER5TDes8jR8TPckgBufIiE @ 81 NONAME
	_ZN16CBluetoothSocket4SendERK6TDesC8j @ 82 NONAME
	_ZN16CBluetoothSocket4SendERK6TDesC8jR8TPckgBufIiE @ 83 NONAME
	_ZN16CBluetoothSocket5IoctlEjP5TDes8j @ 84 NONAME
	_ZN16CBluetoothSocket5IoctlEjjP5TDes8 @ 85 NONAME
	_ZN16CBluetoothSocket5NewLCER24MBluetoothSocketNotifierR11RSocketServ @ 86 NONAME
	_ZN16CBluetoothSocket5NewLCER24MBluetoothSocketNotifierR11RSocketServRK7TDesC16 @ 87 NONAME
	_ZN16CBluetoothSocket5NewLCER24MBluetoothSocketNotifierR11RSocketServjj @ 88 NONAME
	_ZN16CBluetoothSocket5NewLCER24MBluetoothSocketNotifierR11RSocketServjjR11RConnection @ 89 NONAME
	_ZN16CBluetoothSocket5WriteERK6TDesC8 @ 90 NONAME
	_ZN16CBluetoothSocket6AcceptERS_ @ 91 NONAME
	_ZN16CBluetoothSocket6AcceptERS_R5TDes8 @ 92 NONAME
	_ZN16CBluetoothSocket6GetOptEjjR5TDes8 @ 93 NONAME
	_ZN16CBluetoothSocket6GetOptEjjRi @ 94 NONAME
	_ZN16CBluetoothSocket6ListenEj @ 95 NONAME
	_ZN16CBluetoothSocket6ListenEjRK6TDesC8 @ 96 NONAME
	_ZN16CBluetoothSocket6ListenEjt @ 97 NONAME
	_ZN16CBluetoothSocket6SendToERK6TDesC8R9TSockAddrj @ 98 NONAME
	_ZN16CBluetoothSocket6SendToERK6TDesC8R9TSockAddrjR8TPckgBufIiE @ 99 NONAME
	_ZN16CBluetoothSocket6SetOptEjjRK6TDesC8 @ 100 NONAME
	_ZN16CBluetoothSocket6SetOptEjji @ 101 NONAME
	_ZN16CBluetoothSocket7ConnectER11TBTSockAddr @ 102 NONAME
	_ZN16CBluetoothSocket7ConnectER11TBTSockAddrRK6TDesC8R5TDes8 @ 103 NONAME
	_ZN16CBluetoothSocket7ConnectER11TBTSockAddrt @ 104 NONAME
	_ZN16CBluetoothSocket8RecvFromER5TDes8R9TSockAddrj @ 105 NONAME
	_ZN16CBluetoothSocket8RecvFromER5TDes8R9TSockAddrjR8TPckgBufIiE @ 106 NONAME
	_ZN16CBluetoothSocket8ShutdownEN7RSocket9TShutdownE @ 107 NONAME
	_ZN16CBluetoothSocket8ShutdownEN7RSocket9TShutdownERK6TDesC8R5TDes8 @ 108 NONAME
	_ZN16CBluetoothSocket8TransferER11RSocketServRK7TDesC16 @ 109 NONAME
	_ZN16CBluetoothSocket9CancelAllEv @ 110 NONAME
	_ZN16CBluetoothSocket9LocalNameER9TSockAddr @ 111 NONAME
	_ZN16CBluetoothSocket9LocalPortEv @ 112 NONAME
	_ZN16CBluetoothSocket9SetOptionEjjRK6TDesC8 @ 113 NONAME
	_ZN16CBluetoothSocketD0Ev @ 114 NONAME
	_ZN16CBluetoothSocketD1Ev @ 115 NONAME
	_ZN16CBluetoothSocketD2Ev @ 116 NONAME
	_ZN16RHCIDirectAccess11CancelIoctlEv @ 117 NONAME
	_ZN16RHCIDirectAccess16SubSessionHandleEv @ 118 NONAME
	_ZN16RHCIDirectAccess4OpenER11RSocketServ @ 119 NONAME
	_ZN16RHCIDirectAccess5CloseEv @ 120 NONAME
	_ZN16RHCIDirectAccess5IoctlEjR14TRequestStatusP5TDes8j @ 121 NONAME
	_ZN16RHCIDirectAccessC1Ev @ 122 NONAME
	_ZN16RHCIDirectAccessC2Ev @ 123 NONAME
	_ZN16TBTSyncBandwidthC1Ej @ 124 NONAME
	_ZN16TBTSyncBandwidthC1Ev @ 125 NONAME
	_ZN16TBTSyncBandwidthC2Ej @ 126 NONAME
	_ZN16TBTSyncBandwidthC2Ev @ 127 NONAME
	_ZN16TInquirySockAddr20SetMajorServiceClassEt @ 128 NONAME
	_ZN16TInquirySockAddr21SetMajorClassOfDeviceEh @ 129 NONAME
	_ZN16TInquirySockAddr21SetMinorClassOfDeviceEh @ 130 NONAME
	_ZN16TInquirySockAddr4CastERK9TSockAddr @ 131 NONAME
	_ZN16TInquirySockAddr6SetIACEj @ 132 NONAME
	_ZN16TInquirySockAddr9SetActionEh @ 133 NONAME
	_ZN16TInquirySockAddr9SetBTAddrERK10TBTDevAddr @ 134 NONAME
	_ZN16TInquirySockAddrC1ERK9TSockAddr @ 135 NONAME
	_ZN16TInquirySockAddrC1Ev @ 136 NONAME
	_ZN16TInquirySockAddrC2ERK9TSockAddr @ 137 NONAME
	_ZN16TInquirySockAddrC2Ev @ 138 NONAME
	_ZN18TBTServiceSecurity13SetEncryptionEi @ 139 NONAME
	_ZN18TBTServiceSecurity16SetAuthorisationEi @ 140 NONAME
	_ZN18TBTServiceSecurity17SetAuthenticationEi @ 141 NONAME
	_ZN18TBTServiceSecurity19SetPasskeyMinLengthEj @ 142 NONAME
	_ZN18TBTServiceSecurity6SetUidE4TUid @ 143 NONAME
	_ZN18TBTServiceSecurity9SetDeniedEi @ 144 NONAME
	_ZN18TBTServiceSecurityC1ERKS_ @ 145 NONAME
	_ZN18TBTServiceSecurityC1Ev @ 146 NONAME
	_ZN18TBTServiceSecurityC2ERKS_ @ 147 NONAME
	_ZN18TBTServiceSecurityC2Ev @ 148 NONAME
	_ZN21TBTAccessRequirements13SetEncryptionEi @ 149 NONAME
	_ZN21TBTAccessRequirements16SetAuthorisationEi @ 150 NONAME
	_ZN21TBTAccessRequirements17SetAuthenticationEi @ 151 NONAME
	_ZN21TBTAccessRequirements19SetPasskeyMinLengthEj @ 152 NONAME
	_ZN21TBTAccessRequirements9SetDeniedEi @ 153 NONAME
	_ZN21TBTAccessRequirementsC1Ev @ 154 NONAME
	_ZN21TBTAccessRequirementsC2Ev @ 155 NONAME
	_ZN21TRfcommRPNTransactionC1Ev @ 156 NONAME
	_ZN21TRfcommRPNTransactionC2Ev @ 157 NONAME
	_ZN22RBTPhysicalLinkAdapter15AllowRoleSwitchEv @ 158 NONAME
	_ZN22RBTPhysicalLinkAdapter16RequestSlaveRoleEv @ 159 NONAME
	_ZN22RBTPhysicalLinkAdapter17PhysicalLinkStateERm @ 160 NONAME
	_ZN22RBTPhysicalLinkAdapter17PreventRoleSwitchEv @ 161 NONAME
	_ZN22RBTPhysicalLinkAdapter17RequestMasterRoleEv @ 162 NONAME
	_ZN22RBTPhysicalLinkAdapter18AllowLowPowerModesEm @ 163 NONAME
	_ZN22RBTPhysicalLinkAdapter20PreventLowPowerModesEm @ 164 NONAME
	_ZN22RBTPhysicalLinkAdapter21ActivateParkRequesterEv @ 165 NONAME
	_ZN22RBTPhysicalLinkAdapter22ActivateSniffRequesterEv @ 166 NONAME
	_ZN22RBTPhysicalLinkAdapter27CancelLowPowerModeRequesterEv @ 167 NONAME
	_ZN22RBTPhysicalLinkAdapter29NotifyNextBasebandChangeEventER8TPckgBufI28TBTBasebandEventNotificationER14TRequestStatusm @ 168 NONAME
	_ZN22RBTPhysicalLinkAdapter33RequestChangeSupportedPacketTypesEt @ 169 NONAME
	_ZN22RBTPhysicalLinkAdapter37CancelNextBasebandChangeEventNotifierEv @ 170 NONAME
	_ZN22RBTPhysicalLinkAdapter4OpenER11RSocketServRK10TBTDevAddr @ 171 NONAME
	_ZN22RBTPhysicalLinkAdapter4OpenER11RSocketServR7RSocket @ 172 NONAME
	_ZN22RBTPhysicalLinkAdapter5CloseEv @ 173 NONAME
	_ZN22RBTPhysicalLinkAdapterC1Ev @ 174 NONAME
	_ZN22RBTPhysicalLinkAdapterC2Ev @ 175 NONAME
	_ZN23CBluetoothPhysicalLinks10DisconnectERK10TBTDevAddr @ 176 NONAME
	_ZN23CBluetoothPhysicalLinks13DisconnectAllEv @ 177 NONAME
	_ZN23CBluetoothPhysicalLinks16CreateConnectionERK10TBTDevAddr @ 178 NONAME
	_ZN23CBluetoothPhysicalLinks22CancelCreateConnectionEv @ 179 NONAME
	_ZN23CBluetoothPhysicalLinks4NewLER31MBluetoothPhysicalLinksNotifierR11RSocketServ @ 180 NONAME
	_ZN23CBluetoothPhysicalLinks5NewLCER31MBluetoothPhysicalLinksNotifierR11RSocketServ @ 181 NONAME
	_ZN23CBluetoothPhysicalLinks7ReadRawER5TDes8 @ 182 NONAME
	_ZN23CBluetoothPhysicalLinks9BroadcastERK6TDesC8 @ 183 NONAME
	_ZN23CBluetoothPhysicalLinks9EnumerateER6RArrayI10TBTDevAddrEj @ 184 NONAME
	_ZN23CBluetoothPhysicalLinksD0Ev @ 185 NONAME
	_ZN23CBluetoothPhysicalLinksD1Ev @ 186 NONAME
	_ZN23CBluetoothPhysicalLinksD2Ev @ 187 NONAME
	_ZN23TRfcommRemotePortParams10SetBitRateE4TBps @ 188 NONAME
	_ZN23TRfcommRemotePortParams10SetStopBitE9TStopBits @ 189 NONAME
	_ZN23TRfcommRemotePortParams10SetXOnCharEh @ 190 NONAME
	_ZN23TRfcommRemotePortParams11SetDataBitsE9TDataBits @ 191 NONAME
	_ZN23TRfcommRemotePortParams11SetFlowCtrlEh @ 192 NONAME
	_ZN23TRfcommRemotePortParams11SetXOffCharEh @ 193 NONAME
	_ZN23TRfcommRemotePortParams17UpdateFlowCtrlBitEh16TRPNFlowCtrlMask @ 194 NONAME
	_ZN23TRfcommRemotePortParams19UpdateWholeFlowCtrlEth @ 195 NONAME
	_ZN23TRfcommRemotePortParams24UpdateFromRPNTransactionERK21TRfcommRPNTransaction @ 196 NONAME
	_ZN23TRfcommRemotePortParams9SetParityE7TParity @ 197 NONAME
	_ZN23TRfcommRemotePortParamsC1Ev @ 198 NONAME
	_ZN23TRfcommRemotePortParamsC2Ev @ 199 NONAME
	_ZN24MBluetoothSocketNotifier24MBSN_ExtensionInterfaceLE4TUidRPv @ 200 NONAME
	_ZN25CBluetoothSynchronousLink10CancelSendEv @ 201 NONAME
	_ZN25CBluetoothSynchronousLink10DisconnectEv @ 202 NONAME
	_ZN25CBluetoothSynchronousLink10RemoteNameER9TSockAddr @ 203 NONAME
	_ZN25CBluetoothSynchronousLink11CancelSetupEv @ 204 NONAME
	_ZN25CBluetoothSynchronousLink12CancelAcceptEv @ 205 NONAME
	_ZN25CBluetoothSynchronousLink13CancelReceiveEv @ 206 NONAME
	_ZN25CBluetoothSynchronousLink13SetMaxLatencyEt @ 207 NONAME
	_ZN25CBluetoothSynchronousLink15SetMaxBandwidthE16TBTSyncBandwidth @ 208 NONAME
	_ZN25CBluetoothSynchronousLink15SetupConnectionERK10TBTDevAddr @ 209 NONAME
	_ZN25CBluetoothSynchronousLink15SetupConnectionERK10TBTDevAddrRK14TBTSyncPackets @ 210 NONAME
	_ZN25CBluetoothSynchronousLink15SetupConnectionERK10TBTDevAddrt @ 211 NONAME
	_ZN25CBluetoothSynchronousLink16AcceptConnectionERK14TBTSyncPackets @ 212 NONAME
	_ZN25CBluetoothSynchronousLink16AcceptConnectionEv @ 213 NONAME
	_ZN25CBluetoothSynchronousLink20RetransmissionEffortEv @ 214 NONAME
	_ZN25CBluetoothSynchronousLink23SetRetransmissionEffortE26TBTeSCORetransmissionTypes @ 215 NONAME
	_ZN25CBluetoothSynchronousLink4NewLER33MBluetoothSynchronousLinkNotifierR11RSocketServ @ 216 NONAME
	_ZN25CBluetoothSynchronousLink4SendERK6TDesC8 @ 217 NONAME
	_ZN25CBluetoothSynchronousLink5NewLCER33MBluetoothSynchronousLinkNotifierR11RSocketServ @ 218 NONAME
	_ZN25CBluetoothSynchronousLink6CodingEv @ 219 NONAME
	_ZN25CBluetoothSynchronousLink7LatencyEv @ 220 NONAME
	_ZN25CBluetoothSynchronousLink7ReceiveER5TDes8 @ 221 NONAME
	_ZN25CBluetoothSynchronousLink9BandwidthEv @ 222 NONAME
	_ZN25CBluetoothSynchronousLink9SetCodingEt @ 223 NONAME
	_ZN25CBluetoothSynchronousLinkD0Ev @ 224 NONAME
	_ZN25CBluetoothSynchronousLinkD1Ev @ 225 NONAME
	_ZN25CBluetoothSynchronousLinkD2Ev @ 226 NONAME
	_ZN31MBluetoothPhysicalLinksNotifier25MBPLN_ExtensionInterfaceLE4TUidRPv @ 227 NONAME
	_ZN33MBluetoothSynchronousLinkNotifier25MBSLN_ExtensionInterfaceLE4TUidRPv @ 228 NONAME
	_ZN5TUUID4SetLERK6TDesC8 @ 229 NONAME
	_ZN5TUUIDC1ERK4TUid @ 230 NONAME
	_ZN5TUUIDC1Em @ 231 NONAME
	_ZN5TUUIDC1Emmmm @ 232 NONAME
	_ZN5TUUIDC1Ev @ 233 NONAME
	_ZN5TUUIDC2ERK4TUid @ 234 NONAME
	_ZN5TUUIDC2Em @ 235 NONAME
	_ZN5TUUIDC2Emmmm @ 236 NONAME
	_ZN5TUUIDC2Ev @ 237 NONAME
	_ZN5TUUIDixEi @ 238 NONAME
	_ZNK10TBTDevAddr11GetReadableER6TDes16 @ 239 NONAME
	_ZNK10TBTDevAddr11GetReadableER6TDes16RK7TDesC16S4_S4_ @ 240 NONAME
	_ZNK10TBTDevAddr3DesEv @ 241 NONAME
	_ZNK10TBTDevAddreqERKS_ @ 242 NONAME
	_ZNK10TBTDevAddrixEi @ 243 NONAME
	_ZNK10TBTDevAddrleERKS_ @ 244 NONAME
	_ZNK10TBTDevAddrneERKS_ @ 245 NONAME
	_ZNK11TBTSockAddr10BTSecurityEv @ 246 NONAME
	_ZNK11TBTSockAddr16EndBTSockAddrPtrEv @ 247 NONAME
	_ZNK11TBTSockAddr6BTAddrEv @ 248 NONAME
	_ZNK12TACLSockAddr4PortEv @ 249 NONAME
	_ZNK12TL2CapConfig15ChannelPriorityERi @ 250 NONAME
	_ZNK12TL2CapConfig18ChannelReliabilityERiRt @ 251 NONAME
	_ZNK12TL2CapConfig18MaxReceiveUnitSizeERi @ 252 NONAME
	_ZNK12TL2CapConfig19MaxTransmitUnitSizeERi @ 253 NONAME
	_ZNK14TBTSyncPacketsclEv @ 254 NONAME
	_ZNK14TL2CAPSockAddr4PortEv @ 255 NONAME
	_ZNK16TInquirySockAddr17MajorServiceClassEv @ 256 NONAME
	_ZNK16TInquirySockAddr18MajorClassOfDeviceEv @ 257 NONAME
	_ZNK16TInquirySockAddr18MinorClassOfDeviceEv @ 258 NONAME
	_ZNK16TInquirySockAddr3IACEv @ 259 NONAME
	_ZNK16TInquirySockAddr6ActionEv @ 260 NONAME
	_ZNK16TInquirySockAddr6BTAddrEv @ 261 NONAME
	_ZNK18TBTServiceSecurity16PasskeyMinLengthEv @ 262 NONAME
	_ZNK18TBTServiceSecurity18EncryptionRequiredEv @ 263 NONAME
	_ZNK18TBTServiceSecurity21AuthorisationRequiredEv @ 264 NONAME
	_ZNK18TBTServiceSecurity22AuthenticationRequiredEv @ 265 NONAME
	_ZNK18TBTServiceSecurity3UidEv @ 266 NONAME
	_ZNK18TBTServiceSecurity6DeniedEv @ 267 NONAME
	_ZNK21TBTAccessRequirements16PasskeyMinLengthEv @ 268 NONAME
	_ZNK21TBTAccessRequirements18EncryptionRequiredEv @ 269 NONAME
	_ZNK21TBTAccessRequirements21AuthorisationRequiredEv @ 270 NONAME
	_ZNK21TBTAccessRequirements22AuthenticationRequiredEv @ 271 NONAME
	_ZNK21TBTAccessRequirements6DeniedEv @ 272 NONAME
	_ZNK21TBTAccessRequirementseqERKS_ @ 273 NONAME
	_ZNK23TRfcommRemotePortParams10GetBitRateER4TBps @ 274 NONAME
	_ZNK23TRfcommRemotePortParams10GetStopBitER9TStopBits @ 275 NONAME
	_ZNK23TRfcommRemotePortParams10GetXOnCharERh @ 276 NONAME
	_ZNK23TRfcommRemotePortParams11GetDataBitsER9TDataBits @ 277 NONAME
	_ZNK23TRfcommRemotePortParams11GetFlowCtrlERh @ 278 NONAME
	_ZNK23TRfcommRemotePortParams11GetXOffCharERh @ 279 NONAME
	_ZNK23TRfcommRemotePortParams7IsValidEv @ 280 NONAME
	_ZNK23TRfcommRemotePortParams9GetParityER7TParity @ 281 NONAME
	_ZNK5TUUID11MinimumSizeEv @ 282 NONAME
	_ZNK5TUUID12FixedLengthLEi @ 283 NONAME
	_ZNK5TUUID12ShortestFormEv @ 284 NONAME
	_ZNK5TUUID3DesEv @ 285 NONAME
	_ZNK5TUUID8LongFormEv @ 286 NONAME
	_ZNK5TUUIDeqERKS_ @ 287 NONAME
	_ZNK5TUUIDixEi @ 288 NONAME
	_ZNK5TUUIDneERKS_ @ 289 NONAME
	_ZTI24MBluetoothSocketNotifier @ 290 NONAME ; #<TI>#
	_ZTI31MBluetoothPhysicalLinksNotifier @ 291 NONAME ; #<TI>#
	_ZTI33MBluetoothSynchronousLinkNotifier @ 292 NONAME ; #<TI>#
	_ZTV24MBluetoothSocketNotifier @ 293 NONAME ; #<VT>#
	_ZTV31MBluetoothPhysicalLinksNotifier @ 294 NONAME ; #<VT>#
	_ZTV33MBluetoothSynchronousLinkNotifier @ 295 NONAME ; #<VT>#
	_ZN16CBluetoothSocket4NewLER24MBluetoothSocketNotifierR11RSocketServR7RSocket @ 296 NONAME
	_ZN16CBluetoothSocket5NewLCER24MBluetoothSocketNotifierR11RSocketServR7RSocket @ 297 NONAME
	_ZN25CBluetoothSynchronousLink11SetNotifierER33MBluetoothSynchronousLinkNotifier @ 298 NONAME
	_ZNK22RBTPhysicalLinkAdapter6IsOpenEv @ 299 NONAME
	_ZNK28TBTBasebandEventNotification16SymbianErrorCodeEv @ 300 NONAME
	_ZN22RBTPhysicalLinkAdapter12AuthenticateEv @ 301 NONAME
	_ZNK16CBluetoothSocket18AutomaticSniffModeEv @ 302 NONAME
	_ZN16CBluetoothSocket21SetAutomaticSniffModeEii @ 303 NONAME
	_ZN16CBluetoothSocket21SetAutomaticSniffModeEi @ 304 NONAME
	_ZN22RBTPhysicalLinkAdapter23ActivateActiveRequesterEv @ 305 NONAME
	_ZNK16TInquirySockAddr15FormatTypeFieldEv @ 306 NONAME
	_ZNK16TInquirySockAddr7VersionEv @ 307 NONAME
	_ZN16RHCIDirectAccess12AsyncMessageEjR14TRequestStatusP5TDes8 @ 308 NONAME
	_ZN16RHCIDirectAccess18CancelAsyncMessageEv @ 309 NONAME
	_ZN16RHCIDirectAccess4OpenEv @ 310 NONAME
	_ZN16CBluetoothSocket11AsyncDeleteEv @ 311 NONAME
	_ZNK5TUUID16SpecifiedLengthLEi @ 312 NONAME
	_ZNK11TPINCodeV10eqERKS_ @ 313 NONAME
	_ZN14RUUIDContainer3AddERK5TUUID @ 314 NONAME
	_ZN14RUUIDContainer5CloseEv @ 315 NONAME
	_ZN14RUUIDContainer5ResetEv @ 316 NONAME
	_ZN14RUUIDContainerixEi @ 317 NONAME
	_ZN16TInquirySockAddr14SetResultFlagsEh @ 318 NONAME
	_ZN16TInquirySockAddr7SetRssiEa @ 319 NONAME
	_ZN17CEirPublisherBase10ConstructLEv @ 320 NONAME
	_ZN17CEirPublisherBaseC2E7TEirTag @ 321 NONAME
	_ZN17CEirPublisherBaseD0Ev @ 322 NONAME
	_ZN17CEirPublisherBaseD1Ev @ 323 NONAME
	_ZN17CEirPublisherBaseD2Ev @ 324 NONAME
	_ZN17RBluetoothOobData16ReadLocalOobDataER5TBuf8ILi16EES2_R14TRequestStatus @ 325 NONAME
	_ZN17RBluetoothOobData18ClearRemoteOobDataERK10TBTDevAddr @ 326 NONAME
	_ZN17RBluetoothOobData19RefreshLocalOobDataEv @ 327 NONAME
	_ZN17RBluetoothOobData20ProvideRemoteOobDataERK10TBTDevAddrRK5TBuf8ILi16EE @ 328 NONAME
	_ZN17RBluetoothOobData20ProvideRemoteOobDataERK10TBTDevAddrRK5TBuf8ILi16EES6_ @ 329 NONAME
	_ZN17RBluetoothOobData20ProvideRemoteOobDataERK6TDesC8 @ 330 NONAME
	_ZN17RBluetoothOobData22CancelReadLocalOobDataEv @ 331 NONAME
	_ZN17RBluetoothOobData4OpenER23RBluetoothPairingServer @ 332 NONAME
	_ZN17RBluetoothOobData5CloseEv @ 333 NONAME
	_ZN17RBluetoothOobDataC1Ev @ 334 NONAME
	_ZN17RBluetoothOobDataC2Ev @ 335 NONAME
	_ZN18TBTServiceSecurity17SetAuthenticationE24TBluetoothMitmProtection @ 336 NONAME
	_ZN21TBTAccessRequirements17SetAuthenticationE24TBluetoothMitmProtection @ 337 NONAME
	_ZN23RBluetoothPairingResult19SimplePairingResultER10TBTDevAddrR14TRequestStatus @ 338 NONAME
	_ZN23RBluetoothPairingResult25CancelSimplePairingResultEv @ 339 NONAME
	_ZN23RBluetoothPairingResult4OpenER23RBluetoothPairingServer @ 340 NONAME
	_ZN23RBluetoothPairingResult5CloseEv @ 341 NONAME
	_ZN23RBluetoothPairingResultC1Ev @ 342 NONAME
	_ZN23RBluetoothPairingResultC2Ev @ 343 NONAME
	_ZN23RBluetoothPairingServer5CloseEv @ 344 NONAME
	_ZN23RBluetoothPairingServer7ConnectEv @ 345 NONAME
	_ZN23RBluetoothPairingServerC1Ev @ 346 NONAME
	_ZN23RBluetoothPairingServerC2Ev @ 347 NONAME
	_ZN27TBluetoothNameRecordWrapperC1ERK11TNameRecord @ 348 NONAME
	_ZN27TBluetoothNameRecordWrapperC2ERK11TNameRecord @ 349 NONAME
	_ZN29CBluetoothPhysicalLinkMetrics13SubscribeRssiEv @ 350 NONAME
	_ZN29CBluetoothPhysicalLinkMetrics20SubscribeLinkQualityEv @ 351 NONAME
	_ZN29CBluetoothPhysicalLinkMetrics27SubscribeTransmitPowerLevelEv @ 352 NONAME
	_ZN29CBluetoothPhysicalLinkMetrics29SubscribeFailedContactCounterEv @ 353 NONAME
	_ZN29CBluetoothPhysicalLinkMetrics4NewLER37MBluetoothPhysicalLinkMetricsObserverR11RSocketServR7RSocket @ 354 NONAME
	_ZN29CBluetoothPhysicalLinkMetrics4NewLER37MBluetoothPhysicalLinkMetricsObserverR11RSocketServRK10TBTDevAddr @ 355 NONAME
	_ZN29CBluetoothPhysicalLinkMetrics6CancelEv @ 356 NONAME
	_ZN29CBluetoothPhysicalLinkMetricsD0Ev @ 357 NONAME
	_ZN29CBluetoothPhysicalLinkMetricsD1Ev @ 358 NONAME
	_ZN29CBluetoothPhysicalLinkMetricsD2Ev @ 359 NONAME
	_ZN35RBluetoothDedicatedBondingInitiator5CloseEv @ 360 NONAME
	_ZN35RBluetoothDedicatedBondingInitiator5StartER23RBluetoothPairingServerRK10TBTDevAddrR14TRequestStatus @ 361 NONAME
	_ZN35RBluetoothDedicatedBondingInitiatorC1Ev @ 362 NONAME
	_ZN35RBluetoothDedicatedBondingInitiatorC2Ev @ 363 NONAME
	_ZN37CEirPublisherManufacturerSpecificData22RequestPublishDataSizeEj @ 364 NONAME
	_ZN37CEirPublisherManufacturerSpecificData27SetManufacturerSpecificDataER6TDesC8 @ 365 NONAME
	_ZN37CEirPublisherManufacturerSpecificData4NewLER42MManufacturerSpecificDataPublisherNotifier @ 366 NONAME
	_ZN37MBluetoothPhysicalLinkMetricsObserver25MbplmoExtensionInterfaceLE4TUid @ 367 NONAME
	_ZN37RExtendedInquiryResponseUUIDContainer15SetCompletenessENS_9TUUIDTypeEi @ 368 NONAME
	_ZN37RExtendedInquiryResponseUUIDContainer5CloseEv @ 369 NONAME
	_ZN37RExtendedInquiryResponseUUIDContainer5UUIDsEv @ 370 NONAME
	_ZN5TUUID20SetFromLittleEndianLERK6TDesC8 @ 371 NONAME
	_ZNK14RUUIDContainer2AtEi @ 372 NONAME
	_ZNK14RUUIDContainer5CountEv @ 373 NONAME
	_ZNK14RUUIDContainer9IsPresentERK5TUUID @ 374 NONAME
	_ZNK14RUUIDContainerixEi @ 375 NONAME
	_ZNK16TInquirySockAddr11ResultFlagsEv @ 376 NONAME
	_ZNK16TInquirySockAddr4RssiEv @ 377 NONAME
	_ZNK18TBTServiceSecurity14MitmProtectionEv @ 378 NONAME
	_ZNK21TBTAccessRequirements14MitmProtectionEv @ 379 NONAME
	_ZNK23RBluetoothPairingServer7VersionEv @ 380 NONAME
	_ZNK27TBluetoothNameRecordWrapper13GetDeviceNameER6TDes16Ri @ 381 NONAME
	_ZNK27TBluetoothNameRecordWrapper14GetFlagsLengthEv @ 382 NONAME
	_ZNK27TBluetoothNameRecordWrapper15GetTxPowerLevelERa @ 383 NONAME
	_ZNK27TBluetoothNameRecordWrapper19GetDeviceNameLengthEv @ 384 NONAME
	_ZNK27TBluetoothNameRecordWrapper20GetServiceClassUuidsER37RExtendedInquiryResponseUUIDContainer @ 385 NONAME
	_ZNK27TBluetoothNameRecordWrapper21GetVendorSpecificDataER5TDes8 @ 386 NONAME
	_ZNK27TBluetoothNameRecordWrapper27GetVendorSpecificDataLengthEv @ 387 NONAME
	_ZNK27TBluetoothNameRecordWrapper8GetFlagsER5TDes8 @ 388 NONAME
	_ZNK37RExtendedInquiryResponseUUIDContainer15GetCompletenessENS_9TUUIDTypeE @ 389 NONAME
	_ZTI17CEirPublisherBase @ 390 NONAME
	_ZTI37MBluetoothPhysicalLinkMetricsObserver @ 391 NONAME
	_ZTV17CEirPublisherBase @ 392 NONAME
	_ZTV37MBluetoothPhysicalLinkMetricsObserver @ 393 NONAME
	_ZN30RBluetoothAuthenticationResult20AuthenticationResultER10TBTDevAddrR14TRequestStatus @ 394 NONAME
	_ZN30RBluetoothAuthenticationResult26CancelAuthenticationResultEv @ 395 NONAME
	_ZN30RBluetoothAuthenticationResult4OpenER23RBluetoothPairingServer @ 396 NONAME
	_ZN30RBluetoothAuthenticationResult5CloseEv @ 397 NONAME
	_ZN30RBluetoothAuthenticationResultC1Ev @ 398 NONAME
	_ZN30RBluetoothAuthenticationResultC2Ev @ 399 NONAME
	_ZN12TL2CapConfig24SetLegacyModesDisallowedEi @ 400 NONAME
	_ZN12TL2CapConfig33ConfigureUnreliableDesiredChannelEtt @ 401 NONAME
	_ZN12TL2CapConfig9SetMinMRUEt @ 402 NONAME
	_ZN12TL2CapConfig9SetMinMTUEt @ 403 NONAME
	_ZNK12TL2CapConfig17ObsolescenceTimerERi @ 404 NONAME
	_ZNK12TL2CapConfig18ChannelReliabilityERi @ 405 NONAME
	_ZNK12TL2CapConfig19RetransmissionTimerERi @ 406 NONAME
	_ZNK12TL2CapConfig21LegacyModesDisallowedEv @ 407 NONAME
	_ZNK12TL2CapConfig6MinMRUERi @ 408 NONAME
	_ZNK12TL2CapConfig6MinMTUERi @ 409 NONAME
	_ZN23CBluetoothPhysicalLinks24DisconnectAllForPowerOffEv @ 410 NONAME

