EXPORTS
	?CtsyDispatcherFactoryL@@YAPAVMLtsyFactoryBase@@XZ @ 1 NONAME ; class MLtsyFactoryBase * CtsyDispatcherFactoryL(void)
	?CallbackSimSimLockDeActivateComp@CCtsyDispatcherCallback@@QAEXH@Z @ 2 NONAME ; void CCtsyDispatcherCallback::CallbackSimSimLockDeActivateComp(int)
	?CallbackPacketServicesNotifyQosProfileChangedR99Ind@CCtsyDispatcherCallback@@QAEXHABVTDesC16@@ABVTQoSR99_R4Negotiated@RPacketQoS@@@Z @ 3 NONAME ; void CCtsyDispatcherCallback::CallbackPacketServicesNotifyQosProfileChangedR99Ind(int, class TDesC16 const &, class RPacketQoS::TQoSR99_R4Negotiated const &)
	?CallbackSimChangeSecurityCodeComp@CCtsyDispatcherCallback@@QAEXH@Z @ 4 NONAME ; void CCtsyDispatcherCallback::CallbackSimChangeSecurityCodeComp(int)
	?GetFirstName@CPhoneBookEntry@@QBEABVTDesC16@@XZ @ 5 NONAME ; class TDesC16 const & CPhoneBookEntry::GetFirstName(void) const
	?CallbackCallControlReceiveUuiInd@CCtsyDispatcherCallback@@QAEXHHABVTDesC16@@@Z @ 6 NONAME ; void CCtsyDispatcherCallback::CallbackCallControlReceiveUuiInd(int, int, class TDesC16 const &)
	?NewLC@CPhoneBookEntry@@SAPAV1@XZ @ 7 NONAME ; class CPhoneBookEntry * CPhoneBookEntry::NewLC(void)
	?CallbackPhonebookSmsStoreDeleteEntryComp@CCtsyDispatcherCallback@@QAEXH@Z @ 8 NONAME ; void CCtsyDispatcherCallback::CallbackPhonebookSmsStoreDeleteEntryComp(int)
	?CallbackPhoneNotifyCellInfoChangeInd@CCtsyDispatcherCallback@@QAEXHABVTMobilePhoneCellInfoV9@RMobilePhone@@@Z @ 9 NONAME ; void CCtsyDispatcherCallback::CallbackPhoneNotifyCellInfoChangeInd(int, class RMobilePhone::TMobilePhoneCellInfoV9 const &)
	?CallbackSmsSendSmsMessageComp@CCtsyDispatcherCallback@@QAEXHHABVTDesC8@@@Z @ 10 NONAME ; void CCtsyDispatcherCallback::CallbackSmsSendSmsMessageComp(int, int, class TDesC8 const &)
	?CallbackSupplementaryServicesSetCallForwardingStatusComp@CCtsyDispatcherCallback@@QAEXH@Z @ 11 NONAME ; void CCtsyDispatcherCallback::CallbackSupplementaryServicesSetCallForwardingStatusComp(int)
	?CallbackPhonebookStoreCacheComp@CCtsyDispatcherCallback@@QAEXHW4TPhonebook@DispatcherPhonebook@@ABVTDesC8@@@Z @ 12 NONAME ; void CCtsyDispatcherCallback::CallbackPhonebookStoreCacheComp(int, enum DispatcherPhonebook::TPhonebook, class TDesC8 const &)
	?CallbackCallControlNotifyCallInfoChangeInd@CCtsyDispatcherCallback@@QAEXHABVTMobileCallInfoV1@RMobileCall@@@Z @ 13 NONAME ; void CCtsyDispatcherCallback::CallbackCallControlNotifyCallInfoChangeInd(int, class RMobileCall::TMobileCallInfoV1 const &)
	?CallbackPacketServicesUpdateMbmsMonitorServiceListComp@CCtsyDispatcherCallback@@QAEXHABV?$RArray@I@@@Z @ 14 NONAME ; void CCtsyDispatcherCallback::CallbackPacketServicesUpdateMbmsMonitorServiceListComp(int, class RArray<unsigned int> const &)
	?CallbackSecurityGetCipheringInfoComp@CCtsyDispatcherCallback@@QAEXHH@Z @ 15 NONAME ; void CCtsyDispatcherCallback::CallbackSecurityGetCipheringInfoComp(int, int)
	?CallbackSimGetApnNameComp@CCtsyDispatcherCallback@@QAEXHABVTAPNEntryV3@RMobilePhone@@@Z @ 16 NONAME ; void CCtsyDispatcherCallback::CallbackSimGetApnNameComp(int, class RMobilePhone::TAPNEntryV3 const &)
	?CallbackPhonebookEnStoreReadEntryComp@CCtsyDispatcherCallback@@QAEXHHABVTDesC16@@@Z @ 17 NONAME ; void CCtsyDispatcherCallback::CallbackPhonebookEnStoreReadEntryComp(int, int, class TDesC16 const &)
	?CallbackCallControlNotifyCallStatusChangeInd@CCtsyDispatcherCallback@@QAEXHHW4TMobileCallStatus@RMobileCall@@@Z @ 18 NONAME ; void CCtsyDispatcherCallback::CallbackCallControlNotifyCallStatusChangeInd(int, int, enum RMobileCall::TMobileCallStatus)
	??8CPhoneBookEntry@@QBEHABV0@@Z @ 19 NONAME ; int CPhoneBookEntry::operator==(class CPhoneBookEntry const &) const
	?CallbackSupplementaryServicesNotifyCallForwardingStatusChangeInd@CCtsyDispatcherCallback@@QAEXHW4TMobilePhoneCFCondition@RMobilePhone@@@Z @ 20 NONAME ; void CCtsyDispatcherCallback::CallbackSupplementaryServicesNotifyCallForwardingStatusChangeInd(int, enum RMobilePhone::TMobilePhoneCFCondition)
	?CallbackSimSetFdnSettingComp@CCtsyDispatcherCallback@@QAEXH@Z @ 21 NONAME ; void CCtsyDispatcherCallback::CallbackSimSetFdnSettingComp(int)
	?GetDiallingNumber@CPhoneBookEntry@@QBEABVTDesC16@@XZ @ 22 NONAME ; class TDesC16 const & CPhoneBookEntry::GetDiallingNumber(void) const
	?CallbackSimNotifyApnControlListServiceStatusChangeInd@CCtsyDispatcherCallback@@QAEXHW4TAPNControlListServiceStatus@RMobilePhone@@@Z @ 23 NONAME ; void CCtsyDispatcherCallback::CallbackSimNotifyApnControlListServiceStatusChangeInd(int, enum RMobilePhone::TAPNControlListServiceStatus)
	?CallbackPhonebookStoreDeleteEntryComp@CCtsyDispatcherCallback@@QAEXHW4TPhonebook@DispatcherPhonebook@@H@Z @ 24 NONAME ; void CCtsyDispatcherCallback::CallbackPhonebookStoreDeleteEntryComp(int, enum DispatcherPhonebook::TPhonebook, int)
	?CallbackPhonebookOnStoreReadEntryComp@CCtsyDispatcherCallback@@QAEXHHABVTDesC16@@0@Z @ 25 NONAME ; void CCtsyDispatcherCallback::CallbackPhonebookOnStoreReadEntryComp(int, int, class TDesC16 const &, class TDesC16 const &)
	?CallbackSimNotifyApnListChangeInd@CCtsyDispatcherCallback@@QAEXH@Z @ 26 NONAME ; void CCtsyDispatcherCallback::CallbackSimNotifyApnListChangeInd(int)
	?CallbackSimRefreshSimFilesInd@CCtsyDispatcherCallback@@QAEXHG@Z @ 27 NONAME ; void CCtsyDispatcherCallback::CallbackSimRefreshSimFilesInd(int, unsigned short)
	?CallbackPhonebookStoreWriteEntryComp@CCtsyDispatcherCallback@@QAEXHW4TPhonebook@DispatcherPhonebook@@GH@Z @ 28 NONAME ; void CCtsyDispatcherCallback::CallbackPhonebookStoreWriteEntryComp(int, enum DispatcherPhonebook::TPhonebook, unsigned short, int)
	?CallbackSimSendApduRequestV2Comp@CCtsyDispatcherCallback@@QAEXHABVTDesC8@@@Z @ 29 NONAME ; void CCtsyDispatcherCallback::CallbackSimSendApduRequestV2Comp(int, class TDesC8 const &)
	?CallbackCallControlGetLifeTimeComp@CCtsyDispatcherCallback@@QAEXH@Z @ 30 NONAME ; void CCtsyDispatcherCallback::CallbackCallControlGetLifeTimeComp(int)
	?CallbackPhonebookSmsStoreDeleteAllComp@CCtsyDispatcherCallback@@QAEXH@Z @ 31 NONAME ; void CCtsyDispatcherCallback::CallbackPhonebookSmsStoreDeleteAllComp(int)
	?CallbackPhonebookStoreResetCacheInd@CCtsyDispatcherCallback@@QAEXHW4TPhonebook@DispatcherPhonebook@@@Z @ 32 NONAME ; void CCtsyDispatcherCallback::CallbackPhonebookStoreResetCacheInd(int, enum DispatcherPhonebook::TPhonebook)
	?CallbackSmsSendSatSmsComp@CCtsyDispatcherCallback@@QAEXH@Z @ 33 NONAME ; void CCtsyDispatcherCallback::CallbackSmsSendSatSmsComp(int)
	?CallbackSatLocationStatusInd@CCtsyDispatcherCallback@@QAEXHEABVTDesC8@@GG@Z @ 34 NONAME ; void CCtsyDispatcherCallback::CallbackSatLocationStatusInd(int, unsigned char, class TDesC8 const &, unsigned short, unsigned short)
	?CallbackPacketServicesNotifyPdpContextConnectionSpeedChangeInd@CCtsyDispatcherCallback@@QAEXHABVTDesC16@@I@Z @ 35 NONAME ; void CCtsyDispatcherCallback::CallbackPacketServicesNotifyPdpContextConnectionSpeedChangeInd(int, class TDesC16 const &, unsigned int)
	?AddSecondName@CPhoneBookEntry@@QAEHABVTDesC16@@@Z @ 36 NONAME ; int CPhoneBookEntry::AddSecondName(class TDesC16 const &)
	?CallbackPhonebookSmsStoreWriteEntryComp@CCtsyDispatcherCallback@@QAEXHHH@Z @ 37 NONAME ; void CCtsyDispatcherCallback::CallbackPhonebookSmsStoreWriteEntryComp(int, int, int)
	?CallbackSimGetCustomerServiceProfileComp@CCtsyDispatcherCallback@@QAEXHABVTMobilePhoneCspFileV1@RMobilePhone@@@Z @ 38 NONAME ; void CCtsyDispatcherCallback::CallbackSimGetCustomerServiceProfileComp(int, class RMobilePhone::TMobilePhoneCspFileV1 const &)
	?CallbackSimSetIccMessageWaitingIndicatorsComp@CCtsyDispatcherCallback@@QAEXH@Z @ 39 NONAME ; void CCtsyDispatcherCallback::CallbackSimSetIccMessageWaitingIndicatorsComp(int)
	?CallbackSimSimLockActivateComp@CCtsyDispatcherCallback@@QAEXH@Z @ 40 NONAME ; void CCtsyDispatcherCallback::CallbackSimSimLockActivateComp(int)
	?CallbackSatRemoveEventListInd@CCtsyDispatcherCallback@@QAEXH@Z @ 41 NONAME ; void CCtsyDispatcherCallback::CallbackSatRemoveEventListInd(int)
	?CallbackPhonebookOnStoreDeleteAllComp@CCtsyDispatcherCallback@@QAEXH@Z @ 42 NONAME ; void CCtsyDispatcherCallback::CallbackPhonebookOnStoreDeleteAllComp(int)
	?CallbackPhoneGetServiceProviderNameComp@CCtsyDispatcherCallback@@QAEXHABVTMobilePhoneServiceProviderNameV2@RMobilePhone@@@Z @ 43 NONAME ; void CCtsyDispatcherCallback::CallbackPhoneGetServiceProviderNameComp(int, class RMobilePhone::TMobilePhoneServiceProviderNameV2 const &)
	?CallbackSatGetDefaultBearerCapabilityComp@CCtsyDispatcherCallback@@QAEXHABVTDesC8@@@Z @ 44 NONAME ; void CCtsyDispatcherCallback::CallbackSatGetDefaultBearerCapabilityComp(int, class TDesC8 const &)
	?CallbackPhoneSetAlwaysOnModeComp@CCtsyDispatcherCallback@@QAEXH@Z @ 45 NONAME ; void CCtsyDispatcherCallback::CallbackPhoneSetAlwaysOnModeComp(int)
	?CallbackSatCreateCallControlEnvelopeInd@CCtsyDispatcherCallback@@QAEXHEABVTDesC8@@00EE@Z @ 46 NONAME ; void CCtsyDispatcherCallback::CallbackSatCreateCallControlEnvelopeInd(int, unsigned char, class TDesC8 const &, class TDesC8 const &, class TDesC8 const &, unsigned char, unsigned char)
	?CallbackSatUssdControlEnvelopeErrorComp@CCtsyDispatcherCallback@@QAEXH@Z @ 47 NONAME ; void CCtsyDispatcherCallback::CallbackSatUssdControlEnvelopeErrorComp(int)
	?CallbackSatProvideLocationInfoComp@CCtsyDispatcherCallback@@QAEXHGGABVTDesC8@@@Z @ 48 NONAME ; void CCtsyDispatcherCallback::CallbackSatProvideLocationInfoComp(int, unsigned short, unsigned short, class TDesC8 const &)
	?CallbackPhoneGetHspaStatusComp@CCtsyDispatcherCallback@@QAEXHW4THSxPAStatus@RMmCustomAPI@@@Z @ 49 NONAME ; void CCtsyDispatcherCallback::CallbackPhoneGetHspaStatusComp(int, enum RMmCustomAPI::THSxPAStatus)
	?CallbackPacketServicesGetPacketAttachModeComp@CCtsyDispatcherCallback@@QAEXHW4TAttachMode@RPacketService@@@Z @ 50 NONAME ; void CCtsyDispatcherCallback::CallbackPacketServicesGetPacketAttachModeComp(int, enum RPacketService::TAttachMode)
	?CallbackSecurityGetLockInfoComp@CCtsyDispatcherCallback@@QAEXHW4TMobilePhoneLockStatus@RMobilePhone@@W4TMobilePhoneLockSetting@3@@Z @ 51 NONAME ; void CCtsyDispatcherCallback::CallbackSecurityGetLockInfoComp(int, enum RMobilePhone::TMobilePhoneLockStatus, enum RMobilePhone::TMobilePhoneLockSetting)
	?CallbackSatRefreshAllowedComp@CCtsyDispatcherCallback@@QAEXH@Z @ 52 NONAME ; void CCtsyDispatcherCallback::CallbackSatRefreshAllowedComp(int)
	?CallbackPhoneSetSystemNetworkModeComp@CCtsyDispatcherCallback@@QAEXH@Z @ 53 NONAME ; void CCtsyDispatcherCallback::CallbackPhoneSetSystemNetworkModeComp(int)
	?CallbackSatCreateSmsPpDownloadEnvelopeInd@CCtsyDispatcherCallback@@QAEXHABVTDesC8@@0@Z @ 54 NONAME ; void CCtsyDispatcherCallback::CallbackSatCreateSmsPpDownloadEnvelopeInd(int, class TDesC8 const &, class TDesC8 const &)
	?GetAdditionalNumbers@CPhoneBookEntry@@QBEABV?$RArray@VRBuf16@@@@XZ @ 55 NONAME ; class RArray<class RBuf16> const & CPhoneBookEntry::GetAdditionalNumbers(void) const
	?CallbackSupplementaryServicesNotifyAdditionalInfoInd@CCtsyDispatcherCallback@@QAEXHEABVTDesC8@@@Z @ 56 NONAME ; void CCtsyDispatcherCallback::CallbackSupplementaryServicesNotifyAdditionalInfoInd(int, unsigned char, class TDesC8 const &)
	?CallbackPhonebookStoreInitialiseComp@CCtsyDispatcherCallback@@QAEXHABVTPhonebookStoreInfoV1@DispatcherPhonebook@@@Z @ 57 NONAME ; void CCtsyDispatcherCallback::CallbackPhonebookStoreInitialiseComp(int, class DispatcherPhonebook::TPhonebookStoreInfoV1 const &)
	?CallbackPhoneGetSystemNetworkBandComp@CCtsyDispatcherCallback@@QAEXHW4TBandSelection@RMmCustomAPI@@W4TNetworkModeCaps@3@@Z @ 58 NONAME ; void CCtsyDispatcherCallback::CallbackPhoneGetSystemNetworkBandComp(int, enum RMmCustomAPI::TBandSelection, enum RMmCustomAPI::TNetworkModeCaps)
	?CallbackPacketServicesNotifyPacketDynamicCapsChangeInd@CCtsyDispatcherCallback@@QAEXHHH@Z @ 59 NONAME ; void CCtsyDispatcherCallback::CallbackPacketServicesNotifyPacketDynamicCapsChangeInd(int, int, int)
	?CallbackPacketServicesInitialisePdpContextComp@CCtsyDispatcherCallback@@QAEXHABVTDesC16@@0@Z @ 60 NONAME ; void CCtsyDispatcherCallback::CallbackPacketServicesInitialisePdpContextComp(int, class TDesC16 const &, class TDesC16 const &)
	?CallbackPhoneNotifyCellInfoChangedInd@CCtsyDispatcherCallback@@QAEXHABUTGSMCellInfo@TMmCellInfo@RMmCustomAPI@@@Z @ 61 NONAME ; void CCtsyDispatcherCallback::CallbackPhoneNotifyCellInfoChangedInd(int, struct RMmCustomAPI::TMmCellInfo::TGSMCellInfo const &)
	?CallbackPhoneGetPhoneCellInfoComp@CCtsyDispatcherCallback@@QAEXHABVTMobilePhoneCellInfoV9@RMobilePhone@@@Z @ 62 NONAME ; void CCtsyDispatcherCallback::CallbackPhoneGetPhoneCellInfoComp(int, class RMobilePhone::TMobilePhoneCellInfoV9 const &)
	?CallbackPacketServicesNotifyPacketAttachModeChangeInd@CCtsyDispatcherCallback@@QAEXH@Z @ 63 NONAME ABSENT ; void CCtsyDispatcherCallback::CallbackPacketServicesNotifyPacketAttachModeChangeInd(int)
	?CallbackSupplementaryServicesSendNetworkServiceRequestComp@CCtsyDispatcherCallback@@QAEXH@Z @ 64 NONAME ; void CCtsyDispatcherCallback::CallbackSupplementaryServicesSendNetworkServiceRequestComp(int)
	?CallbackSecurityBootNotifySecurityReadyInd@CCtsyDispatcherCallback@@QAEXH@Z @ 65 NONAME ; void CCtsyDispatcherCallback::CallbackSecurityBootNotifySecurityReadyInd(int)
	?CallbackCellBroadcastActivateBroadcastReceiveMessageComp@CCtsyDispatcherCallback@@QAEXH@Z @ 66 NONAME ; void CCtsyDispatcherCallback::CallbackCellBroadcastActivateBroadcastReceiveMessageComp(int)
	?CallbackSupplementaryServicesSendUssdMessageNoFdnCheckComp@CCtsyDispatcherCallback@@QAEXH@Z @ 67 NONAME ; void CCtsyDispatcherCallback::CallbackSupplementaryServicesSendUssdMessageNoFdnCheckComp(int)
	?CallbackSimNotifySimCardStatusInd@CCtsyDispatcherCallback@@QAEXHW4TSIMCardStatus@RMmCustomAPI@@@Z @ 68 NONAME ; void CCtsyDispatcherCallback::CallbackSimNotifySimCardStatusInd(int, enum RMmCustomAPI::TSIMCardStatus)
	?TlvLength@CPhoneBookEntry@@QBEHXZ @ 69 NONAME ; int CPhoneBookEntry::TlvLength(void) const
	?CallbackSatGetClutComp@CCtsyDispatcherCallback@@QAEXHABVTDesC8@@@Z @ 70 NONAME ; void CCtsyDispatcherCallback::CallbackSatGetClutComp(int, class TDesC8 const &)
	?CallbackPhoneNotifyHspaStatusChangedInd@CCtsyDispatcherCallback@@QAEXHW4THSxPAStatus@RMmCustomAPI@@@Z @ 71 NONAME ; void CCtsyDispatcherCallback::CallbackPhoneNotifyHspaStatusChangedInd(int, enum RMmCustomAPI::THSxPAStatus)
	?CallbackSupplementaryServicesNotifyCallWaitingStatusChangeInd@CCtsyDispatcherCallback@@QAEXHW4TMobileService@RMobilePhone@@W4TMobilePhoneCWStatus@3@@Z @ 72 NONAME ; void CCtsyDispatcherCallback::CallbackSupplementaryServicesNotifyCallWaitingStatusChangeInd(int, enum RMobilePhone::TMobileService, enum RMobilePhone::TMobilePhoneCWStatus)
	?CallbackSatCallControlEnvelopeResponseInd@CCtsyDispatcherCallback@@QAEXHABVTDesC8@@@Z @ 73 NONAME ; void CCtsyDispatcherCallback::CallbackSatCallControlEnvelopeResponseInd(int, class TDesC8 const &)
	?CallbackPhoneNotifyNspsStatusChangeInd@CCtsyDispatcherCallback@@QAEXHH@Z @ 74 NONAME ; void CCtsyDispatcherCallback::CallbackPhoneNotifyNspsStatusChangeInd(int, int)
	?CallbackCellBroadcastReceiveMessageCancelComp@CCtsyDispatcherCallback@@QAEXH@Z @ 75 NONAME ; void CCtsyDispatcherCallback::CallbackCellBroadcastReceiveMessageCancelComp(int)
	?CallbackPacketServicesSetDefaultPdpContextParamsComp@CCtsyDispatcherCallback@@QAEXH@Z @ 76 NONAME ; void CCtsyDispatcherCallback::CallbackPacketServicesSetDefaultPdpContextParamsComp(int)
	?CallbackSupplementaryServicesNotifyCallBarringStatusChangeInd@CCtsyDispatcherCallback@@QAEXHW4TMobilePhoneCBCondition@RMobilePhone@@@Z @ 77 NONAME ; void CCtsyDispatcherCallback::CallbackSupplementaryServicesNotifyCallBarringStatusChangeInd(int, enum RMobilePhone::TMobilePhoneCBCondition)
	??0TLogEntryExit@@QAA@ABVTDesC8@@0V?$TRefByValue@$$CBVTDesC16@@@@ZZ @ 78 NONAME ; TLogEntryExit::TLogEntryExit(class TDesC8 const &, class TDesC8 const &, class TRefByValue<class TDesC16 const >, ...)
	?CallbackCallControlNotifyHscsdInfoChangeInd@CCtsyDispatcherCallback@@QAEXHHABVTMobileCallHscsdInfoV8@RMobileCall@@ABVTMobileCallDataCapsV1@3@@Z @ 79 NONAME ; void CCtsyDispatcherCallback::CallbackCallControlNotifyHscsdInfoChangeInd(int, int, class RMobileCall::TMobileCallHscsdInfoV8 const &, class RMobileCall::TMobileCallDataCapsV1 const &)
	?CallbackSatGetSmsPpDownloadSupportedComp@CCtsyDispatcherCallback@@QAEXHH@Z @ 80 NONAME ; void CCtsyDispatcherCallback::CallbackSatGetSmsPpDownloadSupportedComp(int, int)
	?CallbackSimSetSimMessageStatusReadComp@CCtsyDispatcherCallback@@QAEXH@Z @ 81 NONAME ; void CCtsyDispatcherCallback::CallbackSimSetSimMessageStatusReadComp(int)
	?CallbackCallControlGetIdentityServiceStatusComp@CCtsyDispatcherCallback@@QAEXHW4TMobilePhoneIdServiceStatus@RMobilePhone@@@Z @ 82 NONAME ; void CCtsyDispatcherCallback::CallbackCallControlGetIdentityServiceStatusComp(int, enum RMobilePhone::TMobilePhoneIdServiceStatus)
	?CallbackPhoneNotifyRauEventInd@CCtsyDispatcherCallback@@QAEXHW4TRauEventStatus@RMmCustomAPI@@@Z @ 83 NONAME ; void CCtsyDispatcherCallback::CallbackPhoneNotifyRauEventInd(int, enum RMmCustomAPI::TRauEventStatus)
	?CallbackSimSetApnControlListServiceStatusComp@CCtsyDispatcherCallback@@QAEXH@Z @ 84 NONAME ; void CCtsyDispatcherCallback::CallbackSimSetApnControlListServiceStatusComp(int)
	?ExternalizeToTlvEntry@CPhoneBookEntry@@QBEHAAVCPhoneBookBuffer@@@Z @ 85 NONAME ; int CPhoneBookEntry::ExternalizeToTlvEntry(class CPhoneBookBuffer &) const
	?CallbackCallControlGetLifeTimeComp@CCtsyDispatcherCallback@@QAEXHKE@Z @ 86 NONAME ; void CCtsyDispatcherCallback::CallbackCallControlGetLifeTimeComp(int, unsigned long, unsigned char)
	?CallbackPhoneBootNotifySimStatusReadyComp@CCtsyDispatcherCallback@@QAEXH@Z @ 87 NONAME ; void CCtsyDispatcherCallback::CallbackPhoneBootNotifySimStatusReadyComp(int)
	?CallbackPhoneRegisterCellInfoChangeNotificationComp@CCtsyDispatcherCallback@@QAEXH@Z @ 88 NONAME ; void CCtsyDispatcherCallback::CallbackPhoneRegisterCellInfoChangeNotificationComp(int)
	?CallbackSimSendApduRequestComp@CCtsyDispatcherCallback@@QAEXHEEEABVTDesC8@@@Z @ 89 NONAME ; void CCtsyDispatcherCallback::CallbackSimSendApduRequestComp(int, unsigned char, unsigned char, unsigned char, class TDesC8 const &)
	?CallbackSatReadyComp@CCtsyDispatcherCallback@@QAEXH@Z @ 90 NONAME ; void CCtsyDispatcherCallback::CallbackSatReadyComp(int)
	?CallbackCallControlTransferComp@CCtsyDispatcherCallback@@QAEXH@Z @ 91 NONAME ; void CCtsyDispatcherCallback::CallbackCallControlTransferComp(int)
	?SetFirstName@CPhoneBookEntry@@QAEHABVTDesC16@@@Z @ 92 NONAME ; int CPhoneBookEntry::SetFirstName(class TDesC16 const &)
	?CallbackSatSsChangeInd@CCtsyDispatcherCallback@@QAEXHW4TSsStatus@DispatcherSat@@@Z @ 93 NONAME ; void CCtsyDispatcherCallback::CallbackSatSsChangeInd(int, enum DispatcherSat::TSsStatus)
	?CallbackPhoneGetFdnStatusComp@CCtsyDispatcherCallback@@QAEXHW4TMobilePhoneFdnStatus@RMobilePhone@@@Z @ 94 NONAME ; void CCtsyDispatcherCallback::CallbackPhoneGetFdnStatusComp(int, enum RMobilePhone::TMobilePhoneFdnStatus)
	?SetDiallingNumber@CPhoneBookEntry@@QAEHABVTDesC16@@@Z @ 95 NONAME ; int CPhoneBookEntry::SetDiallingNumber(class TDesC16 const &)
	?CallbackCallControlGetCallForwardingIndicatorComp@CCtsyDispatcherCallback@@QAEXHW4TMobileTON@RMobilePhone@@W4TMobileNPI@3@ABVTDesC16@@KW4TMultipleSubscriberProfileID@3@@Z @ 96 NONAME ; void CCtsyDispatcherCallback::CallbackCallControlGetCallForwardingIndicatorComp(int, enum RMobilePhone::TMobileTON, enum RMobilePhone::TMobileNPI, class TDesC16 const &, unsigned long, enum RMobilePhone::TMultipleSubscriberProfileID)
	?CallbackSatPcmdInd@CCtsyDispatcherCallback@@QAEXHABVTDesC8@@@Z @ 97 NONAME ; void CCtsyDispatcherCallback::CallbackSatPcmdInd(int, class TDesC8 const &)
	?CallbackPhoneSetNetworkSelectionSettingComp@CCtsyDispatcherCallback@@QAEXHW4TMobilePhoneSelectionMethod@RMobilePhone@@@Z @ 98 NONAME ; void CCtsyDispatcherCallback::CallbackPhoneSetNetworkSelectionSettingComp(int, enum RMobilePhone::TMobilePhoneSelectionMethod)
	?CallbackSupplementaryServicesNotifyNetworkEventHoldModeInd@CCtsyDispatcherCallback@@QAEXHW4TSsType@RMmCustomAPI@@W4TSsMode@3@W4TSsHoldMode@3@@Z @ 99 NONAME ; void CCtsyDispatcherCallback::CallbackSupplementaryServicesNotifyNetworkEventHoldModeInd(int, enum RMmCustomAPI::TSsType, enum RMmCustomAPI::TSsMode, enum RMmCustomAPI::TSsHoldMode)
	?CallbackSecurityNotifySecurityEventInd@CCtsyDispatcherCallback@@QAEXHW4TMobilePhoneSecurityEvent@RMobilePhone@@@Z @ 100 NONAME ; void CCtsyDispatcherCallback::CallbackSecurityNotifySecurityEventInd(int, enum RMobilePhone::TMobilePhoneSecurityEvent)
	?CallbackSecurityGetCurrentActivePinComp@CCtsyDispatcherCallback@@QAEXHW4TMobilePhoneSecurityCode@RMobilePhone@@@Z @ 101 NONAME ; void CCtsyDispatcherCallback::CallbackSecurityGetCurrentActivePinComp(int, enum RMobilePhone::TMobilePhoneSecurityCode)
	?CallbackSatTimingAdvanceComp@CCtsyDispatcherCallback@@QAEXHEE@Z @ 102 NONAME ; void CCtsyDispatcherCallback::CallbackSatTimingAdvanceComp(int, unsigned char, unsigned char)
	?CallbackPhonebookSmsStoreGetInfoComp@CCtsyDispatcherCallback@@QAEXHHH@Z @ 103 NONAME ; void CCtsyDispatcherCallback::CallbackPhonebookSmsStoreGetInfoComp(int, int, int)
	?CallbackSupplementaryServicesSendUssdMessageComp@CCtsyDispatcherCallback@@QAEXH@Z @ 104 NONAME ; void CCtsyDispatcherCallback::CallbackSupplementaryServicesSendUssdMessageComp(int)
	?CallbackCallControlMultipartyConferenceGoOneToOneComp@CCtsyDispatcherCallback@@QAEXHH@Z @ 105 NONAME ; void CCtsyDispatcherCallback::CallbackCallControlMultipartyConferenceGoOneToOneComp(int, int)
	?InternalizeFromTlvEntry@CPhoneBookEntry@@QAEHAAVCPhoneBookBuffer@@H@Z @ 106 NONAME ; int CPhoneBookEntry::InternalizeFromTlvEntry(class CPhoneBookBuffer &, int)
	?CallbackSecurityDisablePhoneLockComp@CCtsyDispatcherCallback@@QAEXH@Z @ 107 NONAME ; void CCtsyDispatcherCallback::CallbackSecurityDisablePhoneLockComp(int)
	?CallbackPhoneSetDriveModeComp@CCtsyDispatcherCallback@@QAEXH@Z @ 108 NONAME ; void CCtsyDispatcherCallback::CallbackPhoneSetDriveModeComp(int)
	?CallbackSatTimeZoneChangeInd@CCtsyDispatcherCallback@@QAEXHE@Z @ 109 NONAME ; void CCtsyDispatcherCallback::CallbackSatTimeZoneChangeInd(int, unsigned char)
	?CallbackPacketServicesSetPdpContextQosComp@CCtsyDispatcherCallback@@QAEXHABVTDesC16@@@Z @ 110 NONAME ; void CCtsyDispatcherCallback::CallbackPacketServicesSetPdpContextQosComp(int, class TDesC16 const &)
	?CallbackPhoneGetUsimServiceSupportComp@CCtsyDispatcherCallback@@QAEXHHH@Z @ 111 NONAME ; void CCtsyDispatcherCallback::CallbackPhoneGetUsimServiceSupportComp(int, int, int)
	?Reset@CPhoneBookEntry@@QAEXXZ @ 112 NONAME ; void CPhoneBookEntry::Reset(void)
	?CallbackSecurityNotifyLockInfoChangeInd@CCtsyDispatcherCallback@@QAEXHW4TMobilePhoneLockStatus@RMobilePhone@@W4TMobilePhoneLockSetting@3@W4TMobilePhoneLock@3@@Z @ 113 NONAME ; void CCtsyDispatcherCallback::CallbackSecurityNotifyLockInfoChangeInd(int, enum RMobilePhone::TMobilePhoneLockStatus, enum RMobilePhone::TMobilePhoneLockSetting, enum RMobilePhone::TMobilePhoneLock)
	?CallbackPacketServicesGetMaxNoActiveServicesComp@CCtsyDispatcherCallback@@QAEXHH@Z @ 114 NONAME ; void CCtsyDispatcherCallback::CallbackPacketServicesGetMaxNoActiveServicesComp(int, int)
	?CallbackSmsSetMoSmsBearerComp@CCtsyDispatcherCallback@@QAEXH@Z @ 115 NONAME ; void CCtsyDispatcherCallback::CallbackSmsSetMoSmsBearerComp(int)
	?CallbackPhoneNotifyBatteryInfoChangeInd@CCtsyDispatcherCallback@@QAEXHABVTMobilePhoneBatteryInfoV1@RMobilePhone@@@Z @ 116 NONAME ; void CCtsyDispatcherCallback::CallbackPhoneNotifyBatteryInfoChangeInd(int, class RMobilePhone::TMobilePhoneBatteryInfoV1 const &)
	?CallbackCallControlTerminateAllCallsComp@CCtsyDispatcherCallback@@QAEXH@Z @ 117 NONAME ; void CCtsyDispatcherCallback::CallbackCallControlTerminateAllCallsComp(int)
	?CallbackPacketServicesModifyActivePdpContextComp@CCtsyDispatcherCallback@@QAEXHABVTDesC16@@C@Z @ 118 NONAME ; void CCtsyDispatcherCallback::CallbackPacketServicesModifyActivePdpContextComp(int, class TDesC16 const &, signed char)
	?CallbackSatSmControlEnvelopeResponseInd@CCtsyDispatcherCallback@@QAEXHABVTDesC8@@@Z @ 119 NONAME ; void CCtsyDispatcherCallback::CallbackSatSmControlEnvelopeResponseInd(int, class TDesC8 const &)
	?CallbackCallControlNotifyIncomingCallInd@CCtsyDispatcherCallback@@QAEXHABVTMobileCallInfoV1@RMobileCall@@@Z @ 120 NONAME ; void CCtsyDispatcherCallback::CallbackCallControlNotifyIncomingCallInd(int, class RMobileCall::TMobileCallInfoV1 const &)
	?CallbackPhoneGetNetworkModeComp@CCtsyDispatcherCallback@@QAEXHW4TMobilePhoneNetworkMode@RMobilePhone@@@Z @ 121 NONAME ; void CCtsyDispatcherCallback::CallbackPhoneGetNetworkModeComp(int, enum RMobilePhone::TMobilePhoneNetworkMode)
	?CallbackPhoneSimRefreshRegisterComp@CCtsyDispatcherCallback@@QAEXH@Z @ 122 NONAME ; void CCtsyDispatcherCallback::CallbackPhoneSimRefreshRegisterComp(int)
	?CallbackSimGetSimAuthenticationDataComp@CCtsyDispatcherCallback@@QAEXHABVTDesC8@@000@Z @ 123 NONAME ; void CCtsyDispatcherCallback::CallbackSimGetSimAuthenticationDataComp(int, class TDesC8 const &, class TDesC8 const &, class TDesC8 const &, class TDesC8 const &)
	?CallbackCellBroadcastDeleteSimCbTopicComp@CCtsyDispatcherCallback@@QAEXH@Z @ 124 NONAME ; void CCtsyDispatcherCallback::CallbackCellBroadcastDeleteSimCbTopicComp(int)
	?CallbackCallControlMultipartyCreateConferenceComp@CCtsyDispatcherCallback@@QAEXH@Z @ 125 NONAME ; void CCtsyDispatcherCallback::CallbackCallControlMultipartyCreateConferenceComp(int)
	?CallbackCallControlDialDataComp@CCtsyDispatcherCallback@@QAEXHH@Z @ 126 NONAME ; void CCtsyDispatcherCallback::CallbackCallControlDialDataComp(int, int)
	?CallbackSmsResumeSmsReceptionComp@CCtsyDispatcherCallback@@QAEXH@Z @ 127 NONAME ; void CCtsyDispatcherCallback::CallbackSmsResumeSmsReceptionComp(int)
	?CallbackPhonebookOnStoreReadComp@CCtsyDispatcherCallback@@QAEXHHABVTDesC16@@0@Z @ 128 NONAME ; void CCtsyDispatcherCallback::CallbackPhonebookOnStoreReadComp(int, int, class TDesC16 const &, class TDesC16 const &)
	?CallbackPacketServicesNotifyQosProfileChangedR5Ind@CCtsyDispatcherCallback@@QAEXHABVTDesC16@@ABVTQoSR5Negotiated@RPacketQoS@@@Z @ 129 NONAME ; void CCtsyDispatcherCallback::CallbackPacketServicesNotifyQosProfileChangedR5Ind(int, class TDesC16 const &, class RPacketQoS::TQoSR5Negotiated const &)
	?CallbackSimNotifyIccMessageWaitingIndicatorsChangeInd@CCtsyDispatcherCallback@@QAEXHABVTMobilePhoneMessageWaitingV1@RMobilePhone@@@Z @ 130 NONAME ; void CCtsyDispatcherCallback::CallbackSimNotifyIccMessageWaitingIndicatorsChangeInd(int, class RMobilePhone::TMobilePhoneMessageWaitingV1 const &)
	?CallbackSupplementaryServicesClearBlacklistComp@CCtsyDispatcherCallback@@QAEXH@Z @ 131 NONAME ; void CCtsyDispatcherCallback::CallbackSupplementaryServicesClearBlacklistComp(int)
	?CallbackCallControlDialEmergencyComp@CCtsyDispatcherCallback@@QAEXHH@Z @ 132 NONAME ; void CCtsyDispatcherCallback::CallbackCallControlDialEmergencyComp(int, int)
	?CallbackPhoneGetCellInfoComp@CCtsyDispatcherCallback@@QAEXHABUTGSMCellInfo@TMmCellInfo@RMmCustomAPI@@@Z @ 133 NONAME ; void CCtsyDispatcherCallback::CallbackPhoneGetCellInfoComp(int, struct RMmCustomAPI::TMmCellInfo::TGSMCellInfo const &)
	?CallbackSimGetAnswerToResetComp@CCtsyDispatcherCallback@@QAEXHABVTDesC8@@@Z @ 134 NONAME ; void CCtsyDispatcherCallback::CallbackSimGetAnswerToResetComp(int, class TDesC8 const &)
	?CallbackSatUssdControlSupportedChangeInd@CCtsyDispatcherCallback@@QAEXHH@Z @ 135 NONAME ; void CCtsyDispatcherCallback::CallbackSatUssdControlSupportedChangeInd(int, int)
	?CallbackPhonebookStoreSetFdnPhonebookInfoInd@CCtsyDispatcherCallback@@QAEXHHHH@Z @ 136 NONAME ; void CCtsyDispatcherCallback::CallbackPhonebookStoreSetFdnPhonebookInfoInd(int, int, int, int)
	?CallbackSatImsiChangedInd@CCtsyDispatcherCallback@@QAEXH@Z @ 137 NONAME ; void CCtsyDispatcherCallback::CallbackSatImsiChangedInd(int)
	?CallbackPacketServicesNotifyPacketNetworkRegistrationStatusInd@CCtsyDispatcherCallback@@QAEXHW4TRegistrationStatus@RPacketService@@@Z @ 138 NONAME ; void CCtsyDispatcherCallback::CallbackPacketServicesNotifyPacketNetworkRegistrationStatusInd(int, enum RPacketService::TRegistrationStatus)
	?CallbackSimGetSimAuthenticationDataComp@CCtsyDispatcherCallback@@QAEXHABVTDesC8@@0@Z @ 139 NONAME ; void CCtsyDispatcherCallback::CallbackSimGetSimAuthenticationDataComp(int, class TDesC8 const &, class TDesC8 const &)
	?CallbackSmsSendSmsMessageNoFdnCheckComp@CCtsyDispatcherCallback@@QAEXHHABVTDesC8@@@Z @ 140 NONAME ; void CCtsyDispatcherCallback::CallbackSmsSendSmsMessageNoFdnCheckComp(int, int, class TDesC8 const &)
	?CallbackPacketServicesNotifyPdpContextAddedInd@CCtsyDispatcherCallback@@QAEXHABVTDesC16@@@Z @ 141 NONAME ; void CCtsyDispatcherCallback::CallbackPacketServicesNotifyPdpContextAddedInd(int, class TDesC16 const &)
	?CallbackPacketServicesDeactivatePdpContextComp@CCtsyDispatcherCallback@@QAEXHABVTDesC16@@@Z @ 142 NONAME ; void CCtsyDispatcherCallback::CallbackPacketServicesDeactivatePdpContextComp(int, class TDesC16 const &)
	?CallbackSupplementaryServicesNotifySendNetworkServiceRequestInd@CCtsyDispatcherCallback@@QAEXHW4TMobilePhoneNotifySendSSOperation@RMobilePhone@@ABVTDesC16@@@Z @ 143 NONAME ; void CCtsyDispatcherCallback::CallbackSupplementaryServicesNotifySendNetworkServiceRequestInd(int, enum RMobilePhone::TMobilePhoneNotifySendSSOperation, class TDesC16 const &)
	?AddAdditionalNumber@CPhoneBookEntry@@QAEHABVTDesC16@@@Z @ 144 NONAME ; int CPhoneBookEntry::AddAdditionalNumber(class TDesC16 const &)
	?CallbackPacketServicesPacketAttachComp@CCtsyDispatcherCallback@@QAEXH@Z @ 145 NONAME ; void CCtsyDispatcherCallback::CallbackPacketServicesPacketAttachComp(int)
	?NewL@CPhoneBookEntry@@SAPAV1@XZ @ 146 NONAME ; class CPhoneBookEntry * CPhoneBookEntry::NewL(void)
	?CallbackPacketServicesNotifyRatTransferCapsChangeInd@CCtsyDispatcherCallback@@QAEXHI@Z @ 147 NONAME ; void CCtsyDispatcherCallback::CallbackPacketServicesNotifyRatTransferCapsChangeInd(int, unsigned int)
	?CallbackSmsNotifyReceiveSmsMessageInd@CCtsyDispatcherCallback@@QAEXHHABUTSmsMsg@@@Z @ 148 NONAME ; void CCtsyDispatcherCallback::CallbackSmsNotifyReceiveSmsMessageInd(int, int, struct TSmsMsg const &)
	?CallbackCallControlStopDtmfToneComp@CCtsyDispatcherCallback@@QAEXH@Z @ 149 NONAME ; void CCtsyDispatcherCallback::CallbackCallControlStopDtmfToneComp(int)
	?CallbackPhonebookStoreGetPhonebookInfoComp@CCtsyDispatcherCallback@@QAEXHW4TPhonebook@DispatcherPhonebook@@H@Z @ 150 NONAME ; void CCtsyDispatcherCallback::CallbackPhonebookStoreGetPhonebookInfoComp(int, enum DispatcherPhonebook::TPhonebook, int)
	?GetSecondNames@CPhoneBookEntry@@QBEABV?$RArray@VRBuf16@@@@XZ @ 151 NONAME ; class RArray<class RBuf16> const & CPhoneBookEntry::GetSecondNames(void) const
	?CallbackPhoneGetCurrentActiveUsimApplicationComp@CCtsyDispatcherCallback@@QAEXHABVTDesC8@@@Z @ 152 NONAME ; void CCtsyDispatcherCallback::CallbackPhoneGetCurrentActiveUsimApplicationComp(int, class TDesC8 const &)
	?CallbackSatSetPollingIntervalComp@CCtsyDispatcherCallback@@QAEXHE@Z @ 153 NONAME ; void CCtsyDispatcherCallback::CallbackSatSetPollingIntervalComp(int, unsigned char)
	?CallbackSatLocalInformationNmrComp@CCtsyDispatcherCallback@@QAEXHABVTDesC8@@ABVTDesC16@@@Z @ 154 NONAME ; void CCtsyDispatcherCallback::CallbackSatLocalInformationNmrComp(int, class TDesC8 const &, class TDesC16 const &)
	?CallbackPhonebookEnStoreGetInfoComp@CCtsyDispatcherCallback@@QAEXHH@Z @ 155 NONAME ; void CCtsyDispatcherCallback::CallbackPhonebookEnStoreGetInfoComp(int, int)
	?CallbackPhonebookOnStoreWriteEntryComp@CCtsyDispatcherCallback@@QAEXH@Z @ 156 NONAME ; void CCtsyDispatcherCallback::CallbackPhonebookOnStoreWriteEntryComp(int)
	??0TLogEntryExit@@QAE@ABVTDesC8@@0@Z @ 157 NONAME ; TLogEntryExit::TLogEntryExit(class TDesC8 const &, class TDesC8 const &)
	?CallbackCallControlStartDtmfToneComp@CCtsyDispatcherCallback@@QAEXH@Z @ 158 NONAME ; void CCtsyDispatcherCallback::CallbackCallControlStartDtmfToneComp(int)
	?GetIndex@CPhoneBookEntry@@QBEHXZ @ 159 NONAME ; int CPhoneBookEntry::GetIndex(void) const
	?CallbackSecurityCheckSecurityCodeCancelComp@CCtsyDispatcherCallback@@QAEXH@Z @ 160 NONAME ; void CCtsyDispatcherCallback::CallbackSecurityCheckSecurityCodeCancelComp(int)
	?CallbackCallControlDialVoiceComp@CCtsyDispatcherCallback@@QAEXHH@Z @ 161 NONAME ; void CCtsyDispatcherCallback::CallbackCallControlDialVoiceComp(int, int)
	?CallbackCallControlGetAlsPpSupportComp@CCtsyDispatcherCallback@@QAEXHW4TAlsSupport@RMmCustomAPI@@@Z @ 162 NONAME ; void CCtsyDispatcherCallback::CallbackCallControlGetAlsPpSupportComp(int, enum RMmCustomAPI::TAlsSupport)
	?CallbackSimGetActiveIccApplicationTypeComp@CCtsyDispatcherCallback@@QAEXHW4TIccType@MLtsyDispatchSimGetActiveIccApplicationType@@@Z @ 163 NONAME ; void CCtsyDispatcherCallback::CallbackSimGetActiveIccApplicationTypeComp(int, enum MLtsyDispatchSimGetActiveIccApplicationType::TIccType)
	?CallbackCallControlSetDynamicHscsdParamsComp@CCtsyDispatcherCallback@@QAEXHH@Z @ 164 NONAME ; void CCtsyDispatcherCallback::CallbackCallControlSetDynamicHscsdParamsComp(int, int)
	?CallbackSimDeleteApnNameComp@CCtsyDispatcherCallback@@QAEXH@Z @ 165 NONAME ; void CCtsyDispatcherCallback::CallbackSimDeleteApnNameComp(int)
	?CallbackPhoneSelectNetworkComp@CCtsyDispatcherCallback@@QAEXH@Z @ 166 NONAME ; void CCtsyDispatcherCallback::CallbackPhoneSelectNetworkComp(int)
	?CallbackSupplementaryServicesNotifyNetworkEventConfrenceInd@CCtsyDispatcherCallback@@QAEXHW4TSsType@RMmCustomAPI@@W4TSsMode@3@H@Z @ 167 NONAME ; void CCtsyDispatcherCallback::CallbackSupplementaryServicesNotifyNetworkEventConfrenceInd(int, enum RMmCustomAPI::TSsType, enum RMmCustomAPI::TSsMode, int)
	?CallbackSimGetSubscriberIdComp@CCtsyDispatcherCallback@@QAEXHABVTDesC8@@@Z @ 168 NONAME ; void CCtsyDispatcherCallback::CallbackSimGetSubscriberIdComp(int, class TDesC8 const &)
	?CallbackPhoneGetCurrentNetworkInfoComp@CCtsyDispatcherCallback@@QAEXHABVTMobilePhoneNetworkInfoV5@RMobilePhone@@ABVTMobilePhoneLocationAreaV1@3@@Z @ 169 NONAME ; void CCtsyDispatcherCallback::CallbackPhoneGetCurrentNetworkInfoComp(int, class RMobilePhone::TMobilePhoneNetworkInfoV5 const &, class RMobilePhone::TMobilePhoneLocationAreaV1 const &)
	?CallbackSimGetApnControlListServiceStatusComp@CCtsyDispatcherCallback@@QAEXHW4TAPNControlListServiceStatus@RMobilePhone@@@Z @ 170 NONAME ; void CCtsyDispatcherCallback::CallbackSimGetApnControlListServiceStatusComp(int, enum RMobilePhone::TAPNControlListServiceStatus)
	?CallbackCellBroadcastStartSimCbTopicBrowsingComp@CCtsyDispatcherCallback@@QAEXHABV?$CArrayFixFlat@UTSimCbTopic@RMmCustomAPI@@@@@Z @ 171 NONAME ; void CCtsyDispatcherCallback::CallbackCellBroadcastStartSimCbTopicBrowsingComp(int, class CArrayFixFlat<struct RMmCustomAPI::TSimCbTopic> const &)
	?CallbackSupplementaryServicesSendUssdReleaseComp@CCtsyDispatcherCallback@@QAEXHEABVTDesC16@@@Z @ 172 NONAME ; void CCtsyDispatcherCallback::CallbackSupplementaryServicesSendUssdReleaseComp(int, unsigned char, class TDesC16 const &)
	?CallbackPhoneNspsWakeupComp@CCtsyDispatcherCallback@@QAEXH@Z @ 173 NONAME ; void CCtsyDispatcherCallback::CallbackPhoneNspsWakeupComp(int)
	?AddEmailAddress@CPhoneBookEntry@@QAEHABVTDesC16@@@Z @ 174 NONAME ; int CPhoneBookEntry::AddEmailAddress(class TDesC16 const &)
	?CallbackSupplementaryServicesNotifyNetworkEventInd@CCtsyDispatcherCallback@@QAEXHW4TSsType@RMmCustomAPI@@W4TSsMode@3@@Z @ 175 NONAME ; void CCtsyDispatcherCallback::CallbackSupplementaryServicesNotifyNetworkEventInd(int, enum RMmCustomAPI::TSsType, enum RMmCustomAPI::TSsMode)
	?CallbackSatCallDisconnectedInd@CCtsyDispatcherCallback@@QAEXHEHABVTDesC8@@@Z @ 176 NONAME ; void CCtsyDispatcherCallback::CallbackSatCallDisconnectedInd(int, unsigned char, int, class TDesC8 const &)
	?CallbackSecurityNotifyCipheringInfoChangeInd@CCtsyDispatcherCallback@@QAEXHABUTCipheringInfo@RMmCustomAPI@@@Z @ 177 NONAME ; void CCtsyDispatcherCallback::CallbackSecurityNotifyCipheringInfoChangeInd(int, struct RMmCustomAPI::TCipheringInfo const &)
	?CallbackCallControlGetAlsBlockedStatusComp@CCtsyDispatcherCallback@@QAEXHW4TGetAlsBlockStatus@RMmCustomAPI@@@Z @ 178 NONAME ; void CCtsyDispatcherCallback::CallbackCallControlGetAlsBlockedStatusComp(int, enum RMmCustomAPI::TGetAlsBlockStatus)
	?CallbackCallControlSendDtmfTonesComp@CCtsyDispatcherCallback@@QAEXH@Z @ 179 NONAME ; void CCtsyDispatcherCallback::CallbackCallControlSendDtmfTonesComp(int)
	?CallbackCallControlSetActiveAlsLineComp@CCtsyDispatcherCallback@@QAEXH@Z @ 180 NONAME ; void CCtsyDispatcherCallback::CallbackCallControlSetActiveAlsLineComp(int)
	?CallbackCallControlTerminateErrorCallComp@CCtsyDispatcherCallback@@QAEXH@Z @ 181 NONAME ; void CCtsyDispatcherCallback::CallbackCallControlTerminateErrorCallComp(int)
	?CallbackPhoneNotifySignalStrengthChangeInd@CCtsyDispatcherCallback@@QAEXHJC@Z @ 182 NONAME ; void CCtsyDispatcherCallback::CallbackPhoneNotifySignalStrengthChangeInd(int, long, signed char)
	?CallbackPacketServicesGetStaticCapabilitiesComp@CCtsyDispatcherCallback@@QAEXHI@Z @ 183 NONAME ; void CCtsyDispatcherCallback::CallbackPacketServicesGetStaticCapabilitiesComp(int, unsigned int)
	?CallbackSecuritySetLockSettingComp@CCtsyDispatcherCallback@@QAEXH@Z @ 184 NONAME ; void CCtsyDispatcherCallback::CallbackSecuritySetLockSettingComp(int)
	?CallbackPhonebookSmsStoreReadAllComp@CCtsyDispatcherCallback@@QAEXHABUTSmsData@DispatcherPhonebook@@HHH@Z @ 185 NONAME ; void CCtsyDispatcherCallback::CallbackPhonebookSmsStoreReadAllComp(int, struct DispatcherPhonebook::TSmsData const &, int, int, int)
	?CallbackSupplementaryServicesNotifyNetworkEventEctCallStateInd@CCtsyDispatcherCallback@@QAEXHW4TSsType@RMmCustomAPI@@W4TSsMode@3@W4TSsEctState@3@W4TSsChoice@3@ABVTDesC16@@@Z @ 186 NONAME ; void CCtsyDispatcherCallback::CallbackSupplementaryServicesNotifyNetworkEventEctCallStateInd(int, enum RMmCustomAPI::TSsType, enum RMmCustomAPI::TSsMode, enum RMmCustomAPI::TSsEctState, enum RMmCustomAPI::TSsChoice, class TDesC16 const &)
	?CallbackSimSimWarmResetComp@CCtsyDispatcherCallback@@QAEXH@Z @ 187 NONAME ; void CCtsyDispatcherCallback::CallbackSimSimWarmResetComp(int)
	?CallbackCallControlResumeComp@CCtsyDispatcherCallback@@QAEXHH@Z @ 188 NONAME ; void CCtsyDispatcherCallback::CallbackCallControlResumeComp(int, int)
	?CallbackPhonebookStoreReadEntryComp@CCtsyDispatcherCallback@@QAEXHW4TPhonebook@DispatcherPhonebook@@ABVTDesC8@@@Z @ 189 NONAME ; void CCtsyDispatcherCallback::CallbackPhonebookStoreReadEntryComp(int, enum DispatcherPhonebook::TPhonebook, class TDesC8 const &)
	?CallbackPhoneNotifyRfStatusChangeInd@CCtsyDispatcherCallback@@QAEXHW4TRfStateInfo@@@Z @ 190 NONAME ; void CCtsyDispatcherCallback::CallbackPhoneNotifyRfStatusChangeInd(int, enum TRfStateInfo)
	?CallbackPacketServicesUpdateMbmsMonitorServiceListComp@CCtsyDispatcherCallback@@QAEXH@Z @ 191 NONAME ; void CCtsyDispatcherCallback::CallbackPacketServicesUpdateMbmsMonitorServiceListComp(int)
	?CallbackSupplementaryServicesGetCallWaitingStatusComp@CCtsyDispatcherCallback@@QAEXHABVCMobilePhoneCWList@@@Z @ 192 NONAME ; void CCtsyDispatcherCallback::CallbackSupplementaryServicesGetCallWaitingStatusComp(int, class CMobilePhoneCWList const &)
	?CallbackPacketServicesGetPacketNetworkRegistrationStatusComp@CCtsyDispatcherCallback@@QAEXHW4TRegistrationStatus@RPacketService@@@Z @ 193 NONAME ; void CCtsyDispatcherCallback::CallbackPacketServicesGetPacketNetworkRegistrationStatusComp(int, enum RPacketService::TRegistrationStatus)
	?CallbackPhoneNotifyCellInfoChangedInd@CCtsyDispatcherCallback@@QAEXHABUTWCDMACellInfo@TMmCellInfo@RMmCustomAPI@@@Z @ 194 NONAME ; void CCtsyDispatcherCallback::CallbackPhoneNotifyCellInfoChangedInd(int, struct RMmCustomAPI::TMmCellInfo::TWCDMACellInfo const &)
	?CallbackPacketServicesPacketDetachComp@CCtsyDispatcherCallback@@QAEXH@Z @ 195 NONAME ; void CCtsyDispatcherCallback::CallbackPacketServicesPacketDetachComp(int)
	?SetIndex@CPhoneBookEntry@@QAEXH@Z @ 196 NONAME ; void CPhoneBookEntry::SetIndex(int)
	?CallbackPhoneGetNetworkProviderNameComp@CCtsyDispatcherCallback@@QAEXHABVTDesC16@@@Z @ 197 NONAME ; void CCtsyDispatcherCallback::CallbackPhoneGetNetworkProviderNameComp(int, class TDesC16 const &)
	?CallbackPhoneNotifyNetworkModeChangeInd@CCtsyDispatcherCallback@@QAEXHW4TMobilePhoneNetworkMode@RMobilePhone@@@Z @ 198 NONAME ; void CCtsyDispatcherCallback::CallbackPhoneNotifyNetworkModeChangeInd(int, enum RMobilePhone::TMobilePhoneNetworkMode)
	?CallbackSupplementaryServicesGetCallBarringStatusComp@CCtsyDispatcherCallback@@QAEXHABVCMobilePhoneCBList@@@Z @ 199 NONAME ; void CCtsyDispatcherCallback::CallbackSupplementaryServicesGetCallBarringStatusComp(int, class CMobilePhoneCBList const &)
	?CallbackSmsNackSmsStoredComp@CCtsyDispatcherCallback@@QAEXH@Z @ 200 NONAME ; void CCtsyDispatcherCallback::CallbackSmsNackSmsStoredComp(int)
	?CallbackPhonebookOnStoreDeleteEntryComp@CCtsyDispatcherCallback@@QAEXH@Z @ 201 NONAME ; void CCtsyDispatcherCallback::CallbackPhonebookOnStoreDeleteEntryComp(int)
	?CallbackPhoneSetHspaStatusComp@CCtsyDispatcherCallback@@QAEXH@Z @ 202 NONAME ; void CCtsyDispatcherCallback::CallbackPhoneSetHspaStatusComp(int)
	?CallbackSatGetUssdControlSupportedComp@CCtsyDispatcherCallback@@QAEXHH@Z @ 203 NONAME ; void CCtsyDispatcherCallback::CallbackSatGetUssdControlSupportedComp(int, int)
	?CallbackPhoneNotifyNitzInfoChangeInd@CCtsyDispatcherCallback@@QAEXHABVTMobilePhoneNITZ@RMobilePhone@@@Z @ 204 NONAME ; void CCtsyDispatcherCallback::CallbackPhoneNotifyNitzInfoChangeInd(int, class RMobilePhone::TMobilePhoneNITZ const &)
	?CallbackPhoneNotifyDtmfEventInd@CCtsyDispatcherCallback@@QAEXHW4TDtmfEventType@RMmCustomAPI@@W4TDtmfEvent@3@VTChar@@@Z @ 205 NONAME ; void CCtsyDispatcherCallback::CallbackPhoneNotifyDtmfEventInd(int, enum RMmCustomAPI::TDtmfEventType, enum RMmCustomAPI::TDtmfEvent, class TChar)
	?CallbackSupplementaryServicesGetCallForwardingStatusComp@CCtsyDispatcherCallback@@QAEXHABVCMobilePhoneCFList@@@Z @ 206 NONAME ; void CCtsyDispatcherCallback::CallbackSupplementaryServicesGetCallForwardingStatusComp(int, class CMobilePhoneCFList const &)
	?CallbackPacketServicesGetStatusComp@CCtsyDispatcherCallback@@QAEXHW4TStatus@RPacketService@@H@Z @ 207 NONAME ; void CCtsyDispatcherCallback::CallbackPacketServicesGetStatusComp(int, enum RPacketService::TStatus, int)
	?CallbackPacketServicesNotifyMbmsNetworkServiceStatusChangeInd@CCtsyDispatcherCallback@@QAEXHW4TMbmsNetworkServiceStatus@@@Z @ 208 NONAME ; void CCtsyDispatcherCallback::CallbackPacketServicesNotifyMbmsNetworkServiceStatusChangeInd(int, enum TMbmsNetworkServiceStatus)
	?CallbackSimGetServiceTableComp@CCtsyDispatcherCallback@@QAEXHABVTMobilePhoneServiceTableV1@RMobilePhone@@@Z @ 209 NONAME ; void CCtsyDispatcherCallback::CallbackSimGetServiceTableComp(int, class RMobilePhone::TMobilePhoneServiceTableV1 const &)
	?CallbackPacketServicesNotifyMbmsServiceAvailabilityChangeInd@CCtsyDispatcherCallback@@QAEXHABV?$RArray@I@@@Z @ 210 NONAME ; void CCtsyDispatcherCallback::CallbackPacketServicesNotifyMbmsServiceAvailabilityChangeInd(int, class RArray<unsigned int> const &)
	?CallbackSimEnumerateApnEntriesComp@CCtsyDispatcherCallback@@QAEXHK@Z @ 211 NONAME ; void CCtsyDispatcherCallback::CallbackSimEnumerateApnEntriesComp(int, unsigned long)
	?CallbackSatGetImageInstanceComp@CCtsyDispatcherCallback@@QAEXHABVTDesC8@@0@Z @ 212 NONAME ; void CCtsyDispatcherCallback::CallbackSatGetImageInstanceComp(int, class TDesC8 const &, class TDesC8 const &)
	?CallbackPhonebookOnStoreGetStoreSizeComp@CCtsyDispatcherCallback@@QAEXHH@Z @ 213 NONAME ; void CCtsyDispatcherCallback::CallbackPhonebookOnStoreGetStoreSizeComp(int, int)
	?CallbackPacketServicesSetPdpContextConfigComp@CCtsyDispatcherCallback@@QAEXHABVTDesC16@@@Z @ 214 NONAME ; void CCtsyDispatcherCallback::CallbackPacketServicesSetPdpContextConfigComp(int, class TDesC16 const &)
	?CallbackPhoneGetCellInfoComp@CCtsyDispatcherCallback@@QAEXH@Z @ 215 NONAME ; void CCtsyDispatcherCallback::CallbackPhoneGetCellInfoComp(int)
	?CallbackPacketServicesNotifyPdpContextConfigChangedInd@CCtsyDispatcherCallback@@QAEXHABVTDesC16@@ABVTDesC8@@1I1@Z @ 216 NONAME ; void CCtsyDispatcherCallback::CallbackPacketServicesNotifyPdpContextConfigChangedInd(int, class TDesC16 const &, class TDesC8 const &, class TDesC8 const &, unsigned int, class TDesC8 const &)
	?CallbackCellBroadcastGsmBroadcastNotifyMessageReceivedInd@CCtsyDispatcherCallback@@QAEXHABVTDesC8@@@Z @ 217 NONAME ; void CCtsyDispatcherCallback::CallbackCellBroadcastGsmBroadcastNotifyMessageReceivedInd(int, class TDesC8 const &)
	?CallbackCallControlHangUpComp@CCtsyDispatcherCallback@@QAEXHH@Z @ 218 NONAME ; void CCtsyDispatcherCallback::CallbackCallControlHangUpComp(int, int)
	?CallbackSecurityIsSecurityCodeBlockedComp@CCtsyDispatcherCallback@@QAEXHH@Z @ 219 NONAME ; void CCtsyDispatcherCallback::CallbackSecurityIsSecurityCodeBlockedComp(int, int)
	?CallbackSatGetAccessTechnologyComp@CCtsyDispatcherCallback@@QAEXHE@Z @ 220 NONAME ; void CCtsyDispatcherCallback::CallbackSatGetAccessTechnologyComp(int, unsigned char)
	?CallbackPhoneBootNotifyModemStatusReadyComp@CCtsyDispatcherCallback@@QAEXHW4TRfStateInfo@@@Z @ 221 NONAME ; void CCtsyDispatcherCallback::CallbackPhoneBootNotifyModemStatusReadyComp(int, enum TRfStateInfo)
	??1TLogEntryExit@@QAE@XZ @ 222 NONAME ; TLogEntryExit::~TLogEntryExit(void)
	?CallbackPhoneNotifyNetworkConnectionFailureInd@CCtsyDispatcherCallback@@QAEXH@Z @ 223 NONAME ; void CCtsyDispatcherCallback::CallbackPhoneNotifyNetworkConnectionFailureInd(int)
	?CallbackSupplementaryServicesNotifyNetworkEventCugInd@CCtsyDispatcherCallback@@QAEXHW4TSsType@RMmCustomAPI@@W4TSsMode@3@G@Z @ 224 NONAME ; void CCtsyDispatcherCallback::CallbackSupplementaryServicesNotifyNetworkEventCugInd(int, enum RMmCustomAPI::TSsType, enum RMmCustomAPI::TSsMode, unsigned short)
	?CallbackCellBroadcastWcdmaBroadcastMessageReceivedInd@CCtsyDispatcherCallback@@QAEXHABVTDesC8@@ABUTWcdmaCbsMsgBase@DispatcherCellBroadcast@@H@Z @ 225 NONAME ; void CCtsyDispatcherCallback::CallbackCellBroadcastWcdmaBroadcastMessageReceivedInd(int, class TDesC8 const &, struct DispatcherCellBroadcast::TWcdmaCbsMsgBase const &, int)
	?CallbackCallControlHoldComp@CCtsyDispatcherCallback@@QAEXHH@Z @ 226 NONAME ; void CCtsyDispatcherCallback::CallbackCallControlHoldComp(int, int)
	?CallbackPhoneGetBatteryInfoComp@CCtsyDispatcherCallback@@QAEXHABVTMobilePhoneBatteryInfoV1@RMobilePhone@@@Z @ 227 NONAME ; void CCtsyDispatcherCallback::CallbackPhoneGetBatteryInfoComp(int, class RMobilePhone::TMobilePhoneBatteryInfoV1 const &)
	?CallbackCallControlGetActiveAlsLineComp@CCtsyDispatcherCallback@@QAEXHW4TMobilePhoneALSLine@RMobilePhone@@@Z @ 228 NONAME ; void CCtsyDispatcherCallback::CallbackCallControlGetActiveAlsLineComp(int, enum RMobilePhone::TMobilePhoneALSLine)
	?CallbackPacketServicesSetPacketAttachModeComp@CCtsyDispatcherCallback@@QAEXH@Z @ 229 NONAME ; void CCtsyDispatcherCallback::CallbackPacketServicesSetPacketAttachModeComp(int)
	?CallbackPhoneGetHomeNetworkComp@CCtsyDispatcherCallback@@QAEXHABVTMobilePhoneNetworkInfoV5@RMobilePhone@@@Z @ 230 NONAME ; void CCtsyDispatcherCallback::CallbackPhoneGetHomeNetworkComp(int, class RMobilePhone::TMobilePhoneNetworkInfoV5 const &)
	?CallbackSatMtCallInd@CCtsyDispatcherCallback@@QAEXHEABVTDesC8@@0@Z @ 231 NONAME ; void CCtsyDispatcherCallback::CallbackSatMtCallInd(int, unsigned char, class TDesC8 const &, class TDesC8 const &)
	?CallbackSmsGetSmsStoreInfoComp@CCtsyDispatcherCallback@@QAEXHHH@Z @ 232 NONAME ; void CCtsyDispatcherCallback::CallbackSmsGetSmsStoreInfoComp(int, int, int)
	?CallbackSimPowerSimOnComp@CCtsyDispatcherCallback@@QAEXH@Z @ 233 NONAME ; void CCtsyDispatcherCallback::CallbackSimPowerSimOnComp(int)
	?CallbackPacketServicesNotifyPdpContextStatusChangeInd@CCtsyDispatcherCallback@@QAEXHABVTDesC16@@ABUTContextMisc@@@Z @ 234 NONAME ; void CCtsyDispatcherCallback::CallbackPacketServicesNotifyPdpContextStatusChangeInd(int, class TDesC16 const &, struct TContextMisc const &)
	?CallbackCallControlGetLifeTimeComp@CCtsyDispatcherCallback@@QAEXHABVTDateTime@@@Z @ 235 NONAME ; void CCtsyDispatcherCallback::CallbackCallControlGetLifeTimeComp(int, class TDateTime const &)
	??0TLogEntryExit@@QAA@ABVTDesC8@@0V?$TRefByValue@$$CBVTDesC8@@@@ZZ @ 236 NONAME ; TLogEntryExit::TLogEntryExit(class TDesC8 const &, class TDesC8 const &, class TRefByValue<class TDesC8 const >, ...)
	?CallbackCallControlGetLifeTimeComp@CCtsyDispatcherCallback@@QAEXHABVTDateTime@@KE@Z @ 237 NONAME ; void CCtsyDispatcherCallback::CallbackCallControlGetLifeTimeComp(int, class TDateTime const &, unsigned long, unsigned char)
	?CallbackPacketServicesInitialiseMbmsContextComp@CCtsyDispatcherCallback@@QAEXHABVTDesC16@@0@Z @ 238 NONAME ; void CCtsyDispatcherCallback::CallbackPacketServicesInitialiseMbmsContextComp(int, class TDesC16 const &, class TDesC16 const &)
	?CallbackSecurityCheckSecurityCodeComp@CCtsyDispatcherCallback@@QAEXH@Z @ 239 NONAME ; void CCtsyDispatcherCallback::CallbackSecurityCheckSecurityCodeComp(int)
	?CallbackPhonebookGetPhoneStoreInfoComp@CCtsyDispatcherCallback@@QAEXHABVTMobilePhoneStoreInfoV1@RMobilePhoneStore@@@Z @ 240 NONAME ; void CCtsyDispatcherCallback::CallbackPhonebookGetPhoneStoreInfoComp(int, class RMobilePhoneStore::TMobilePhoneStoreInfoV1 const &)
	?CallbackSupplementaryServicesSetSsPasswordComp@CCtsyDispatcherCallback@@QAEXH@Z @ 241 NONAME ; void CCtsyDispatcherCallback::CallbackSupplementaryServicesSetSsPasswordComp(int)
	?CallbackCallControlAnswerComp@CCtsyDispatcherCallback@@QAEXHH@Z @ 242 NONAME ; void CCtsyDispatcherCallback::CallbackCallControlAnswerComp(int, int)
	?CallbackPhonebookOnStoreWriteComp@CCtsyDispatcherCallback@@QAEXHH@Z @ 243 NONAME ; void CCtsyDispatcherCallback::CallbackPhonebookOnStoreWriteComp(int, int)
	?CallbackPhonebookStoreDeleteAllComp@CCtsyDispatcherCallback@@QAEXHW4TPhonebook@DispatcherPhonebook@@H@Z @ 244 NONAME ; void CCtsyDispatcherCallback::CallbackPhonebookStoreDeleteAllComp(int, enum DispatcherPhonebook::TPhonebook, int)
	?CallbackSatCreateRefreshTerminalRspInd@CCtsyDispatcherCallback@@QAEXHW4TPCmdResult@RSat@@ABVTDesC16@@@Z @ 245 NONAME ; void CCtsyDispatcherCallback::CallbackSatCreateRefreshTerminalRspInd(int, enum RSat::TPCmdResult, class TDesC16 const &)
	?CallbackPhoneGetDetectedNetworksComp@CCtsyDispatcherCallback@@QAEXHABVCMobilePhoneNetworkListV2@@@Z @ 246 NONAME ; void CCtsyDispatcherCallback::CallbackPhoneGetDetectedNetworksComp(int, class CMobilePhoneNetworkListV2 const &)
	?CallbackSecurityGetSecurityCodeInfoComp@CCtsyDispatcherCallback@@QAEXHW4TMobilePhoneSecurityCode@RMobilePhone@@H@Z @ 247 NONAME ; void CCtsyDispatcherCallback::CallbackSecurityGetSecurityCodeInfoComp(int, enum RMobilePhone::TMobilePhoneSecurityCode, int)
	?CallbackPhoneGetSignalStrengthComp@CCtsyDispatcherCallback@@QAEXHJC@Z @ 248 NONAME ; void CCtsyDispatcherCallback::CallbackPhoneGetSignalStrengthComp(int, long, signed char)
	?CallbackPhoneNotifyNetworkSelectionSettingChangeInd@CCtsyDispatcherCallback@@QAEXHW4TMobilePhoneSelectionMethod@RMobilePhone@@@Z @ 249 NONAME ; void CCtsyDispatcherCallback::CallbackPhoneNotifyNetworkSelectionSettingChangeInd(int, enum RMobilePhone::TMobilePhoneSelectionMethod)
	?CallbackPhoneGetOperatorNameComp@CCtsyDispatcherCallback@@QAEXHW4TOperatorNameType@RMmCustomAPI@@ABVTDesC16@@@Z @ 250 NONAME ; void CCtsyDispatcherCallback::CallbackPhoneGetOperatorNameComp(int, enum RMmCustomAPI::TOperatorNameType, class TDesC16 const &)
	?CallbackSupplementaryServicesNotifyNetworkEventForwardModeInd@CCtsyDispatcherCallback@@QAEXHW4TSsType@RMmCustomAPI@@W4TSsMode@3@W4TSsForwMode@3@@Z @ 251 NONAME ; void CCtsyDispatcherCallback::CallbackSupplementaryServicesNotifyNetworkEventForwardModeInd(int, enum RMmCustomAPI::TSsType, enum RMmCustomAPI::TSsMode, enum RMmCustomAPI::TSsForwMode)
	?CallbackSupplementaryServicesGetDiagnosticOctetsInd@CCtsyDispatcherCallback@@QAEXHHE@Z @ 252 NONAME ; void CCtsyDispatcherCallback::CallbackSupplementaryServicesGetDiagnosticOctetsInd(int, int, unsigned char)
	?CallbackPhoneNotifyCellInfoChangedInd@CCtsyDispatcherCallback@@QAEXH@Z @ 253 NONAME ; void CCtsyDispatcherCallback::CallbackPhoneNotifyCellInfoChangedInd(int)
	?CallbackPhoneGetCellInfoComp@CCtsyDispatcherCallback@@QAEXHABUTWCDMACellInfo@TMmCellInfo@RMmCustomAPI@@@Z @ 254 NONAME ; void CCtsyDispatcherCallback::CallbackPhoneGetCellInfoComp(int, struct RMmCustomAPI::TMmCellInfo::TWCDMACellInfo const &)
	?CallbackCallControlNotifyCallEventInd@CCtsyDispatcherCallback@@QAEXHHW4TMobileCallEvent@RMobileCall@@@Z @ 255 NONAME ; void CCtsyDispatcherCallback::CallbackCallControlNotifyCallEventInd(int, int, enum RMobileCall::TMobileCallEvent)
	?CallbackPhoneGetNitzInfoComp@CCtsyDispatcherCallback@@QAEXHABVTMobilePhoneNITZ@RMobilePhone@@@Z @ 256 NONAME ; void CCtsyDispatcherCallback::CallbackPhoneGetNitzInfoComp(int, class RMobilePhone::TMobilePhoneNITZ const &)
	?CallbackSatCreateSmControlEnvelopeInd@CCtsyDispatcherCallback@@QAEXHABVTDesC8@@0@Z @ 257 NONAME ; void CCtsyDispatcherCallback::CallbackSatCreateSmControlEnvelopeInd(int, class TDesC8 const &, class TDesC8 const &)
	?CallbackCallControlUpdateLifeTimerComp@CCtsyDispatcherCallback@@QAEXH@Z @ 258 NONAME ; void CCtsyDispatcherCallback::CallbackCallControlUpdateLifeTimerComp(int)
	?CallbackSecurityAbortSecurityCodeComp@CCtsyDispatcherCallback@@QAEXH@Z @ 259 NONAME ; void CCtsyDispatcherCallback::CallbackSecurityAbortSecurityCodeComp(int)
	?CallbackCellBroadcastSetBroadcastFilterSettingComp@CCtsyDispatcherCallback@@QAEXH@Z @ 260 NONAME ; void CCtsyDispatcherCallback::CallbackCellBroadcastSetBroadcastFilterSettingComp(int)
	?CallbackSimReadSimFileComp@CCtsyDispatcherCallback@@QAEXHABVTDesC8@@@Z @ 261 NONAME ; void CCtsyDispatcherCallback::CallbackSimReadSimFileComp(int, class TDesC8 const &)
	?CallbackSupplementaryServicesNotifyRequestCompleteInd@CCtsyDispatcherCallback@@QAEXHH@Z @ 262 NONAME ; void CCtsyDispatcherCallback::CallbackSupplementaryServicesNotifyRequestCompleteInd(int, int)
	?CallbackPacketServicesActivatePdpContextComp@CCtsyDispatcherCallback@@QAEXHABVTDesC16@@ABVTDesC8@@W4TProtocolType@RPacketContext@@@Z @ 263 NONAME ; void CCtsyDispatcherCallback::CallbackPacketServicesActivatePdpContextComp(int, class TDesC16 const &, class TDesC8 const &, enum RPacketContext::TProtocolType)
	?CallbackPhoneNotifyNetworkRegistrationStatusChangeInd@CCtsyDispatcherCallback@@QAEXHW4TMobilePhoneRegistrationStatus@RMobilePhone@@@Z @ 264 NONAME ; void CCtsyDispatcherCallback::CallbackPhoneNotifyNetworkRegistrationStatusChangeInd(int, enum RMobilePhone::TMobilePhoneRegistrationStatus)
	?CallbackSimAppendApnNameComp@CCtsyDispatcherCallback@@QAEXH@Z @ 265 NONAME ; void CCtsyDispatcherCallback::CallbackSimAppendApnNameComp(int)
	?CallbackSupplementaryServicesSetCallWaitingStatusComp@CCtsyDispatcherCallback@@QAEXH@Z @ 266 NONAME ; void CCtsyDispatcherCallback::CallbackSupplementaryServicesSetCallWaitingStatusComp(int)
	?CallbackSatCreateSmsDeliverReportInd@CCtsyDispatcherCallback@@QAEXH@Z @ 267 NONAME ; void CCtsyDispatcherCallback::CallbackSatCreateSmsDeliverReportInd(int)
	?CallbackSatNotifyProactiveSimSessionEndInd@CCtsyDispatcherCallback@@QAEXHEE@Z @ 268 NONAME ; void CCtsyDispatcherCallback::CallbackSatNotifyProactiveSimSessionEndInd(int, unsigned char, unsigned char)
	?CallbackPhonebookEnStoreReadAllComp@CCtsyDispatcherCallback@@QAEXHHABVTDesC16@@H@Z @ 269 NONAME ; void CCtsyDispatcherCallback::CallbackPhonebookEnStoreReadAllComp(int, int, class TDesC16 const &, int)
	?CallbackCallControlNotifyIccCallForwardingStatusChangeInd@CCtsyDispatcherCallback@@QAEXHABVTMobileAddress@RMobilePhone@@KW4TMultipleSubscriberProfileID@RMmCustomAPI@@@Z @ 270 NONAME ; void CCtsyDispatcherCallback::CallbackCallControlNotifyIccCallForwardingStatusChangeInd(int, class RMobilePhone::TMobileAddress const &, unsigned long, enum RMmCustomAPI::TMultipleSubscriberProfileID)
	?CallbackSmsGetSmspListComp@CCtsyDispatcherCallback@@QAEXHABVTDesC16@@00ABUTSmsParameters@DispatcherSim@@H@Z @ 271 NONAME ; void CCtsyDispatcherCallback::CallbackSmsGetSmspListComp(int, class TDesC16 const &, class TDesC16 const &, class TDesC16 const &, struct DispatcherSim::TSmsParameters const &, int)
	?CallbackPacketServicesNotifyMbmsContextConfigChangedInd@CCtsyDispatcherCallback@@QAEXHABVTDesC16@@ABVTContextConfigMbmsV1@RPacketMbmsContext@@@Z @ 272 NONAME ; void CCtsyDispatcherCallback::CallbackPacketServicesNotifyMbmsContextConfigChangedInd(int, class TDesC16 const &, class RPacketMbmsContext::TContextConfigMbmsV1 const &)
	?CallbackSatCreateCellBroadcastEnvelopeInd@CCtsyDispatcherCallback@@QAEXHABVTDesC8@@@Z @ 273 NONAME ; void CCtsyDispatcherCallback::CallbackSatCreateCellBroadcastEnvelopeInd(int, class TDesC8 const &)
	?CallbackPacketServicesDeletePdpContextComp@CCtsyDispatcherCallback@@QAEXH@Z @ 274 NONAME ABSENT ; void CCtsyDispatcherCallback::CallbackPacketServicesDeletePdpContextComp(int)
	?CallbackPhoneNotifyEgprsInfoChangeInd@CCtsyDispatcherCallback@@QAEXHH@Z @ 275 NONAME ; void CCtsyDispatcherCallback::CallbackPhoneNotifyEgprsInfoChangeInd(int, int)
	?CallbackCallControlMultipartyConferenceHangUpComp@CCtsyDispatcherCallback@@QAEXH@Z @ 276 NONAME ; void CCtsyDispatcherCallback::CallbackCallControlMultipartyConferenceHangUpComp(int)
	?CallbackPhoneSetSystemNetworkBandComp@CCtsyDispatcherCallback@@QAEXH@Z @ 277 NONAME ; void CCtsyDispatcherCallback::CallbackPhoneSetSystemNetworkBandComp(int)
	?CallbackSupplementaryServicesNotifyCallForwardingActiveInd@CCtsyDispatcherCallback@@QAEXHW4TMobileService@RMobilePhone@@W4TMobilePhoneCFActive@3@@Z @ 278 NONAME ; void CCtsyDispatcherCallback::CallbackSupplementaryServicesNotifyCallForwardingActiveInd(int, enum RMobilePhone::TMobileService, enum RMobilePhone::TMobilePhoneCFActive)
	?CallbackCallControlSwapComp@CCtsyDispatcherCallback@@QAEXH@Z @ 279 NONAME ; void CCtsyDispatcherCallback::CallbackCallControlSwapComp(int)
	?CallbackSatCallConnectedInd@CCtsyDispatcherCallback@@QAEXHEH@Z @ 280 NONAME ; void CCtsyDispatcherCallback::CallbackSatCallConnectedInd(int, unsigned char, int)
	?CallbackPhoneGetCurrentSystemNetworkModesComp@CCtsyDispatcherCallback@@QAEXHK@Z @ 281 NONAME ; void CCtsyDispatcherCallback::CallbackPhoneGetCurrentSystemNetworkModesComp(int, unsigned long)
	?CallbackCallControlSendDtmfTonesCancelComp@CCtsyDispatcherCallback@@QAEXH@Z @ 282 NONAME ; void CCtsyDispatcherCallback::CallbackCallControlSendDtmfTonesCancelComp(int)
	?CallbackSupplementaryServicesSendNetworkServiceRequestNoFdnCheckComp@CCtsyDispatcherCallback@@QAEXH@Z @ 283 NONAME ; void CCtsyDispatcherCallback::CallbackSupplementaryServicesSendNetworkServiceRequestNoFdnCheckComp(int)
	?CallbackPacketServicesNotifyNetworkInitiatedContextActivationRequestInd@CCtsyDispatcherCallback@@QAEXHW4TProtocolType@RPacketContext@@ABVTDesC8@@1@Z @ 284 NONAME ABSENT ; void CCtsyDispatcherCallback::CallbackPacketServicesNotifyNetworkInitiatedContextActivationRequestInd(int, enum RPacketContext::TProtocolType, class TDesC8 const &, class TDesC8 const &)
	?CallbackSimGetIccMessageWaitingIndicatorsComp@CCtsyDispatcherCallback@@QAEXHABVTMobilePhoneMessageWaitingV1@RMobilePhone@@@Z @ 285 NONAME ; void CCtsyDispatcherCallback::CallbackSimGetIccMessageWaitingIndicatorsComp(int, class RMobilePhone::TMobilePhoneMessageWaitingV1 const &)
	?CallbackSmsAckSmsStoredComp@CCtsyDispatcherCallback@@QAEXH@Z @ 286 NONAME ; void CCtsyDispatcherCallback::CallbackSmsAckSmsStoredComp(int)
	?CallbackPacketServicesGetMbmsNetworkServiceStatusComp@CCtsyDispatcherCallback@@QAEXHW4TMbmsNetworkServiceStatus@@@Z @ 287 NONAME ; void CCtsyDispatcherCallback::CallbackPacketServicesGetMbmsNetworkServiceStatusComp(int, enum TMbmsNetworkServiceStatus)
	?CallbackSatAccessTechnologyChangeInd@CCtsyDispatcherCallback@@QAEXHE@Z @ 288 NONAME ; void CCtsyDispatcherCallback::CallbackSatAccessTechnologyChangeInd(int, unsigned char)
	?CallbackPhoneGetDetectedNetworksCancelComp@CCtsyDispatcherCallback@@QAEXH@Z @ 289 NONAME ; void CCtsyDispatcherCallback::CallbackPhoneGetDetectedNetworksCancelComp(int)
	?CallbackSupplementaryServicesReceiveUssdMessageInd@CCtsyDispatcherCallback@@QAEXHABVTDesC8@@EW4TMobileUssdMessageType@RMobileUssdMessaging@@W4TMobileUssdDataFormat@4@@Z @ 290 NONAME ; void CCtsyDispatcherCallback::CallbackSupplementaryServicesReceiveUssdMessageInd(int, class TDesC8 const &, unsigned char, enum RMobileUssdMessaging::TMobileUssdMessageType, enum RMobileUssdMessaging::TMobileUssdDataFormat)
	?CallbackPhonebookOnStoreGetReadStoreSizeComp@CCtsyDispatcherCallback@@QAEXHH@Z @ 291 NONAME ; void CCtsyDispatcherCallback::CallbackPhonebookOnStoreGetReadStoreSizeComp(int, int)
	?CallbackPhoneGetNetworkRegistrationStatusComp@CCtsyDispatcherCallback@@QAEXHW4TMobilePhoneRegistrationStatus@RMobilePhone@@@Z @ 292 NONAME ; void CCtsyDispatcherCallback::CallbackPhoneGetNetworkRegistrationStatusComp(int, enum RMobilePhone::TMobilePhoneRegistrationStatus)
	?CallbackSmsStoreSmspListEntryComp@CCtsyDispatcherCallback@@QAEXH@Z @ 293 NONAME ; void CCtsyDispatcherCallback::CallbackSmsStoreSmspListEntryComp(int)
	?CallbackSatTerminalRspComp@CCtsyDispatcherCallback@@QAEXH@Z @ 294 NONAME ; void CCtsyDispatcherCallback::CallbackSatTerminalRspComp(int)
	?CallbackPhoneTerminateAllCallsComp@CCtsyDispatcherCallback@@QAEXH@Z @ 295 NONAME ; void CCtsyDispatcherCallback::CallbackPhoneTerminateAllCallsComp(int)
	?CallbackPhonebookOnStoreGetInfoComp@CCtsyDispatcherCallback@@QAEXHHHHH@Z @ 296 NONAME ; void CCtsyDispatcherCallback::CallbackPhonebookOnStoreGetInfoComp(int, int, int, int, int)
	?CallbackSimGetSimCardReaderStatusComp@CCtsyDispatcherCallback@@QAEXHE@Z @ 297 NONAME ; void CCtsyDispatcherCallback::CallbackSimGetSimCardReaderStatusComp(int, unsigned char)
	?CallbackCallControlMultipartyConferenceSwapComp@CCtsyDispatcherCallback@@QAEXH@Z @ 298 NONAME ; void CCtsyDispatcherCallback::CallbackCallControlMultipartyConferenceSwapComp(int)
	?CallbackCallControlSetAlsBlockedComp@CCtsyDispatcherCallback@@QAEXH@Z @ 299 NONAME ; void CCtsyDispatcherCallback::CallbackCallControlSetAlsBlockedComp(int)
	?CallbackPhoneGetPhoneIdComp@CCtsyDispatcherCallback@@QAEXHABVTMobilePhoneIdentityV1@RMobilePhone@@@Z @ 300 NONAME ; void CCtsyDispatcherCallback::CallbackPhoneGetPhoneIdComp(int, class RMobilePhone::TMobilePhoneIdentityV1 const &)
	?CallbackPacketServicesGetMaxNoMonitoredServiceListsComp@CCtsyDispatcherCallback@@QAEXHH@Z @ 301 NONAME ; void CCtsyDispatcherCallback::CallbackPacketServicesGetMaxNoMonitoredServiceListsComp(int, int)
	?CallbackCallControlRemoteAlertingToneChangeInd@CCtsyDispatcherCallback@@QAEXHW4TRemoteAlertingToneStatus@RMmCustomAPI@@@Z @ 302 NONAME ; void CCtsyDispatcherCallback::CallbackCallControlRemoteAlertingToneChangeInd(int, enum RMmCustomAPI::TRemoteAlertingToneStatus)
	?CallbackPhoneResetNetServerComp@CCtsyDispatcherCallback@@QAEXH@Z @ 303 NONAME ; void CCtsyDispatcherCallback::CallbackPhoneResetNetServerComp(int)
	?CallbackCallControlNotifyDataCallCapsChangeInd@CCtsyDispatcherCallback@@QAEXHHABVTMobileCallDataCapsV1@RMobileCall@@@Z @ 304 NONAME ; void CCtsyDispatcherCallback::CallbackCallControlNotifyDataCallCapsChangeInd(int, int, class RMobileCall::TMobileCallDataCapsV1 const &)
	?CallbackSecurityVerifySecurityCodeComp@CCtsyDispatcherCallback@@QAEXH@Z @ 305 NONAME ; void CCtsyDispatcherCallback::CallbackSecurityVerifySecurityCodeComp(int)
	?CallbackPacketServicesRejectNetworkInitiatedContextActivationRequestComp@CCtsyDispatcherCallback@@QAEXH@Z @ 306 NONAME ; void CCtsyDispatcherCallback::CallbackPacketServicesRejectNetworkInitiatedContextActivationRequestComp(int)
	?CallbackPhonebookSmsStoreReadEntryComp@CCtsyDispatcherCallback@@QAEXHABUTSmsData@DispatcherPhonebook@@@Z @ 307 NONAME ; void CCtsyDispatcherCallback::CallbackPhonebookSmsStoreReadEntryComp(int, struct DispatcherPhonebook::TSmsData const &)
	?CallbackSecurityGetPin1DisableSupportedComp@CCtsyDispatcherCallback@@QAEXHH@Z @ 308 NONAME ; void CCtsyDispatcherCallback::CallbackSecurityGetPin1DisableSupportedComp(int, int)
	?GetEmailAddresss@CPhoneBookEntry@@QBEABV?$RArray@VRBuf16@@@@XZ @ 309 NONAME ; class RArray<class RBuf16> const & CPhoneBookEntry::GetEmailAddresss(void) const
	?CallbackPhoneNotifyCurrentNetworkChangeInd@CCtsyDispatcherCallback@@QAEXHABVTMobilePhoneNetworkInfoV5@RMobilePhone@@ABVTMobilePhoneLocationAreaV1@3@@Z @ 310 NONAME ; void CCtsyDispatcherCallback::CallbackPhoneNotifyCurrentNetworkChangeInd(int, class RMobilePhone::TMobilePhoneNetworkInfoV5 const &, class RMobilePhone::TMobilePhoneLocationAreaV1 const &)
	?CallbackSatGetIconDataComp@CCtsyDispatcherCallback@@QAEXHABVTDesC8@@@Z @ 311 NONAME ; void CCtsyDispatcherCallback::CallbackSatGetIconDataComp(int, class TDesC8 const &)
	?CallbackSupplementaryServicesSetCallBarringStatusComp@CCtsyDispatcherCallback@@QAEXH@Z @ 312 NONAME ; void CCtsyDispatcherCallback::CallbackSupplementaryServicesSetCallBarringStatusComp(int)
	?CallbackPhoneSelectNetworkCancelComp@CCtsyDispatcherCallback@@QAEXH@Z @ 313 NONAME ; void CCtsyDispatcherCallback::CallbackPhoneSelectNetworkCancelComp(int)
	?CallbackSupplementaryServicesNotifyNetworkEventClirSuppressionInd@CCtsyDispatcherCallback@@QAEXHW4TSsMode@RMmCustomAPI@@H@Z @ 314 NONAME ; void CCtsyDispatcherCallback::CallbackSupplementaryServicesNotifyNetworkEventClirSuppressionInd(int, enum RMmCustomAPI::TSsMode, int)
	?CallbackSupplementaryServicesNotifyNetworkEventCallWaitingInd@CCtsyDispatcherCallback@@QAEXHW4TSsMode@RMmCustomAPI@@H@Z @ 315 NONAME ; void CCtsyDispatcherCallback::CallbackSupplementaryServicesNotifyNetworkEventCallWaitingInd(int, enum RMmCustomAPI::TSsMode, int)
	?CallbackCallControlMultipartyConferenceAddCallComp@CCtsyDispatcherCallback@@QAEXH@Z @ 316 NONAME ; void CCtsyDispatcherCallback::CallbackCallControlMultipartyConferenceAddCallComp(int)
	?CallbackPacketServicesUpdateMbmsSessionListComp@CCtsyDispatcherCallback@@QAEXHABVTDesC16@@@Z @ 317 NONAME ; void CCtsyDispatcherCallback::CallbackPacketServicesUpdateMbmsSessionListComp(int, class TDesC16 const &)
	?CallbackSatGetSmsControlActivatedComp@CCtsyDispatcherCallback@@QAEXHH@Z @ 318 NONAME ; void CCtsyDispatcherCallback::CallbackSatGetSmsControlActivatedComp(int, int)
	?CallbackPacketServicesNotifyQosProfileChangedGPRSInd@CCtsyDispatcherCallback@@QAEXHABVTDesC16@@ABVTQoSGPRSNegotiated@RPacketQoS@@@Z @ 319 NONAME ; void CCtsyDispatcherCallback::CallbackPacketServicesNotifyQosProfileChangedGPRSInd(int, class TDesC16 const &, class RPacketQoS::TQoSGPRSNegotiated const &)
	?CallbackSimPowerSimOffComp@CCtsyDispatcherCallback@@QAEXH@Z @ 320 NONAME ; void CCtsyDispatcherCallback::CallbackSimPowerSimOffComp(int)
	?CallbackPacketServicesNotifyPacketMsClassChangeInd@CCtsyDispatcherCallback@@QAEXHW4TMSClass@RPacketService@@@Z @ 321 NONAME ; void CCtsyDispatcherCallback::CallbackPacketServicesNotifyPacketMsClassChangeInd(int, enum RPacketService::TMSClass)
	?CallbackPacketServicesNotifyConnectionInfoChangeInd@CCtsyDispatcherCallback@@QAEXHABVTDesC16@@ABVTConnectionInfoV1@RPacketContext@@@Z @ 322 NONAME ; void CCtsyDispatcherCallback::CallbackPacketServicesNotifyConnectionInfoChangeInd(int, class TDesC16 const &, class RPacketContext::TConnectionInfoV1 const &)
	?CallbackPacketServicesNotifyNetworkInitiatedContextActivationRequestInd@CCtsyDispatcherCallback@@QAEXHABVTContextConfigR99_R4@RPacketContext@@@Z @ 323 NONAME ; void CCtsyDispatcherCallback::CallbackPacketServicesNotifyNetworkInitiatedContextActivationRequestInd(int, class RPacketContext::TContextConfigR99_R4 const &)
	?CallbackPacketServicesNotifyNetworkInitiatedContextActivationRequestInd@CCtsyDispatcherCallback@@QAEXHABVTContextConfig_R5@RPacketContext@@@Z @ 324 NONAME ; void CCtsyDispatcherCallback::CallbackPacketServicesNotifyNetworkInitiatedContextActivationRequestInd(int, class RPacketContext::TContextConfig_R5 const &)
	?CallbackPacketServicesNotifyNetworkInitiatedContextActivationRequestInd@CCtsyDispatcherCallback@@QAEXHABVTContextConfigGPRS@RPacketContext@@@Z @ 325 NONAME ; void CCtsyDispatcherCallback::CallbackPacketServicesNotifyNetworkInitiatedContextActivationRequestInd(int, class RPacketContext::TContextConfigGPRS const &)
	?CallbackPhoneNotifyDtmfEventInd@CCtsyDispatcherCallback@@QAEXHW4TMobilePhoneDTMFEvent@RMobilePhone@@@Z @ 326 NONAME ; void CCtsyDispatcherCallback::CallbackPhoneNotifyDtmfEventInd(int, enum RMobilePhone::TMobilePhoneDTMFEvent)
	?CallbackPacketServicesDeletePdpContextComp@CCtsyDispatcherCallback@@QAEXHABVTDesC16@@@Z @ 327 NONAME ; void CCtsyDispatcherCallback::CallbackPacketServicesDeletePdpContextComp(int, class TDesC16 const &)
	?CallbackPacketServicesNotifyPacketAttachModeChangeInd@CCtsyDispatcherCallback@@QAEXHW4TPreferredBearer@RPacketService@@@Z @ 328 NONAME ; void CCtsyDispatcherCallback::CallbackPacketServicesNotifyPacketAttachModeChangeInd(int, enum RPacketService::TPreferredBearer)

