EXPORTS
	_ZTV31CCommsDbConnectionPrefTableView @ 1 NONAME ; vtable for CCommsDbConnectionPrefTableView
	_ZN22CCommsDbTemplateRecord19CancelModificationsEv @ 2 NONAME ; CCommsDbTemplateRecord::CancelModifications(void)
	_ZN17CCommsDbTableView19CancelRecordChangesEv @ 3 NONAME ; CCommsDbTableView::CancelRecordChanges(void)
	_ZN18CCommsDatabaseBase25CancelRequestNotificationEv @ 4 NONAME ; CCommsDatabaseBase::CancelRequestNotification(void)
	_ZN18CCommsDatabaseBase17CommitTransactionEv @ 5 NONAME ; CCommsDatabaseBase::CommitTransaction(void)
	_ZN17CCommsDbTableView12DeleteRecordEv @ 6 NONAME ; CCommsDbTableView::DeleteRecord(void)
	_ZN22CCommsDbTemplateRecord6DeleteEv @ 7 NONAME ; CCommsDbTemplateRecord::Delete(void)
	_ZNK26CStoreableOverrideSettings12ExternalizeLER12RWriteStream @ 8 NONAME ; CStoreableOverrideSettings::ExternalizeL(RWriteStream&) const
	_ZN23CCommDbOverrideSettings15GetBoolOverrideERK7TDesC16S2_Ri @ 9 NONAME ; CCommDbOverrideSettings::GetBoolOverride(TDesC16 const&, TDesC16 const&, int&)
	_ZN23CCommDbOverrideSettings14GetDesOverrideERK7TDesC16S2_R5TDes8 @ 10 NONAME ; CCommDbOverrideSettings::GetDesOverride(TDesC16 const&, TDesC16 const&, TDes8&)
	_ZN23CCommDbOverrideSettings14GetDesOverrideERK7TDesC16S2_R6TDes16 @ 11 NONAME ; CCommDbOverrideSettings::GetDesOverride(TDesC16 const&, TDesC16 const&, TDes16&)
	_ZN14CCommsDatabase17GetGlobalSettingLERK7TDesC16R6TDes16 @ 12 NONAME ; CCommsDatabase::GetGlobalSettingL(TDesC16 const&, TDes16&)
	_ZN14CCommsDatabase17GetGlobalSettingLERK7TDesC16Rm @ 13 NONAME ; CCommsDatabase::GetGlobalSettingL(TDesC16 const&, unsigned long&)
	_ZN23CCommDbOverrideSettings14GetIntOverrideERK7TDesC16S2_Rm @ 14 NONAME ; CCommDbOverrideSettings::GetIntOverride(TDesC16 const&, TDesC16 const&, unsigned long&)
	_ZN23CCommDbOverrideSettings24GetLongDesOverrideLengthERK7TDesC16S2_Ri @ 15 NONAME ; CCommDbOverrideSettings::GetLongDesOverrideLength(TDesC16 const&, TDesC16 const&, int&)
	_ZN23CCommDbOverrideSettings18GetLongDesOverrideERK7TDesC16S2_R6TDes16 @ 16 NONAME ; CCommDbOverrideSettings::GetLongDesOverride(TDesC16 const&, TDesC16 const&, TDes16&)
	_ZNK22CCommsDbTemplateRecord12GetTableNameER6TDes16 @ 17 NONAME ; CCommsDbTemplateRecord::GetTableName(TDes16&) const
	_ZN17CCommsDbTableView15GotoFirstRecordEv @ 18 NONAME ; CCommsDbTableView::GotoFirstRecord(void)
	_ZN17CCommsDbTableView14GotoNextRecordEv @ 19 NONAME ; CCommsDbTableView::GotoNextRecord(void)
	_ZN17CCommsDbTableView18GotoPreviousRecordEv @ 20 NONAME ; CCommsDbTableView::GotoPreviousRecord(void)
	_ZN18CCommsDatabaseBase13InTransactionEv @ 21 NONAME ; CCommsDatabaseBase::InTransaction(void)
	_ZN17CCommsDbTableView12InsertRecordERm @ 22 NONAME ; CCommsDbTableView::InsertRecord(unsigned long&)
	_ZN26CStoreableOverrideSettings12InternalizeLER11RReadStream @ 23 NONAME ; CStoreableOverrideSettings::InternalizeL(RReadStream&)
	_ZN18CCommsDatabaseBase22IsDatabaseWriteLockedLEv @ 24 NONAME ; CCommsDatabaseBase::IsDatabaseWriteLockedL(void)
	_ZN23CCommDbOverrideSettings12IsOverriddenERK7TDesC16S2_NS_10TValueTypeE @ 25 NONAME ; CCommDbOverrideSettings::IsOverridden(TDesC16 const&, TDesC16 const&, CCommDbOverrideSettings::TValueType)
	_ZN22CCommsDbTemplateRecord6ModifyEv @ 26 NONAME ; CCommsDbTemplateRecord::Modify(void)
	_ZN14CCommsDatabase4NewLE19TCommDbDatabaseType @ 27 NONAME ; CCommsDatabase::NewL(TCommDbDatabaseType)
	_ZN22CCommsDbTemplateRecord4NewLEP18CCommsDatabaseBaseRK7TDesC16 @ 28 NONAME ; CCommsDbTemplateRecord::NewL(CCommsDatabaseBase*, TDesC16 const&)
	_ZN23CCommDbOverrideSettings4NewLENS_10TParamListE19TCommDbDatabaseType @ 29 NONAME ; CCommDbOverrideSettings::NewL(CCommDbOverrideSettings::TParamList, TCommDbDatabaseType)
	_ZN26CStoreableOverrideSettings4NewLEN23CCommDbOverrideSettings10TParamListE19TCommDbDatabaseType @ 30 NONAME ; CStoreableOverrideSettings::NewL(CCommDbOverrideSettings::TParamList, TCommDbDatabaseType)
	_ZN18CCommsDatabaseBase11OpenTableLCERK7TDesC16 @ 31 NONAME ; CCommsDatabaseBase::OpenTableLC(TDesC16 const&)
	_ZN18CCommsDatabaseBase10OpenViewLCERK7TDesC16S2_ @ 32 NONAME ; CCommsDatabaseBase::OpenViewLC(TDesC16 const&, TDesC16 const&)
	_ZN18CCommsDatabaseBase22OpenViewMatchingBoolLCERK7TDesC16S2_i @ 33 NONAME ; CCommsDatabaseBase::OpenViewMatchingBoolLC(TDesC16 const&, TDesC16 const&, int)
	_ZN18CCommsDatabaseBase22OpenViewMatchingTextLCERK7TDesC16S2_S2_ @ 34 NONAME ; CCommsDatabaseBase::OpenViewMatchingTextLC(TDesC16 const&, TDesC16 const&, TDesC16 const&)
	_ZN18CCommsDatabaseBase22OpenViewMatchingTextLCERK7TDesC16S2_RK6TDesC8 @ 35 NONAME ; CCommsDatabaseBase::OpenViewMatchingTextLC(TDesC16 const&, TDesC16 const&, TDesC8 const&)
	_ZN18CCommsDatabaseBase22OpenViewMatchingUintLCERK7TDesC16S2_m @ 36 NONAME ; CCommsDatabaseBase::OpenViewMatchingUintLC(TDesC16 const&, TDesC16 const&, unsigned long)
	_ZN17CCommsDbTableView16PutRecordChangesEii @ 37 NONAME ; CCommsDbTableView::PutRecordChanges(int, int)
	_ZN17CCommsDbTableView9ReadBoolLERK7TDesC16Ri @ 38 NONAME ; CCommsDbTableView::ReadBoolL(TDesC16 const&, int&)
	_ZN22CCommsDbTemplateRecord9ReadBoolLERK7TDesC16Ri @ 39 NONAME ; CCommsDbTemplateRecord::ReadBoolL(TDesC16 const&, int&)
	_ZN17CCommsDbTableView17ReadColumnLengthLERK7TDesC16Ri @ 40 NONAME ; CCommsDbTableView::ReadColumnLengthL(TDesC16 const&, int&)
	_ZN22CCommsDbTemplateRecord17ReadColumnLengthLERK7TDesC16Ri @ 41 NONAME ; CCommsDbTemplateRecord::ReadColumnLengthL(TDesC16 const&, int&)
	_ZN17CCommsDbTableView14ReadLongTextLCERK7TDesC16 @ 42 NONAME ; CCommsDbTableView::ReadLongTextLC(TDesC16 const&)
	_ZN22CCommsDbTemplateRecord14ReadLongTextLCERK7TDesC16 @ 43 NONAME ; CCommsDbTemplateRecord::ReadLongTextLC(TDesC16 const&)
	_ZN17CCommsDbTableView9ReadTextLERK7TDesC16R5TDes8 @ 44 NONAME ; CCommsDbTableView::ReadTextL(TDesC16 const&, TDes8&)
	_ZN17CCommsDbTableView9ReadTextLERK7TDesC16R6TDes16 @ 45 NONAME ; CCommsDbTableView::ReadTextL(TDesC16 const&, TDes16&)
	_ZN22CCommsDbTemplateRecord9ReadTextLERK7TDesC16R5TDes8 @ 46 NONAME ; CCommsDbTemplateRecord::ReadTextL(TDesC16 const&, TDes8&)
	_ZN22CCommsDbTemplateRecord9ReadTextLERK7TDesC16R6TDes16 @ 47 NONAME ; CCommsDbTemplateRecord::ReadTextL(TDesC16 const&, TDes16&)
	_ZN17CCommsDbTableView15ReadTypeAttribLERK7TDesC16R10TDbColTypeRm @ 48 NONAME ; CCommsDbTableView::ReadTypeAttribL(TDesC16 const&, TDbColType&, unsigned long&)
	_ZN22CCommsDbTemplateRecord15ReadTypeAttribLERK7TDesC16R10TDbColTypeRm @ 49 NONAME ; CCommsDbTemplateRecord::ReadTypeAttribL(TDesC16 const&, TDbColType&, unsigned long&)
	_ZN17CCommsDbTableView9ReadUintLERK7TDesC16Rm @ 50 NONAME ; CCommsDbTableView::ReadUintL(TDesC16 const&, unsigned long&)
	_ZN22CCommsDbTemplateRecord9ReadUintLERK7TDesC16Rm @ 51 NONAME ; CCommsDbTemplateRecord::ReadUintL(TDesC16 const&, unsigned long&)
	_ZN18CCommsDatabaseBase19RequestNotificationER14TRequestStatus @ 52 NONAME ; CCommsDatabaseBase::RequestNotification(TRequestStatus&)
	_ZN18CCommsDatabaseBase31ResolvePhoneNumberFromDatabaseLER7TDesC16R6TDes1610TParseModemm @ 53 NONAME ; CCommsDatabaseBase::ResolvePhoneNumberFromDatabaseL(TDesC16&, TDes16&, TParseMode, unsigned long, unsigned long)
	_ZN18CCommsDatabaseBase19ResolvePhoneNumberLER7TDesC16R6TDes1610TParseModemm @ 54 NONAME ; CCommsDatabaseBase::ResolvePhoneNumberL(TDesC16&, TDes16&, TParseMode, unsigned long, unsigned long)
	_ZN26CStoreableOverrideSettings8RestoreLEP6HBufC8 @ 55 NONAME ; CStoreableOverrideSettings::RestoreL(HBufC8*)
	_ZN18CCommsDatabaseBase19RollbackTransactionEv @ 56 NONAME ; CCommsDatabaseBase::RollbackTransaction(void)
	_ZN23CCommDbOverrideSettings15SetBoolOverrideERK7TDesC16S2_i @ 57 NONAME ; CCommDbOverrideSettings::SetBoolOverride(TDesC16 const&, TDesC16 const&, int)
	_ZN23CCommDbOverrideSettings14SetDesOverrideERK7TDesC16S2_S2_ @ 58 NONAME ; CCommDbOverrideSettings::SetDesOverride(TDesC16 const&, TDesC16 const&, TDesC16 const&)
	_ZN23CCommDbOverrideSettings14SetDesOverrideERK7TDesC16S2_RK6TDesC8 @ 59 NONAME ; CCommDbOverrideSettings::SetDesOverride(TDesC16 const&, TDesC16 const&, TDesC8 const&)
	_ZN14CCommsDatabase17SetGlobalSettingLERK7TDesC16S2_ @ 60 NONAME ; CCommsDatabase::SetGlobalSettingL(TDesC16 const&, TDesC16 const&)
	_ZN14CCommsDatabase17SetGlobalSettingLERK7TDesC16m @ 61 NONAME ; CCommsDatabase::SetGlobalSettingL(TDesC16 const&, unsigned long)
	_ZN23CCommDbOverrideSettings14SetIntOverrideERK7TDesC16S2_m @ 62 NONAME ; CCommDbOverrideSettings::SetIntOverride(TDesC16 const&, TDesC16 const&, unsigned long)
	_ZN23CCommDbOverrideSettings18SetLongDesOverrideERK7TDesC16S2_S2_ @ 63 NONAME ; CCommDbOverrideSettings::SetLongDesOverride(TDesC16 const&, TDesC16 const&, TDesC16 const&)
	_ZN17CCommsDbTableView8SetNullLERK7TDesC16 @ 64 NONAME ; CCommsDbTableView::SetNullL(TDesC16 const&)
	_ZN18CCommsDatabaseBase17ShowHiddenRecordsEv @ 65 NONAME ; CCommsDatabaseBase::ShowHiddenRecords(void)
	_ZN26CStoreableOverrideSettings7StoreLCEv @ 66 NONAME ; CStoreableOverrideSettings::StoreLC(void)
	_ZN22CCommsDbTemplateRecord18StoreModificationsEv @ 67 NONAME ; CCommsDbTemplateRecord::StoreModifications(void)
	_ZN22CCommsDbTemplateRecord20TemplateRecordExistsEv @ 68 NONAME ; CCommsDbTemplateRecord::TemplateRecordExists(void)
	_ZN17CCommsDbTableView12UpdateRecordEv @ 69 NONAME ; CCommsDbTableView::UpdateRecord(void)
	_ZNK18CCommsDatabaseBase7VersionEv @ 70 NONAME ; CCommsDatabaseBase::Version(void) const
	_ZN17CCommsDbTableView10WriteBoolLERK7TDesC16RKi @ 71 NONAME ; CCommsDbTableView::WriteBoolL(TDesC16 const&, int const&)
	_ZN22CCommsDbTemplateRecord10WriteBoolLERK7TDesC16RKi @ 72 NONAME ; CCommsDbTemplateRecord::WriteBoolL(TDesC16 const&, int const&)
	_ZN17CCommsDbTableView14WriteLongTextLERK7TDesC16S2_ @ 73 NONAME ; CCommsDbTableView::WriteLongTextL(TDesC16 const&, TDesC16 const&)
	_ZN22CCommsDbTemplateRecord14WriteLongTextLERK7TDesC16S2_ @ 74 NONAME ; CCommsDbTemplateRecord::WriteLongTextL(TDesC16 const&, TDesC16 const&)
	_ZN17CCommsDbTableView10WriteTextLERK7TDesC16RK6TDesC8 @ 75 NONAME ; CCommsDbTableView::WriteTextL(TDesC16 const&, TDesC8 const&)
	_ZN17CCommsDbTableView10WriteTextLERK7TDesC16S2_ @ 76 NONAME ; CCommsDbTableView::WriteTextL(TDesC16 const&, TDesC16 const&)
	_ZN22CCommsDbTemplateRecord10WriteTextLERK7TDesC16RK6TDesC8 @ 77 NONAME ; CCommsDbTemplateRecord::WriteTextL(TDesC16 const&, TDesC8 const&)
	_ZN22CCommsDbTemplateRecord10WriteTextLERK7TDesC16S2_ @ 78 NONAME ; CCommsDbTemplateRecord::WriteTextL(TDesC16 const&, TDesC16 const&)
	_ZN17CCommsDbTableView10WriteUintLERK7TDesC16RKm @ 79 NONAME ; CCommsDbTableView::WriteUintL(TDesC16 const&, unsigned long const&)
	_ZN22CCommsDbTemplateRecord10WriteUintLERK7TDesC16RKm @ 80 NONAME ; CCommsDbTemplateRecord::WriteUintL(TDesC16 const&, unsigned long const&)
	_ZN14CCommsDatabaseD0Ev @ 81 NONAME ; CCommsDatabase::~CCommsDatabase(void)
	_ZN17CCommsDbTableViewD0Ev @ 82 NONAME ; CCommsDbTableView::~CCommsDbTableView(void)
	_ZN18CCommsDatabaseBaseD0Ev @ 83 NONAME ; CCommsDatabaseBase::~CCommsDatabaseBase(void)
	_ZN22CCommsDbTemplateRecordD0Ev @ 84 NONAME ; CCommsDbTemplateRecord::~CCommsDbTemplateRecord(void)
	_ZN23CCommDbOverrideSettingsD0Ev @ 85 NONAME ; CCommDbOverrideSettings::~CCommDbOverrideSettings(void)
	_ZN26CStoreableOverrideSettingsD0Ev @ 86 NONAME ; CStoreableOverrideSettings::~CStoreableOverrideSettings(void)
	_ZN18CCommsDatabaseBase16BeginTransactionEv @ 87 NONAME ; CCommsDatabaseBase::BeginTransaction(void)
	_ZN14CCommsDatabase19ClearGlobalSettingLERK7TDesC16 @ 88 NONAME ; CCommsDatabase::ClearGlobalSettingL(TDesC16 const&)
	_ZN14CCommsDatabase24GetCurrentDialInSettingLERK7TDesC16Rm @ 89 NONAME ; CCommsDatabase::GetCurrentDialInSettingL(TDesC16 const&, unsigned long&)
	_ZN14CCommsDatabase25GetCurrentDialOutSettingLERK7TDesC16Rm @ 90 NONAME ; CCommsDatabase::GetCurrentDialOutSettingL(TDesC16 const&, unsigned long&)
	_ZNK31CCommsDbConnectionPrefTableView24TCommDbIspConnectionPrefeqERKS0_ @ 91 NONAME ; CCommsDbConnectionPrefTableView::TCommDbIspConnectionPref::operator==(CCommsDbConnectionPrefTableView::TCommDbIspConnectionPref const&) const
	_ZN31CCommsDbConnectionPrefTableView31ChangeConnectionPreferenceRankLEm @ 92 NONAME ; CCommsDbConnectionPrefTableView::ChangeConnectionPreferenceRankL(unsigned long)
	_ZN14CCommsDatabase17ClearAgentAndExtLERK7TDesC16 @ 93 NONAME ; CCommsDatabase::ClearAgentAndExtL(TDesC16 const&)
	_ZN31CCommsDbConnectionPrefTableView27DeleteConnectionPreferenceLEv @ 94 NONAME ; CCommsDbConnectionPrefTableView::DeleteConnectionPreferenceL(void)
	_ZN14CCommsDatabase12GetAgentExtLERK7TDesC16R6TDes16 @ 95 NONAME ; CCommsDatabase::GetAgentExtL(TDesC16 const&, TDes16&)
	_ZN14CCommsDatabase9GetAgentLERK7TDesC16R6TDes16 @ 96 NONAME ; CCommsDatabase::GetAgentL(TDesC16 const&, TDes16&)
	_ZN23CCommDbOverrideSettings31GetConnectionPreferenceOverrideERN31CCommsDbConnectionPrefTableView24TCommDbIapConnectionPrefE @ 97 NONAME ; CCommDbOverrideSettings::GetConnectionPreferenceOverride(CCommsDbConnectionPrefTableView::TCommDbIapConnectionPref&)
	_ZN23CCommDbOverrideSettings31GetConnectionPreferenceOverrideERN31CCommsDbConnectionPrefTableView24TCommDbIspConnectionPrefE @ 98 NONAME ; CCommDbOverrideSettings::GetConnectionPreferenceOverride(CCommsDbConnectionPrefTableView::TCommDbIspConnectionPref&)
	_ZN31CCommsDbConnectionPrefTableView15GotoFirstRecordEv @ 99 NONAME ; CCommsDbConnectionPrefTableView::GotoFirstRecord(void)
	_ZN31CCommsDbConnectionPrefTableView14GotoNextRecordEv @ 100 NONAME ; CCommsDbConnectionPrefTableView::GotoNextRecord(void)
	_ZN31CCommsDbConnectionPrefTableView18GotoPreviousRecordEv @ 101 NONAME ; CCommsDbConnectionPrefTableView::GotoPreviousRecord(void)
	_ZN31CCommsDbConnectionPrefTableView27InsertConnectionPreferenceLERKNS_24TCommDbIapConnectionPrefEi @ 102 NONAME ; CCommsDbConnectionPrefTableView::InsertConnectionPreferenceL(CCommsDbConnectionPrefTableView::TCommDbIapConnectionPref const&, int)
	_ZN31CCommsDbConnectionPrefTableView27InsertConnectionPreferenceLERKNS_24TCommDbIspConnectionPrefEi @ 103 NONAME ; CCommsDbConnectionPrefTableView::InsertConnectionPreferenceL(CCommsDbConnectionPrefTableView::TCommDbIspConnectionPref const&, int)
	_ZN14CCommsDatabase36OpenConnectionPrefTableInRankOrderLCE26TCommDbConnectionDirection @ 104 NONAME ; CCommsDatabase::OpenConnectionPrefTableInRankOrderLC(TCommDbConnectionDirection)
	_ZN14CCommsDatabase25OpenConnectionPrefTableLCEv @ 105 NONAME ; CCommsDatabase::OpenConnectionPrefTableLC(void)
	_ZN14CCommsDatabase25OpenConnectionPrefTableLCE26TCommDbConnectionDirection @ 106 NONAME ; CCommsDatabase::OpenConnectionPrefTableLC(TCommDbConnectionDirection)
	_ZN14CCommsDatabase35OpenConnectionPrefTableViewOnRankLCE26TCommDbConnectionDirectionm @ 107 NONAME ; CCommsDatabase::OpenConnectionPrefTableViewOnRankLC(TCommDbConnectionDirection, unsigned long)
	_ZN14CCommsDatabase35OpenIAPTableViewMatchingBearerSetLCEm26TCommDbConnectionDirection @ 108 NONAME ; CCommsDatabase::OpenIAPTableViewMatchingBearerSetLC(unsigned long, TCommDbConnectionDirection)
	_ZN31CCommsDbConnectionPrefTableView25ReadConnectionPreferenceLERNS_24TCommDbIapConnectionPrefE @ 109 NONAME ; CCommsDbConnectionPrefTableView::ReadConnectionPreferenceL(CCommsDbConnectionPrefTableView::TCommDbIapConnectionPref&)
	_ZN31CCommsDbConnectionPrefTableView25ReadConnectionPreferenceLERNS_24TCommDbIspConnectionPrefE @ 110 NONAME ; CCommsDbConnectionPrefTableView::ReadConnectionPreferenceL(CCommsDbConnectionPrefTableView::TCommDbIspConnectionPref&)
	_ZN14CCommsDatabase12SetAgentExtLERK7TDesC16S2_ @ 111 NONAME ; CCommsDatabase::SetAgentExtL(TDesC16 const&, TDesC16 const&)
	_ZN14CCommsDatabase9SetAgentLERK7TDesC16S2_ @ 112 NONAME ; CCommsDatabase::SetAgentL(TDesC16 const&, TDesC16 const&)
	_ZN23CCommDbOverrideSettings31SetConnectionPreferenceOverrideERKN31CCommsDbConnectionPrefTableView24TCommDbIapConnectionPrefE @ 113 NONAME ; CCommDbOverrideSettings::SetConnectionPreferenceOverride(CCommsDbConnectionPrefTableView::TCommDbIapConnectionPref const&)
	_ZN23CCommDbOverrideSettings31SetConnectionPreferenceOverrideERKN31CCommsDbConnectionPrefTableView24TCommDbIspConnectionPrefE @ 114 NONAME ; CCommDbOverrideSettings::SetConnectionPreferenceOverride(CCommsDbConnectionPrefTableView::TCommDbIspConnectionPref const&)
	_ZN31CCommsDbConnectionPrefTableView26SwapConnectionPreferencesLE26TCommDbConnectionDirectionmm @ 115 NONAME ; CCommsDbConnectionPrefTableView::SwapConnectionPreferencesL(TCommDbConnectionDirection, unsigned long, unsigned long)
	_ZN31CCommsDbConnectionPrefTableView13UpdateBearerLERKNS_16TCommDbIapBearerEi @ 116 NONAME ; CCommsDbConnectionPrefTableView::UpdateBearerL(CCommsDbConnectionPrefTableView::TCommDbIapBearer const&, int)
	_ZN31CCommsDbConnectionPrefTableView13UpdateBearerLERKNS_16TCommDbIspBearerEi @ 117 NONAME ; CCommsDbConnectionPrefTableView::UpdateBearerL(CCommsDbConnectionPrefTableView::TCommDbIspBearer const&, int)
	_ZN31CCommsDbConnectionPrefTableView17UpdateDialogPrefLERK17TCommDbDialogPref @ 118 NONAME ; CCommsDbConnectionPrefTableView::UpdateDialogPrefL(TCommDbDialogPref const&)
	_ZN31CCommsDbConnectionPrefTableViewD0Ev @ 119 NONAME ; CCommsDbConnectionPrefTableView::~CCommsDbConnectionPrefTableView(void)
	_ZNK31CCommsDbConnectionPrefTableView24TCommDbIapConnectionPrefeqERKS0_ @ 120 NONAME ; CCommsDbConnectionPrefTableView::TCommDbIapConnectionPref::operator==(CCommsDbConnectionPrefTableView::TCommDbIapConnectionPref const&) const
	_ZN31CCommsDbConnectionPrefTableView16TCommDbIapBearerC1Ev @ 121 NONAME ; CCommsDbConnectionPrefTableView::TCommDbIapBearer::TCommDbIapBearer(void)
	_ZN31CCommsDbConnectionPrefTableView16TCommDbIspBearerC1Ev @ 122 NONAME ; CCommsDbConnectionPrefTableView::TCommDbIspBearer::TCommDbIspBearer(void)
	_ZN31CCommsDbConnectionPrefTableView24TCommDbIapConnectionPrefC1Ev @ 123 NONAME ; CCommsDbConnectionPrefTableView::TCommDbIapConnectionPref::TCommDbIapConnectionPref(void)
	_ZN31CCommsDbConnectionPrefTableView24TCommDbIspConnectionPrefC1Ev @ 124 NONAME ; CCommsDbConnectionPrefTableView::TCommDbIspConnectionPref::TCommDbIspConnectionPref(void)
	_ZN14CCommsDatabase23OpenViewOnProxyRecordLCEmRK7TDesC16 @ 125 NONAME ; CCommsDatabase::OpenViewOnProxyRecordLC(unsigned long, TDesC16 const&)
	_ZN14CCommsDatabase22GetAgentClientTimeoutLERK7TDesC16 @ 126 NONAME ; CCommsDatabase::GetAgentClientTimeoutL(TDesC16 const&)
	_ZN14CCommsDatabase21GetAgentRouteTimeoutLERK7TDesC16 @ 127 NONAME ; CCommsDatabase::GetAgentRouteTimeoutL(TDesC16 const&)
	_ZN14CCommsDatabase22SetAgentClientTimeoutLERK7TDesC16i @ 128 NONAME ; CCommsDatabase::SetAgentClientTimeoutL(TDesC16 const&, int)
	_ZN14CCommsDatabase21SetAgentRouteTimeoutLERK7TDesC16i @ 129 NONAME ; CCommsDatabase::SetAgentRouteTimeoutL(TDesC16 const&, int)
	_ZNK23CCommDbOverrideSettings7CompareEPS_ @ 130 NONAME ; CCommDbOverrideSettings::Compare(CCommDbOverrideSettings*) const
	_ZN14CCommsDatabase4NewLE19TCommDbDatabaseTypeR20TCommDbOpeningMethod @ 131 NONAME ; CCommsDatabase::NewL(TCommDbDatabaseType, TCommDbOpeningMethod&)
	_ZN24CCommsDbProtectTableView15GetRecordAccessERi @ 132 NONAME ; CCommsDbProtectTableView::GetRecordAccess(int&)
	_ZN24CCommsDbProtectTableView14GetTableAccessERN9RDbRowSet7TAccessE @ 133 NONAME ; CCommsDbProtectTableView::GetTableAccess(RDbRowSet::TAccess&)
	_ZN24CCommsDbProtectTableView13ProtectRecordEv @ 134 NONAME ; CCommsDbProtectTableView::ProtectRecord(void)
	_ZN24CCommsDbProtectTableView12ProtectTableEv @ 135 NONAME ; CCommsDbProtectTableView::ProtectTable(void)
	_ZN24CCommsDbProtectTableView15UnprotectRecordEv @ 136 NONAME ; CCommsDbProtectTableView::UnprotectRecord(void)
	_ZN24CCommsDbProtectTableView14UnprotectTableEv @ 137 NONAME ; CCommsDbProtectTableView::UnprotectTable(void)
	_ZN24CCommsDbProtectTableViewD0Ev @ 138 NONAME ; CCommsDbProtectTableView::~CCommsDbProtectTableView(void)
	_ZN35CCommsDbProtectConnectPrefTableView15GetRecordAccessERi @ 139 NONAME ; CCommsDbProtectConnectPrefTableView::GetRecordAccess(int&)
	_ZN35CCommsDbProtectConnectPrefTableView14GetTableAccessERN9RDbRowSet7TAccessE @ 140 NONAME ; CCommsDbProtectConnectPrefTableView::GetTableAccess(RDbRowSet::TAccess&)
	_ZN35CCommsDbProtectConnectPrefTableView13ProtectRecordEv @ 141 NONAME ; CCommsDbProtectConnectPrefTableView::ProtectRecord(void)
	_ZN35CCommsDbProtectConnectPrefTableView12ProtectTableEv @ 142 NONAME ; CCommsDbProtectConnectPrefTableView::ProtectTable(void)
	_ZN35CCommsDbProtectConnectPrefTableView15UnprotectRecordEv @ 143 NONAME ; CCommsDbProtectConnectPrefTableView::UnprotectRecord(void)
	_ZN35CCommsDbProtectConnectPrefTableView14UnprotectTableEv @ 144 NONAME ; CCommsDbProtectConnectPrefTableView::UnprotectTable(void)
	_ZN35CCommsDbProtectConnectPrefTableViewD0Ev @ 145 NONAME ; CCommsDbProtectConnectPrefTableView::~CCommsDbProtectConnectPrefTableView(void)
	_ZNK15TCommDbConnPref7CompareERKS_ @ 146 NONAME ; TCommDbConnPref::Compare(TCommDbConnPref const&) const
	_ZN20TCommDbMultiConnPref18ConnectionAttemptsEv @ 147 NONAME ; TCommDbMultiConnPref::ConnectionAttempts(void)
	_ZNK15TCommDbConnPref16DialogPreferenceEv @ 148 NONAME ; TCommDbConnPref::DialogPreference(void) const
	_ZNK15TCommDbConnPref9DirectionEv @ 149 NONAME ; TCommDbConnPref::Direction(void) const
	_ZN20TCommDbMultiConnPref13GetPreferenceEiR15TCommDbConnPref @ 150 NONAME ; TCommDbMultiConnPref::GetPreference(int, TCommDbConnPref&)
	_ZNK15TCommDbConnPref5IapIdEv @ 151 NONAME ; TCommDbConnPref::IapId(void) const
	_ZNK15TCommDbConnPref5NetIdEv @ 152 NONAME ; TCommDbConnPref::NetId(void) const
	_ZN14CCommsDatabase4NewLEv @ 153 NONAME ; CCommsDatabase::NewL(void)
	_ZN14CCommsDatabase4NewLER20TCommDbOpeningMethod @ 154 NONAME ; CCommsDatabase::NewL(TCommDbOpeningMethod&)
	_ZN14CCommsDatabase4NewLEi @ 155 NONAME ; CCommsDatabase::NewL(int)
	_ZN23CCommDbOverrideSettings4NewLENS_10TParamListE @ 156 NONAME ; CCommDbOverrideSettings::NewL(CCommDbOverrideSettings::TParamList)
	_ZN26CStoreableOverrideSettings4NewLEN23CCommDbOverrideSettings10TParamListE @ 157 NONAME ; CStoreableOverrideSettings::NewL(CCommDbOverrideSettings::TParamList)
	_ZN14CCommsDatabase33OpenIAPTableViewMatchingNetworkLCEm @ 158 NONAME ; CCommsDatabase::OpenIAPTableViewMatchingNetworkLC(unsigned long)
	_ZN17CCommsDbTableView20ReadColumnMaxLengthLERK7TDesC16Ri @ 159 NONAME ; CCommsDbTableView::ReadColumnMaxLengthL(TDesC16 const&, int&)
	_ZN15TCommDbConnPref12SetBearerSetEm @ 160 NONAME ; TCommDbConnPref::SetBearerSet(unsigned long)
	_ZN20TCommDbMultiConnPref21SetConnectionAttemptsEi @ 161 NONAME ; TCommDbMultiConnPref::SetConnectionAttempts(int)
	_ZN15TCommDbConnPref19SetDialogPreferenceE17TCommDbDialogPref @ 162 NONAME ; TCommDbConnPref::SetDialogPreference(TCommDbDialogPref)
	_ZN15TCommDbConnPref12SetDirectionE26TCommDbConnectionDirection @ 163 NONAME ; TCommDbConnPref::SetDirection(TCommDbConnectionDirection)
	_ZN15TCommDbConnPref8SetIapIdEm @ 164 NONAME ; TCommDbConnPref::SetIapId(unsigned long)
	_ZN15TCommDbConnPref8SetNetIdEm @ 165 NONAME ; TCommDbConnPref::SetNetId(unsigned long)
	_ZN20TCommDbMultiConnPref13SetPreferenceEiRK15TCommDbConnPref @ 166 NONAME ; TCommDbMultiConnPref::SetPreference(int, TCommDbConnPref const&)
	_ZN15TCommDbConnPref7VersionEv @ 167 NONAME ; TCommDbConnPref::Version(void)
	_ZN20TCommDbMultiConnPref7VersionEv @ 168 NONAME ; TCommDbMultiConnPref::Version(void)
	_ZN15TCommDbConnPrefC1Ev @ 169 NONAME ; TCommDbConnPref::TCommDbConnPref(void)
	_ZN20TCommDbMultiConnPrefC1Ev @ 170 NONAME ; TCommDbMultiConnPref::TCommDbMultiConnPref(void)
	_ZNK15TCommDbConnPref9BearerSetEv @ 171 NONAME ; TCommDbConnPref::BearerSet(void) const
	_ZN14CCommsDatabase14GetDefaultTsyLER6TDes16 @ 172 NONAME ; CCommsDatabase::GetDefaultTsyL(TDes16&)
	_ZN17CCommsDbTableView16InsertCopyRecordERm @ 173 NONAME ; CCommsDbTableView::InsertCopyRecord(unsigned long&)
	_ZN22CCommsDbTemplateRecord10InsertCopyERm @ 174 NONAME ; CCommsDbTemplateRecord::InsertCopy(unsigned long&)
	_ZN21CCommsDatabaseProtect15GetTableAccessLERK7TDesC16 @ 175 NONAME ; CCommsDatabaseProtect::GetTableAccessL(TDesC16 const&)
	_ZN21CCommsDatabaseProtect4NewLEv @ 176 NONAME ; CCommsDatabaseProtect::NewL(void)
	_ZN21CCommsDatabaseProtect4NewLER20TCommDbOpeningMethod @ 177 NONAME ; CCommsDatabaseProtect::NewL(TCommDbOpeningMethod&)
	_ZN21CCommsDatabaseProtect4NewLEi @ 178 NONAME ; CCommsDatabaseProtect::NewL(int)
	_ZN21CCommsDatabaseProtect12ProtectTableERK7TDesC16 @ 179 NONAME ; CCommsDatabaseProtect::ProtectTable(TDesC16 const&)
	_ZN21CCommsDatabaseProtect13ProtectTablesER12CPtrC16Array @ 180 NONAME ; CCommsDatabaseProtect::ProtectTables(CPtrC16Array&)
	_ZN21CCommsDatabaseProtect14UnProtectTableERK7TDesC16 @ 181 NONAME ; CCommsDatabaseProtect::UnProtectTable(TDesC16 const&)
	_ZN21CCommsDatabaseProtect15UnprotectTablesER12CPtrC16Array @ 182 NONAME ; CCommsDatabaseProtect::UnprotectTables(CPtrC16Array&)
	_ZN21CCommsDatabaseProtectD0Ev @ 183 NONAME ; CCommsDatabaseProtect::~CCommsDatabaseProtect(void)
	_ZN14CCommsDatabaseD2Ev @ 184 NONAME ; CCommsDatabase::~CCommsDatabase [not-in-charge](void)
	_ZN20TCommDbMultiConnPrefC2Ev @ 185 NONAME ; TCommDbMultiConnPref::TCommDbMultiConnPref[not-in-charge](void)
	_ZN31CCommsDbConnectionPrefTableView24TCommDbIapConnectionPrefC2Ev @ 186 NONAME ; CCommsDbConnectionPrefTableView::TCommDbIapConnectionPref::TCommDbIapConnectionPref[not-in-charge](void)
	_ZN26CStoreableOverrideSettingsD2Ev @ 187 NONAME ; CStoreableOverrideSettings::~CStoreableOverrideSettings [not-in-charge](void)
	_ZN31CCommsDbConnectionPrefTableViewD1Ev @ 188 NONAME ; CCommsDbConnectionPrefTableView::~CCommsDbConnectionPrefTableView [in-charge](void)
	_ZN31CCommsDbConnectionPrefTableViewD2Ev @ 189 NONAME ; CCommsDbConnectionPrefTableView::~CCommsDbConnectionPrefTableView [not-in-charge](void)
	_ZN17CCommsDbTableViewD1Ev @ 190 NONAME ; CCommsDbTableView::~CCommsDbTableView [in-charge](void)
	_ZN21CCommsDatabaseProtectD2Ev @ 191 NONAME ; CCommsDatabaseProtect::~CCommsDatabaseProtect [not-in-charge](void)
	_ZN14CCommsDatabaseD1Ev @ 192 NONAME ; CCommsDatabase::~CCommsDatabase [in-charge](void)
	_ZN24CCommsDbProtectTableViewD1Ev @ 193 NONAME ; CCommsDbProtectTableView::~CCommsDbProtectTableView [in-charge](void)
	_ZN18CCommsDatabaseBaseC2Ev @ 194 NONAME ; CCommsDatabaseBase::CCommsDatabaseBase[not-in-charge](void)
	_ZN22CCommsDbTemplateRecordD1Ev @ 195 NONAME ; CCommsDbTemplateRecord::~CCommsDbTemplateRecord [in-charge](void)
	_ZN26CStoreableOverrideSettingsD1Ev @ 196 NONAME ; CStoreableOverrideSettings::~CStoreableOverrideSettings [in-charge](void)
	_ZN35CCommsDbProtectConnectPrefTableViewD1Ev @ 197 NONAME ; CCommsDbProtectConnectPrefTableView::~CCommsDbProtectConnectPrefTableView [in-charge](void)
	_ZN35CCommsDbProtectConnectPrefTableViewD2Ev @ 198 NONAME ; CCommsDbProtectConnectPrefTableView::~CCommsDbProtectConnectPrefTableView [not-in-charge](void)
	_ZN23CCommDbOverrideSettingsD2Ev @ 199 NONAME ; CCommDbOverrideSettings::~CCommDbOverrideSettings [not-in-charge](void)
	_ZN24CCommsDbProtectTableViewD2Ev @ 200 NONAME ; CCommsDbProtectTableView::~CCommsDbProtectTableView [not-in-charge](void)
	_ZN23CCommDbOverrideSettingsD1Ev @ 201 NONAME ; CCommDbOverrideSettings::~CCommDbOverrideSettings [in-charge](void)
	_ZN31CCommsDbConnectionPrefTableView24TCommDbIspConnectionPrefC2Ev @ 202 NONAME ; CCommsDbConnectionPrefTableView::TCommDbIspConnectionPref::TCommDbIspConnectionPref[not-in-charge](void)
	_ZN31CCommsDbConnectionPrefTableView16TCommDbIapBearerC2Ev @ 203 NONAME ; CCommsDbConnectionPrefTableView::TCommDbIapBearer::TCommDbIapBearer[not-in-charge](void)
	_ZN21CCommsDatabaseProtectD1Ev @ 204 NONAME ; CCommsDatabaseProtect::~CCommsDatabaseProtect [in-charge](void)
	_ZN18CCommsDatabaseBaseD2Ev @ 205 NONAME ; CCommsDatabaseBase::~CCommsDatabaseBase [not-in-charge](void)
	_ZN15TCommDbConnPrefC2Ev @ 206 NONAME ; TCommDbConnPref::TCommDbConnPref[not-in-charge](void)
	_ZN22CCommsDbTemplateRecordD2Ev @ 207 NONAME ; CCommsDbTemplateRecord::~CCommsDbTemplateRecord [not-in-charge](void)
	_ZN18CCommsDatabaseBaseD1Ev @ 208 NONAME ; CCommsDatabaseBase::~CCommsDatabaseBase [in-charge](void)
	_ZN31CCommsDbConnectionPrefTableView16TCommDbIspBearerC2Ev @ 209 NONAME ; CCommsDbConnectionPrefTableView::TCommDbIspBearer::TCommDbIspBearer[not-in-charge](void)
	_ZN17CCommsDbTableViewD2Ev @ 210 NONAME ; CCommsDbTableView::~CCommsDbTableView [not-in-charge](void)
	_ZTI14CCommsDatabase @ 211 NONAME ; typeinfo for CCommsDatabase
	_ZTI15TCommDbConnPref @ 212 NONAME ; typeinfo for TCommDbConnPref
	_ZTI17CCommsDbTableView @ 213 NONAME ; typeinfo for CCommsDbTableView
	_ZTI18CCommsDatabaseBase @ 214 NONAME ; typeinfo for CCommsDatabaseBase
	_ZTI23CCommDbOverrideSettings @ 215 NONAME ; typeinfo for CCommDbOverrideSettings
	_ZTI31CCommsDbConnectionPrefTableView @ 216 NONAME ; typeinfo for CCommsDbConnectionPrefTableView
	_ZN18CCommsDatabaseBase19CheckReadCapabilityERK7TDesC16PK12RMessagePtr2 @ 217 NONAME
	_ZN18CCommsDatabaseBase20CheckWriteCapabilityERK7TDesC16PK12RMessagePtr2 @ 218 NONAME
	_ZTV14CCommsDatabase @ 219 NONAME ; vtable for CCommsDatabase
	_ZTV15TCommDbConnPref @ 220 NONAME ; vtable for TCommDbConnPref
	_ZTV17CCommsDbTableView @ 221 NONAME ; vtable for CCommsDbTableView
	_ZTV18CCommsDatabaseBase @ 222 NONAME ; vtable for CCommsDatabaseBase
	_ZTV23CCommDbOverrideSettings @ 223 NONAME ; vtable for CCommDbOverrideSettings
	_ZN18CCommsDatabaseBase19InitializeFilestoreEv @ 224 NONAME
	_ZTI21CCommsDatabaseProtect @ 225 NONAME ; #<TI>#
	_ZTI22CCommsDbTemplateRecord @ 226 NONAME ; #<TI>#
	_ZTI24CCommsDbProtectTableView @ 227 NONAME ; #<TI>#
	_ZTI26CStoreableOverrideSettings @ 228 NONAME ; #<TI>#
	_ZTI35CCommsDbProtectConnectPrefTableView @ 229 NONAME ; #<TI>#
	_ZTV21CCommsDatabaseProtect @ 230 NONAME ; #<VT>#
	_ZTV22CCommsDbTemplateRecord @ 231 NONAME ; #<VT>#
	_ZTV24CCommsDbProtectTableView @ 232 NONAME ; #<VT>#
	_ZTV26CStoreableOverrideSettings @ 233 NONAME ; #<VT>#
	_ZTV35CCommsDbProtectConnectPrefTableView @ 234 NONAME ; #<VT>#

