EXPORTS
	??0TContextConfig@@QAE@XZ @ 1 NONAME ; TContextConfig::TContextConfig(void)
	??0TContextParameters@@QAE@XZ @ 2 NONAME ; TContextParameters::TContextParameters(void)
	??0TTFTInfo@@QAE@XZ @ 3 NONAME ; TTFTInfo::TTFTInfo(void)
	??1TContextConfig@@QAE@XZ @ 4 NONAME ; TContextConfig::~TContextConfig(void)
	??1TTFTInfo@@QAE@XZ @ 5 NONAME ; TTFTInfo::~TTFTInfo(void)
	?AddPacketFilter@TTFTInfo@@QAEHVTPacketFilterV2@RPacketContext@@@Z @ 6 NONAME ; int TTFTInfo::AddPacketFilter(class RPacketContext::TPacketFilterV2)
	?FilterCount@TTFTInfo@@QAEEXZ @ 7 NONAME ; unsigned char TTFTInfo::FilterCount(void)
	?GetAccessPointName@TContextConfig@@QBEHAAV?$TBuf8@$0PM@@@@Z @ 8 NONAME ; int TContextConfig::GetAccessPointName(class TBuf8<252> &) const
	?GetContextConfig@TContextConfig@@QBEHAAVTContextConfigGPRS@RPacketContext@@@Z @ 9 NONAME ; int TContextConfig::GetContextConfig(class RPacketContext::TContextConfigGPRS &) const
	?GetPacketFilter@TTFTInfo@@QAEHAAVTPacketFilterV2@RPacketContext@@@Z @ 10 NONAME ; int TTFTInfo::GetPacketFilter(class RPacketContext::TPacketFilterV2 &)
	?GetPdpAddress@TContextConfig@@QBEHAAV?$TBuf8@$0DC@@@@Z @ 11 NONAME ; int TContextConfig::GetPdpAddress(class TBuf8<50> &) const
	?GetPdpCompression@TContextConfig@@QBEHAAI@Z @ 12 NONAME ; int TContextConfig::GetPdpCompression(unsigned int &) const
	?GetPdpType@TContextConfig@@QBEHAAW4TProtocolType@RPacketContext@@@Z @ 13 NONAME ; int TContextConfig::GetPdpType(enum RPacketContext::TProtocolType &) const
	?GetTFTInfo@TContextConfig@@QBEHAAVTTFTInfo@@@Z @ 14 NONAME ; int TContextConfig::GetTFTInfo(class TTFTInfo &) const
	?GetUMTSQoSNeg@TContextConfig@@QBEHAAVTQoSR99_R4Negotiated@RPacketQoS@@@Z @ 15 NONAME ; int TContextConfig::GetUMTSQoSNeg(class RPacketQoS::TQoSR99_R4Negotiated &) const
	?GetUMTSQoSReq@TContextConfig@@QBEHAAVTQoSR99_R4Requested@RPacketQoS@@@Z @ 16 NONAME ; int TContextConfig::GetUMTSQoSReq(class RPacketQoS::TQoSR99_R4Requested &) const
	?NextPacketFilter@TTFTInfo@@QAEHAAVTPacketFilterV2@RPacketContext@@@Z @ 17 NONAME ; int TTFTInfo::NextPacketFilter(class RPacketContext::TPacketFilterV2 &)
	?RemovePacketFilter@TTFTInfo@@QAEHVTPacketFilterV2@RPacketContext@@@Z @ 18 NONAME ; int TTFTInfo::RemovePacketFilter(class RPacketContext::TPacketFilterV2)
	?Reset@TContextConfig@@QAEXXZ @ 19 NONAME ; void TContextConfig::Reset(void)
	?Set@TContextConfig@@QAEHABV1@@Z @ 20 NONAME ; int TContextConfig::Set(class TContextConfig const &)
	?Set@TTFTInfo@@QAEHABV1@@Z @ 21 NONAME ; int TTFTInfo::Set(class TTFTInfo const &)
	?SetAccessPointName@TContextConfig@@QAEHABV?$TBuf8@$0PM@@@@Z @ 22 NONAME ; int TContextConfig::SetAccessPointName(class TBuf8<252> const &)
	?SetContextConfig@TContextConfig@@QAEHABVTContextConfigGPRS@RPacketContext@@@Z @ 23 NONAME ; int TContextConfig::SetContextConfig(class RPacketContext::TContextConfigGPRS const &)
	?SetPdpAddress@TContextConfig@@QAEHABV?$TBuf8@$0DC@@@@Z @ 24 NONAME ; int TContextConfig::SetPdpAddress(class TBuf8<50> const &)
	?SetPdpCompression@TContextConfig@@QAEHI@Z @ 25 NONAME ; int TContextConfig::SetPdpCompression(unsigned int)
	?SetPdpType@TContextConfig@@QAEHW4TProtocolType@RPacketContext@@@Z @ 26 NONAME ; int TContextConfig::SetPdpType(enum RPacketContext::TProtocolType)
	?SetTFTInfo@TContextConfig@@QAEHABVTTFTInfo@@@Z @ 27 NONAME ; int TContextConfig::SetTFTInfo(class TTFTInfo const &)
	?SetToFirst@TTFTInfo@@QAEXXZ @ 28 NONAME ; void TTFTInfo::SetToFirst(void)
	?SetUMTSQoSNeg@TContextConfig@@QAEHABVTQoSR99_R4Negotiated@RPacketQoS@@@Z @ 29 NONAME ; int TContextConfig::SetUMTSQoSNeg(class RPacketQoS::TQoSR99_R4Negotiated const &)
	?SetUMTSQoSReq@TContextConfig@@QAEHABVTQoSR99_R4Requested@RPacketQoS@@@Z @ 30 NONAME ; int TContextConfig::SetUMTSQoSReq(class RPacketQoS::TQoSR99_R4Requested const &)
	??4TTFTInfo@@QAEAAV0@ABV0@@Z @ 31 NONAME ; class TTFTInfo & TTFTInfo::operator=(class TTFTInfo const &)
	?AddSblpToken@TTFTInfo@@QAEHV?$TBuf8@$0PP@@@V?$RArray@UTFlowIdentifier@CTFTMediaAuthorizationV3@RPacketContext@@@@@Z @ 32 NONAME ; int TTFTInfo::AddSblpToken(class TBuf8<255>, class RArray<struct RPacketContext::CTFTMediaAuthorizationV3::TFlowIdentifier>)
	?GetSblpToken@TTFTInfo@@QBEHAAVCTFTMediaAuthorizationV3@RPacketContext@@@Z @ 33 NONAME ; int TTFTInfo::GetSblpToken(class RPacketContext::CTFTMediaAuthorizationV3 &) const
	?RemovSblpToken@TTFTInfo@@QAEHXZ @ 34 NONAME ; int TTFTInfo::RemovSblpToken(void)
