EXPORTS
	_ZN16CMMFDevVideoPlay10GetBufferLEj @ 1 NONAME
	_ZN16CMMFDevVideoPlay10InitializeEv @ 2 NONAME
	_ZN16CMMFDevVideoPlay11SetPositionERK25TTimeIntervalMicroSeconds @ 3 NONAME
	_ZN16CMMFDevVideoPlay12GetSnapshotLER12TPictureDataRK24TUncompressedVideoFormat @ 4 NONAME
	_ZN16CMMFDevVideoPlay12NextPictureLEv @ 5 NONAME
	_ZN16CMMFDevVideoPlay12ReturnHeaderEP19TVideoPictureHeader @ 6 NONAME
	_ZN16CMMFDevVideoPlay13FindDecodersLERK6TDesC8mR6RArrayI4TUidEi @ 7 NONAME
	_ZN16CMMFDevVideoPlay13FreezePictureERK25TTimeIntervalMicroSeconds @ 8 NONAME
	_ZN16CMMFDevVideoPlay13ReleaseFreezeERK25TTimeIntervalMicroSeconds @ 9 NONAME
	_ZN16CMMFDevVideoPlay13ReturnPictureEP13TVideoPicture @ 10 NONAME
	_ZN16CMMFDevVideoPlay13SetHrdVbvSpecE20THrdVbvSpecificationRK6TDesC8 @ 11 NONAME
	_ZN16CMMFDevVideoPlay13WritePictureLEP13TVideoPicture @ 12 NONAME
	_ZN16CMMFDevVideoPlay14NumFreeBuffersEv @ 13 NONAME
	_ZN16CMMFDevVideoPlay14SelectDecoderLE4TUid @ 14 NONAME
	_ZN16CMMFDevVideoPlay14SetClockSourceEP15MMMFClockSource @ 15 NONAME
	_ZN16CMMFDevVideoPlay15CustomInterfaceEi4TUid @ 16 NONAME
	_ZN16CMMFDevVideoPlay15GetDecoderListLER6RArrayI4TUidE @ 17 NONAME
	_ZN16CMMFDevVideoPlay15SetInputFormatLEiRK22CCompressedVideoFormat18TVideoDataUnitType27TVideoDataUnitEncapsulationi @ 18 NONAME
	_ZN16CMMFDevVideoPlay15SetInputFormatLEiRK24TUncompressedVideoFormat @ 19 NONAME
	_ZN16CMMFDevVideoPlay15WriteCodedDataLEP17TVideoInputBuffer @ 20 NONAME
	_ZN16CMMFDevVideoPlay16DecodingPositionEv @ 21 NONAME
	_ZN16CMMFDevVideoPlay16FindCommonFormatERK6TArrayI24TUncompressedVideoFormatES4_RS1_ @ 22 NONAME
	_ZN16CMMFDevVideoPlay16GetBufferOptionsERNS_14TBufferOptionsE @ 23 NONAME
	_ZN16CMMFDevVideoPlay16PlaybackPositionEv @ 24 NONAME
	_ZN16CMMFDevVideoPlay16SetOutputFormatLEiRK24TUncompressedVideoFormat @ 25 NONAME
	_ZN16CMMFDevVideoPlay16SetScaleOptionsLEiRK5TSizei @ 26 NONAME
	_ZN16CMMFDevVideoPlay17GetNewPictureInfoERjR25TTimeIntervalMicroSecondsS2_ @ 27 NONAME
	_ZN16CMMFDevVideoPlay17GetTimedSnapshotLEP12TPictureDataRK24TUncompressedVideoFormatRK10TPictureId @ 28 NONAME
	_ZN16CMMFDevVideoPlay17GetTimedSnapshotLEP12TPictureDataRK24TUncompressedVideoFormatRK25TTimeIntervalMicroSeconds @ 29 NONAME
	_ZN16CMMFDevVideoPlay17SetBufferOptionsLERKNS_14TBufferOptionsE @ 30 NONAME
	_ZN16CMMFDevVideoPlay17SetRotateOptionsLEi13TRotationType @ 31 NONAME
	_ZN16CMMFDevVideoPlay18GetPictureCountersERNS_16TPictureCountersE @ 32 NONAME
	_ZN16CMMFDevVideoPlay18PictureBufferBytesEv @ 33 NONAME
	_ZN16CMMFDevVideoPlay18SetComplexityLevelEij @ 34 NONAME
	_ZN16CMMFDevVideoPlay18SetPauseOnClipFailEi @ 35 NONAME
	_ZN16CMMFDevVideoPlay18VideoDecoderInfoLCE4TUid @ 36 NONAME
	_ZN16CMMFDevVideoPlay19CancelTimedSnapshotEv @ 37 NONAME
	_ZN16CMMFDevVideoPlay19FindPostProcessorsLEmR6RArrayI4TUidE @ 38 NONAME
	_ZN16CMMFDevVideoPlay19NumComplexityLevelsEi @ 39 NONAME
	_ZN16CMMFDevVideoPlay19PostProcessorInfoLCE4TUid @ 40 NONAME
	_ZN16CMMFDevVideoPlay19SetScreenClipRegionERK7TRegion @ 41 NONAME
	_ZN16CMMFDevVideoPlay19SetVideoDestScreenLEi @ 42 NONAME
	_ZN16CMMFDevVideoPlay19SetYuvToRgbOptionsLEiRK16TYuvToRgbOptions @ 43 NONAME
	_ZN16CMMFDevVideoPlay19SetYuvToRgbOptionsLEiRK16TYuvToRgbOptionsRK10TYuvFormat10TRgbFormat @ 44 NONAME
	_ZN16CMMFDevVideoPlay19SynchronizeDecodingEi @ 45 NONAME
	_ZN16CMMFDevVideoPlay20GetBitstreamCountersERNS_18TBitstreamCountersE @ 46 NONAME
	_ZN16CMMFDevVideoPlay20GetOutputFormatListLEiR6RArrayI24TUncompressedVideoFormatE @ 47 NONAME
	_ZN16CMMFDevVideoPlay20SelectPostProcessorLE4TUid @ 48 NONAME
	_ZN16CMMFDevVideoPlay20SetInputCropOptionsLEiRK5TRect @ 49 NONAME
	_ZN16CMMFDevVideoPlay20SetPostProcessTypesLEim @ 50 NONAME
	_ZN16CMMFDevVideoPlay21GetHeaderInformationLE18TVideoDataUnitType27TVideoDataUnitEncapsulationP17TVideoInputBuffer @ 51 NONAME
	_ZN16CMMFDevVideoPlay21GetPostProcessorListLER6RArrayI4TUidE @ 52 NONAME
	_ZN16CMMFDevVideoPlay21PreDecoderBufferBytesEv @ 53 NONAME
	_ZN16CMMFDevVideoPlay21SetOutputCropOptionsLEiRK5TRect @ 54 NONAME
	_ZN16CMMFDevVideoPlay22GetComplexityLevelInfoEijRNS_20TComplexityLevelInfoE @ 55 NONAME
	_ZN16CMMFDevVideoPlay23AbortDirectScreenAccessEv @ 56 NONAME
	_ZN16CMMFDevVideoPlay24StartDirectScreenAccessLERK5TRectR16CFbsScreenDeviceRK7TRegion @ 57 NONAME
	_ZN16CMMFDevVideoPlay27SetPostProcSpecificOptionsLEiRK6TDesC8 @ 58 NONAME
	_ZN16CMMFDevVideoPlay28GetSupportedSnapshotFormatsLER6RArrayI24TUncompressedVideoFormatE @ 59 NONAME
	_ZN16CMMFDevVideoPlay4NewLER24MMMFDevVideoPlayObserver @ 60 NONAME
	_ZN16CMMFDevVideoPlay4StopEv @ 61 NONAME
	_ZN16CMMFDevVideoPlay5PauseEv @ 62 NONAME
	_ZN16CMMFDevVideoPlay5StartEv @ 63 NONAME
	_ZN16CMMFDevVideoPlay6RedrawEv @ 64 NONAME
	_ZN16CMMFDevVideoPlay6ResumeEv @ 65 NONAME
	_ZN16CMMFDevVideoPlay6RevertEv @ 66 NONAME
	_ZN16CMMFDevVideoPlay7CommitLEv @ 67 NONAME
	_ZN16CMMFDevVideoPlay8InputEndEv @ 68 NONAME
	_ZN16CMMFDevVideoPlay9IsPlayingEv @ 69 NONAME
	_ZN16CMMFDevVideoPlayD0Ev @ 70 NONAME
	_ZN16CMMFDevVideoPlayD1Ev @ 71 NONAME
	_ZN16CMMFDevVideoPlayD2Ev @ 72 NONAME
	_ZN17CPreProcessorInfo4NewLE4TUidRK7TDesC16S3_8TVersioniiRK6TArrayI24TUncompressedVideoFormatES9_RKS5_ImEiiRKS5_I12TScaleFactorERK21TYuvToYuvCapabilitiesmmRK6TDesC8 @ 73 NONAME
	_ZN17CPreProcessorInfoD0Ev @ 74 NONAME
	_ZN17CPreProcessorInfoD1Ev @ 75 NONAME
	_ZN17CPreProcessorInfoD2Ev @ 76 NONAME
	_ZN17CVideoDecoderInfo4NewLE4TUidRK7TDesC16S3_8TVersionRK6TArrayIP22CCompressedVideoFormatEiiRK5TSizejRKS5_I19TPictureRateAndSizeEiiRK6TDesC8SK_ @ 77 NONAME
	_ZN17CVideoDecoderInfoD0Ev @ 78 NONAME
	_ZN17CVideoDecoderInfoD1Ev @ 79 NONAME
	_ZN17CVideoDecoderInfoD2Ev @ 80 NONAME
	_ZN17CVideoEncoderInfo4NewLE4TUidRK7TDesC16S3_8TVersioniiRK6TArrayI24TUncompressedVideoFormatERKS5_IP22CCompressedVideoFormatERK5TSizemmjijjRKS5_I19TPictureRateAndSizeEjmiiRK6TDesC8SO_ @ 81 NONAME
	_ZN17CVideoEncoderInfoD0Ev @ 82 NONAME
	_ZN17CVideoEncoderInfoD1Ev @ 83 NONAME
	_ZN17CVideoEncoderInfoD2Ev @ 84 NONAME
	_ZN17TVideoInputBufferC1Ev @ 85 NONAME
	_ZN17TVideoInputBufferC2Ev @ 86 NONAME
	_ZN18CMMFDevVideoRecord10InitializeEv @ 87 NONAME
	_ZN18CMMFDevVideoRecord11NextBufferLEv @ 88 NONAME
	_ZN18CMMFDevVideoRecord11PictureLossERK6TArrayI10TPictureIdE @ 89 NONAME
	_ZN18CMMFDevVideoRecord11PictureLossEv @ 90 NONAME
	_ZN18CMMFDevVideoRecord12ReturnBufferEP18TVideoOutputBuffer @ 91 NONAME
	_ZN18CMMFDevVideoRecord13FindEncodersLERK6TDesC8mR6RArrayI4TUidEi @ 92 NONAME
	_ZN18CMMFDevVideoRecord13ReleaseFreezeEv @ 93 NONAME
	_ZN18CMMFDevVideoRecord13WritePictureLEP13TVideoPicture @ 94 NONAME
	_ZN18CMMFDevVideoRecord14NumDataBuffersEv @ 95 NONAME
	_ZN18CMMFDevVideoRecord14SelectEncoderLE4TUid @ 96 NONAME
	_ZN18CMMFDevVideoRecord14SetClockSourceEP15MMMFClockSource @ 97 NONAME
	_ZN18CMMFDevVideoRecord14SetOutputRectLEiRK5TRect @ 98 NONAME
	_ZN18CMMFDevVideoRecord15CustomInterfaceEi4TUid @ 99 NONAME
	_ZN18CMMFDevVideoRecord15GetEncoderListLER6RArrayI4TUidE @ 100 NONAME
	_ZN18CMMFDevVideoRecord15SetInputFormatLEiRK24TUncompressedVideoFormatRK5TSize @ 101 NONAME
	_ZN18CMMFDevVideoRecord16SetOutputFormatLEiRK22CCompressedVideoFormat18TVideoDataUnitType27TVideoDataUnitEncapsulationi @ 102 NONAME
	_ZN18CMMFDevVideoRecord16SetOutputFormatLEiRK24TUncompressedVideoFormat @ 103 NONAME
	_ZN18CMMFDevVideoRecord16SetScaleOptionsLEiRK5TSizei @ 104 NONAME
	_ZN18CMMFDevVideoRecord16SetSourceCameraLEid @ 105 NONAME
	_ZN18CMMFDevVideoRecord16SetSourceMemoryLEdii @ 106 NONAME
	_ZN18CMMFDevVideoRecord17RecordingPositionEv @ 107 NONAME
	_ZN18CMMFDevVideoRecord17SetBufferOptionsLERK21TEncoderBufferOptions @ 108 NONAME
	_ZN18CMMFDevVideoRecord17SetErrorsExpectedEii @ 109 NONAME
	_ZN18CMMFDevVideoRecord17SetRotateOptionsLEi13TRotationType @ 110 NONAME
	_ZN18CMMFDevVideoRecord18FindPreProcessorsLEmR6RArrayI4TUidE @ 111 NONAME
	_ZN18CMMFDevVideoRecord18GetPictureCountersERNS_16TPictureCountersE @ 112 NONAME
	_ZN18CMMFDevVideoRecord18PreProcessorInfoLCE4TUid @ 113 NONAME
	_ZN18CMMFDevVideoRecord18SetComplexityLevelEij @ 114 NONAME
	_ZN18CMMFDevVideoRecord18VideoEncoderInfoLCE4TUid @ 115 NONAME
	_ZN18CMMFDevVideoRecord19NumComplexityLevelsEi @ 116 NONAME
	_ZN18CMMFDevVideoRecord19SelectPreProcessorLE4TUid @ 117 NONAME
	_ZN18CMMFDevVideoRecord19SetPreProcessTypesLEim @ 118 NONAME
	_ZN18CMMFDevVideoRecord19SetRgbToYuvOptionsLEi9TRgbRangeRK10TYuvFormat @ 119 NONAME
	_ZN18CMMFDevVideoRecord19SetYuvToYuvOptionsLEiRK10TYuvFormatS2_ @ 120 NONAME
	_ZN18CMMFDevVideoRecord20GetPreProcessorListLER6RArrayI4TUidE @ 121 NONAME
	_ZN18CMMFDevVideoRecord20SetInputCropOptionsLEiRK5TRect @ 122 NONAME
	_ZN18CMMFDevVideoRecord20SetNumBitrateLayersLEj @ 123 NONAME
	_ZN18CMMFDevVideoRecord20SetOutputPadOptionsLEiRK5TSizeRK6TPoint @ 124 NONAME
	_ZN18CMMFDevVideoRecord20SetSegmentTargetSizeEjjj @ 125 NONAME
	_ZN18CMMFDevVideoRecord21GetOutputBufferStatusERjS0_ @ 126 NONAME
	_ZN18CMMFDevVideoRecord21SendSupplementalInfoLERK6TDesC8 @ 127 NONAME
	_ZN18CMMFDevVideoRecord21SendSupplementalInfoLERK6TDesC8RK25TTimeIntervalMicroSeconds @ 128 NONAME
	_ZN18CMMFDevVideoRecord21SetOutputCropOptionsLEiRK5TRect @ 129 NONAME
	_ZN18CMMFDevVideoRecord21SetRateControlOptionsEjRK19TRateControlOptions @ 130 NONAME
	_ZN18CMMFDevVideoRecord22CancelSupplementalInfoEv @ 131 NONAME
	_ZN18CMMFDevVideoRecord22SetChannelBitErrorRateEjdd @ 132 NONAME
	_ZN18CMMFDevVideoRecord22SetInLayerScalabilityLEjj23TInLayerScalabilityTypeRK6TArrayIjES4_ @ 133 NONAME
	_ZN18CMMFDevVideoRecord22SetMinRandomAccessRateEd @ 134 NONAME
	_ZN18CMMFDevVideoRecord24SetChannelPacketLossRateEjd27TTimeIntervalMicroSeconds32 @ 135 NONAME
	_ZN18CMMFDevVideoRecord24SetErrorProtectionLevelLEjjj @ 136 NONAME
	_ZN18CMMFDevVideoRecord24SetLayerReferenceOptionsEjjj @ 137 NONAME
	_ZN18CMMFDevVideoRecord24SetScalabilityLayerTypeLEj16TScalabilityType @ 138 NONAME
	_ZN18CMMFDevVideoRecord25ReferencePictureSelectionERK6TDesC8 @ 139 NONAME
	_ZN18CMMFDevVideoRecord25SetErrorProtectionLevelsLEji @ 140 NONAME
	_ZN18CMMFDevVideoRecord25SetGlobalReferenceOptionsEjj @ 141 NONAME
	_ZN18CMMFDevVideoRecord27GetFrameStabilisationOutputEiR5TRect @ 142 NONAME
	_ZN18CMMFDevVideoRecord27SetColorEnhancementOptionsLEiRK24TColorEnhancementOptions @ 143 NONAME
	_ZN18CMMFDevVideoRecord27SetCustomPreProcessOptionsLEiRK6TDesC8 @ 144 NONAME
	_ZN18CMMFDevVideoRecord28SetLayerPromotionPointPeriodEjj @ 145 NONAME
	_ZN18CMMFDevVideoRecord29SetFrameStabilisationOptionsLEiRK5TSizei @ 146 NONAME
	_ZN18CMMFDevVideoRecord33SetCodingStandardSpecificOptionsLERK6TDesC8 @ 147 NONAME
	_ZN18CMMFDevVideoRecord34CodingStandardSpecificInitOutputLCEv @ 148 NONAME
	_ZN18CMMFDevVideoRecord34ImplementationSpecificInitOutputLCEv @ 149 NONAME
	_ZN18CMMFDevVideoRecord38CodingStandardSpecificSettingsOutputLCEv @ 150 NONAME
	_ZN18CMMFDevVideoRecord38ImplementationSpecificSettingsOutputLCEv @ 151 NONAME
	_ZN18CMMFDevVideoRecord40SetImplementationSpecificEncoderOptionsLERK6TDesC8 @ 152 NONAME
	_ZN18CMMFDevVideoRecord4NewLER26MMMFDevVideoRecordObserver @ 153 NONAME
	_ZN18CMMFDevVideoRecord4StopEv @ 154 NONAME
	_ZN18CMMFDevVideoRecord5PauseEv @ 155 NONAME
	_ZN18CMMFDevVideoRecord5StartEv @ 156 NONAME
	_ZN18CMMFDevVideoRecord6FreezeEv @ 157 NONAME
	_ZN18CMMFDevVideoRecord6ResumeEv @ 158 NONAME
	_ZN18CMMFDevVideoRecord6RevertEv @ 159 NONAME
	_ZN18CMMFDevVideoRecord7CommitLEv @ 160 NONAME
	_ZN18CMMFDevVideoRecord8InputEndEv @ 161 NONAME
	_ZN18CMMFDevVideoRecord9SliceLossEjjRK10TPictureId @ 162 NONAME
	_ZN18CMMFDevVideoRecordD0Ev @ 163 NONAME
	_ZN18CMMFDevVideoRecordD1Ev @ 164 NONAME
	_ZN18CMMFDevVideoRecordD2Ev @ 165 NONAME
	_ZN18CPostProcessorInfo4NewLE4TUidRK7TDesC16S3_8TVersionRK6TArrayI24TUncompressedVideoFormatERKS5_ImEiiRK21TYuvToRgbCapabilitiesmiRKS5_I12TScaleFactorEiRK6TDesC8 @ 166 NONAME
	_ZN18CPostProcessorInfoD0Ev @ 167 NONAME
	_ZN18CPostProcessorInfoD1Ev @ 168 NONAME
	_ZN18CPostProcessorInfoD2Ev @ 169 NONAME
	_ZN18CSystemClockSource4NewLEv @ 170 NONAME
	_ZN18CSystemClockSource5ResetERK25TTimeIntervalMicroSeconds @ 171 NONAME
	_ZN18CSystemClockSource5ResetEv @ 172 NONAME
	_ZN18CSystemClockSource6ResumeEv @ 173 NONAME
	_ZN18CSystemClockSource7SuspendEv @ 174 NONAME
	_ZN18CSystemClockSourceD0Ev @ 175 NONAME
	_ZN18CSystemClockSourceD1Ev @ 176 NONAME
	_ZN18CSystemClockSourceD2Ev @ 177 NONAME
	_ZN22CCompressedVideoFormat4NewLERK6TDesC8S2_ @ 178 NONAME
	_ZN22CCompressedVideoFormat4NewLERKS_ @ 179 NONAME
	_ZN22CCompressedVideoFormatD0Ev @ 180 NONAME
	_ZN22CCompressedVideoFormatD1Ev @ 181 NONAME
	_ZN22CCompressedVideoFormatD2Ev @ 182 NONAME
	_ZN23CMMFVideoDecodeHwDevice4NewLE4TUidR21MMMFDevVideoPlayProxy @ 183 NONAME
	_ZTV25CMMFVideoPostProcHwDevice @ 184 NONAME ; #<VT>#
	_ZN23CMMFVideoDecodeHwDeviceC2Ev @ 185 NONAME
	_ZN23CMMFVideoDecodeHwDeviceD0Ev @ 186 NONAME
	_ZN23CMMFVideoDecodeHwDeviceD1Ev @ 187 NONAME
	_ZN23CMMFVideoDecodeHwDeviceD2Ev @ 188 NONAME
	_ZN23CMMFVideoEncodeHwDevice4NewLE4TUidR23MMMFDevVideoRecordProxy @ 189 NONAME
	_ZTV24CMMFVideoPreProcHwDevice @ 190 NONAME ; #<VT>#
	_ZN23CMMFVideoEncodeHwDeviceC2Ev @ 191 NONAME
	_ZN23CMMFVideoEncodeHwDeviceD0Ev @ 192 NONAME
	_ZN23CMMFVideoEncodeHwDeviceD1Ev @ 193 NONAME
	_ZN23CMMFVideoEncodeHwDeviceD2Ev @ 194 NONAME
	_ZN24CMMFVideoPreProcHwDevice4NewLE4TUidR23MMMFDevVideoRecordProxy @ 195 NONAME
	_ZTV23CMMFVideoEncodeHwDevice @ 196 NONAME ; #<VT>#
	_ZN24CMMFVideoPreProcHwDeviceC2Ev @ 197 NONAME
	_ZN24CMMFVideoPreProcHwDeviceD0Ev @ 198 NONAME
	_ZN24CMMFVideoPreProcHwDeviceD1Ev @ 199 NONAME
	_ZN24CMMFVideoPreProcHwDeviceD2Ev @ 200 NONAME
	_ZN25CMMFVideoPostProcHwDevice4NewLE4TUidR21MMMFDevVideoPlayProxy @ 201 NONAME
	_ZTV23CMMFVideoDecodeHwDevice @ 202 NONAME ; #<VT>#
	_ZN25CMMFVideoPostProcHwDeviceC2Ev @ 203 NONAME
	_ZN25CMMFVideoPostProcHwDeviceD0Ev @ 204 NONAME
	_ZN25CMMFVideoPostProcHwDeviceD1Ev @ 205 NONAME
	_ZN25CMMFVideoPostProcHwDeviceD2Ev @ 206 NONAME
	_ZN30CMMFClockSourcePeriodicUtility4NewLER15MMMFClockSourceR38MMMFClockSourcePeriodicUtilityObserver @ 207 NONAME
	_ZN30CMMFClockSourcePeriodicUtility4StopEv @ 208 NONAME
	_ZN30CMMFClockSourcePeriodicUtility5StartE27TTimeIntervalMicroSeconds32 @ 209 NONAME
	_ZN30CMMFClockSourcePeriodicUtilityD0Ev @ 210 NONAME
	_ZN30CMMFClockSourcePeriodicUtilityD1Ev @ 211 NONAME
	_ZN30CMMFClockSourcePeriodicUtilityD2Ev @ 212 NONAME
	_ZNK17CPreProcessorInfo10IdentifierEv @ 213 NONAME
	_ZNK17CPreProcessorInfo11AcceleratedEv @ 214 NONAME
	_ZNK17CPreProcessorInfo12ManufacturerEv @ 215 NONAME
	_ZNK17CPreProcessorInfo18SupportedRgbRangesEv @ 216 NONAME
	_ZNK17CPreProcessorInfo18SupportedRotationsEv @ 217 NONAME
	_ZNK17CPreProcessorInfo19SupportsCombinationEm @ 218 NONAME
	_ZNK17CPreProcessorInfo19SupportsInputFormatERK24TUncompressedVideoFormat @ 219 NONAME
	_ZNK17CPreProcessorInfo20SupportsOutputFormatERK24TUncompressedVideoFormat @ 220 NONAME
	_ZNK17CPreProcessorInfo20YuvToYuvCapabilitiesEv @ 221 NONAME
	_ZNK17CPreProcessorInfo21SupportedCombinationsEv @ 222 NONAME
	_ZNK17CPreProcessorInfo21SupportedInputFormatsEv @ 223 NONAME
	_ZNK17CPreProcessorInfo21SupportedScaleFactorsEv @ 224 NONAME
	_ZNK17CPreProcessorInfo21SupportsDirectCaptureEv @ 225 NONAME
	_ZNK17CPreProcessorInfo22SupportedOutputFormatsEv @ 226 NONAME
	_ZNK17CPreProcessorInfo24SupportsArbitraryScalingEv @ 227 NONAME
	_ZNK17CPreProcessorInfo26ImplementationSpecificInfoEv @ 228 NONAME
	_ZNK17CPreProcessorInfo26SupportsAntiAliasedScalingEv @ 229 NONAME
	_ZNK17CPreProcessorInfo3UidEv @ 230 NONAME
	_ZNK17CPreProcessorInfo7VersionEv @ 231 NONAME
	_ZNK17CVideoDecoderInfo10IdentifierEv @ 232 NONAME
	_ZNK17CVideoDecoderInfo10MaxBitrateEv @ 233 NONAME
	_ZNK17CVideoDecoderInfo11AcceleratedEv @ 234 NONAME
	_ZNK17CVideoDecoderInfo12ManufacturerEv @ 235 NONAME
	_ZNK17CVideoDecoderInfo14MaxPictureSizeEv @ 236 NONAME
	_ZNK17CVideoDecoderInfo14SupportsFormatERK22CCompressedVideoFormat @ 237 NONAME
	_ZNK17CVideoDecoderInfo15MaxPictureRatesEv @ 238 NONAME
	_ZNK17CVideoDecoderInfo16SupportedFormatsEv @ 239 NONAME
	_ZNK17CVideoDecoderInfo17SupportsSliceLossEv @ 240 NONAME
	_ZNK17CVideoDecoderInfo19SupportsPictureLossEv @ 241 NONAME
	_ZNK17CVideoDecoderInfo21SupportsDirectDisplayEv @ 242 NONAME
	_ZNK17CVideoDecoderInfo26CodingStandardSpecificInfoEv @ 243 NONAME
	_ZNK17CVideoDecoderInfo26ImplementationSpecificInfoEv @ 244 NONAME
	_ZNK17CVideoDecoderInfo3UidEv @ 245 NONAME
	_ZNK17CVideoDecoderInfo7VersionEv @ 246 NONAME
	_ZNK17CVideoEncoderInfo10IdentifierEv @ 247 NONAME
	_ZNK17CVideoEncoderInfo10MaxBitrateEv @ 248 NONAME
	_ZNK17CVideoEncoderInfo11AcceleratedEv @ 249 NONAME
	_ZNK17CVideoEncoderInfo12ManufacturerEv @ 250 NONAME
	_ZNK17CVideoEncoderInfo14MaxPictureSizeEv @ 251 NONAME
	_ZNK17CVideoEncoderInfo15MaxPictureRatesEv @ 252 NONAME
	_ZNK17CVideoEncoderInfo16MaxBitrateLayersEv @ 253 NONAME
	_ZNK17CVideoEncoderInfo17SupportsSliceLossEv @ 254 NONAME
	_ZNK17CVideoEncoderInfo19SupportsInputFormatERK24TUncompressedVideoFormat @ 255 NONAME
	_ZNK17CVideoEncoderInfo19SupportsPictureLossEv @ 256 NONAME
	_ZNK17CVideoEncoderInfo20SupportsOutputFormatERK22CCompressedVideoFormat @ 257 NONAME
	_ZNK17CVideoEncoderInfo21SupportedInputFormatsEv @ 258 NONAME
	_ZNK17CVideoEncoderInfo21SupportsDirectCaptureEv @ 259 NONAME
	_ZNK17CVideoEncoderInfo22SupportedDataUnitTypesEv @ 260 NONAME
	_ZNK17CVideoEncoderInfo22SupportedOutputFormatsEv @ 261 NONAME
	_ZNK17CVideoEncoderInfo23SupportedPictureOptionsEv @ 262 NONAME
	_ZNK17CVideoEncoderInfo26CodingStandardSpecificInfoEv @ 263 NONAME
	_ZNK17CVideoEncoderInfo26ImplementationSpecificInfoEv @ 264 NONAME
	_ZNK17CVideoEncoderInfo26MaxInLayerScalabilityStepsEv @ 265 NONAME
	_ZNK17CVideoEncoderInfo31MaxUnequalErrorProtectionLevelsEv @ 266 NONAME
	_ZNK17CVideoEncoderInfo31SupportedDataUnitEncapsulationsEv @ 267 NONAME
	_ZNK17CVideoEncoderInfo35SupportsSupplementalEnhancementInfoEv @ 268 NONAME
	_ZNK17CVideoEncoderInfo3UidEv @ 269 NONAME
	_ZNK17CVideoEncoderInfo7VersionEv @ 270 NONAME
	_ZNK18CPostProcessorInfo10IdentifierEv @ 271 NONAME
	_ZNK18CPostProcessorInfo11AcceleratedEv @ 272 NONAME
	_ZNK18CPostProcessorInfo12ManufacturerEv @ 273 NONAME
	_ZNK18CPostProcessorInfo14SupportsFormatERK24TUncompressedVideoFormat @ 274 NONAME
	_ZNK18CPostProcessorInfo16SupportedFormatsEv @ 275 NONAME
	_ZNK18CPostProcessorInfo18AntiAliasedScalingEv @ 276 NONAME
	_ZNK18CPostProcessorInfo18SupportedRotationsEv @ 277 NONAME
	_ZNK18CPostProcessorInfo19SupportsCombinationEm @ 278 NONAME
	_ZNK18CPostProcessorInfo20YuvToRgbCapabilitiesEv @ 279 NONAME
	_ZNK18CPostProcessorInfo21SupportedCombinationsEv @ 280 NONAME
	_ZNK18CPostProcessorInfo21SupportedScaleFactorsEv @ 281 NONAME
	_ZNK18CPostProcessorInfo21SupportsDirectDisplayEv @ 282 NONAME
	_ZNK18CPostProcessorInfo24SupportsArbitraryScalingEv @ 283 NONAME
	_ZNK18CPostProcessorInfo26ImplementationSpecificInfoEv @ 284 NONAME
	_ZNK18CPostProcessorInfo3UidEv @ 285 NONAME
	_ZNK18CPostProcessorInfo7VersionEv @ 286 NONAME
	_ZNK22CCompressedVideoFormat12OptionalDataEv @ 287 NONAME
	_ZNK22CCompressedVideoFormat8MimeTypeEv @ 288 NONAME
	_ZNK22CCompressedVideoFormateqERKS_ @ 289 NONAME
	_ZTI22CCompressedVideoFormat @ 290 NONAME ; #<TI>#
	_ZTI23CMMFVideoDecodeHwDevice @ 291 NONAME ; #<TI>#
	_ZTI23CMMFVideoEncodeHwDevice @ 292 NONAME ; #<TI>#
	_ZTI24CMMFVideoPreProcHwDevice @ 293 NONAME ; #<TI>#
	_ZTI25CMMFVideoPostProcHwDevice @ 294 NONAME ; #<TI>#
	_ZTV22CCompressedVideoFormat @ 295 NONAME ; #<VT>#
	_ZTI16CMMFDevVideoPlay @ 296 NONAME ; #<TI>#
	_ZTI17CPreProcessorInfo @ 297 NONAME ; #<TI>#
	_ZTI17CVideoDecoderInfo @ 298 NONAME ; #<TI>#
	_ZTI17CVideoEncoderInfo @ 299 NONAME ; #<TI>#
	_ZTI18CMMFDevVideoRecord @ 300 NONAME ; #<TI>#
	_ZTI18CPostProcessorInfo @ 301 NONAME ; #<TI>#
	_ZTI18CSystemClockSource @ 302 NONAME ; #<TI>#
	_ZTI30CMMFClockSourcePeriodicUtility @ 303 NONAME ; #<TI>#
	_ZTV16CMMFDevVideoPlay @ 304 NONAME ; #<VT>#
	_ZTV17CPreProcessorInfo @ 305 NONAME ; #<VT>#
	_ZTV17CVideoDecoderInfo @ 306 NONAME ; #<VT>#
	_ZTV17CVideoEncoderInfo @ 307 NONAME ; #<VT>#
	_ZTV18CMMFDevVideoRecord @ 308 NONAME ; #<VT>#
	_ZTV18CPostProcessorInfo @ 309 NONAME ; #<VT>#
	_ZTV18CSystemClockSource @ 310 NONAME ; #<VT>#
	_ZTV30CMMFClockSourcePeriodicUtility @ 311 NONAME ; #<VT>#
	_ZN16CMMFDevVideoPlay17ConfigureDecoderLERK19TVideoPictureHeader @ 312 NONAME
	_ZN23CMMFVideoDecodeHwDevice13NewPuAdapterLERK26CImplementationInformationR21MMMFDevVideoPlayProxy @ 313 NONAME
	_ZN23CMMFVideoEncodeHwDevice13NewPuAdapterLERK26CImplementationInformationR23MMMFDevVideoRecordProxy @ 314 NONAME
	_ZN17CVideoDecoderInfo19AddSupportedScreenLEi @ 315 NONAME
	_ZN18CPostProcessorInfo19AddSupportedScreenLEi @ 316 NONAME
	_ZNK17CVideoDecoderInfo20GetSupportedScreensLER6RArrayIiE @ 317 NONAME
	_ZNK18CPostProcessorInfo20GetSupportedScreensLER6RArrayIiE @ 318 NONAME
	_ZN17CVideoDecoderInfo27SetSupportsContentProtectedEi @ 319 NONAME
	_ZN18CPostProcessorInfo27SetSupportsContentProtectedEi @ 320 NONAME
	_ZNK17CVideoDecoderInfo24SupportsContentProtectedEv @ 321 NONAME
	_ZNK18CPostProcessorInfo24SupportsContentProtectedEv @ 322 NONAME

