EXPORTS
	??1CHWRMPower@@UAE@XZ @ 1 NONAME ; CHWRMPower::~CHWRMPower(void)
	?GetBaseTimeIntervalL@CHWRMPower@@QAEXAAH@Z @ 2 NONAME ; void CHWRMPower::GetBaseTimeIntervalL(int &)
	?GetBatteryInfo@CHWRMPower@@QAEXAAVTRequestStatus@@AAUTBatteryConsumptionData@1@@Z @ 3 NONAME ; void CHWRMPower::GetBatteryInfo(class TRequestStatus &, struct CHWRMPower::TBatteryConsumptionData &)
	?GetBatteryVoltageInfo@CHWRMPower@@QAEXAAVTRequestStatus@@AAUTBatteryVoltageData@1@@Z @ 4 NONAME ; void CHWRMPower::GetBatteryVoltageInfo(class TRequestStatus &, struct CHWRMPower::TBatteryVoltageData &)
	?NewL@CHWRMPower@@SAPAV1@PAVMHWRMBatteryVoltageObserver@@PAVMHWRMBatteryConsumptionObserver@@@Z @ 5 NONAME ABSENT ; class CHWRMPower * CHWRMPower::NewL(class MHWRMBatteryVoltageObserver *, class MHWRMBatteryConsumptionObserver *)
	?NewLC@CHWRMPower@@SAPAV1@PAVMHWRMBatteryVoltageObserver@@PAVMHWRMBatteryConsumptionObserver@@@Z @ 6 NONAME ABSENT ; class CHWRMPower * CHWRMPower::NewLC(class MHWRMBatteryVoltageObserver *, class MHWRMBatteryConsumptionObserver *)
	?StartAverageConsumptionReporting@CHWRMPower@@QAEHAAVTRequestStatus@@W4TIntervalMultiple@1@@Z @ 7 NONAME ABSENT ; int CHWRMPower::StartAverageConsumptionReporting(class TRequestStatus &, enum CHWRMPower::TIntervalMultiple)
	?StartAverageVoltageReporting@CHWRMPower@@QAEHAAVTRequestStatus@@W4TIntervalMultiple@1@@Z @ 8 NONAME ABSENT ; int CHWRMPower::StartAverageVoltageReporting(class TRequestStatus &, enum CHWRMPower::TIntervalMultiple)
	?StopAverageConsumptionReportingL@CHWRMPower@@QAEXXZ @ 9 NONAME ABSENT ; void CHWRMPower::StopAverageConsumptionReportingL(void)
	?StopAverageVoltageReportingL@CHWRMPower@@QAEXXZ @ 10 NONAME ABSENT ; void CHWRMPower::StopAverageVoltageReportingL(void)
	?StartAverageConsumptionReporting@CHWRMPower@@QAEHAAVTRequestStatus@@ABW4TIntervalMultiple@1@@Z @ 11 NONAME ABSENT ; int CHWRMPower::StartAverageConsumptionReporting(class TRequestStatus &, enum CHWRMPower::TIntervalMultiple const &)
	?StartAverageVoltageReporting@CHWRMPower@@QAEHAAVTRequestStatus@@ABW4TIntervalMultiple@1@@Z @ 12 NONAME ABSENT ; int CHWRMPower::StartAverageVoltageReporting(class TRequestStatus &, enum CHWRMPower::TIntervalMultiple const &)
	?SetBatteryChargingObserver@CHWRMPower@@QAEHPAVMHWRMBatteryChargingStatusObserver@@PAVMHWRMBatteryChargingCurrentObserver@@PAVMHWRMBatteryFullChargingTimeObserver@@@Z @ 13 NONAME ; int CHWRMPower::SetBatteryChargingObserver(class MHWRMBatteryChargingStatusObserver *, class MHWRMBatteryChargingCurrentObserver *, class MHWRMBatteryFullChargingTimeObserver *)
	?NotifyBatteryFullChargingTime@CHWRMPower@@QAEHAAVTRequestStatus@@@Z @ 14 NONAME ; int CHWRMPower::NotifyBatteryFullChargingTime(class TRequestStatus &)
	?GetBatteryChargingStatus@CHWRMPower@@QAEHAAW4TBatteryChargingStatus@1@@Z @ 15 NONAME ; int CHWRMPower::GetBatteryChargingStatus(enum CHWRMPower::TBatteryChargingStatus &)
	?StopChargingNotificationL@CHWRMPower@@QAEXW4TBatteryChargingNotifier@1@@Z @ 16 NONAME ; void CHWRMPower::StopChargingNotificationL(enum CHWRMPower::TBatteryChargingNotifier)
	?GetBatteryChargerType@CHWRMPower@@QAEHAAW4TBatteryChargerType@1@@Z @ 17 NONAME ; int CHWRMPower::GetBatteryChargerType(enum CHWRMPower::TBatteryChargerType &)
	?NotifyAverageChargingCurrent@CHWRMPower@@QAEHAAVTRequestStatus@@ABI@Z @ 18 NONAME ; int CHWRMPower::NotifyAverageChargingCurrent(class TRequestStatus &, unsigned int const &)
	?StartAveragePowerReporting@CHWRMPower@@QAEHAAVTRequestStatus@@ABI@Z @ 19 NONAME ; int CHWRMPower::StartAveragePowerReporting(class TRequestStatus &, unsigned int const &)
	?SetPowerReportObserver@CHWRMPower@@QAEHPAVMHWRMBatteryPowerObserver@@@Z @ 20 NONAME ; int CHWRMPower::SetPowerReportObserver(class MHWRMBatteryPowerObserver *)
	?NewLC@CHWRMPower@@SAPAV1@XZ @ 21 NONAME ; class CHWRMPower * CHWRMPower::NewLC(void)
	?NewL@CHWRMPower@@SAPAV1@XZ @ 22 NONAME ; class CHWRMPower * CHWRMPower::NewL(void)
	?StopAveragePowerReportingL@CHWRMPower@@QAEXXZ @ 23 NONAME ; void CHWRMPower::StopAveragePowerReportingL(void)

