EXPORTS
	_Z12VerbosePanicRK6TDesC8PciiPhRK7TDesC16 @ 1 NONAME
	_Z20VerboseLeaveIfErrorLRK6TDesC8Pcii @ 2 NONAME
	_ZN15TFunctionLoggerC1ERK6TDesC8S2_Pv @ 3 NONAME
	_ZN15TFunctionLoggerC2ERK6TDesC8S2_Pv @ 4 NONAME
	_ZN15TFunctionLoggerD1Ev @ 5 NONAME
	_ZN15TFunctionLoggerD2Ev @ 6 NONAME
	_ZN6CBtLog11WriteFormatERK6TDesC811TRefByValueIK7TDesC16ERSt9__va_list @ 7 NONAME
	_ZN6CBtLog11WriteFormatERK6TDesC811TRefByValueIK7TDesC16Ez @ 8 NONAME
	_ZN6CBtLog11WriteFormatERK6TDesC811TRefByValueIS1_ERSt9__va_list @ 9 NONAME
	_ZN6CBtLog11WriteFormatERK6TDesC811TRefByValueIS1_Ez @ 10 NONAME
	_ZN6CBtLog5CloseEv @ 11 NONAME
	_ZN6CBtLog5WriteERK6TDesC8RK7TDesC16 @ 12 NONAME
	_ZN6CBtLog5WriteERK6TDesC8S2_ @ 13 NONAME
	_ZN6CBtLog7ConnectEv @ 14 NONAME
	_ZN6CBtLog7HexDumpERK6TDesC8PKtS4_PKhi @ 15 NONAME
	_ZN21TStaticFunctionLoggerC1ERK6TDesC8S2_ @ 16 NONAME
	_ZN21TStaticFunctionLoggerC2ERK6TDesC8S2_ @ 17 NONAME
	_ZN21TStaticFunctionLoggerD1Ev @ 18 NONAME
	_ZN21TStaticFunctionLoggerD2Ev @ 19 NONAME
	_Z13VerboseLeaveLRK6TDesC8Pcii @ 20 NONAME
	_Z15VerboseMsgPanicRK6TDesC8PciRK9RMessage2RK7TDesC16i @ 21 NONAME

