EXPORTS
	_ZN13CPosRequestor15SetRequestorIdLENS_18TRequestorIdFormatERK7TDesC16 @ 1 NONAME
	_ZN20CPosContactRequestor4NewLEN13CPosRequestor18TRequestorIdFormatERK7TDesC16 @ 2 NONAME
	_ZN20CPosContactRequestor5NewLCEN13CPosRequestor18TRequestorIdFormatERK7TDesC16 @ 3 NONAME
	_ZN20CPosServiceRequestor4NewLEN13CPosRequestor18TRequestorIdFormatERK7TDesC16 @ 4 NONAME
	_ZN20CPosServiceRequestor5NewLCEN13CPosRequestor18TRequestorIdFormatERK7TDesC16 @ 5 NONAME
	_ZNK13CPosRequestor13RequestorTypeEv @ 6 NONAME
	_ZNK13CPosRequestor17RequestorIdFormatEv @ 7 NONAME
	_ZNK13CPosRequestor17RequestorIdStringEv @ 8 NONAME
	_ZTI13CPosRequestor @ 9 NONAME ; #<TI>#
	_ZTI20CPosContactRequestor @ 10 NONAME ; #<TI>#
	_ZTI20CPosServiceRequestor @ 11 NONAME ; #<TI>#
	_ZTV13CPosRequestor @ 12 NONAME ; #<VT>#
	_ZTV20CPosContactRequestor @ 13 NONAME ; #<VT>#
	_ZTV20CPosServiceRequestor @ 14 NONAME ; #<VT>#
	_ZN18RPosRequestorStack12InternalizeLER11RReadStream @ 15 NONAME
	_ZNK18RPosRequestorStack12ExternalizeLER12RWriteStream @ 16 NONAME
	_ZN13CPosRequestor14SetNetworkTypeEm @ 17 NONAME
	_ZN13CPosRequestor14SetRequestTypeEm @ 18 NONAME
	_ZNK13CPosRequestor11NetworkTypeEv @ 19 NONAME
	_ZNK13CPosRequestor11RequestTypeEv @ 20 NONAME
	_ZN20CPosContactRequestor4NewLEN13CPosRequestor18TRequestorIdFormatERK7TDesC16mm @ 21 NONAME
	_ZN20CPosContactRequestor5NewLCEN13CPosRequestor18TRequestorIdFormatERK7TDesC16mm @ 22 NONAME
	_ZN20CPosServiceRequestor4NewLEN13CPosRequestor18TRequestorIdFormatERK7TDesC16mm @ 23 NONAME
	_ZN20CPosServiceRequestor5NewLCEN13CPosRequestor18TRequestorIdFormatERK7TDesC16mm @ 24 NONAME
	_ZN13CPosRequestorD0Ev @ 25 NONAME
	_ZN13CPosRequestorD1Ev @ 26 NONAME
	_ZN13CPosRequestorD2Ev @ 27 NONAME
	_ZN20CPosContactRequestorD0Ev @ 28 NONAME
	_ZN20CPosContactRequestorD1Ev @ 29 NONAME
	_ZN20CPosContactRequestorD2Ev @ 30 NONAME
	_ZN20CPosServiceRequestorD0Ev @ 31 NONAME
	_ZN20CPosServiceRequestorD1Ev @ 32 NONAME
	_ZN20CPosServiceRequestorD2Ev @ 33 NONAME

