EXPORTS
	??0CBitwiseBitmap@@AAE@PAVRHeap@@PAVCChunkPile@@@Z @ 1 NONAME ; private: __thiscall CBitwiseBitmap::CBitwiseBitmap(class RHeap *,class CChunkPile *)
	??0CFbsBitmap@@QAE@XZ @ 2 NONAME ; public: __thiscall CFbsBitmap::CFbsBitmap(void)
	??0CFbsFont@@IAE@ABV0@@Z @ 3 NONAME ; protected: __thiscall CFbsFont::CFbsFont(class CFbsFont const &)
	??0CFbsFont@@IAE@XZ @ 4 NONAME ; protected: __thiscall CFbsFont::CFbsFont(void)
	??0RFbsSession@@QAE@XZ @ 5 NONAME ; public: __thiscall RFbsSession::RFbsSession(void)
	??0TBitmapUtil@@QAE@PAVCFbsBitmap@@@Z @ 6 NONAME ; public: __thiscall TBitmapUtil::TBitmapUtil(class CFbsBitmap *)
	??1CBitwiseBitmap@@AAE@XZ @ 7 NONAME ; private: __thiscall CBitwiseBitmap::~CBitwiseBitmap(void)
	??1CChunkPile@@UAE@XZ @ 8 NONAME ; public: virtual __thiscall CChunkPile::~CChunkPile(void)
	??1CFbsBitmap@@UAE@XZ @ 9 NONAME ; public: virtual __thiscall CFbsBitmap::~CFbsBitmap(void)
	??1CFbsBitmapAsyncStreamer@@UAE@XZ @ 10 NONAME ; public: virtual __thiscall CFbsBitmapAsyncStreamer::~CFbsBitmapAsyncStreamer(void)
	??1CFbsFont@@MAE@XZ @ 11 NONAME ; protected: virtual __thiscall CFbsFont::~CFbsFont(void)
	??1CFbsTypefaceStore@@UAE@XZ @ 12 NONAME ; public: virtual __thiscall CFbsTypefaceStore::~CFbsTypefaceStore(void)
	??3CBitwiseBitmap@@CAXPAX@Z @ 13 NONAME ; private: static void __cdecl CBitwiseBitmap::operator delete(void *)
	?AddFile@CFbsTypefaceStore@@QAEHABVTDesC16@@AAH@Z @ 14 NONAME ; public: int __thiscall CFbsTypefaceStore::AddFile(class TDesC16 const &,int &)
	?Address@CFbsFont@@IBEPAVCBitmapFont@@XZ @ 15 NONAME ; protected: class CBitmapFont * __thiscall CFbsFont::Address(void)const 
	?Alloc@CChunkPile@@QAEPAEH@Z @ 16 NONAME ; public: unsigned char * __thiscall CChunkPile::Alloc(int)
	?DoAscentInPixels@CFbsFont@@EBEHXZ @ 17 NONAME ; int CFbsFont::DoAscentInPixels(void) const
	?DoBaselineOffsetInPixels@CFbsFont@@EBEHXZ @ 18 NONAME ; int CFbsFont::DoBaselineOffsetInPixels(void) const
	?Begin@TBitmapUtil@@QAEXABVTPoint@@@Z @ 19 NONAME ; public: void __thiscall TBitmapUtil::Begin(class TPoint const &)
	?Begin@TBitmapUtil@@QAEXABVTPoint@@ABV1@@Z @ 20 NONAME ; public: void __thiscall TBitmapUtil::Begin(class TPoint const &,class TBitmapUtil const &)
	?CallBack@RFbsSession@@QAEXXZ @ 21 NONAME ; public: void __thiscall RFbsSession::CallBack(void)
	?DoCharWidthInPixels@CFbsFont@@EBEHVTChar@@@Z @ 22 NONAME ; int CFbsFont::DoCharWidthInPixels(class TChar) const
	?CharacterMetrics@CFbsFont@@QBE?AVTCharacterMetrics@@HAAPBE@Z @ 23 NONAME ; public: class TCharacterMetrics  __thiscall CFbsFont::CharacterMetrics(int,unsigned char const * &)const 
	?ChunkBase@CChunkPile@@QBEPAEXZ @ 24 NONAME ; public: unsigned char * __thiscall CChunkPile::ChunkBase(void)const 
	?VirtualSize@CChunkPile@@SAHXZ @ 25 NONAME ; public: static int __cdecl CChunkPile::VirtualSize(void)
	?Connect@RFbsSession@@SAHXZ @ 26 NONAME ; public: static int __cdecl RFbsSession::Connect(void)
	?Construct@CBitwiseBitmap@@AAEHABVTSize@@W4TDisplayMode@@VTUid@@@Z @ 27 NONAME ; private: int __thiscall CBitwiseBitmap::Construct(class TSize const &,enum TDisplayMode,class TUid)
	?ConstructL@CBitwiseBitmap@@AAEXAAVRFs@@ABVTDesC16@@JI@Z @ 28 NONAME ; private: void __thiscall CBitwiseBitmap::ConstructL(class RFs &,class TDesC16 const &,long,unsigned int)
	?Create@CFbsBitmap@@QAEHABVTSize@@W4TDisplayMode@@@Z @ 29 NONAME ; public: int __thiscall CFbsBitmap::Create(class TSize const &,enum TDisplayMode)
	?DataAddress@CFbsBitmap@@QBEPAKXZ @ 30 NONAME ; public: unsigned long * __thiscall CFbsBitmap::DataAddress(void)const 
	?DecXPos@TBitmapUtil@@QAEXXZ @ 31 NONAME ; public: void __thiscall TBitmapUtil::DecXPos(void)
	?DecYPos@TBitmapUtil@@QAEXXZ @ 32 NONAME ; public: void __thiscall TBitmapUtil::DecYPos(void)
	?Disconnect@RFbsSession@@SAXXZ @ 33 NONAME ; public: static void __cdecl RFbsSession::Disconnect(void)
	?DisplayMode@CBitwiseBitmap@@QBE?AW4TDisplayMode@@XZ @ 34 NONAME ; public: enum TDisplayMode  __thiscall CBitwiseBitmap::DisplayMode(void)const 
	?DisplayMode@CFbsBitmap@@QBE?AW4TDisplayMode@@XZ @ 35 NONAME ; public: enum TDisplayMode  __thiscall CFbsBitmap::DisplayMode(void)const 
	?Duplicate@CFbsBitmap@@QAEHH@Z @ 36 NONAME ; public: int __thiscall CFbsBitmap::Duplicate(int)
	?Duplicate@CFbsFont@@IAEHH@Z @ 37 NONAME ; protected: int __thiscall CFbsFont::Duplicate(int)
	?End@TBitmapUtil@@QAEXXZ @ 38 NONAME ; public: void __thiscall TBitmapUtil::End(void)
	?ExternalizeL@CBitwiseBitmap@@QBEXAAVRWriteStream@@ABVCFbsBitmap@@@Z @ 39 NONAME ; public: void __thiscall CBitwiseBitmap::ExternalizeL(class RWriteStream &,class CFbsBitmap const &)const 
	?ExternalizeL@CFbsBitmap@@QBEXAAVRWriteStream@@@Z @ 40 NONAME ; public: void __thiscall CFbsBitmap::ExternalizeL(class RWriteStream &)const 
	?ExternalizeRectangleL@CBitwiseBitmap@@QBEXAAVRWriteStream@@ABVTRect@@ABVCFbsBitmap@@@Z @ 41 NONAME ; public: void __thiscall CBitwiseBitmap::ExternalizeRectangleL(class RWriteStream &,class TRect const &,class CFbsBitmap const &)const 
	?ExternalizeRectangleL@CFbsBitmap@@QBEXAAVRWriteStream@@ABVTRect@@@Z @ 42 NONAME ; public: void __thiscall CFbsBitmap::ExternalizeRectangleL(class RWriteStream &,class TRect const &)const 
	?FbsStartup@@YAHXZ @ 43 NONAME ; int __cdecl FbsStartup(void)
	?FontHeightInPixels@CFbsTypefaceStore@@QBEHHH@Z @ 44 NONAME ; public: int __thiscall CFbsTypefaceStore::FontHeightInPixels(int,int)const 
	?FontHeightInTwips@CFbsTypefaceStore@@UBEHHH@Z @ 45 NONAME ; public: virtual int __thiscall CFbsTypefaceStore::FontHeightInTwips(int,int)const 
	?DoFontSpecInTwips@CFbsFont@@EBE?AVTFontSpec@@XZ @ 46 NONAME ; class TFontSpec CFbsFont::DoFontSpecInTwips(void) const
	?Free@CChunkPile@@QAEXPAX@Z @ 47 NONAME ; public: void __thiscall CChunkPile::Free(void *)
	?DoGetCharacterData@CFbsFont@@EBE?AW4TCharacterDataAvailability@CFont@@IAAVTOpenFontCharMetrics@@AAPBEAAVTSize@@@Z @ 48 NONAME ; enum CFont::TCharacterDataAvailability CFbsFont::DoGetCharacterData(unsigned int, class TOpenFontCharMetrics &, unsigned char const * &, class TSize &) const
	?GetFaceAttrib@CFbsFont@@QBEHAAVTOpenFontFaceAttrib@@@Z @ 49 NONAME ; public: int __thiscall CFbsFont::GetFaceAttrib(class TOpenFontFaceAttrib &)const 
	?GetFontById@CFbsTypefaceStore@@QAEHAAPAVCFont@@VTUid@@ABVTAlgStyle@@@Z @ 50 NONAME ; public: int __thiscall CFbsTypefaceStore::GetFontById(class CFont * &,class TUid,class TAlgStyle const &)
	?GetFontMetrics@CFbsFont@@QBEHAAVTOpenFontMetrics@@@Z @ 51 NONAME ; public: int __thiscall CFbsFont::GetFontMetrics(class TOpenFontMetrics &)const 
	?GetNearestFontInPixels@CFbsTypefaceStore@@QAEHAAPAVCFont@@ABVTFontSpec@@@Z @ 52 NONAME ; public: int __thiscall CFbsTypefaceStore::GetNearestFontInPixels(class CFont * &,class TFontSpec const &)
	?GetNearestFontInTwips@CFbsTypefaceStore@@UAEHAAPAVCFont@@ABVTFontSpec@@@Z @ 53 NONAME ; public: virtual int __thiscall CFbsTypefaceStore::GetNearestFontInTwips(class CFont * &,class TFontSpec const &)
	?GetPalette@CFbsBitmap@@QBEHAAPAVCPalette@@@Z @ 54 NONAME ; public: int __thiscall CFbsBitmap::GetPalette(class CPalette * &)const 
	?GetPixel@CBitwiseBitmap@@QBEXAAVTRgb@@ABVTPoint@@PAKPAVCFbsRasterizer@@@Z @ 55 NONAME ; public: void __thiscall CBitwiseBitmap::GetPixel(class TRgb &,class TPoint const &,unsigned long *,class CFbsRasterizer *)const 
	?GetPixel@CFbsBitmap@@QBEXAAVTRgb@@ABVTPoint@@@Z @ 56 NONAME ; public: void __thiscall CFbsBitmap::GetPixel(class TRgb &,class TPoint const &)const 
	?GetPixel@TBitmapUtil@@QBEKXZ @ 57 NONAME ; public: unsigned long __thiscall TBitmapUtil::GetPixel(void)const 
	?GetScanLine@CBitwiseBitmap@@QBEXAAVTDes8@@ABVTPoint@@HH1W4TDisplayMode@@PAK@Z @ 58 NONAME ; public: void __thiscall CBitwiseBitmap::GetScanLine(class TDes8 &,class TPoint const &,int,int,class TPoint const &,enum TDisplayMode,unsigned long *)const 
	?GetScanLine@CFbsBitmap@@IBEXAAVTDes8@@ABVTPoint@@H1W4TDisplayMode@@@Z @ 59 NONAME ; protected: void __thiscall CFbsBitmap::GetScanLine(class TDes8 &,class TPoint const &,int,class TPoint const &,enum TDisplayMode)const 
	?GetScanLine@CFbsBitmap@@QBEXAAVTDes8@@ABVTPoint@@HW4TDisplayMode@@@Z @ 60 NONAME ; public: void __thiscall CFbsBitmap::GetScanLine(class TDes8 &,class TPoint const &,int,enum TDisplayMode)const 
	?GetSession@RFbsSession@@SAPAV1@XZ @ 61 NONAME ; public: static class RFbsSession * __cdecl RFbsSession::GetSession(void)
	?GetVerticalScanLine@CBitwiseBitmap@@QBEXAAVTDes8@@HHABVTPoint@@W4TDisplayMode@@PAKPAVCFbsRasterizer@@@Z @ 62 NONAME ; public: void __thiscall CBitwiseBitmap::GetVerticalScanLine(class TDes8 &,int,int,class TPoint const &,enum TDisplayMode,unsigned long *, class CFbsRasterizer *)const 
	?GetVerticalScanLine@CFbsBitmap@@QBEXAAVTDes8@@HABVTPoint@@W4TDisplayMode@@@Z @ 63 NONAME ; public: void __thiscall CFbsBitmap::GetVerticalScanLine(class TDes8 &,int,class TPoint const &,enum TDisplayMode)const 
	?GetVerticalScanLine@CFbsBitmap@@QBEXAAVTDes8@@HW4TDisplayMode@@@Z @ 64 NONAME ; public: void __thiscall CFbsBitmap::GetVerticalScanLine(class TDes8 &,int,enum TDisplayMode)const 
	?Handle@CFbsBitmap@@QBEHXZ @ 65 NONAME ; public: int __thiscall CFbsBitmap::Handle(void)const 
	?Handle@CFbsFont@@QBEHXZ @ 66 NONAME ; public: int __thiscall CFbsFont::Handle(void)const 
	?HasCharacter@CFbsFont@@QBEHH@Z @ 67 NONAME ; public: int __thiscall CFbsFont::HasCharacter(int)const 
	?Header@CFbsBitmap@@QBE?AVSEpocBitmapHeader@@XZ @ 68 NONAME ; public: class SEpocBitmapHeader  __thiscall CFbsBitmap::Header(void)const 
	?HeapBase@RFbsSession@@QBEPAEXZ @ 69 NONAME ; public: unsigned char * __thiscall RFbsSession::HeapBase(void)const 
	?DoHeightInPixels@CFbsFont@@EBEHXZ @ 70 NONAME ; int CFbsFont::DoHeightInPixels(void) const
	?HorizontalPixelsToTwips@CBitwiseBitmap@@QBEHH@Z @ 71 NONAME ; public: int __thiscall CBitwiseBitmap::HorizontalPixelsToTwips(int)const 
	?HorizontalPixelsToTwips@CFbsBitmap@@QBEHH@Z @ 72 NONAME ; public: int __thiscall CFbsBitmap::HorizontalPixelsToTwips(int)const 
	?HorizontalTwipsToPixels@CBitwiseBitmap@@QBEHH@Z @ 73 NONAME ; public: int __thiscall CBitwiseBitmap::HorizontalTwipsToPixels(int)const 
	?HorizontalTwipsToPixels@CFbsBitmap@@QBEHH@Z @ 74 NONAME ; public: int __thiscall CFbsBitmap::HorizontalTwipsToPixels(int)const 
	?IncXPos@TBitmapUtil@@QAEXXZ @ 75 NONAME ; public: void __thiscall TBitmapUtil::IncXPos(void)
	?IncYPos@TBitmapUtil@@QAEXXZ @ 76 NONAME ; public: void __thiscall TBitmapUtil::IncYPos(void)
	?InstallFile@CFbsTypefaceStore@@QAEHABVTDesC16@@AAH@Z @ 77 NONAME ; public: int __thiscall CFbsTypefaceStore::InstallFile(class TDesC16 const &,int &)
	?InternalizeHeaderL@CBitwiseBitmap@@SAXAAVRReadStream@@AAVSEpocBitmapHeader@@@Z @ 78 NONAME ; public: static void __cdecl CBitwiseBitmap::InternalizeHeaderL(class RReadStream &,class SEpocBitmapHeader &)
	?InternalizeL@CBitwiseBitmap@@QAEXAAVRReadStream@@@Z @ 79 NONAME ; public: void __thiscall CBitwiseBitmap::InternalizeL(class RReadStream &)
	?InternalizeL@CFbsBitmap@@QAEXAAVRReadStream@@@Z @ 80 NONAME ; public: void __thiscall CFbsBitmap::InternalizeL(class RReadStream &)
	?IsFileInRom@CFbsBitmap@@SAHABVTDesC16@@AAPAK@Z @ 81 NONAME ; public: static int __cdecl CFbsBitmap::IsFileInRom(class TDesC16 const &,unsigned long * &)
	?IsLargeBitmap@CBitwiseBitmap@@QBEHXZ @ 82 NONAME ; public: int __thiscall CBitwiseBitmap::IsLargeBitmap(void)const 
	?IsLargeBitmap@CFbsBitmap@@QBEHXZ @ 83 NONAME ; public: int __thiscall CFbsBitmap::IsLargeBitmap(void)const 
	?IsMonochrome@CBitwiseBitmap@@QBEHPAK@Z @ 84 NONAME ; public: int __thiscall CBitwiseBitmap::IsMonochrome(unsigned long *)const 
	?IsMonochrome@CFbsBitmap@@QBEHXZ @ 85 NONAME ; public: int __thiscall CFbsBitmap::IsMonochrome(void)const 
	?IsOpenFont@CFbsFont@@QBEHXZ @ 86 NONAME ; public: int __thiscall CFbsFont::IsOpenFont(void)const 
	?IsRomBitmap@CFbsBitmap@@QBEHXZ @ 87 NONAME ; public: int __thiscall CFbsBitmap::IsRomBitmap(void)const 
	?Load@CFbsBitmap@@QAEHABVTDesC16@@JH@Z @ 88 NONAME ; public: int __thiscall CFbsBitmap::Load(class TDesC16 const &,long,int)
	?Load@CFbsBitmapAsyncStreamer@@QAEHABVTDesC16@@JAAH@Z @ 89 NONAME ; public: int __thiscall CFbsBitmapAsyncStreamer::Load(class TDesC16 const &,long,int &)
	?LoadScanLinesL@CFbsBitmapAsyncStreamer@@QAEHHAAPAVCFbsBitmap@@@Z @ 90 NONAME ; public: int __thiscall CFbsBitmapAsyncStreamer::LoadScanLinesL(int,class CFbsBitmap * &)
	?LockHeap@CFbsBitmap@@QBEXH@Z @ 91 NONAME ; public: void __thiscall CFbsBitmap::LockHeap(int)const 
	?LockHeapLC@CFbsBitmap@@QBEXH@Z @ 92 NONAME ; public: void __thiscall CFbsBitmap::LockHeapLC(int)const 
	?DoMaxCharWidthInPixels@CFbsFont@@EBEHXZ @ 93 NONAME ; int CFbsFont::DoMaxCharWidthInPixels(void) const
	?DoMaxNormalCharWidthInPixels@CFbsFont@@EBEHXZ @ 94 NONAME ; int CFbsFont::DoMaxNormalCharWidthInPixels(void) const
	?NewL@CChunkPile@@SAPAV1@ABVRChunk@@@Z @ 95 NONAME ; public: static class CChunkPile * __cdecl CChunkPile::NewL(class RChunk const &)
	?NewL@CFbsBitmapAsyncStreamer@@SAPAV1@W4TMode@1@@Z @ 96 NONAME ; public: static class CFbsBitmapAsyncStreamer * __cdecl CFbsBitmapAsyncStreamer::NewL(enum CFbsBitmapAsyncStreamer::TMode)
	?NewL@CFbsTypefaceStore@@SAPAV1@PAVCGraphicsDevice@@@Z @ 97 NONAME ; public: static class CFbsTypefaceStore * __cdecl CFbsTypefaceStore::NewL(class CGraphicsDevice *)
	?NumTypefaces@CFbsTypefaceStore@@UBEHXZ @ 98 NONAME ; public: virtual int __thiscall CFbsTypefaceStore::NumTypefaces(void)const 
	?PaletteAttributes@CFbsBitmap@@QBEXAAH0@Z @ 99 NONAME ; public: void __thiscall CFbsBitmap::PaletteAttributes(int &,int &)const 
	?RawTextWidthInPixels@CFbsFont@@QBEHABVTDesC16@@@Z @ 100 NONAME ; public: int __thiscall CFbsFont::RawTextWidthInPixels(class TDesC16 const &)const 
	?RemoveFile@CFbsTypefaceStore@@QAEXH@Z @ 101 NONAME ; public: void __thiscall CFbsTypefaceStore::RemoveFile(int)
	?Reset@CBitwiseBitmap@@AAEXXZ @ 102 NONAME ; private: void __thiscall CBitwiseBitmap::Reset(void)
	?Reset@CFbsBitmap@@QAEXXZ @ 103 NONAME ; public: void __thiscall CFbsBitmap::Reset(void)
	?Reset@CFbsFont@@IAEXXZ @ 104 NONAME ; protected: void __thiscall CFbsFont::Reset(void)
	?ResetCallBack@RFbsSession@@QAEXXZ @ 105 NONAME ; public: void __thiscall RFbsSession::ResetCallBack(void)
	?CopyData@CBitwiseBitmap@@AAEHABV1@@Z @ 106 NONAME ; private: int __thiscall CBitwiseBitmap::CopyData(class CBitwiseBitmap const &)
	?Resize@CFbsBitmap@@QAEHABVTSize@@@Z @ 107 NONAME ; public: int __thiscall CFbsBitmap::Resize(class TSize const &)
	?ResourceCount@RFbsSession@@QAEHXZ @ 108 NONAME ; public: int __thiscall RFbsSession::ResourceCount(void)
	?Save@CFbsBitmap@@QAEHABVTDesC16@@@Z @ 109 NONAME ; public: int __thiscall CFbsBitmap::Save(class TDesC16 const &)
	?Save@CFbsBitmapAsyncStreamer@@QAEHABVTDesC16@@PAVCFbsBitmap@@AAJAAH@Z @ 110 NONAME ; public: int __thiscall CFbsBitmapAsyncStreamer::Save(class TDesC16 const &,class CFbsBitmap *,long &,int &)
	?SaveScanLinesL@CFbsBitmapAsyncStreamer@@QAEHH@Z @ 111 NONAME ; public: int __thiscall CFbsBitmapAsyncStreamer::SaveScanLinesL(int)
	?ScanLineAddress@CBitwiseBitmap@@QBEPAKPAKI@Z @ 112 NONAME ; public: unsigned long * __thiscall CBitwiseBitmap::ScanLineAddress(unsigned long *,unsigned int)const 
	?ScanLineLength@CFbsBitmap@@SAHHW4TDisplayMode@@@Z @ 113 NONAME ; public: static int __cdecl CFbsBitmap::ScanLineLength(int,enum TDisplayMode)
	?SendCommand@RFbsSession@@QBEHHHHHH@Z @ 114 NONAME ; public: int __thiscall RFbsSession::SendCommand(int,int,int,int,int)const 
	?SetCallBack@RFbsSession@@QAEXVTCallBack@@@Z @ 115 NONAME ; public: void __thiscall RFbsSession::SetCallBack(class TCallBack)
	?SetPalette@CFbsBitmap@@QAEXPAVCPalette@@@Z @ 116 NONAME ; public: void __thiscall CFbsBitmap::SetPalette(class CPalette *)
	?SetPixel@TBitmapUtil@@QAEXABV1@@Z @ 117 NONAME ; public: void __thiscall TBitmapUtil::SetPixel(class TBitmapUtil const &)
	?SetPixel@TBitmapUtil@@QAEXK@Z @ 118 NONAME ; public: void __thiscall TBitmapUtil::SetPixel(unsigned long)
	?SetPos@TBitmapUtil@@QAEXABVTPoint@@@Z @ 119 NONAME ; public: void __thiscall TBitmapUtil::SetPos(class TPoint const &)
	?SetScanLine@CFbsBitmap@@QBEXAAVTDes8@@H@Z @ 120 NONAME ; public: void __thiscall CFbsBitmap::SetScanLine(class TDes8 &,int)const 
	?SetSizeInTwips@CFbsBitmap@@QAEXABVTSize@@@Z @ 121 NONAME ; public: void __thiscall CFbsBitmap::SetSizeInTwips(class TSize const &)
	?SetSizeInTwips@CFbsBitmap@@QAEXPBVMGraphicsDeviceMap@@@Z @ 122 NONAME ; public: void __thiscall CFbsBitmap::SetSizeInTwips(class MGraphicsDeviceMap const *)
	?SizeInPixels@CBitwiseBitmap@@QBE?AVTSize@@XZ @ 123 NONAME ; public: class TSize  __thiscall CBitwiseBitmap::SizeInPixels(void)const 
	?SizeInPixels@CFbsBitmap@@QBE?AVTSize@@XZ @ 124 NONAME ; public: class TSize  __thiscall CFbsBitmap::SizeInPixels(void)const 
	?SizeInTwips@CBitwiseBitmap@@QBE?AVTSize@@XZ @ 125 NONAME ; public: class TSize  __thiscall CBitwiseBitmap::SizeInTwips(void)const 
	?SizeInTwips@CFbsBitmap@@QBE?AVTSize@@XZ @ 126 NONAME ; public: class TSize  __thiscall CFbsBitmap::SizeInTwips(void)const 
	?StoreL@CFbsBitmap@@SAXABVTDesC16@@HQAPBV2@QAJ@Z @ 127 NONAME ; public: static void __cdecl CFbsBitmap::StoreL(class TDesC16 const &,int,class TDesC16 const * * const,long * const)
	?StretchScanLine@CBitwiseBitmap@@QBEXAAVTDes8@@ABVTPoint@@HHHHH1W4TDisplayMode@@PAK@Z @ 128 NONAME ; public: void __thiscall CBitwiseBitmap::StretchScanLine(class TDes8 &,class TPoint const &,int,int,int,int,int,class TPoint const &,enum TDisplayMode,unsigned long *)const 
	?DoTextCount@CFbsFont@@EBEHABVTDesC16@@H@Z @ 129 NONAME ; int CFbsFont::DoTextCount(class TDesC16 const &, int) const
	?DoTextCount@CFbsFont@@EBEHABVTDesC16@@HAAH@Z @ 130 NONAME ; int CFbsFont::DoTextCount(class TDesC16 const &, int, int &) const
	?TextWidthInPixels@CFbsFont@@QBEXABVTDesC16@@AAVSCharWidth@@@Z @ 131 NONAME ; void CFbsFont::TextWidthInPixels(class TDesC16 const &, class SCharWidth &) const
	?DoTextWidthInPixels@CFbsFont@@EBEHABVTDesC16@@@Z @ 132 NONAME ; int CFbsFont::DoTextWidthInPixels(class TDesC16 const &) const
	?TypefaceSupport@CFbsTypefaceStore@@UBEXAAVTTypefaceSupport@@H@Z @ 133 NONAME ; public: virtual void __thiscall CFbsTypefaceStore::TypefaceSupport(class TTypefaceSupport &,int)const 
	?Uid@CBitwiseBitmap@@QBE?AVTUid@@XZ @ 134 NONAME ; public: class TUid  __thiscall CBitwiseBitmap::Uid(void)const 
	?UnlockHeap@CFbsBitmap@@QBEXH@Z @ 135 NONAME ; public: void __thiscall CFbsBitmap::UnlockHeap(int)const 
	?UnlockHeap@CFbsBitmap@@SAXPAX@Z @ 136 NONAME ; public: static void __cdecl CFbsBitmap::UnlockHeap(void *)
	?Version@RFbsSession@@QAE?AVTVersion@@XZ @ 137 NONAME ; public: class TVersion  __thiscall RFbsSession::Version(void)
	?VerticalPixelsToTwips@CBitwiseBitmap@@QBEHH@Z @ 138 NONAME ; public: int __thiscall CBitwiseBitmap::VerticalPixelsToTwips(int)const 
	?VerticalPixelsToTwips@CFbsBitmap@@QBEHH@Z @ 139 NONAME ; public: int __thiscall CFbsBitmap::VerticalPixelsToTwips(int)const 
	?VerticalTwipsToPixels@CBitwiseBitmap@@QBEHH@Z @ 140 NONAME ; public: int __thiscall CBitwiseBitmap::VerticalTwipsToPixels(int)const 
	?VerticalTwipsToPixels@CFbsBitmap@@QBEHH@Z @ 141 NONAME ; public: int __thiscall CFbsBitmap::VerticalTwipsToPixels(int)const 
	?CopyBitmap@CFbsColor256BitmapUtil@@QAEHPAVCFbsBitmap@@0W4TDither@1@@Z @ 142 NONAME ; public: int __thiscall CFbsColor256BitmapUtil::CopyBitmap(class CFbsBitmap *,class CFbsBitmap *,enum CFbsColor256BitmapUtil::TDither)
	?NewL@CFbsColor256BitmapUtil@@SAPAV1@PBVCPalette@@@Z @ 143 NONAME ; public: static class CFbsColor256BitmapUtil * __cdecl CFbsColor256BitmapUtil::NewL(class CPalette const *)
	?SetRomBitmapL@CFbsBitmap@@QAEXPAVCBitwiseBitmap@@AAH@Z @ 144 NONAME ; public: void __thiscall CFbsBitmap::SetRomBitmapL(class CBitwiseBitmap *,int &)
	?GetScanLine@CBitwiseBitmap@@QBEXAAVTDes8@@ABVTPoint@@HH1W4TDisplayMode@@PAKAAVTLineScanningPosition@@@Z @ 145 NONAME ; public: void __thiscall CBitwiseBitmap::GetScanLineNew(class TDes8 &,class TPoint const &,int,int,class TPoint const &,enum TDisplayMode,unsigned long *,class TLineScanningPosition &)const 
	?Compress@CFbsBitmap@@QAEHXZ @ 146 NONAME ; public: int __thiscall CFbsBitmap::Compress(void)
	?CompressData@CBitwiseBitmap@@QAEHXZ @ 147 NONAME ; public: int __thiscall CBitwiseBitmap::CompressData(void)
	?GetScanLine@CBitwiseBitmap@@QBEXAAPAKAAVTDes8@@ABVTPoint@@HH2W4TDisplayMode@@@Z @ 148 NONAME ; public: void __thiscall CBitwiseBitmap::GetScanLine(unsigned long * &,class TDes8 &,class TPoint const &,int,int,class TPoint const &,enum TDisplayMode)const 
	?GetScanLinePtr@CBitwiseBitmap@@QBEHAAPAKAAVTPoint@@HPAKAAVTLineScanningPosition@@@Z @ 149 NONAME ; public: int __thiscall CBitwiseBitmap::GetScanLinePtr(unsigned long * &,class TPoint &,int,unsigned long *,class TLineScanningPosition &)const 
	?RemoveFontFileLocksL@CFbsTypefaceStore@@SAXXZ @ 150 NONAME ; public: static void __cdecl CFbsTypefaceStore::RemoveFontFileLocksL(void)
	?SetCompressionBookmark@CBitwiseBitmap@@QAEXAAVTLineScanningPosition@@PAKPBVCFbsBitmap@@@Z @ 151 NONAME ; public: void __thiscall CBitwiseBitmap::SetCompressionBookmark(class TLineScanningPosition &,unsigned long *,class CFbsBitmap const *)
	?StretchScanLine@CBitwiseBitmap@@QBEXAAVTDes8@@ABVTPoint@@HHHHH1W4TDisplayMode@@PAKAAVTLineScanningPosition@@@Z @ 152 NONAME ; public: void __thiscall CBitwiseBitmap::StretchScanLine(class TDes8 &,class TPoint const &,int,int,int,int,int,class TPoint const &,enum TDisplayMode,unsigned long *,class TLineScanningPosition &)const 
	?IsCompressedInRAM@CBitwiseBitmap@@QBEHXZ @ 153 NONAME ; public: int __thiscall CBitwiseBitmap::IsCompressedInRAM(void)const 
	?IsCompressedInRAM@CFbsBitmap@@QBEHXZ @ 154 NONAME ; public: int __thiscall CFbsBitmap::IsCompressedInRAM(void)const 
	?LoadAndCompress@CFbsBitmap@@QAEHABVTDesC16@@JH@Z @ 155 NONAME ; public: int __thiscall CFbsBitmap::LoadAndCompress(class TDesC16 const &,long,int)
	?DummyReserved1@@YAXXZ @ 156 NONAME ; void __cdecl DummyReserved1(void)	
	?HardwareBitmapHandle@CBitwiseBitmap@@QBEHXZ @ 157 NONAME ; public: int __thiscall CBitwiseBitmap::HardwareBitmapHandle(void)const 
	?HardwareBitmapHandle@CFbsBitmap@@QBEHXZ @ 158 NONAME ; public: int __thiscall CFbsBitmap::HardwareBitmapHandle(void)const 
	?DefaultBitmapType@CFbsTypefaceStore@@QBE?AW4TGlyphBitmapType@@XZ @ 159 NONAME ; public: enum TGlyphBitmapType  __thiscall CFbsTypefaceStore::DefaultBitmapType(void)const 
	?SetDefaultBitmapType@CFbsTypefaceStore@@QBEXW4TGlyphBitmapType@@@Z @ 160 NONAME ; public: void __thiscall CFbsTypefaceStore::SetDefaultBitmapType(enum TGlyphBitmapType)const 
	?SetFontNameAliasL@CFbsTypefaceStore@@QBEXABVTDesC16@@0@Z @ 161 NONAME ; public: void __thiscall CFbsTypefaceStore::SetFontNameAliasL(class TDesC16 const &,class TDesC16 const &)const 
	?RemoveFontFileLocksL@CFbsTypefaceStore@@SAXABVTDesC16@@@Z @ 162 NONAME ; public: static void __cdecl CFbsTypefaceStore::RemoveFontFileLocksL(class TDesC16 const &)
	?RemoveFontFileLocksL@CFbsTypefaceStore@@SAXABVTDesC16@@H@Z @ 163 NONAME ; public: static void __cdecl CFbsTypefaceStore::RemoveFontFileLocksL(class TDesC16 const &,int)
	?GetScanLinePtr@CBitwiseBitmap@@QBEHAAPAKAAHAAVTPoint@@PAKAAVTLineScanningPosition@@@Z @ 164 NONAME ; public: int __thiscall CBitwiseBitmap::GetScanLinePtr(unsigned long * &,int&,class TPoint &,unsigned long *,class TLineScanningPosition &)const 
	?Load@CFbsBitmap@@QAEHABVTDesC16@@JHI@Z @ 165 NONAME ; public: int __thiscall CFbsBitmap::Load(class TDesC16 const &,long,int,unsigned int)
	?LoadAndCompress@CFbsBitmap@@QAEHABVTDesC16@@JHI@Z @ 166 NONAME ; public: int __thiscall CFbsBitmap::LoadAndCompress(class TDesC16 const &,long,int,unsigned int)
	?CreateHardwareBitmap@CFbsBitmap@@QAEHABVTSize@@W4TDisplayMode@@VTUid@@@Z @ 167 NONAME ; public: int __thiscall CFbsBitmap::CreateHardwareBitmap(class TSize const &,enum TDisplayMode,class TUid)
	?InitialDisplayMode@CFbsBitmap@@QBE?AW4TDisplayMode@@XZ @ 168 NONAME ; public: enum TDisplayMode  __thiscall CFbsBitmap::InitialDisplayMode(void)const 
	?SetDisplayMode@CFbsBitmap@@QAEHW4TDisplayMode@@@Z @ 169 NONAME ; public: int __thiscall CFbsBitmap::SetDisplayMode(enum TDisplayMode)
	?SwapWidthAndHeight@CFbsBitmap@@QAEHXZ @ 170 NONAME ; public: int __thiscall CFbsBitmap::SwapWidthAndHeight(void)
	?ConstructL@CBitwiseBitmap@@AAEXPAVCShiftedFileStore@@VTStreamId@@@Z @ 171 NONAME ; private: void __thiscall CBitwiseBitmap::ConstructL(class CShiftedFileStore *,class TStreamId)
	?ConstructL@CBitwiseBitmap@@AAEXAAVRFile@@JI@Z @ 172 NONAME ; void CBitwiseBitmap::ConstructL(class RFile &, long, unsigned int)
	?GetHeapSizes@RFbsSession@@QAEHAAH00@Z @ 173 NONAME ; int RFbsSession::GetHeapSizes(int &, int &, int &)
	?DoExtendedFunction@CFbsFont@@EBEHVTUid@@PAX@Z @ 174 NONAME ; int CFbsFont::DoExtendedFunction(class TUid, void *) const
	?GetNearestFontToDesignHeightInPixels@CFbsTypefaceStore@@QAEHAAPAVCFont@@ABVTFontSpec@@@Z @ 175 NONAME ; int CFbsTypefaceStore::GetNearestFontToDesignHeightInPixels(class CFont * &, class TFontSpec const &)
	?GetNearestFontToDesignHeightInTwips@CFbsTypefaceStore@@UAEHAAPAVCFont@@ABVTFontSpec@@@Z @ 176 NONAME ; int CFbsTypefaceStore::GetNearestFontToDesignHeightInTwips(class CFont * &, class TFontSpec const &)
	?GetNearestFontToMaxHeightInPixels@CFbsTypefaceStore@@QAEHAAPAVCFont@@ABVTFontSpec@@H@Z @ 177 NONAME ; int CFbsTypefaceStore::GetNearestFontToMaxHeightInPixels(class CFont * &, class TFontSpec const &, int)
	?GetNearestFontToMaxHeightInTwips@CFbsTypefaceStore@@UAEHAAPAVCFont@@ABVTFontSpec@@H@Z @ 178 NONAME ; int CFbsTypefaceStore::GetNearestFontToMaxHeightInTwips(class CFont * &, class TFontSpec const &, int)
	?Load@CFbsBitmap@@QAEHAAVRFile@@JH@Z @ 179 NONAME ; int CFbsBitmap::Load(class RFile &, long, int)
	?Load@CFbsBitmap@@QAEHAAVRFile@@JHI@Z @ 180 NONAME ; int CFbsBitmap::Load(class RFile &, long, int, unsigned int)
	?LoadAndCompress@CFbsBitmap@@QAEHAAVRFile@@JH@Z @ 181 NONAME ; int CFbsBitmap::LoadAndCompress(class RFile &, long, int)
	?LoadAndCompress@CFbsBitmap@@QAEHAAVRFile@@JHI@Z @ 182 NONAME ; int CFbsBitmap::LoadAndCompress(class RFile &, long, int, unsigned int)
	?Save@CFbsBitmap@@QAEHAAVRFile@@@Z @ 183 NONAME ; int CFbsBitmap::Save(class RFile &)
	?StoreL@CFbsBitmap@@SAXAAVRFile@@HQAPBVTDesC16@@QAJ@Z @ 184 NONAME ; void CFbsBitmap::StoreL(class RFile &, int, class TDesC16 const * * const, long * const)
	?IsFileInRom@CFbsBitmap@@SAHAAVRFile@@AAPAK@Z @ 185 NONAME ; int CFbsBitmap::IsFileInRom(class RFile &, unsigned long * &)
	?Connect@RFbsSession@@SAHAAVRFs@@@Z @ 186 NONAME ; int RFbsSession::Connect(class RFs &)
	?TextWidthInPixels@CFbsFont@@QBEHABVTDesC16@@@Z @ 187 NONAME ; int CFbsFont::TextWidthInPixels(class TDesC16 const &) const
	?GetDecompressionBuffer@CFbsBitmap@@SAPAVHBufC8@@H@Z @ 188 NONAME ; class HBufC8 * CFbsBitmap::GetDecompressionBuffer(int)
	?IsCompressed@CBitwiseBitmap@@QBEHXZ @ 189 NONAME ; int CBitwiseBitmap::IsCompressed(void) const
	?DataStride@CFbsBitmap@@QBEHXZ @ 190 NONAME ; int CFbsBitmap::DataStride(void) const
	?SetDefaultLanguageForMetrics@CFbsTypefaceStore@@QBEXW4TLanguage@@@Z @ 191 NONAME ; void CFbsTypefaceStore::SetDefaultLanguageForMetrics(enum TLanguage) const
	?DefragmentChunkOneStep@CChunkPile@@AAEHXZ @ 192 NONAME ABSENT ; int CChunkPile::DefragmentChunkOneStep(void)
	?DefragmentChunk@CChunkPile@@AAEXH@Z @ 193 NONAME ABSENT ; void CChunkPile::DefragmentChunk(int)
	?CheckBackgroundCompressData@CBitwiseBitmap@@QAEHXZ @ 194 NONAME ; int CBitwiseBitmap::CheckBackgroundCompressData(void)
	?DefragmentNeeded@CChunkPile@@ABEHXZ @ 195 NONAME ABSENT ; int CChunkPile::DefragmentNeeded(void) const
	?CompressInBackground@CFbsBitmap@@QAEXAAVTRequestStatus@@@Z @ 196 NONAME ; void CFbsBitmap::CompressInBackground(class TRequestStatus &)
	?CompressInBackground@CFbsBitmap@@QAEHXZ @ 197 NONAME ; int CFbsBitmap::CompressInBackground(void)
	?ReleaseTwipsCache@CFbsTypefaceStore@@QAEXXZ @ 198 NONAME ; void CFbsTypefaceStore::ReleaseTwipsCache(void)
	?DataStride@CBitwiseBitmap@@QBEHXZ @ 199 NONAME ; int CBitwiseBitmap::DataStride(void) const
	?Compress@CFbsBitmap@@QAEHW4TBitmapfileCompressionScheme@@@Z @ 200 NONAME ; int CFbsBitmap::Compress(enum TBitmapfileCompressionScheme)
	?CompressData@CBitwiseBitmap@@QAEHW4TBitmapfileCompressionScheme@@@Z @ 201 NONAME ; int CBitwiseBitmap::CompressData(enum TBitmapfileCompressionScheme)
	?CompressInBackground@CFbsBitmap@@QAEHW4TBitmapfileCompressionScheme@@@Z @ 202 NONAME ; int CFbsBitmap::CompressInBackground(enum TBitmapfileCompressionScheme)
	?CompressInBackground@CFbsBitmap@@QAEXAAVTRequestStatus@@W4TBitmapfileCompressionScheme@@@Z @ 203 NONAME ; void CFbsBitmap::CompressInBackground(class TRequestStatus &, enum TBitmapfileCompressionScheme)
	?Header@CBitwiseBitmap@@QBE?AVSEpocBitmapHeader@@XZ @ 204 NONAME ; class SEpocBitmapHeader CBitwiseBitmap::Header(void) const
	?SetSystemDefaultTypefaceNameL@CFbsTypefaceStore@@QAEXABVTDesC16@@@Z @ 205 NONAME ; void CFbsTypefaceStore::SetSystemDefaultTypefaceNameL(class TDesC16 const &)
	?GetAllBitmapHandles@CFbsBitmap@@QBEHAAV?$RArray@H@@@Z @ 206 NONAME ; int CFbsBitmap::GetAllBitmapHandles(class RArray<int> &) const
	?RegisterLinkedTypeface@CFbsTypefaceStore@@QAEHABVCLinkedTypefaceSpecification@@AAH@Z @ 207 NONAME ; int CFbsTypefaceStore::RegisterLinkedTypeface(class CLinkedTypefaceSpecification const &, int &)
	?KFbServLargeChunkGrowByShifter@@3HB @ 208 NONAME ; int const KFbServLargeChunkGrowByShifter
	?KFbServLargeChunkMinPhysicalSize@@3HB @ 209 NONAME ; int const KFbServLargeChunkMinPhysicalSize
	?KFbServLargeChunkMinVirtualSize@@3HB @ 210 NONAME ; int const KFbServLargeChunkMinVirtualSize
	?KFbServLargeChunkMaxVirtualSize@@3HB @ 211 NONAME ; int const KFbServLargeChunkMaxVirtualSize
	?KFbServLargeChunkSizeShifter@@3HB @ 212 NONAME ; int const KFbServLargeChunkSizeShifter
	?CleanAddress@CFbsBitmap@@IBEPAVCBitwiseBitmap@@XZ @ 213 NONAME ; class CBitwiseBitmap * CFbsBitmap::CleanAddress(void) const
	?BeginDataAccess@CFbsBitmap@@QBEXXZ @ 214 NONAME ; void CFbsBitmap::BeginDataAccess(void) const
	?EndDataAccess@CFbsBitmap@@QBEXH@Z @ 215 NONAME ; void CFbsBitmap::EndDataAccess(int) const
	?TextWidthInPixels@CFbsFont@@QBEHABVTDesC16@@PBVTMeasureTextInput@CFont@@@Z @ 216 NONAME ; int CFbsFont::TextWidthInPixels(class TDesC16 const &, class CFont::TMeasureTextInput const *) const
	?TextWidthInPixels@CFbsFont@@QBEXABVTDesC16@@PBVTMeasureTextInput@CFont@@AAVSCharWidth@@@Z @ 217 NONAME ; void CFbsFont::TextWidthInPixels(class TDesC16 const &, class CFont::TMeasureTextInput const *, class SCharWidth &) const
	?IsVolatile@CFbsBitmap@@QBEHXZ @ 218 NONAME ; int CFbsBitmap::IsVolatile(void) const
	?SerialNumber@CFbsBitmap@@QBE_JXZ @ 219 NONAME ; long long CFbsBitmap::SerialNumber(void) const
	?TouchCount@CFbsBitmap@@QBEHXZ @ 220 NONAME ; int CFbsBitmap::TouchCount(void) const
	?RegisterLinkedTypeface@CFbsTypefaceStore@@QAEHABVCLinkedTypefaceSpecification@@@Z @ 221 NONAME ; int CFbsTypefaceStore::RegisterLinkedTypeface(class CLinkedTypefaceSpecification const &)
	?GetLinkedTypefaceL@CFbsTypefaceStore@@QAEXAAVCLinkedTypefaceSpecification@@@Z @ 222 NONAME ; void CFbsTypefaceStore::GetLinkedTypefaceL(class CLinkedTypefaceSpecification &)
	?Rasterizer@CFbsBitmap@@SAPAVCFbsRasterizer@@XZ @ 223 NONAME ; class CFbsRasterizer * CFbsBitmap::Rasterizer(void)
	?DataSize@CFbsBitmap@@QBEHXZ @ 224 NONAME ; int CFbsBitmap::DataSize(void) const
	?CreateExtendedBitmap@CFbsBitmap@@QAEHABVTSize@@W4TDisplayMode@@VTUid@@HAAVMFbsExtendedBitmapInitializer@@@Z @ 225 NONAME ; int CFbsBitmap::CreateExtendedBitmap(class TSize const &, enum TDisplayMode, class TUid, int, class MFbsExtendedBitmapInitializer &)
	?ConstructExtended@CBitwiseBitmap@@AAEHABVTSize@@W4TDisplayMode@@VTUid@@H@Z @ 226 NONAME ; int CBitwiseBitmap::ConstructExtended(class TSize const &, enum TDisplayMode, class TUid, int)
	?ExtendedBitmapType@CFbsBitmap@@QBE?AVTUid@@XZ @ 227 NONAME ; class TUid CFbsBitmap::ExtendedBitmapType(void) const
	?CreateExtendedBitmap@CFbsBitmap@@QAEHABVTSize@@W4TDisplayMode@@VTUid@@PBXH@Z @ 228 NONAME ; int CFbsBitmap::CreateExtendedBitmap(class TSize const &, enum TDisplayMode, class TUid, void const *, int)
	?UpdateLinkedTypeface@CFbsTypefaceStore@@QAEHABVCLinkedTypefaceSpecification@@@Z @ 229 NONAME ; int CFbsTypefaceStore::UpdateLinkedTypeface(class CLinkedTypefaceSpecification const &)
	?GetExtraBuffer@CFbsBitmap@@SAPAVHBufC8@@H@Z @ 230 NONAME ; class HBufC8 * CFbsBitmap::GetExtraBuffer(int)
	?Rect@RFbsGlyphDataIterator@@QBEABVTRect@@XZ @ 231 NONAME ; class TRect const & RFbsGlyphDataIterator::Rect(void) const
	?Image@RFbsGlyphDataIterator@@QBEABVRSgImage@@XZ @ 232 NONAME ; class RSgImage const & RFbsGlyphDataIterator::Image(void) const
	??0RFbsGlyphMetricsArray@@QAE@XZ @ 233 NONAME ; RFbsGlyphMetricsArray::RFbsGlyphMetricsArray(void)
	?Count@RFbsGlyphMetricsArray@@QBEHXZ @ 234 NONAME ; int RFbsGlyphMetricsArray::Count(void) const
	?Next@RFbsGlyphDataIterator@@QAEHXZ @ 235 NONAME ; int RFbsGlyphDataIterator::Next(void)
	?Metrics@RFbsGlyphDataIterator@@QBEABVTOpenFontCharMetrics@@XZ @ 236 NONAME ; class TOpenFontCharMetrics const & RFbsGlyphDataIterator::Metrics(void) const
	?Close@RFbsGlyphMetricsArray@@QAEXXZ @ 237 NONAME ; void RFbsGlyphMetricsArray::Close(void)
	??0RFbsGlyphDataIterator@@QAE@XZ @ 238 NONAME ; RFbsGlyphDataIterator::RFbsGlyphDataIterator(void)
	??ARFbsGlyphMetricsArray@@QBEABVTOpenFontCharMetrics@@H@Z @ 239 NONAME ; class TOpenFontCharMetrics const & RFbsGlyphMetricsArray::operator[](int) const
	?GlyphCode@RFbsGlyphDataIterator@@QBEIXZ @ 240 NONAME ; unsigned int RFbsGlyphDataIterator::GlyphCode(void) const
	?Close@RFbsGlyphDataIterator@@QAEXXZ @ 241 NONAME ; void RFbsGlyphDataIterator::Close(void)
	?Get@RFbsGlyphMetricsArray@@QAEHAAVCFbsFont@@PBIH@Z @ 242 NONAME ; int RFbsGlyphMetricsArray::Get(class CFbsFont &, unsigned int const *, int)
	?Open@RFbsGlyphDataIterator@@QAEHAAVCFbsFont@@PBIH@Z @ 243 NONAME ; int RFbsGlyphDataIterator::Open(class CFbsFont &, unsigned int const *, int)
	?GetGlyphCacheMetrics@RFbsSession@@QAEHAAVTGlyphCacheMetrics@@@Z @ 244 NONAME ; int RFbsSession::GetGlyphCacheMetrics(class TGlyphCacheMetrics &)
	?ConveyOogmMessage@RFbsSession@@QAEHAAVTFbsOogmMessage@@@Z @ 245 NONAME ; int RFbsSession::ConveyOogmMessage(class TFbsOogmMessage &)

