EXPORTS
	_Z19NewTestSmsCapsSuitev @ 1 NONAME
	_ZTI16CSmsCapsSmsWrite @ 2 NONAME ; #<TI>#
	_ZTI16CSmsCapsTestStep @ 3 NONAME ; #<TI>#
	_ZTI16CSmsCapsWapIoctl @ 4 NONAME ; #<TI>#
	_ZTI16CSmsCapsWapWrite @ 5 NONAME ; #<TI>#
	_ZTI17CTestSmsCapsSuite @ 6 NONAME ; #<TI>#
	_ZTI20CSmsCapsWapSetOption @ 7 NONAME ; #<TI>#
	_ZTI23CSmsCapsSmsIoctlSendSms @ 8 NONAME ; #<TI>#
	_ZTI23CSmsCapsSmsSetLocalName @ 9 NONAME ; #<TI>#
	_ZTI23CSmsCapsWapSetLocalName @ 10 NONAME ; #<TI>#
	_ZTI24CSmsCapsSmsIoctlWriteSms @ 11 NONAME ; #<TI>#
	_ZTI25CSmsCapsSmsIoctlDeleteSms @ 12 NONAME ; #<TI>#
	_ZTI28CSmsCapsSmsIoctlEnumerateSms @ 13 NONAME ; #<TI>#
	_ZTI29CSmsCapsSmsIoctlReadFailedSms @ 14 NONAME ; #<TI>#
	_ZTI29CSmsCapsSmsIoctlReadParamsSms @ 15 NONAME ; #<TI>#
	_ZTI30CSmsCapsSmsIoctlWriteParamsSms @ 16 NONAME ; #<TI>#
	_ZTI32CSmsCapsSmsIoctlReadSucceededSms @ 17 NONAME ; #<TI>#
	_ZTI37CSmsCapsSmsIoctlCompleteReadParamsSms @ 18 NONAME ; #<TI>#
	_ZTV16CSmsCapsSmsWrite @ 19 NONAME ; #<VT>#
	_ZTV16CSmsCapsTestStep @ 20 NONAME ; #<VT>#
	_ZTV16CSmsCapsWapIoctl @ 21 NONAME ; #<VT>#
	_ZTV16CSmsCapsWapWrite @ 22 NONAME ; #<VT>#
	_ZTV17CTestSmsCapsSuite @ 23 NONAME ; #<VT>#
	_ZTV20CSmsCapsWapSetOption @ 24 NONAME ; #<VT>#
	_ZTV23CSmsCapsSmsIoctlSendSms @ 25 NONAME ; #<VT>#
	_ZTV23CSmsCapsSmsSetLocalName @ 26 NONAME ; #<VT>#
	_ZTV23CSmsCapsWapSetLocalName @ 27 NONAME ; #<VT>#
	_ZTV24CSmsCapsSmsIoctlWriteSms @ 28 NONAME ; #<VT>#
	_ZTV25CSmsCapsSmsIoctlDeleteSms @ 29 NONAME ; #<VT>#
	_ZTV28CSmsCapsSmsIoctlEnumerateSms @ 30 NONAME ; #<VT>#
	_ZTV29CSmsCapsSmsIoctlReadFailedSms @ 31 NONAME ; #<VT>#
	_ZTV29CSmsCapsSmsIoctlReadParamsSms @ 32 NONAME ; #<VT>#
	_ZTV30CSmsCapsSmsIoctlWriteParamsSms @ 33 NONAME ; #<VT>#
	_ZTV32CSmsCapsSmsIoctlReadSucceededSms @ 34 NONAME ; #<VT>#
	_ZTV37CSmsCapsSmsIoctlCompleteReadParamsSms @ 35 NONAME ; #<VT>#

