EXPORTS
	??1CSbcEncoderIntfcProxy@@UAE@XZ @ 1 NONAME ; CSbcEncoderIntfcProxy::~CSbcEncoderIntfcProxy(void)
	?ApplyConfig@CSbcEncoderIntfcProxy@@UAEHXZ @ 2 NONAME ; int CSbcEncoderIntfcProxy::ApplyConfig(void)
	?GetAllocationMethod@CSbcEncoderIntfcProxy@@UAEHAAW4TSbcAllocationMethod@CSbcEncoderIntfc@@@Z @ 3 NONAME ; int CSbcEncoderIntfcProxy::GetAllocationMethod(enum CSbcEncoderIntfc::TSbcAllocationMethod &)
	?GetBitpoolSize@CSbcEncoderIntfcProxy@@UAEHAAI@Z @ 4 NONAME ; int CSbcEncoderIntfcProxy::GetBitpoolSize(unsigned int &)
	?GetChannelMode@CSbcEncoderIntfcProxy@@UAEHAAW4TSbcChannelMode@CSbcEncoderIntfc@@@Z @ 5 NONAME ; int CSbcEncoderIntfcProxy::GetChannelMode(enum CSbcEncoderIntfc::TSbcChannelMode &)
	?GetNumOfBlocks@CSbcEncoderIntfcProxy@@UAEHAAI@Z @ 6 NONAME ; int CSbcEncoderIntfcProxy::GetNumOfBlocks(unsigned int &)
	?GetNumOfSubbands@CSbcEncoderIntfcProxy@@UAEHAAI@Z @ 7 NONAME ; int CSbcEncoderIntfcProxy::GetNumOfSubbands(unsigned int &)
	?GetSamplingFrequency@CSbcEncoderIntfcProxy@@UAEHAAI@Z @ 8 NONAME ; int CSbcEncoderIntfcProxy::GetSamplingFrequency(unsigned int &)
	?GetSupportedAllocationMethods@CSbcEncoderIntfcProxy@@UAEHAAV?$RArray@W4TSbcAllocationMethod@CSbcEncoderIntfc@@@@@Z @ 9 NONAME ; int CSbcEncoderIntfcProxy::GetSupportedAllocationMethods(class RArray<enum CSbcEncoderIntfc::TSbcAllocationMethod> &)
	?GetSupportedBitpoolRange@CSbcEncoderIntfcProxy@@UAEHAAI0@Z @ 10 NONAME ; int CSbcEncoderIntfcProxy::GetSupportedBitpoolRange(unsigned int &, unsigned int &)
	?GetSupportedChannelModes@CSbcEncoderIntfcProxy@@UAEHAAV?$RArray@W4TSbcChannelMode@CSbcEncoderIntfc@@@@@Z @ 11 NONAME ; int CSbcEncoderIntfcProxy::GetSupportedChannelModes(class RArray<enum CSbcEncoderIntfc::TSbcChannelMode> &)
	?GetSupportedNumOfBlocks@CSbcEncoderIntfcProxy@@UAEHAAV?$RArray@I@@@Z @ 12 NONAME ; int CSbcEncoderIntfcProxy::GetSupportedNumOfBlocks(class RArray<unsigned int> &)
	?GetSupportedNumOfSubbands@CSbcEncoderIntfcProxy@@UAEHAAV?$RArray@I@@@Z @ 13 NONAME ; int CSbcEncoderIntfcProxy::GetSupportedNumOfSubbands(class RArray<unsigned int> &)
	?GetSupportedSamplingFrequencies@CSbcEncoderIntfcProxy@@UAEHAAV?$RArray@I@@@Z @ 14 NONAME ; int CSbcEncoderIntfcProxy::GetSupportedSamplingFrequencies(class RArray<unsigned int> &)
	?NewL@CSbcEncoderIntfcProxy@@SAPAV1@V?$TPckgBuf@VTMMFMessageDestination@@@@AAVMCustomCommand@@PAVCCustomInterfaceUtility@@@Z @ 15 NONAME ; class CSbcEncoderIntfcProxy * CSbcEncoderIntfcProxy::NewL(class TPckgBuf<class TMMFMessageDestination>, class MCustomCommand &, class CCustomInterfaceUtility *)
	?SetAllocationMethod@CSbcEncoderIntfcProxy@@UAEXW4TSbcAllocationMethod@CSbcEncoderIntfc@@@Z @ 16 NONAME ; void CSbcEncoderIntfcProxy::SetAllocationMethod(enum CSbcEncoderIntfc::TSbcAllocationMethod)
	?SetBitpoolSize@CSbcEncoderIntfcProxy@@UAEXI@Z @ 17 NONAME ; void CSbcEncoderIntfcProxy::SetBitpoolSize(unsigned int)
	?SetChannelMode@CSbcEncoderIntfcProxy@@UAEXW4TSbcChannelMode@CSbcEncoderIntfc@@@Z @ 18 NONAME ; void CSbcEncoderIntfcProxy::SetChannelMode(enum CSbcEncoderIntfc::TSbcChannelMode)
	?SetNumOfBlocks@CSbcEncoderIntfcProxy@@UAEXI@Z @ 19 NONAME ; void CSbcEncoderIntfcProxy::SetNumOfBlocks(unsigned int)
	?SetNumOfSubbands@CSbcEncoderIntfcProxy@@UAEXI@Z @ 20 NONAME ; void CSbcEncoderIntfcProxy::SetNumOfSubbands(unsigned int)
	?SetSamplingFrequency@CSbcEncoderIntfcProxy@@UAEXI@Z @ 21 NONAME ; void CSbcEncoderIntfcProxy::SetSamplingFrequency(unsigned int)

