EXPORTS
	??1CRemConCoreApiController@@UAE@XZ @ 1 NONAME ; CRemConCoreApiController::~CRemConCoreApiController(void)
	??1CRemConCoreApiTarget@@UAE@XZ @ 2 NONAME ; CRemConCoreApiTarget::~CRemConCoreApiTarget(void)
	?Angle@CRemConCoreApiController@@QAEXAAVTRequestStatus@@AAIW4TRemConCoreApiButtonAction@@@Z @ 3 NONAME ; void CRemConCoreApiController::Angle(class TRequestStatus &, unsigned int &, enum TRemConCoreApiButtonAction)
	?AngleResponse@CRemConCoreApiTarget@@QAEXAAVTRequestStatus@@H@Z @ 4 NONAME ; void CRemConCoreApiTarget::AngleResponse(class TRequestStatus &, int)
	?Backward@CRemConCoreApiController@@QAEXAAVTRequestStatus@@AAIW4TRemConCoreApiButtonAction@@@Z @ 5 NONAME ; void CRemConCoreApiController::Backward(class TRequestStatus &, unsigned int &, enum TRemConCoreApiButtonAction)
	?BackwardResponse@CRemConCoreApiTarget@@QAEXAAVTRequestStatus@@H@Z @ 6 NONAME ; void CRemConCoreApiTarget::BackwardResponse(class TRequestStatus &, int)
	?ChannelDown@CRemConCoreApiController@@QAEXAAVTRequestStatus@@AAIW4TRemConCoreApiButtonAction@@@Z @ 7 NONAME ; void CRemConCoreApiController::ChannelDown(class TRequestStatus &, unsigned int &, enum TRemConCoreApiButtonAction)
	?ChannelDownResponse@CRemConCoreApiTarget@@QAEXAAVTRequestStatus@@H@Z @ 8 NONAME ; void CRemConCoreApiTarget::ChannelDownResponse(class TRequestStatus &, int)
	?ChannelUp@CRemConCoreApiController@@QAEXAAVTRequestStatus@@AAIW4TRemConCoreApiButtonAction@@@Z @ 9 NONAME ; void CRemConCoreApiController::ChannelUp(class TRequestStatus &, unsigned int &, enum TRemConCoreApiButtonAction)
	?ChannelUpResponse@CRemConCoreApiTarget@@QAEXAAVTRequestStatus@@H@Z @ 10 NONAME ; void CRemConCoreApiTarget::ChannelUpResponse(class TRequestStatus &, int)
	?Clear@CRemConCoreApiController@@QAEXAAVTRequestStatus@@AAIW4TRemConCoreApiButtonAction@@@Z @ 11 NONAME ; void CRemConCoreApiController::Clear(class TRequestStatus &, unsigned int &, enum TRemConCoreApiButtonAction)
	?ClearResponse@CRemConCoreApiTarget@@QAEXAAVTRequestStatus@@H@Z @ 12 NONAME ; void CRemConCoreApiTarget::ClearResponse(class TRequestStatus &, int)
	?ContentsMenu@CRemConCoreApiController@@QAEXAAVTRequestStatus@@AAIW4TRemConCoreApiButtonAction@@@Z @ 13 NONAME ; void CRemConCoreApiController::ContentsMenu(class TRequestStatus &, unsigned int &, enum TRemConCoreApiButtonAction)
	?ContentsMenuResponse@CRemConCoreApiTarget@@QAEXAAVTRequestStatus@@H@Z @ 14 NONAME ; void CRemConCoreApiTarget::ContentsMenuResponse(class TRequestStatus &, int)
	?DisplayInformation@CRemConCoreApiController@@QAEXAAVTRequestStatus@@AAIW4TRemConCoreApiButtonAction@@@Z @ 15 NONAME ; void CRemConCoreApiController::DisplayInformation(class TRequestStatus &, unsigned int &, enum TRemConCoreApiButtonAction)
	?DisplayInformationResponse@CRemConCoreApiTarget@@QAEXAAVTRequestStatus@@H@Z @ 16 NONAME ; void CRemConCoreApiTarget::DisplayInformationResponse(class TRequestStatus &, int)
	?Dot@CRemConCoreApiController@@QAEXAAVTRequestStatus@@AAIW4TRemConCoreApiButtonAction@@@Z @ 17 NONAME ; void CRemConCoreApiController::Dot(class TRequestStatus &, unsigned int &, enum TRemConCoreApiButtonAction)
	?DotResponse@CRemConCoreApiTarget@@QAEXAAVTRequestStatus@@H@Z @ 18 NONAME ; void CRemConCoreApiTarget::DotResponse(class TRequestStatus &, int)
	?Down@CRemConCoreApiController@@QAEXAAVTRequestStatus@@AAIW4TRemConCoreApiButtonAction@@@Z @ 19 NONAME ; void CRemConCoreApiController::Down(class TRequestStatus &, unsigned int &, enum TRemConCoreApiButtonAction)
	?DownResponse@CRemConCoreApiTarget@@QAEXAAVTRequestStatus@@H@Z @ 20 NONAME ; void CRemConCoreApiTarget::DownResponse(class TRequestStatus &, int)
	?Eject@CRemConCoreApiController@@QAEXAAVTRequestStatus@@AAIW4TRemConCoreApiButtonAction@@@Z @ 21 NONAME ; void CRemConCoreApiController::Eject(class TRequestStatus &, unsigned int &, enum TRemConCoreApiButtonAction)
	?EjectResponse@CRemConCoreApiTarget@@QAEXAAVTRequestStatus@@H@Z @ 22 NONAME ; void CRemConCoreApiTarget::EjectResponse(class TRequestStatus &, int)
	?Enter@CRemConCoreApiController@@QAEXAAVTRequestStatus@@AAIW4TRemConCoreApiButtonAction@@@Z @ 23 NONAME ; void CRemConCoreApiController::Enter(class TRequestStatus &, unsigned int &, enum TRemConCoreApiButtonAction)
	?EnterResponse@CRemConCoreApiTarget@@QAEXAAVTRequestStatus@@H@Z @ 24 NONAME ; void CRemConCoreApiTarget::EnterResponse(class TRequestStatus &, int)
	?Exit@CRemConCoreApiController@@QAEXAAVTRequestStatus@@AAIW4TRemConCoreApiButtonAction@@@Z @ 25 NONAME ; void CRemConCoreApiController::Exit(class TRequestStatus &, unsigned int &, enum TRemConCoreApiButtonAction)
	?ExitResponse@CRemConCoreApiTarget@@QAEXAAVTRequestStatus@@H@Z @ 26 NONAME ; void CRemConCoreApiTarget::ExitResponse(class TRequestStatus &, int)
	?F1@CRemConCoreApiController@@QAEXAAVTRequestStatus@@AAIW4TRemConCoreApiButtonAction@@@Z @ 27 NONAME ; void CRemConCoreApiController::F1(class TRequestStatus &, unsigned int &, enum TRemConCoreApiButtonAction)
	?F1Response@CRemConCoreApiTarget@@QAEXAAVTRequestStatus@@H@Z @ 28 NONAME ; void CRemConCoreApiTarget::F1Response(class TRequestStatus &, int)
	?F2@CRemConCoreApiController@@QAEXAAVTRequestStatus@@AAIW4TRemConCoreApiButtonAction@@@Z @ 29 NONAME ; void CRemConCoreApiController::F2(class TRequestStatus &, unsigned int &, enum TRemConCoreApiButtonAction)
	?F2Response@CRemConCoreApiTarget@@QAEXAAVTRequestStatus@@H@Z @ 30 NONAME ; void CRemConCoreApiTarget::F2Response(class TRequestStatus &, int)
	?F3@CRemConCoreApiController@@QAEXAAVTRequestStatus@@AAIW4TRemConCoreApiButtonAction@@@Z @ 31 NONAME ; void CRemConCoreApiController::F3(class TRequestStatus &, unsigned int &, enum TRemConCoreApiButtonAction)
	?F3Response@CRemConCoreApiTarget@@QAEXAAVTRequestStatus@@H@Z @ 32 NONAME ; void CRemConCoreApiTarget::F3Response(class TRequestStatus &, int)
	?F4@CRemConCoreApiController@@QAEXAAVTRequestStatus@@AAIW4TRemConCoreApiButtonAction@@@Z @ 33 NONAME ; void CRemConCoreApiController::F4(class TRequestStatus &, unsigned int &, enum TRemConCoreApiButtonAction)
	?F4Response@CRemConCoreApiTarget@@QAEXAAVTRequestStatus@@H@Z @ 34 NONAME ; void CRemConCoreApiTarget::F4Response(class TRequestStatus &, int)
	?F5@CRemConCoreApiController@@QAEXAAVTRequestStatus@@AAIW4TRemConCoreApiButtonAction@@@Z @ 35 NONAME ; void CRemConCoreApiController::F5(class TRequestStatus &, unsigned int &, enum TRemConCoreApiButtonAction)
	?F5Response@CRemConCoreApiTarget@@QAEXAAVTRequestStatus@@H@Z @ 36 NONAME ; void CRemConCoreApiTarget::F5Response(class TRequestStatus &, int)
	?FastForward@CRemConCoreApiController@@QAEXAAVTRequestStatus@@AAIW4TRemConCoreApiButtonAction@@@Z @ 37 NONAME ; void CRemConCoreApiController::FastForward(class TRequestStatus &, unsigned int &, enum TRemConCoreApiButtonAction)
	?FastForwardResponse@CRemConCoreApiTarget@@QAEXAAVTRequestStatus@@H@Z @ 38 NONAME ; void CRemConCoreApiTarget::FastForwardResponse(class TRequestStatus &, int)
	?FavoriteMenu@CRemConCoreApiController@@QAEXAAVTRequestStatus@@AAIW4TRemConCoreApiButtonAction@@@Z @ 39 NONAME ; void CRemConCoreApiController::FavoriteMenu(class TRequestStatus &, unsigned int &, enum TRemConCoreApiButtonAction)
	?FavoriteMenuResponse@CRemConCoreApiTarget@@QAEXAAVTRequestStatus@@H@Z @ 40 NONAME ; void CRemConCoreApiTarget::FavoriteMenuResponse(class TRequestStatus &, int)
	?Forward@CRemConCoreApiController@@QAEXAAVTRequestStatus@@AAIW4TRemConCoreApiButtonAction@@@Z @ 41 NONAME ; void CRemConCoreApiController::Forward(class TRequestStatus &, unsigned int &, enum TRemConCoreApiButtonAction)
	?ForwardResponse@CRemConCoreApiTarget@@QAEXAAVTRequestStatus@@H@Z @ 42 NONAME ; void CRemConCoreApiTarget::ForwardResponse(class TRequestStatus &, int)
	?Help@CRemConCoreApiController@@QAEXAAVTRequestStatus@@AAIW4TRemConCoreApiButtonAction@@@Z @ 43 NONAME ; void CRemConCoreApiController::Help(class TRequestStatus &, unsigned int &, enum TRemConCoreApiButtonAction)
	?HelpResponse@CRemConCoreApiTarget@@QAEXAAVTRequestStatus@@H@Z @ 44 NONAME ; void CRemConCoreApiTarget::HelpResponse(class TRequestStatus &, int)
	?InputSelect@CRemConCoreApiController@@QAEXAAVTRequestStatus@@AAIW4TRemConCoreApiButtonAction@@@Z @ 45 NONAME ; void CRemConCoreApiController::InputSelect(class TRequestStatus &, unsigned int &, enum TRemConCoreApiButtonAction)
	?InputSelectResponse@CRemConCoreApiTarget@@QAEXAAVTRequestStatus@@H@Z @ 46 NONAME ; void CRemConCoreApiTarget::InputSelectResponse(class TRequestStatus &, int)
	?Left@CRemConCoreApiController@@QAEXAAVTRequestStatus@@AAIW4TRemConCoreApiButtonAction@@@Z @ 47 NONAME ; void CRemConCoreApiController::Left(class TRequestStatus &, unsigned int &, enum TRemConCoreApiButtonAction)
	?LeftDown@CRemConCoreApiController@@QAEXAAVTRequestStatus@@AAIW4TRemConCoreApiButtonAction@@@Z @ 48 NONAME ; void CRemConCoreApiController::LeftDown(class TRequestStatus &, unsigned int &, enum TRemConCoreApiButtonAction)
	?LeftDownResponse@CRemConCoreApiTarget@@QAEXAAVTRequestStatus@@H@Z @ 49 NONAME ; void CRemConCoreApiTarget::LeftDownResponse(class TRequestStatus &, int)
	?LeftResponse@CRemConCoreApiTarget@@QAEXAAVTRequestStatus@@H@Z @ 50 NONAME ; void CRemConCoreApiTarget::LeftResponse(class TRequestStatus &, int)
	?LeftUp@CRemConCoreApiController@@QAEXAAVTRequestStatus@@AAIW4TRemConCoreApiButtonAction@@@Z @ 51 NONAME ; void CRemConCoreApiController::LeftUp(class TRequestStatus &, unsigned int &, enum TRemConCoreApiButtonAction)
	?LeftUpResponse@CRemConCoreApiTarget@@QAEXAAVTRequestStatus@@H@Z @ 52 NONAME ; void CRemConCoreApiTarget::LeftUpResponse(class TRequestStatus &, int)
	?MrccacoResponse@MRemConCoreApiControllerObserver@@UAEXW4TRemConCoreApiOperationId@@H@Z @ 53 NONAME ; void MRemConCoreApiControllerObserver::MrccacoResponse(enum TRemConCoreApiOperationId, int)
	?MrccatoCommand@MRemConCoreApiTargetObserver@@UAEXW4TRemConCoreApiOperationId@@W4TRemConCoreApiButtonAction@@@Z @ 54 NONAME ; void MRemConCoreApiTargetObserver::MrccatoCommand(enum TRemConCoreApiOperationId, enum TRemConCoreApiButtonAction)
	?MrccatoPlay@MRemConCoreApiTargetObserver@@UAEXW4TRemConCoreApiPlaybackSpeed@@W4TRemConCoreApiButtonAction@@@Z @ 55 NONAME ; void MRemConCoreApiTargetObserver::MrccatoPlay(enum TRemConCoreApiPlaybackSpeed, enum TRemConCoreApiButtonAction)
	?MrccatoSelectAudioInputFunction@MRemConCoreApiTargetObserver@@UAEXEW4TRemConCoreApiButtonAction@@@Z @ 56 NONAME ; void MRemConCoreApiTargetObserver::MrccatoSelectAudioInputFunction(unsigned char, enum TRemConCoreApiButtonAction)
	?MrccatoSelectAvInputFunction@MRemConCoreApiTargetObserver@@UAEXEW4TRemConCoreApiButtonAction@@@Z @ 57 NONAME ; void MRemConCoreApiTargetObserver::MrccatoSelectAvInputFunction(unsigned char, enum TRemConCoreApiButtonAction)
	?MrccatoSelectDiskFunction@MRemConCoreApiTargetObserver@@UAEXIW4TRemConCoreApiButtonAction@@@Z @ 58 NONAME ; void MRemConCoreApiTargetObserver::MrccatoSelectDiskFunction(unsigned int, enum TRemConCoreApiButtonAction)
	?MrccatoTuneFunction@MRemConCoreApiTargetObserver@@UAEXHIIW4TRemConCoreApiButtonAction@@@Z @ 59 NONAME ; void MRemConCoreApiTargetObserver::MrccatoTuneFunction(int, unsigned int, unsigned int, enum TRemConCoreApiButtonAction)
	?Mute@CRemConCoreApiController@@QAEXAAVTRequestStatus@@AAIW4TRemConCoreApiButtonAction@@@Z @ 60 NONAME ; void CRemConCoreApiController::Mute(class TRequestStatus &, unsigned int &, enum TRemConCoreApiButtonAction)
	?MuteResponse@CRemConCoreApiTarget@@QAEXAAVTRequestStatus@@H@Z @ 61 NONAME ; void CRemConCoreApiTarget::MuteResponse(class TRequestStatus &, int)
	?NewL@CRemConCoreApiController@@SAPAV1@AAVCRemConInterfaceSelector@@AAVMRemConCoreApiControllerObserver@@@Z @ 62 NONAME ; class CRemConCoreApiController * CRemConCoreApiController::NewL(class CRemConInterfaceSelector &, class MRemConCoreApiControllerObserver &)
	?NewL@CRemConCoreApiTarget@@SAPAV1@AAVCRemConInterfaceSelector@@AAVMRemConCoreApiTargetObserver@@@Z @ 63 NONAME ; class CRemConCoreApiTarget * CRemConCoreApiTarget::NewL(class CRemConInterfaceSelector &, class MRemConCoreApiTargetObserver &)
	?PageDown@CRemConCoreApiController@@QAEXAAVTRequestStatus@@AAIW4TRemConCoreApiButtonAction@@@Z @ 64 NONAME ; void CRemConCoreApiController::PageDown(class TRequestStatus &, unsigned int &, enum TRemConCoreApiButtonAction)
	?PageDownResponse@CRemConCoreApiTarget@@QAEXAAVTRequestStatus@@H@Z @ 65 NONAME ; void CRemConCoreApiTarget::PageDownResponse(class TRequestStatus &, int)
	?PageUp@CRemConCoreApiController@@QAEXAAVTRequestStatus@@AAIW4TRemConCoreApiButtonAction@@@Z @ 66 NONAME ; void CRemConCoreApiController::PageUp(class TRequestStatus &, unsigned int &, enum TRemConCoreApiButtonAction)
	?PageUpResponse@CRemConCoreApiTarget@@QAEXAAVTRequestStatus@@H@Z @ 67 NONAME ; void CRemConCoreApiTarget::PageUpResponse(class TRequestStatus &, int)
	?Pause@CRemConCoreApiController@@QAEXAAVTRequestStatus@@AAIW4TRemConCoreApiButtonAction@@@Z @ 68 NONAME ; void CRemConCoreApiController::Pause(class TRequestStatus &, unsigned int &, enum TRemConCoreApiButtonAction)
	?PausePlayFunction@CRemConCoreApiController@@QAEXAAVTRequestStatus@@AAIW4TRemConCoreApiButtonAction@@@Z @ 69 NONAME ; void CRemConCoreApiController::PausePlayFunction(class TRequestStatus &, unsigned int &, enum TRemConCoreApiButtonAction)
	?PausePlayFunctionResponse@CRemConCoreApiTarget@@QAEXAAVTRequestStatus@@H@Z @ 70 NONAME ; void CRemConCoreApiTarget::PausePlayFunctionResponse(class TRequestStatus &, int)
	?PauseResponse@CRemConCoreApiTarget@@QAEXAAVTRequestStatus@@H@Z @ 71 NONAME ; void CRemConCoreApiTarget::PauseResponse(class TRequestStatus &, int)
	?Play@CRemConCoreApiController@@QAEXAAVTRequestStatus@@AAIW4TRemConCoreApiButtonAction@@W4TRemConCoreApiPlaybackSpeed@@@Z @ 72 NONAME ; void CRemConCoreApiController::Play(class TRequestStatus &, unsigned int &, enum TRemConCoreApiButtonAction, enum TRemConCoreApiPlaybackSpeed)
	?PlayResponse@CRemConCoreApiTarget@@QAEXAAVTRequestStatus@@H@Z @ 73 NONAME ; void CRemConCoreApiTarget::PlayResponse(class TRequestStatus &, int)
	?Power@CRemConCoreApiController@@QAEXAAVTRequestStatus@@AAIW4TRemConCoreApiButtonAction@@@Z @ 74 NONAME ; void CRemConCoreApiController::Power(class TRequestStatus &, unsigned int &, enum TRemConCoreApiButtonAction)
	?PowerResponse@CRemConCoreApiTarget@@QAEXAAVTRequestStatus@@H@Z @ 75 NONAME ; void CRemConCoreApiTarget::PowerResponse(class TRequestStatus &, int)
	?PreviousChannel@CRemConCoreApiController@@QAEXAAVTRequestStatus@@AAIW4TRemConCoreApiButtonAction@@@Z @ 76 NONAME ; void CRemConCoreApiController::PreviousChannel(class TRequestStatus &, unsigned int &, enum TRemConCoreApiButtonAction)
	?PreviousChannelResponse@CRemConCoreApiTarget@@QAEXAAVTRequestStatus@@H@Z @ 77 NONAME ; void CRemConCoreApiTarget::PreviousChannelResponse(class TRequestStatus &, int)
	?Record@CRemConCoreApiController@@QAEXAAVTRequestStatus@@AAIW4TRemConCoreApiButtonAction@@@Z @ 78 NONAME ; void CRemConCoreApiController::Record(class TRequestStatus &, unsigned int &, enum TRemConCoreApiButtonAction)
	?RecordResponse@CRemConCoreApiTarget@@QAEXAAVTRequestStatus@@H@Z @ 79 NONAME ; void CRemConCoreApiTarget::RecordResponse(class TRequestStatus &, int)
	?RestoreVolumeFunction@CRemConCoreApiController@@QAEXAAVTRequestStatus@@AAIW4TRemConCoreApiButtonAction@@@Z @ 80 NONAME ; void CRemConCoreApiController::RestoreVolumeFunction(class TRequestStatus &, unsigned int &, enum TRemConCoreApiButtonAction)
	?RestoreVolumeFunctionResponse@CRemConCoreApiTarget@@QAEXAAVTRequestStatus@@H@Z @ 81 NONAME ; void CRemConCoreApiTarget::RestoreVolumeFunctionResponse(class TRequestStatus &, int)
	?Rewind@CRemConCoreApiController@@QAEXAAVTRequestStatus@@AAIW4TRemConCoreApiButtonAction@@@Z @ 82 NONAME ; void CRemConCoreApiController::Rewind(class TRequestStatus &, unsigned int &, enum TRemConCoreApiButtonAction)
	?RewindResponse@CRemConCoreApiTarget@@QAEXAAVTRequestStatus@@H@Z @ 83 NONAME ; void CRemConCoreApiTarget::RewindResponse(class TRequestStatus &, int)
	?Right@CRemConCoreApiController@@QAEXAAVTRequestStatus@@AAIW4TRemConCoreApiButtonAction@@@Z @ 84 NONAME ; void CRemConCoreApiController::Right(class TRequestStatus &, unsigned int &, enum TRemConCoreApiButtonAction)
	?RightDown@CRemConCoreApiController@@QAEXAAVTRequestStatus@@AAIW4TRemConCoreApiButtonAction@@@Z @ 85 NONAME ; void CRemConCoreApiController::RightDown(class TRequestStatus &, unsigned int &, enum TRemConCoreApiButtonAction)
	?RightDownResponse@CRemConCoreApiTarget@@QAEXAAVTRequestStatus@@H@Z @ 86 NONAME ; void CRemConCoreApiTarget::RightDownResponse(class TRequestStatus &, int)
	?RightResponse@CRemConCoreApiTarget@@QAEXAAVTRequestStatus@@H@Z @ 87 NONAME ; void CRemConCoreApiTarget::RightResponse(class TRequestStatus &, int)
	?RightUp@CRemConCoreApiController@@QAEXAAVTRequestStatus@@AAIW4TRemConCoreApiButtonAction@@@Z @ 88 NONAME ; void CRemConCoreApiController::RightUp(class TRequestStatus &, unsigned int &, enum TRemConCoreApiButtonAction)
	?RightUpResponse@CRemConCoreApiTarget@@QAEXAAVTRequestStatus@@H@Z @ 89 NONAME ; void CRemConCoreApiTarget::RightUpResponse(class TRequestStatus &, int)
	?RootMenu@CRemConCoreApiController@@QAEXAAVTRequestStatus@@AAIW4TRemConCoreApiButtonAction@@@Z @ 90 NONAME ; void CRemConCoreApiController::RootMenu(class TRequestStatus &, unsigned int &, enum TRemConCoreApiButtonAction)
	?RootMenuResponse@CRemConCoreApiTarget@@QAEXAAVTRequestStatus@@H@Z @ 91 NONAME ; void CRemConCoreApiTarget::RootMenuResponse(class TRequestStatus &, int)
	?Select@CRemConCoreApiController@@QAEXAAVTRequestStatus@@AAIW4TRemConCoreApiButtonAction@@@Z @ 92 NONAME ; void CRemConCoreApiController::Select(class TRequestStatus &, unsigned int &, enum TRemConCoreApiButtonAction)
	?SelectAudioInputFunction@CRemConCoreApiController@@QAEXAAVTRequestStatus@@AAIEW4TRemConCoreApiButtonAction@@@Z @ 93 NONAME ; void CRemConCoreApiController::SelectAudioInputFunction(class TRequestStatus &, unsigned int &, unsigned char, enum TRemConCoreApiButtonAction)
	?SelectAudioInputFunctionResponse@CRemConCoreApiTarget@@QAEXAAVTRequestStatus@@H@Z @ 94 NONAME ; void CRemConCoreApiTarget::SelectAudioInputFunctionResponse(class TRequestStatus &, int)
	?SelectAvInputFunction@CRemConCoreApiController@@QAEXAAVTRequestStatus@@AAIEW4TRemConCoreApiButtonAction@@@Z @ 95 NONAME ; void CRemConCoreApiController::SelectAvInputFunction(class TRequestStatus &, unsigned int &, unsigned char, enum TRemConCoreApiButtonAction)
	?SelectAvInputFunctionResponse@CRemConCoreApiTarget@@QAEXAAVTRequestStatus@@H@Z @ 96 NONAME ; void CRemConCoreApiTarget::SelectAvInputFunctionResponse(class TRequestStatus &, int)
	?SelectDiskFunction@CRemConCoreApiController@@QAEXAAVTRequestStatus@@AAIIW4TRemConCoreApiButtonAction@@@Z @ 97 NONAME ; void CRemConCoreApiController::SelectDiskFunction(class TRequestStatus &, unsigned int &, unsigned int, enum TRemConCoreApiButtonAction)
	?SelectDiskFunctionResponse@CRemConCoreApiTarget@@QAEXAAVTRequestStatus@@H@Z @ 98 NONAME ; void CRemConCoreApiTarget::SelectDiskFunctionResponse(class TRequestStatus &, int)
	?SelectResponse@CRemConCoreApiTarget@@QAEXAAVTRequestStatus@@H@Z @ 99 NONAME ; void CRemConCoreApiTarget::SelectResponse(class TRequestStatus &, int)
	?SetupMenu@CRemConCoreApiController@@QAEXAAVTRequestStatus@@AAIW4TRemConCoreApiButtonAction@@@Z @ 100 NONAME ; void CRemConCoreApiController::SetupMenu(class TRequestStatus &, unsigned int &, enum TRemConCoreApiButtonAction)
	?SetupMenuResponse@CRemConCoreApiTarget@@QAEXAAVTRequestStatus@@H@Z @ 101 NONAME ; void CRemConCoreApiTarget::SetupMenuResponse(class TRequestStatus &, int)
	?SoundSelect@CRemConCoreApiController@@QAEXAAVTRequestStatus@@AAIW4TRemConCoreApiButtonAction@@@Z @ 102 NONAME ; void CRemConCoreApiController::SoundSelect(class TRequestStatus &, unsigned int &, enum TRemConCoreApiButtonAction)
	?SoundSelectResponse@CRemConCoreApiTarget@@QAEXAAVTRequestStatus@@H@Z @ 103 NONAME ; void CRemConCoreApiTarget::SoundSelectResponse(class TRequestStatus &, int)
	?Stop@CRemConCoreApiController@@QAEXAAVTRequestStatus@@AAIW4TRemConCoreApiButtonAction@@@Z @ 104 NONAME ; void CRemConCoreApiController::Stop(class TRequestStatus &, unsigned int &, enum TRemConCoreApiButtonAction)
	?StopResponse@CRemConCoreApiTarget@@QAEXAAVTRequestStatus@@H@Z @ 105 NONAME ; void CRemConCoreApiTarget::StopResponse(class TRequestStatus &, int)
	?Subpicture@CRemConCoreApiController@@QAEXAAVTRequestStatus@@AAIW4TRemConCoreApiButtonAction@@@Z @ 106 NONAME ; void CRemConCoreApiController::Subpicture(class TRequestStatus &, unsigned int &, enum TRemConCoreApiButtonAction)
	?SubpictureResponse@CRemConCoreApiTarget@@QAEXAAVTRequestStatus@@H@Z @ 107 NONAME ; void CRemConCoreApiTarget::SubpictureResponse(class TRequestStatus &, int)
	?TuneFunction@CRemConCoreApiController@@QAEXAAVTRequestStatus@@AAIHIIW4TRemConCoreApiButtonAction@@@Z @ 108 NONAME ; void CRemConCoreApiController::TuneFunction(class TRequestStatus &, unsigned int &, int, unsigned int, unsigned int, enum TRemConCoreApiButtonAction)
	?TuneFunctionResponse@CRemConCoreApiTarget@@QAEXAAVTRequestStatus@@H@Z @ 109 NONAME ; void CRemConCoreApiTarget::TuneFunctionResponse(class TRequestStatus &, int)
	?Up@CRemConCoreApiController@@QAEXAAVTRequestStatus@@AAIW4TRemConCoreApiButtonAction@@@Z @ 110 NONAME ; void CRemConCoreApiController::Up(class TRequestStatus &, unsigned int &, enum TRemConCoreApiButtonAction)
	?UpResponse@CRemConCoreApiTarget@@QAEXAAVTRequestStatus@@H@Z @ 111 NONAME ; void CRemConCoreApiTarget::UpResponse(class TRequestStatus &, int)
	?VolumeDown@CRemConCoreApiController@@QAEXAAVTRequestStatus@@AAIW4TRemConCoreApiButtonAction@@@Z @ 112 NONAME ; void CRemConCoreApiController::VolumeDown(class TRequestStatus &, unsigned int &, enum TRemConCoreApiButtonAction)
	?VolumeDownResponse@CRemConCoreApiTarget@@QAEXAAVTRequestStatus@@H@Z @ 113 NONAME ; void CRemConCoreApiTarget::VolumeDownResponse(class TRequestStatus &, int)
	?VolumeUp@CRemConCoreApiController@@QAEXAAVTRequestStatus@@AAIW4TRemConCoreApiButtonAction@@@Z @ 114 NONAME ; void CRemConCoreApiController::VolumeUp(class TRequestStatus &, unsigned int &, enum TRemConCoreApiButtonAction)
	?VolumeUpResponse@CRemConCoreApiTarget@@QAEXAAVTRequestStatus@@H@Z @ 115 NONAME ; void CRemConCoreApiTarget::VolumeUpResponse(class TRequestStatus &, int)
	?_0@CRemConCoreApiController@@QAEXAAVTRequestStatus@@AAIW4TRemConCoreApiButtonAction@@@Z @ 116 NONAME ; void CRemConCoreApiController::_0(class TRequestStatus &, unsigned int &, enum TRemConCoreApiButtonAction)
	?_0Response@CRemConCoreApiTarget@@QAEXAAVTRequestStatus@@H@Z @ 117 NONAME ; void CRemConCoreApiTarget::_0Response(class TRequestStatus &, int)
	?_1@CRemConCoreApiController@@QAEXAAVTRequestStatus@@AAIW4TRemConCoreApiButtonAction@@@Z @ 118 NONAME ; void CRemConCoreApiController::_1(class TRequestStatus &, unsigned int &, enum TRemConCoreApiButtonAction)
	?_1Response@CRemConCoreApiTarget@@QAEXAAVTRequestStatus@@H@Z @ 119 NONAME ; void CRemConCoreApiTarget::_1Response(class TRequestStatus &, int)
	?_2@CRemConCoreApiController@@QAEXAAVTRequestStatus@@AAIW4TRemConCoreApiButtonAction@@@Z @ 120 NONAME ; void CRemConCoreApiController::_2(class TRequestStatus &, unsigned int &, enum TRemConCoreApiButtonAction)
	?_2Response@CRemConCoreApiTarget@@QAEXAAVTRequestStatus@@H@Z @ 121 NONAME ; void CRemConCoreApiTarget::_2Response(class TRequestStatus &, int)
	?_3@CRemConCoreApiController@@QAEXAAVTRequestStatus@@AAIW4TRemConCoreApiButtonAction@@@Z @ 122 NONAME ; void CRemConCoreApiController::_3(class TRequestStatus &, unsigned int &, enum TRemConCoreApiButtonAction)
	?_3Response@CRemConCoreApiTarget@@QAEXAAVTRequestStatus@@H@Z @ 123 NONAME ; void CRemConCoreApiTarget::_3Response(class TRequestStatus &, int)
	?_4@CRemConCoreApiController@@QAEXAAVTRequestStatus@@AAIW4TRemConCoreApiButtonAction@@@Z @ 124 NONAME ; void CRemConCoreApiController::_4(class TRequestStatus &, unsigned int &, enum TRemConCoreApiButtonAction)
	?_4Response@CRemConCoreApiTarget@@QAEXAAVTRequestStatus@@H@Z @ 125 NONAME ; void CRemConCoreApiTarget::_4Response(class TRequestStatus &, int)
	?_5@CRemConCoreApiController@@QAEXAAVTRequestStatus@@AAIW4TRemConCoreApiButtonAction@@@Z @ 126 NONAME ; void CRemConCoreApiController::_5(class TRequestStatus &, unsigned int &, enum TRemConCoreApiButtonAction)
	?_5Response@CRemConCoreApiTarget@@QAEXAAVTRequestStatus@@H@Z @ 127 NONAME ; void CRemConCoreApiTarget::_5Response(class TRequestStatus &, int)
	?_6@CRemConCoreApiController@@QAEXAAVTRequestStatus@@AAIW4TRemConCoreApiButtonAction@@@Z @ 128 NONAME ; void CRemConCoreApiController::_6(class TRequestStatus &, unsigned int &, enum TRemConCoreApiButtonAction)
	?_6Response@CRemConCoreApiTarget@@QAEXAAVTRequestStatus@@H@Z @ 129 NONAME ; void CRemConCoreApiTarget::_6Response(class TRequestStatus &, int)
	?_7@CRemConCoreApiController@@QAEXAAVTRequestStatus@@AAIW4TRemConCoreApiButtonAction@@@Z @ 130 NONAME ; void CRemConCoreApiController::_7(class TRequestStatus &, unsigned int &, enum TRemConCoreApiButtonAction)
	?_7Response@CRemConCoreApiTarget@@QAEXAAVTRequestStatus@@H@Z @ 131 NONAME ; void CRemConCoreApiTarget::_7Response(class TRequestStatus &, int)
	?_8@CRemConCoreApiController@@QAEXAAVTRequestStatus@@AAIW4TRemConCoreApiButtonAction@@@Z @ 132 NONAME ; void CRemConCoreApiController::_8(class TRequestStatus &, unsigned int &, enum TRemConCoreApiButtonAction)
	?_8Response@CRemConCoreApiTarget@@QAEXAAVTRequestStatus@@H@Z @ 133 NONAME ; void CRemConCoreApiTarget::_8Response(class TRequestStatus &, int)
	?_9@CRemConCoreApiController@@QAEXAAVTRequestStatus@@AAIW4TRemConCoreApiButtonAction@@@Z @ 134 NONAME ; void CRemConCoreApiController::_9(class TRequestStatus &, unsigned int &, enum TRemConCoreApiButtonAction)
	?_9Response@CRemConCoreApiTarget@@QAEXAAVTRequestStatus@@H@Z @ 135 NONAME ; void CRemConCoreApiTarget::_9Response(class TRequestStatus &, int)
	?SendResponse@CRemConCoreApiTarget@@QAEXAAVTRequestStatus@@W4TRemConCoreApiOperationId@@H@Z @ 136 NONAME ; void CRemConCoreApiTarget::SendResponse(class TRequestStatus &, enum TRemConCoreApiOperationId, int)
	?NewL@CRemConCoreApiTarget@@SAPAV1@AAVCRemConInterfaceSelector@@AAVMRemConCoreApiTargetObserver@@ABV?$RArray@W4TRemConCoreApiOperationId@@@@@Z @ 137 NONAME ; class CRemConCoreApiTarget * CRemConCoreApiTarget::NewL(class CRemConInterfaceSelector &, class MRemConCoreApiTargetObserver &, class RArray<enum TRemConCoreApiOperationId> const &)

