EXPORTS
	_ZN21CMmfGlobalAudioEffect10CapabilityEi @ 1 NONAME
	_ZN21CMmfGlobalAudioEffect11SetEnabledLEi @ 2 NONAME
	_ZN21CMmfGlobalAudioEffect12SetByValuesLERK6TDesC8 @ 3 NONAME
	_ZN21CMmfGlobalAudioEffect13KnownPresetsLEv @ 4 NONAME
	_ZN21CMmfGlobalAudioEffect14BaseConstructLE4TUidP29MMmfGlobalAudioEffectObserver @ 5 NONAME
	_ZN21CMmfGlobalAudioEffect14ExtractValuesLER5TDes8 @ 6 NONAME
	_ZN21CMmfGlobalAudioEffect15CustomInterfaceE4TUid @ 7 NONAME
	_ZN21CMmfGlobalAudioEffect17SetSettingsByDesLERK6TDesC8 @ 8 NONAME
	_ZN21CMmfGlobalAudioEffect17SetSettingsByUidLE4TUid @ 9 NONAME
	_ZN21CMmfGlobalAudioEffect20RequestNotificationLE4TUid @ 10 NONAME
	_ZN21CMmfGlobalAudioEffect21CreateCustomInterfaceE4TUid @ 11 NONAME
	_ZN21CMmfGlobalAudioEffectC1Ev @ 12 NONAME
	_ZN21CMmfGlobalAudioEffectC2Ev @ 13 NONAME
	_ZN21CMmfGlobalAudioEffectD0Ev @ 14 NONAME
	_ZN21CMmfGlobalAudioEffectD1Ev @ 15 NONAME
	_ZN21CMmfGlobalAudioEffectD2Ev @ 16 NONAME
	_ZNK21CMmfGlobalAudioEffect14SettingsByDesLEv @ 17 NONAME
	_ZNK21CMmfGlobalAudioEffect14SettingsByUidLEv @ 18 NONAME
	_ZNK21CMmfGlobalAudioEffect8IsActiveEv @ 19 NONAME
	_ZNK21CMmfGlobalAudioEffect9IsEnabledEv @ 20 NONAME
	_ZTI21CMmfGlobalAudioEffect @ 21 NONAME ; #<TI>#
	_ZTV21CMmfGlobalAudioEffect @ 22 NONAME ; #<VT>#

