EXPORTS
	_ZN9CListNodeD0Ev @ 1 NONAME ; CListNode::~CListNode(void)
	_ZN9CListItem7AddNodeEP9CItemBase @ 2 NONAME ; CListItem::AddNode(CItemBase*)
	_ZNK7TRecord25CalcTotalInitialiseLengthEv @ 3 NONAME ; TRecord::CalcTotalInitialiseLength(void) const
	_ZNK9CListItem25CalcTotalInitialiseLengthEv @ 4 NONAME ; CListItem::CalcTotalInitialiseLength(void) const
	_ZN9CItemBase11CopyBodyToLERP6HBufC8ii @ 5 NONAME ; CItemBase::CopyBodyToL(HBufC8*&, int, int)
	_ZN10TBigEndian8GetValueEPKhi @ 6 NONAME ; TBigEndian::GetValue(unsigned char const*, int)
	_ZN13TLittleEndian8GetValueEPKhi @ 7 NONAME ; TLittleEndian::GetValue(unsigned char const*, int)
	_ZNK15TValueBigEndian8GetValueEPKh @ 8 NONAME ; TValueBigEndian::GetValue(unsigned char const*) const
	_ZNK18TValueLittleEndian8GetValueEPKh @ 9 NONAME ; TValueLittleEndian::GetValue(unsigned char const*) const
	_ZN7TRecord3GetEi @ 10 NONAME ; TRecord::Get(int)
	_ZN7TRecord11InitialiseLER5TPtr8 @ 11 NONAME ; TRecord::InitialiseL(TPtr8&)
	_ZN9CItemBase11InitialiseLER5TPtr8ii @ 12 NONAME ; CItemBase::InitialiseL(TPtr8&, int, int)
	_ZN9CListItem11InitialiseLER5TPtr8 @ 13 NONAME ; CListItem::InitialiseL(TPtr8&)
	_ZN7TRecord6ParseLER5TPtr8 @ 14 NONAME ; TRecord::ParseL(TPtr8&)
	_ZN9CItemBase6ParseLER5TPtr8ii @ 15 NONAME ; CItemBase::ParseL(TPtr8&, int, int)
	_ZN9CListItem6ParseLER5TPtr8 @ 16 NONAME ; CListItem::ParseL(TPtr8&)
	_ZN9CItemBase7SetBodyERK6TDesC8i @ 17 NONAME ; CItemBase::SetBody(TDesC8 const&, int)
	_ZN10TBigEndian8SetValueEPhii @ 18 NONAME ; TBigEndian::SetValue(unsigned char*, int, int)
	_ZN13TLittleEndian8SetValueEPhii @ 19 NONAME ; TLittleEndian::SetValue(unsigned char*, int, int)
	_ZNK15TValueBigEndian8SetValueEPhi @ 20 NONAME ; TValueBigEndian::SetValue(unsigned char*, int) const
	_ZNK18TValueLittleEndian8SetValueEPhi @ 21 NONAME ; TValueLittleEndian::SetValue(unsigned char*, int) const
	_ZN9CListItemD0Ev @ 22 NONAME ; CListItem::~CListItem(void)
	_ZN9CListItem8AddNodeLEi @ 23 NONAME ; CListItem::AddNodeL(int)
	_ZN9CListItemD1Ev @ 24 NONAME ; CListItem::~CListItem [in-charge](void)
	_ZN9CListNodeD2Ev @ 25 NONAME ; CListNode::~CListNode [not-in-charge](void)
	_ZN9CListItemD2Ev @ 26 NONAME ; CListItem::~CListItem [not-in-charge](void)
	_ZN9CListNodeD1Ev @ 27 NONAME ; CListNode::~CListNode [in-charge](void)
	_ZTI9CListItem @ 28 NONAME ; typeinfo for CListItem
	_ZTV9CListItem @ 29 NONAME ; vtable for CListItem
	_ZTI5CItemI15TValueBigEndianE @ 30 NONAME ; #<TI>#
	_ZTI5CItemI9TConstantE @ 31 NONAME ; #<TI>#
	_ZTI9CListNode @ 32 NONAME ; #<TI>#
	_ZTV5CItemI15TValueBigEndianE @ 33 NONAME ; #<VT>#
	_ZTV5CItemI9TConstantE @ 34 NONAME ; #<VT>#
	_ZTV9CListNode @ 35 NONAME ; #<VT>#

