EXPORTS
	_ZN10MCprStates16TSelectNextLayer12GetVTablePtrER6TDesC8Pv @ 1 NONAME
	_ZN10MCprStates17TSelectedProvider12GetVTablePtrER6TDesC8Pv @ 2 NONAME
	_ZN10MCprStates20TProcessAvailability12GetVTablePtrER6TDesC8Pv @ 3 NONAME
	_ZN10MCprStates20TSelectionIncomplete12GetVTablePtrER6TDesC8Pv @ 4 NONAME
	_ZN10MCprStates23TAwaitingSelectComplete12GetVTablePtrER6TDesC8Pv @ 5 NONAME
	_ZN10MCprStates23TAwaitingSelectComplete6AcceptEv @ 6 NONAME
	_ZN10MCprStates24TAwaitingSelectNextLayer12GetVTablePtrER6TDesC8Pv @ 7 NONAME
	_ZN10MCprStates24TAwaitingSelectNextLayer6AcceptEv @ 8 NONAME
	_ZN10MCprStates24TSendFinalSelectComplete12GetVTablePtrER6TDesC8Pv @ 9 NONAME
	_ZN10MCprStates24TSendFinalSelectComplete3DoLEv @ 10 NONAME
	_ZN10MCprStates25TDecrementBlockingDestroy12GetVTablePtrER6TDesC8Pv @ 11 NONAME
	_ZN10MCprStates25TDecrementBlockingDestroy3DoLEv @ 12 NONAME
	_ZN10MCprStates27TAwaitingTierManagerCreated12GetVTablePtrER6TDesC8Pv @ 13 NONAME
	_ZN10MCprStates27TAwaitingTierManagerCreated6AcceptEv @ 14 NONAME
	_ZN10MCprStates29TAwaitingErrorRecoveryRequest12GetVTablePtrER6TDesC8Pv @ 15 NONAME
	_ZN10MCprStates29TAwaitingErrorRecoveryRequest6AcceptEv @ 16 NONAME
	_ZN10MCprStates29TAwaitingSelectNextLayerSuper12GetVTablePtrER6TDesC8Pv @ 17 NONAME
	_ZN10MCprStates29TAwaitingSelectNextLayerSuper6AcceptEv @ 18 NONAME
	_ZN10MCprStates30TSendPropagateRecoveryResponse12GetVTablePtrER6TDesC8Pv @ 19 NONAME
	_ZN10MCprStates33TAwaitingReConnectCompleteOrError12GetVTablePtrER6TDesC8Pv @ 20 NONAME
	_ZN10MCprStates33TAwaitingSelectNextLayerCompleted12GetVTablePtrER6TDesC8Pv @ 21 NONAME
	_ZN10MCprStates33TAwaitingSelectNextLayerCompleted6AcceptEv @ 22 NONAME
	_ZN10MCprStates39TAwaitingConnectionStartRecoveryRequest12GetVTablePtrER6TDesC8Pv @ 23 NONAME
	_ZN10MCprStates39TAwaitingConnectionStartRecoveryRequest6AcceptEv @ 24 NONAME
	_ZN10MCprStates40TProcessProviderStatusChangeRegistration12GetVTablePtrER6TDesC8Pv @ 25 NONAME
	_ZN10MCprStates40TProcessProviderStatusChangeRegistration3DoLEv @ 26 NONAME
	_ZN10MCprStates42TAwaitingConnectionGoneDownRecoveryRequest12GetVTablePtrER6TDesC8Pv @ 27 NONAME
	_ZN10MCprStates42TAwaitingConnectionGoneDownRecoveryRequest6AcceptEv @ 28 NONAME
	_ZN10SCprStates12TSendStopped12GetVTablePtrER6TDesC8Pv @ 29 NONAME
	_ZN10SCprStates12TSendStopped3DoLEv @ 30 NONAME
	_ZN10SCprStates12TStoreParams12GetVTablePtrER6TDesC8Pv @ 31 NONAME
	_ZN10SCprStates12TStoreParams3DoLEv @ 32 NONAME
	_ZN10SCprStates14TStopYourFlows12GetVTablePtrER6TDesC8Pv @ 33 NONAME
	_ZN10SCprStates14TStopYourFlows3DoLEv @ 34 NONAME
	_ZN10SCprStates16TStopSendingFlow12GetVTablePtrER6TDesC8Pv @ 35 NONAME
	_ZN10SCprStates16TStopSendingFlow3DoLEv @ 36 NONAME
	_ZN10SCprStates18TSendApplyResponse12GetVTablePtrER6TDesC8Pv @ 37 NONAME
	_ZN10SCprStates18TSendApplyResponse3DoLEv @ 38 NONAME
	_ZN10SCprStates21TAwaitingApplyRequest12GetVTablePtrER6TDesC8Pv @ 39 NONAME
	_ZN10SCprStates21TAwaitingApplyRequest6AcceptEv @ 40 NONAME
	_ZN10SCprStates21TAwaitingParamRequest12GetVTablePtrER6TDesC8Pv @ 41 NONAME
	_ZN10SCprStates21TAwaitingParamRequest6AcceptEv @ 42 NONAME
	_ZN10SCprStates22TPassToServiceProvider12GetVTablePtrER6TDesC8Pv @ 43 NONAME
	_ZN10SCprStates22TPassToServiceProvider3DoLEv @ 44 NONAME
	_ZN10SCprStates22TSendStopSubConnection12GetVTablePtrER6TDesC8Pv @ 45 NONAME
	_ZN10SCprStates22TSendStopSubConnection3DoLEv @ 46 NONAME
	_ZN10SCprStates23TSendDataClientGoneDown12GetVTablePtrER6TDesC8Pv @ 47 NONAME
	_ZN10SCprStates23TSendDataClientGoneDown3DoLEv @ 48 NONAME
	_ZN10SCprStates25TRespondWithCurrentParams12GetVTablePtrER6TDesC8Pv @ 49 NONAME
	_ZN10SCprStates25TRespondWithCurrentParams3DoLEv @ 50 NONAME
	_ZN10SCprStates26TPassEventToControlClients12GetVTablePtrER6TDesC8Pv @ 51 NONAME
	_ZN10SCprStates26TPassEventToControlClients3DoLEv @ 52 NONAME
	_ZN12TMActivities16coreTMActivities4SelfEv @ 53 NONAME
	_ZN12TMActivities21coreTMActivitiesSuper4SelfEv @ 54 NONAME
	_ZN12TMActivities23CSelectProviderActivity15InterfaceVTableEv @ 55 NONAME
	_ZN12TMActivities23CSelectProviderActivity4NewLERKN11MeshMachine13TNodeActivityERNS1_11AMMNodeBaseE @ 56 NONAME
	_ZN13CprActivities17coreCprActivities4SelfEv @ 57 NONAME
	_ZN14MCprActivities18coreMCprActivities4SelfEv @ 58 NONAME
	_ZN14MCprActivities23coreMCprActivitiesSuper4SelfEv @ 59 NONAME
	_ZN14MCprActivities24CSelectNextLayerActivity10ConstructLEv @ 60 NONAME
	_ZN14MCprActivities24CSelectNextLayerActivity16SelectionChoicesEv @ 61 NONAME
	_ZN14MCprActivities24CSelectNextLayerActivity16TAddProviderInfo12GetVTablePtrER6TDesC8Pv @ 62 NONAME
	_ZN14MCprActivities24CSelectNextLayerActivity16TJoinTierManager12GetVTablePtrER6TDesC8Pv @ 63 NONAME
	_ZN14MCprActivities24CSelectNextLayerActivity16TSelectNextLayer12GetVTablePtrER6TDesC8Pv @ 64 NONAME
	_ZN14MCprActivities24CSelectNextLayerActivity17TLeaveTierManager12GetVTablePtrER6TDesC8Pv @ 65 NONAME
	_ZN14MCprActivities24CSelectNextLayerActivity19TSendSelectComplete12GetVTablePtrER6TDesC8Pv @ 66 NONAME
	_ZN14MCprActivities24CSelectNextLayerActivity20TJoinServiceProvider12GetVTablePtrER6TDesC8Pv @ 67 NONAME
	_ZN14MCprActivities24CSelectNextLayerActivity21SelectionConnPrefListEv @ 68 NONAME
	_ZN14MCprActivities24CSelectNextLayerActivity21TSelectNextLayerSuper12GetVTablePtrER6TDesC8Pv @ 69 NONAME
	_ZN14MCprActivities24CSelectNextLayerActivity24TFindOrCreateTierManager12GetVTablePtrER6TDesC8Pv @ 70 NONAME
	_ZN14MCprActivities24CSelectNextLayerActivity29TFindOrCreateTierManagerSuper12GetVTablePtrER6TDesC8Pv @ 71 NONAME
	_ZN14MCprActivities24CSelectNextLayerActivity29TProcessSimpleSelectionPolicy12GetVTablePtrER6TDesC8Pv @ 72 NONAME
	_ZN14MCprActivities24CSelectNextLayerActivity30TNoTagOrSelectedProviderIsNull12GetVTablePtrER6TDesC8Pv @ 73 NONAME
	_ZN14MCprActivities24CSelectNextLayerActivity32TNoTagOrSelectedProviderBackward12GetVTablePtrER6TDesC8Pv @ 74 NONAME
	_ZN14MCprActivities24CSelectNextLayerActivity34TProcessPrioritisedSelectionPolicy12GetVTablePtrER6TDesC8Pv @ 75 NONAME
	_ZN14MCprActivities24CSelectNextLayerActivity34TProcessSimpleSelectionPolicySuper12GetVTablePtrER6TDesC8Pv @ 76 NONAME
	_ZN14MCprActivities24CSelectNextLayerActivity36TNoTagBackwardsOrJoinServiceProvider12GetVTablePtrER6TDesC8Pv @ 77 NONAME
	_ZN14MCprActivities24CSelectNextLayerActivity37TNoTagOrSelectedProviderBackwardSuper12GetVTablePtrER6TDesC8Pv @ 78 NONAME
	_ZN14MCprActivities24CSelectNextLayerActivity39TProcessPrioritisedSelectionPolicySuper12GetVTablePtrER6TDesC8Pv @ 79 NONAME
	_ZN14MCprActivities24CSelectNextLayerActivity4NewLERKN11MeshMachine13TNodeActivityERNS1_11AMMNodeBaseE @ 80 NONAME
	_ZN14MCprActivities24CSelectNextLayerActivity52TSelectedProviderIsNullOrJoinServiceProviderBackward12GetVTablePtrER6TDesC8Pv @ 81 NONAME
	_ZN14MCprActivities24CSelectNextLayerActivityD0Ev @ 82 NONAME
	_ZN14MCprActivities24CSelectNextLayerActivityD1Ev @ 83 NONAME
	_ZN14MCprActivities24CSelectNextLayerActivityD2Ev @ 84 NONAME
	_ZN14SCprActivities18coreSCprActivities4SelfEv @ 85 NONAME
	_ZN16CCoreTierManager8ReceivedERN11MeshMachine16TNodeContextBaseE @ 86 NONAME
	_ZN16CCoreTierManagerC2ERN5ESock23CTierManagerFactoryBaseERKN11MeshMachine16TNodeActivityMapE @ 87 NONAME
	_ZN16CCoreTierManagerD0Ev @ 88 NONAME
	_ZN16CCoreTierManagerD1Ev @ 89 NONAME
	_ZN16CCoreTierManagerD2Ev @ 90 NONAME
	_ZN16TierNotification16TAwaitingDestroy12GetVTablePtrER6TDesC8Pv @ 91 NONAME
	_ZN16TierNotification18CTierDataCollectorC2ERNS_25CTierNotificationActivityE @ 92 NONAME
	_ZN16TierNotification18TGetDataCollectors12GetVTablePtrER6TDesC8Pv @ 93 NONAME
	_ZN16TierNotification18TGetDataCollectors3DoLEv @ 94 NONAME
	_ZN16TierNotification21CDataCollectorSessionC1EPNS_14MDataCollectorERNS_25CTierNotificationActivityEi @ 95 NONAME
	_ZN16TierNotification21CDataCollectorSessionC2EPNS_14MDataCollectorERNS_25CTierNotificationActivityEi @ 96 NONAME
	_ZN16TierNotification22TInitTierNotifications12GetVTablePtrER6TDesC8Pv @ 97 NONAME
	_ZN16TierNotification22TInitTierNotifications3DoLEv @ 98 NONAME
	_ZN16TierNotification23TAwaitingDataCollectors12GetVTablePtrER6TDesC8Pv @ 99 NONAME
	_ZN16TierNotification23TStartTierNotifications12GetVTablePtrER6TDesC8Pv @ 100 NONAME
	_ZN16TierNotification23TStartTierNotifications3DoLEv @ 101 NONAME
	_ZN16TierNotification25CTierNotificationActivity13DataReceivedLERNS_21CDataCollectorSessionER22CParameterSetContaineri @ 102 NONAME
	_ZN16TierNotification25CTierNotificationActivity14ReportIfReadyLEv @ 103 NONAME
	_ZN16TierNotification25CTierNotificationActivity16InitiateShutdownEi @ 104 NONAME
	_ZN16TierNotification25CTierNotificationActivity16ShutdownFinishedEv @ 105 NONAME
	_ZN16TierNotification25CTierNotificationActivity21ReportChangesInCacheLEv @ 106 NONAME
	_ZN16TierNotification25CTierNotificationActivity4NewLERKN11MeshMachine13TNodeActivityERNS1_11AMMNodeBaseE @ 107 NONAME
	_ZN16TierNotification31TAwaitingCancelOrErrorOrDestroy12GetVTablePtrER6TDesC8Pv @ 108 NONAME
	_ZN16TierNotification31TInitiateTierNotificationCancel12GetVTablePtrER6TDesC8Pv @ 109 NONAME
	_ZN16TierNotification31TInitiateTierNotificationCancel3DoLEv @ 110 NONAME
	_ZN16TierNotification37TAwaitingTierNotificationRegistration12GetVTablePtrER6TDesC8Pv @ 111 NONAME
	_ZN21TMClientLeaveActivity13TMClientLeave11FirstTripleEv @ 112 NONAME
	_ZN21TMClientLeaveActivity13TMClientLeave4SelfEv @ 113 NONAME
	_ZN23CCoreConnectionProvider4NewLERN5ESock30CConnectionProviderFactoryBaseE @ 114 NONAME
	_ZN23CCoreConnectionProvider8ReceivedERN11MeshMachine16TNodeContextBaseE @ 115 NONAME
	_ZN23CCoreConnectionProvider9ReceivedLERKN8Messages13TRuntimeCtxIdERKNS0_7TNodeIdERNS0_14TSignatureBaseE @ 116 NONAME
	_ZN23CCoreConnectionProviderC1ERN5ESock30CConnectionProviderFactoryBaseERKN11MeshMachine16TNodeActivityMapE @ 117 NONAME
	_ZN23CCoreConnectionProviderC2ERN5ESock30CConnectionProviderFactoryBaseERKN11MeshMachine16TNodeActivityMapE @ 118 NONAME
	_ZN23CCoreConnectionProviderD0Ev @ 119 NONAME
	_ZN23CCoreConnectionProviderD1Ev @ 120 NONAME
	_ZN23CCoreConnectionProviderD2Ev @ 121 NONAME
	_ZN26CCoreSubConnectionProvider4NewLERN5ESock33CSubConnectionProviderFactoryBaseE @ 122 NONAME
	_ZN26CCoreSubConnectionProvider8ReceivedERN11MeshMachine16TNodeContextBaseE @ 123 NONAME
	_ZN26CCoreSubConnectionProvider9ReceivedLERKN8Messages13TRuntimeCtxIdERKNS0_7TNodeIdERNS0_14TSignatureBaseE @ 124 NONAME
	_ZN26CCoreSubConnectionProviderC1ERN5ESock33CSubConnectionProviderFactoryBaseE @ 125 NONAME
	_ZN26CCoreSubConnectionProviderC1ERN5ESock33CSubConnectionProviderFactoryBaseERKN11MeshMachine16TNodeActivityMapE @ 126 NONAME
	_ZN26CCoreSubConnectionProviderC2ERN5ESock33CSubConnectionProviderFactoryBaseE @ 127 NONAME
	_ZN26CCoreSubConnectionProviderC2ERN5ESock33CSubConnectionProviderFactoryBaseERKN11MeshMachine16TNodeActivityMapE @ 128 NONAME
	_ZN26CCoreSubConnectionProviderD0Ev @ 129 NONAME
	_ZN26CCoreSubConnectionProviderD1Ev @ 130 NONAME
	_ZN26CCoreSubConnectionProviderD2Ev @ 131 NONAME
	_ZN26CprDataClientStartActivity16TStartDataClient12GetVTablePtrER6TDesC8Pv @ 132 NONAME
	_ZN26CprDataClientStartActivity16TStartDataClient3DoLEv @ 133 NONAME
	_ZN26CprDataClientStartActivity21TNoTagOrNoTagBackward12GetVTablePtrER6TDesC8Pv @ 134 NONAME
	_ZN26CprDataClientStartActivity21TNoTagOrNoTagBackward13TransitionTagEv @ 135 NONAME
	_ZN26CprDataClientStartActivity24CDataClientStartActivityC1ERKN11MeshMachine13TNodeActivityERNS1_11AMMNodeBaseE @ 136 NONAME
	_ZN26CprDataClientStartActivity24CDataClientStartActivityC2ERKN11MeshMachine13TNodeActivityERNS1_11AMMNodeBaseE @ 137 NONAME
	_ZN26TMTierNotificationActivity10TierNotify11FirstTripleEv @ 138 NONAME
	_ZN26TMTierNotificationActivity10TierNotify4SelfEv @ 139 NONAME
	_ZN27CCoreMetaConnectionProvider28CancelAvailabilityMonitoringEv @ 140 NONAME
	_ZN27CCoreMetaConnectionProvider28StartAvailabilityMonitoringLERKN8Messages10TNodeCtxIdE @ 141 NONAME
	_ZN27CCoreMetaConnectionProvider8ReceivedERN11MeshMachine16TNodeContextBaseE @ 142 NONAME
	_ZN27CCoreMetaConnectionProvider9ReceivedLERKN8Messages13TRuntimeCtxIdERKNS0_7TNodeIdERNS0_14TSignatureBaseE @ 143 NONAME
	_ZN27CCoreMetaConnectionProviderC1ERN5ESock34CMetaConnectionProviderFactoryBaseERKNS0_13TProviderInfoERKN11MeshMachine16TNodeActivityMapE @ 144 NONAME
	_ZN27CCoreMetaConnectionProviderC2ERN5ESock34CMetaConnectionProviderFactoryBaseERKNS0_13TProviderInfoERKN11MeshMachine16TNodeActivityMapE @ 145 NONAME
	_ZN27CCoreMetaConnectionProviderD0Ev @ 146 NONAME
	_ZN27CCoreMetaConnectionProviderD1Ev @ 147 NONAME
	_ZN27CCoreMetaConnectionProviderD2Ev @ 148 NONAME
	_ZN42TMAvailabilityNotificationActivity_Forward28AvailabilityActivity_Forward11FirstTripleEv @ 149 NONAME
	_ZN42TMAvailabilityNotificationActivity_Forward28AvailabilityActivity_Forward4SelfEv @ 150 NONAME
	_ZN43TMTierNotificationGetDataCollectorsActivity13GetCollectors11FirstTripleEv @ 151 NONAME
	_ZN43TMTierNotificationGetDataCollectorsActivity13GetCollectors4SelfEv @ 152 NONAME
	_ZN8TMStates12TJoinToMCPRs12GetVTablePtrER6TDesC8Pv @ 153 NONAME
	_ZN8TMStates12TJoinToMCPRs3DoLEv @ 154 NONAME
	_ZN8TMStates15TSelectProvider12GetVTablePtrER6TDesC8Pv @ 155 NONAME
	_ZN8TMStates20TSelectProviderSuper12GetVTablePtrER6TDesC8Pv @ 156 NONAME
	_ZN8TMStates23TAwaitingSelectProvider12GetVTablePtrER6TDesC8Pv @ 157 NONAME
	_ZN8TMStates24TRegisterForAvailability12GetVTablePtrER6TDesC8Pv @ 158 NONAME
	_ZN8TMStates24TRegisterForAvailability3DoLEv @ 159 NONAME
	_ZN8TMStates28TAwaitingSelectProviderSuper12GetVTablePtrER6TDesC8Pv @ 160 NONAME
	_ZN8TMStates42TPassAvailabilityNotificationToOriginators12GetVTablePtrER6TDesC8Pv @ 161 NONAME
	_ZN8TMStates52TAwaitingRegistrationForTierAvailabilityNotification12GetVTablePtrER6TDesC8Pv @ 162 NONAME
	_ZN9CprStates21THandleDataClientIdle12GetVTablePtrER6TDesC8Pv @ 163 NONAME
	_ZN9CprStates21THandleDataClientIdle3DoLEv @ 164 NONAME
	_ZN9CprStates24TBindToPrimaryDataClient12GetVTablePtrER6TDesC8Pv @ 165 NONAME
	_ZN9CprStates24TBindToPrimaryDataClient3DoLEv @ 166 NONAME
	_ZN9CprStates27TCreateAdditionalDataClient12GetVTablePtrER6TDesC8Pv @ 167 NONAME
	_ZN9CprStates27TCreateAdditionalDataClient3DoLEv @ 168 NONAME
	_ZN9CprStates44TCreateAdditionalDataClientOrDataClientReady12GetVTablePtrER6TDesC8Pv @ 169 NONAME
	_ZN9CprStates44TCreateAdditionalDataClientOrDataClientReady13TransitionTagEv @ 170 NONAME
	_ZN9CprStates52TCreateAdditionalDataClientBackwardOrDataClientReady12GetVTablePtrER6TDesC8Pv @ 171 NONAME
	_ZN9CprStates52TCreateAdditionalDataClientBackwardOrDataClientReady13TransitionTagEv @ 172 NONAME
	_ZNK16TierNotification25CTierNotificationActivity21AllCollectorsUnlockedEv @ 173 NONAME
	_ZTI16CCoreTierManager @ 174 NONAME
	_ZTI23CCoreConnectionProvider @ 175 NONAME
	_ZTI26CCoreProviderSelectorSuper @ 176 NONAME
	_ZTI26CCoreSubConnectionProvider @ 177 NONAME
	_ZTI27CCoreMetaConnectionProvider @ 178 NONAME
	_ZTIN10MCprStates16TSelectNextLayerE @ 179 NONAME
	_ZTIN10MCprStates17TSelectedProviderE @ 180 NONAME
	_ZTIN10MCprStates20TProcessAvailabilityE @ 181 NONAME
	_ZTIN10MCprStates20TSelectionIncompleteE @ 182 NONAME
	_ZTIN10MCprStates23TAwaitingSelectCompleteE @ 183 NONAME
	_ZTIN10MCprStates24TAwaitingSelectNextLayerE @ 184 NONAME
	_ZTIN10MCprStates24TSendFinalSelectCompleteE @ 185 NONAME
	_ZTIN10MCprStates25TDecrementBlockingDestroyE @ 186 NONAME
	_ZTIN10MCprStates27TAwaitingTierManagerCreatedE @ 187 NONAME
	_ZTIN10MCprStates29TAwaitingErrorRecoveryRequestE @ 188 NONAME
	_ZTIN10MCprStates29TAwaitingSelectNextLayerSuperE @ 189 NONAME
	_ZTIN10MCprStates30TSendPropagateRecoveryResponseE @ 190 NONAME
	_ZTIN10MCprStates33TAwaitingReConnectCompleteOrErrorE @ 191 NONAME
	_ZTIN10MCprStates33TAwaitingSelectNextLayerCompletedE @ 192 NONAME
	_ZTIN10MCprStates39TAwaitingConnectionStartRecoveryRequestE @ 193 NONAME
	_ZTIN10MCprStates40TProcessProviderStatusChangeRegistrationE @ 194 NONAME
	_ZTIN10MCprStates42TAwaitingConnectionGoneDownRecoveryRequestE @ 195 NONAME
	_ZTIN10SCprStates12TSendStoppedE @ 196 NONAME
	_ZTIN10SCprStates12TStoreParamsE @ 197 NONAME
	_ZTIN10SCprStates14TStopYourFlowsE @ 198 NONAME
	_ZTIN10SCprStates16TStopSendingFlowE @ 199 NONAME
	_ZTIN10SCprStates18TSendApplyResponseE @ 200 NONAME
	_ZTIN10SCprStates21TAwaitingApplyRequestE @ 201 NONAME
	_ZTIN10SCprStates21TAwaitingParamRequestE @ 202 NONAME
	_ZTIN10SCprStates22TPassToServiceProviderE @ 203 NONAME
	_ZTIN10SCprStates22TSendStopSubConnectionE @ 204 NONAME
	_ZTIN10SCprStates23TSendDataClientGoneDownE @ 205 NONAME
	_ZTIN10SCprStates25TRespondWithCurrentParamsE @ 206 NONAME
	_ZTIN10SCprStates26TPassEventToControlClientsE @ 207 NONAME
	_ZTIN12TMActivities23CSelectProviderActivityE @ 208 NONAME
	_ZTIN14MCprActivities18CReConnectActivityE @ 209 NONAME
	_ZTIN14MCprActivities21CAvailabilityActivityE @ 210 NONAME
	_ZTIN14MCprActivities24CSelectNextLayerActivity16TAddProviderInfoE @ 211 NONAME
	_ZTIN14MCprActivities24CSelectNextLayerActivity16TJoinTierManagerE @ 212 NONAME
	_ZTIN14MCprActivities24CSelectNextLayerActivity16TSelectNextLayerE @ 213 NONAME
	_ZTIN14MCprActivities24CSelectNextLayerActivity17TLeaveTierManagerE @ 214 NONAME
	_ZTIN14MCprActivities24CSelectNextLayerActivity19TSendSelectCompleteE @ 215 NONAME
	_ZTIN14MCprActivities24CSelectNextLayerActivity20TJoinServiceProviderE @ 216 NONAME
	_ZTIN14MCprActivities24CSelectNextLayerActivity21TSelectNextLayerSuperE @ 217 NONAME
	_ZTIN14MCprActivities24CSelectNextLayerActivity24TFindOrCreateTierManagerE @ 218 NONAME
	_ZTIN14MCprActivities24CSelectNextLayerActivity29TFindOrCreateTierManagerSuperE @ 219 NONAME
	_ZTIN14MCprActivities24CSelectNextLayerActivity29TProcessSimpleSelectionPolicyE @ 220 NONAME
	_ZTIN14MCprActivities24CSelectNextLayerActivity30TNoTagOrSelectedProviderIsNullE @ 221 NONAME
	_ZTIN14MCprActivities24CSelectNextLayerActivity32TNoTagOrSelectedProviderBackwardE @ 222 NONAME
	_ZTIN14MCprActivities24CSelectNextLayerActivity34TProcessPrioritisedSelectionPolicyE @ 223 NONAME
	_ZTIN14MCprActivities24CSelectNextLayerActivity34TProcessSimpleSelectionPolicySuperE @ 224 NONAME
	_ZTIN14MCprActivities24CSelectNextLayerActivity36TNoTagBackwardsOrJoinServiceProviderE @ 225 NONAME
	_ZTIN14MCprActivities24CSelectNextLayerActivity37TNoTagOrSelectedProviderBackwardSuperE @ 226 NONAME
	_ZTIN14MCprActivities24CSelectNextLayerActivity39TProcessPrioritisedSelectionPolicySuperE @ 227 NONAME
	_ZTIN14MCprActivities24CSelectNextLayerActivity52TSelectedProviderIsNullOrJoinServiceProviderBackwardE @ 228 NONAME
	_ZTIN14MCprActivities24CSelectNextLayerActivityE @ 229 NONAME
	_ZTIN16TierNotification14MDataCollectorE @ 230 NONAME
	_ZTIN16TierNotification16TAwaitingDestroyE @ 231 NONAME
	_ZTIN16TierNotification18CDataCollectorBaseE @ 232 NONAME
	_ZTIN16TierNotification18CTierDataCollectorE @ 233 NONAME
	_ZTIN16TierNotification18TGetDataCollectorsE @ 234 NONAME
	_ZTIN16TierNotification21CDataCollectorSessionE @ 235 NONAME
	_ZTIN16TierNotification22CCommsDatDataCollectorE @ 236 NONAME
	_ZTIN16TierNotification22CTierDataCollectorNodeE @ 237 NONAME
	_ZTIN16TierNotification22CTierInfoCollectorNodeE @ 238 NONAME
	_ZTIN16TierNotification22CTierNotificationCacheE @ 239 NONAME
	_ZTIN16TierNotification22TInitTierNotificationsE @ 240 NONAME
	_ZTIN16TierNotification23TAwaitingDataCollectorsE @ 241 NONAME
	_ZTIN16TierNotification23TStartTierNotificationsE @ 242 NONAME
	_ZTIN16TierNotification24CAccessPointIdComparatorE @ 243 NONAME
	_ZTIN16TierNotification25CTierNotificationActivityE @ 244 NONAME
	_ZTIN16TierNotification26CActiveStatusDataCollectorE @ 245 NONAME
	_ZTIN16TierNotification26CAvailabilityDataCollectorE @ 246 NONAME
	_ZTIN16TierNotification30CMCprFactoryQueryDataCollectorE @ 247 NONAME
	_ZTIN16TierNotification27CFactoryNotifyDataCollectorE @ 248 NONAME
	_ZTIN16TierNotification31CCommsDatNotificationSubscriberE @ 249 NONAME
	_ZTIN16TierNotification31CMcprFactoryNotifyDataCollectorE @ 250 NONAME
	_ZTIN16TierNotification31TAwaitingCancelOrErrorOrDestroyE @ 251 NONAME
	_ZTIN16TierNotification31TInitiateTierNotificationCancelE @ 252 NONAME
	_ZTIN16TierNotification32CAccessPointPlaneStatusCollectorE @ 253 NONAME
	_ZTIN16TierNotification37CIPProtoAccessPointParameterCollectorE @ 254 NONAME
	_ZTIN16TierNotification37TAwaitingTierNotificationRegistrationE @ 255 NONAME
	_ZTIN26CprDataClientStartActivity16TStartDataClientE @ 256 NONAME
	_ZTIN26CprDataClientStartActivity21TNoTagOrNoTagBackwardE @ 257 NONAME
	_ZTIN4Meta18RMetaDataContainerINS_13SMetaDataEComEEE @ 258 NONAME
	_ZTIN8TMStates12TJoinToMCPRsE @ 259 NONAME
	_ZTIN8TMStates15TSelectProviderE @ 260 NONAME
	_ZTIN8TMStates20TSelectProviderSuperE @ 261 NONAME
	_ZTIN8TMStates23TAwaitingSelectProviderE @ 262 NONAME
	_ZTIN8TMStates24TRegisterForAvailabilityE @ 263 NONAME
	_ZTIN8TMStates28TAwaitingSelectProviderSuperE @ 264 NONAME
	_ZTIN8TMStates42TPassAvailabilityNotificationToOriginatorsE @ 265 NONAME
	_ZTIN8TMStates52TAwaitingRegistrationForTierAvailabilityNotificationE @ 266 NONAME
	_ZTIN9CprStates21THandleDataClientIdleE @ 267 NONAME
	_ZTIN9CprStates24TBindToPrimaryDataClientE @ 268 NONAME
	_ZTIN9CprStates27TCreateAdditionalDataClientE @ 269 NONAME
	_ZTIN9CprStates44TCreateAdditionalDataClientOrDataClientReadyE @ 270 NONAME
	_ZTIN9CprStates52TCreateAdditionalDataClientBackwardOrDataClientReadyE @ 271 NONAME
	_ZTV16CCoreTierManager @ 272 NONAME
	_ZTV23CCoreConnectionProvider @ 273 NONAME
	_ZTV26CCoreProviderSelectorSuper @ 274 NONAME
	_ZTV26CCoreSubConnectionProvider @ 275 NONAME
	_ZTV27CCoreMetaConnectionProvider @ 276 NONAME
	_ZTVN10MCprStates16TSelectNextLayerE @ 277 NONAME
	_ZTVN10MCprStates17TSelectedProviderE @ 278 NONAME
	_ZTVN10MCprStates20TProcessAvailabilityE @ 279 NONAME
	_ZTVN10MCprStates20TSelectionIncompleteE @ 280 NONAME
	_ZTVN10MCprStates23TAwaitingSelectCompleteE @ 281 NONAME
	_ZTVN10MCprStates24TAwaitingSelectNextLayerE @ 282 NONAME
	_ZTVN10MCprStates24TSendFinalSelectCompleteE @ 283 NONAME
	_ZTVN10MCprStates25TDecrementBlockingDestroyE @ 284 NONAME
	_ZTVN10MCprStates27TAwaitingTierManagerCreatedE @ 285 NONAME
	_ZTVN10MCprStates29TAwaitingErrorRecoveryRequestE @ 286 NONAME
	_ZTVN10MCprStates29TAwaitingSelectNextLayerSuperE @ 287 NONAME
	_ZTVN10MCprStates30TSendPropagateRecoveryResponseE @ 288 NONAME
	_ZTVN10MCprStates33TAwaitingReConnectCompleteOrErrorE @ 289 NONAME
	_ZTVN10MCprStates33TAwaitingSelectNextLayerCompletedE @ 290 NONAME
	_ZTVN10MCprStates39TAwaitingConnectionStartRecoveryRequestE @ 291 NONAME
	_ZTVN10MCprStates40TProcessProviderStatusChangeRegistrationE @ 292 NONAME
	_ZTVN10MCprStates42TAwaitingConnectionGoneDownRecoveryRequestE @ 293 NONAME
	_ZTVN10SCprStates12TSendStoppedE @ 294 NONAME
	_ZTVN10SCprStates12TStoreParamsE @ 295 NONAME
	_ZTVN10SCprStates14TStopYourFlowsE @ 296 NONAME
	_ZTVN10SCprStates16TStopSendingFlowE @ 297 NONAME
	_ZTVN10SCprStates18TSendApplyResponseE @ 298 NONAME
	_ZTVN10SCprStates21TAwaitingApplyRequestE @ 299 NONAME
	_ZTVN10SCprStates21TAwaitingParamRequestE @ 300 NONAME
	_ZTVN10SCprStates22TPassToServiceProviderE @ 301 NONAME
	_ZTVN10SCprStates22TSendStopSubConnectionE @ 302 NONAME
	_ZTVN10SCprStates23TSendDataClientGoneDownE @ 303 NONAME
	_ZTVN10SCprStates25TRespondWithCurrentParamsE @ 304 NONAME
	_ZTVN10SCprStates26TPassEventToControlClientsE @ 305 NONAME
	_ZTVN12TMActivities23CSelectProviderActivityE @ 306 NONAME
	_ZTVN14MCprActivities18CReConnectActivityE @ 307 NONAME
	_ZTVN14MCprActivities21CAvailabilityActivityE @ 308 NONAME
	_ZTVN14MCprActivities24CSelectNextLayerActivity16TAddProviderInfoE @ 309 NONAME
	_ZTVN14MCprActivities24CSelectNextLayerActivity16TJoinTierManagerE @ 310 NONAME
	_ZTVN14MCprActivities24CSelectNextLayerActivity16TSelectNextLayerE @ 311 NONAME
	_ZTVN14MCprActivities24CSelectNextLayerActivity17TLeaveTierManagerE @ 312 NONAME
	_ZTVN14MCprActivities24CSelectNextLayerActivity19TSendSelectCompleteE @ 313 NONAME
	_ZTVN14MCprActivities24CSelectNextLayerActivity20TJoinServiceProviderE @ 314 NONAME
	_ZTVN14MCprActivities24CSelectNextLayerActivity21TSelectNextLayerSuperE @ 315 NONAME
	_ZTVN14MCprActivities24CSelectNextLayerActivity24TFindOrCreateTierManagerE @ 316 NONAME
	_ZTVN14MCprActivities24CSelectNextLayerActivity29TFindOrCreateTierManagerSuperE @ 317 NONAME
	_ZTVN14MCprActivities24CSelectNextLayerActivity29TProcessSimpleSelectionPolicyE @ 318 NONAME
	_ZTVN14MCprActivities24CSelectNextLayerActivity30TNoTagOrSelectedProviderIsNullE @ 319 NONAME
	_ZTVN14MCprActivities24CSelectNextLayerActivity32TNoTagOrSelectedProviderBackwardE @ 320 NONAME
	_ZTVN14MCprActivities24CSelectNextLayerActivity34TProcessPrioritisedSelectionPolicyE @ 321 NONAME
	_ZTVN14MCprActivities24CSelectNextLayerActivity34TProcessSimpleSelectionPolicySuperE @ 322 NONAME
	_ZTVN14MCprActivities24CSelectNextLayerActivity36TNoTagBackwardsOrJoinServiceProviderE @ 323 NONAME
	_ZTVN14MCprActivities24CSelectNextLayerActivity37TNoTagOrSelectedProviderBackwardSuperE @ 324 NONAME
	_ZTVN14MCprActivities24CSelectNextLayerActivity39TProcessPrioritisedSelectionPolicySuperE @ 325 NONAME
	_ZTVN14MCprActivities24CSelectNextLayerActivity52TSelectedProviderIsNullOrJoinServiceProviderBackwardE @ 326 NONAME
	_ZTVN14MCprActivities24CSelectNextLayerActivityE @ 327 NONAME
	_ZTVN16TierNotification14MDataCollectorE @ 328 NONAME
	_ZTVN16TierNotification16TAwaitingDestroyE @ 329 NONAME
	_ZTVN16TierNotification18CDataCollectorBaseE @ 330 NONAME
	_ZTVN16TierNotification18CTierDataCollectorE @ 331 NONAME
	_ZTVN16TierNotification18TGetDataCollectorsE @ 332 NONAME
	_ZTVN16TierNotification21CDataCollectorSessionE @ 333 NONAME
	_ZTVN16TierNotification22CCommsDatDataCollectorE @ 334 NONAME
	_ZTVN16TierNotification22CTierDataCollectorNodeE @ 335 NONAME
	_ZTVN16TierNotification22CTierInfoCollectorNodeE @ 336 NONAME
	_ZTVN16TierNotification22CTierNotificationCacheE @ 337 NONAME
	_ZTVN16TierNotification22TInitTierNotificationsE @ 338 NONAME
	_ZTVN16TierNotification23TAwaitingDataCollectorsE @ 339 NONAME
	_ZTVN16TierNotification23TStartTierNotificationsE @ 340 NONAME
	_ZTVN16TierNotification24CAccessPointIdComparatorE @ 341 NONAME
	_ZTVN16TierNotification25CTierNotificationActivityE @ 342 NONAME
	_ZTVN16TierNotification26CActiveStatusDataCollectorE @ 343 NONAME
	_ZTVN16TierNotification26CAvailabilityDataCollectorE @ 344 NONAME
	_ZTVN16TierNotification30CMCprFactoryQueryDataCollectorE @ 345 NONAME
	_ZTVN16TierNotification27CFactoryNotifyDataCollectorE @ 346 NONAME
	_ZTVN16TierNotification31CCommsDatNotificationSubscriberE @ 347 NONAME
	_ZTVN16TierNotification31CMcprFactoryNotifyDataCollectorE @ 348 NONAME
	_ZTVN16TierNotification31TAwaitingCancelOrErrorOrDestroyE @ 349 NONAME
	_ZTVN16TierNotification31TInitiateTierNotificationCancelE @ 350 NONAME
	_ZTVN16TierNotification32CAccessPointPlaneStatusCollectorE @ 351 NONAME
	_ZTVN16TierNotification37CIPProtoAccessPointParameterCollectorE @ 352 NONAME
	_ZTVN16TierNotification37TAwaitingTierNotificationRegistrationE @ 353 NONAME
	_ZTVN26CprDataClientStartActivity16TStartDataClientE @ 354 NONAME
	_ZTVN26CprDataClientStartActivity21TNoTagOrNoTagBackwardE @ 355 NONAME
	_ZTVN4Meta18RMetaDataContainerINS_13SMetaDataEComEEE @ 356 NONAME
	_ZTVN8TMStates12TJoinToMCPRsE @ 357 NONAME
	_ZTVN8TMStates15TSelectProviderE @ 358 NONAME
	_ZTVN8TMStates20TSelectProviderSuperE @ 359 NONAME
	_ZTVN8TMStates23TAwaitingSelectProviderE @ 360 NONAME
	_ZTVN8TMStates24TRegisterForAvailabilityE @ 361 NONAME
	_ZTVN8TMStates28TAwaitingSelectProviderSuperE @ 362 NONAME
	_ZTVN8TMStates42TPassAvailabilityNotificationToOriginatorsE @ 363 NONAME
	_ZTVN8TMStates52TAwaitingRegistrationForTierAvailabilityNotificationE @ 364 NONAME
	_ZTVN9CprStates21THandleDataClientIdleE @ 365 NONAME
	_ZTVN9CprStates24TBindToPrimaryDataClientE @ 366 NONAME
	_ZTVN9CprStates27TCreateAdditionalDataClientE @ 367 NONAME
	_ZTVN9CprStates44TCreateAdditionalDataClientOrDataClientReadyE @ 368 NONAME
	_ZTVN9CprStates52TCreateAdditionalDataClientBackwardOrDataClientReadyE @ 369 NONAME
	_ZThn12_N23CCoreConnectionProviderD0Ev @ 370 NONAME
	_ZThn12_N23CCoreConnectionProviderD1Ev @ 371 NONAME
	_ZThn12_N26CCoreSubConnectionProviderD0Ev @ 372 NONAME
	_ZThn12_N26CCoreSubConnectionProviderD1Ev @ 373 NONAME
	_ZThn12_N27CCoreMetaConnectionProviderD0Ev @ 374 NONAME
	_ZThn12_N27CCoreMetaConnectionProviderD1Ev @ 375 NONAME
	_ZThn20_N23CCoreConnectionProvider9ReceivedLERKN8Messages13TRuntimeCtxIdERKNS0_7TNodeIdERNS0_14TSignatureBaseE @ 376 NONAME
	_ZThn20_N26CCoreSubConnectionProvider9ReceivedLERKN8Messages13TRuntimeCtxIdERKNS0_7TNodeIdERNS0_14TSignatureBaseE @ 377 NONAME
	_ZThn20_N27CCoreMetaConnectionProvider9ReceivedLERKN8Messages13TRuntimeCtxIdERKNS0_7TNodeIdERNS0_14TSignatureBaseE @ 378 NONAME
	_ZThn4_N16CCoreTierManagerD0Ev @ 379 NONAME
	_ZThn4_N16CCoreTierManagerD1Ev @ 380 NONAME
	_ZN10MCprStates30TPostStatusChangeToOriginators12GetVTablePtrER6TDesC8Pv @ 381 NONAME
	_ZN10MCprStates30TPostStatusChangeToOriginators3DoLEv @ 382 NONAME
	_ZN9CprStates45TSendDataClientStatusStoppedIfNoControlClient12GetVTablePtrER6TDesC8Pv @ 383 NONAME
	_ZN9CprStates45TSendDataClientStatusStoppedIfNoControlClient3DoLEv @ 384 NONAME
	_ZTIN9CprStates45TSendDataClientStatusStoppedIfNoControlClientE @ 385 NONAME
	_ZTVN9CprStates45TSendDataClientStatusStoppedIfNoControlClientE @ 386 NONAME
	_ZN14MCprActivities24CSelectNextLayerActivity37TNoTagOrSelectedProviderBackwardSuper13TransitionTagEv @ 387 NONAME
	_ZN16TierNotification16TAwaitingDestroy6AcceptEv @ 388 NONAME
	_ZN16TierNotification23TAwaitingDataCollectors6AcceptEv @ 389 NONAME
	_ZN16TierNotification31TAwaitingCancelOrErrorOrDestroy6AcceptEv @ 390 NONAME
	_ZN16TierNotification37TAwaitingTierNotificationRegistration6AcceptEv @ 391 NONAME
	_ZN8TMStates15TSelectProvider3DoLEv @ 392 NONAME
	_ZN8TMStates20TSelectProviderSuper3DoLEv @ 393 NONAME
	_ZN8TMStates23TAwaitingSelectProvider6AcceptEv @ 394 NONAME
	_ZN8TMStates28TAwaitingSelectProviderSuper6AcceptEv @ 395 NONAME
	_ZN8TMStates42TPassAvailabilityNotificationToOriginators3DoLEv @ 396 NONAME
	_ZN8TMStates52TAwaitingRegistrationForTierAvailabilityNotification6AcceptEv @ 397 NONAME
	_ZTIN10MCprStates30TPostStatusChangeToOriginatorsE @ 398 NONAME
	_ZTVN10MCprStates30TPostStatusChangeToOriginatorsE @ 399 NONAME
	_ZN10MCprStates24TProcessDataClientRejoin12GetVTablePtrER6TDesC8Pv @ 400 NONAME
	_ZN10MCprStates24TProcessDataClientRejoin3DoLEv @ 401 NONAME
	_ZN16CCoreTierManager17HandleContentionLEPN5ESock27CMetaConnectionProviderBaseERN8Messages7TNodeIdEj @ 402 NONAME
	_ZN17CprBindToActivity18CCprBindToActivity41TSendControlClientJoinRequestWithPriority12GetVTablePtrER6TDesC8Pv @ 403 NONAME
	_ZN18CContentionManager17HandleContentionLEPN5ESock27CMetaConnectionProviderBaseERN8Messages7TNodeIdEj @ 404 NONAME
	_ZN18CContentionManager18ContentionResolvedEv @ 405 NONAME
	_ZN18CContentionManagerC1ERKN5ESock16CTierManagerBaseE @ 406 NONAME
	_ZN18CContentionManagerC2ERKN5ESock16CTierManagerBaseE @ 407 NONAME
	_ZN18CContentionManagerD0Ev @ 408 NONAME
	_ZN18CContentionManagerD1Ev @ 409 NONAME
	_ZN18CContentionManagerD2Ev @ 410 NONAME
	_ZN22CprClientLeaveActivity20CClientLeaveActivity21TSaveLeaveMessageData12GetVTablePtrER6TDesC8Pv @ 411 NONAME
	_ZN22CprClientLeaveActivity20CClientLeaveActivity21TSaveLeaveMessageData3DoLEv @ 412 NONAME
	_ZN22CprClientLeaveActivity20CClientLeaveActivity27TSendLeaveCompleteIfRequest12GetVTablePtrER6TDesC8Pv @ 413 NONAME
	_ZN22CprClientLeaveActivity20CClientLeaveActivity27TSendLeaveCompleteIfRequest3DoLEv @ 414 NONAME
	_ZN22CprClientLeaveActivity20CClientLeaveActivity3NewERKN11MeshMachine13TNodeActivityERNS1_16TNodeContextBaseE @ 415 NONAME
	_ZN22CprClientLeaveActivity20CClientLeaveActivityD0Ev @ 416 NONAME
	_ZN22CprClientLeaveActivity20CClientLeaveActivityD1Ev @ 417 NONAME
	_ZN22CprClientLeaveActivity20CClientLeaveActivityD2Ev @ 418 NONAME
	_ZN25CprPriorityUpdateActivity23CPriorityUpdateActivity33TUpdatePriorityForControlProvider12GetVTablePtrER6TDesC8Pv @ 419 NONAME
	_ZN25CprPriorityUpdateActivity23CPriorityUpdateActivity33TUpdatePriorityForControlProvider3DoLEv @ 420 NONAME
	_ZN25CprPriorityUpdateActivity23CPriorityUpdateActivity34TNoTagOrSendPriorityToCtrlProvider12GetVTablePtrER6TDesC8Pv @ 421 NONAME
	_ZN25CprPriorityUpdateActivity23CPriorityUpdateActivity34TNoTagOrSendPriorityToCtrlProvider13TransitionTagEv @ 422 NONAME
	_ZN25CprPriorityUpdateActivity23CPriorityUpdateActivity34TNoTagOrSendPriorityToServProvider12GetVTablePtrER6TDesC8Pv @ 423 NONAME
	_ZN25CprPriorityUpdateActivity23CPriorityUpdateActivity34TNoTagOrSendPriorityToServProvider13TransitionTagEv @ 424 NONAME
	_ZN25CprPriorityUpdateActivity23CPriorityUpdateActivity34TUpdatePriorityForServiceProviders12GetVTablePtrER6TDesC8Pv @ 425 NONAME
	_ZN25CprPriorityUpdateActivity23CPriorityUpdateActivity34TUpdatePriorityForServiceProviders3DoLEv @ 426 NONAME
	_ZN27CCoreMetaConnectionProvider17ContentionOccuredERKN8Messages7TNodeIdE @ 427 NONAME ABSENT
	_ZN27CCoreMetaConnectionProvider18ContentionResolvedERKN8Messages7TNodeIdEi @ 428 NONAME ABSENT
	_ZN27CCoreMetaConnectionProvider34ReportContentionAvailabilityStatusERKN5ESock19TAvailabilityStatusE @ 429 NONAME ABSENT
	_ZN28CprControlClientJoinActivity26CControlClientJoinActivity18TNoTagOrSendActive12GetVTablePtrER6TDesC8Pv @ 430 NONAME
	_ZN28CprControlClientJoinActivity26CControlClientJoinActivity18TNoTagOrSendActive13TransitionTagEv @ 431 NONAME
	_ZN28CprControlClientJoinActivity26CControlClientJoinActivity26TAddClientOrUpdatePriority12GetVTablePtrER6TDesC8Pv @ 432 NONAME
	_ZN28CprControlClientJoinActivity26CControlClientJoinActivity26TAddClientOrUpdatePriority13TransitionTagEv @ 433 NONAME
	_ZN28CprControlClientJoinActivity26CControlClientJoinActivity26TSendJoinCompleteIfRequest12GetVTablePtrER6TDesC8Pv @ 434 NONAME
	_ZN28CprControlClientJoinActivity26CControlClientJoinActivity26TSendJoinCompleteIfRequest3DoLEv @ 435 NONAME
	_ZN28CprControlClientJoinActivity26CControlClientJoinActivity4NewLERKN11MeshMachine13TNodeActivityERNS1_11AMMNodeBaseE @ 436 NONAME
	_ZN28CprControlClientJoinActivity26CControlClientJoinActivityD0Ev @ 437 NONAME
	_ZN28CprControlClientJoinActivity26CControlClientJoinActivityD1Ev @ 438 NONAME
	_ZN28CprControlClientJoinActivity26CControlClientJoinActivityD2Ev @ 439 NONAME
	_ZN9CprStates17TAddControlClient12GetVTablePtrER6TDesC8Pv @ 440 NONAME
	_ZN9CprStates17TAddControlClient3DoLEv @ 441 NONAME
	_ZNK16CCoreTierManager28IsUnavailableDueToContentionEPKN5ESock27CMetaConnectionProviderBaseE @ 442 NONAME
	_ZNK18CContentionManager28IsUnavailableDueToContentionEPKN5ESock27CMetaConnectionProviderBaseE @ 443 NONAME
	_ZTI18CContentionManager @ 444 NONAME
	_ZTIN10MCprStates24TProcessDataClientRejoinE @ 445 NONAME
	_ZTIN17CprBindToActivity18CCprBindToActivity41TSendControlClientJoinRequestWithPriorityE @ 446 NONAME
	_ZTIN22CprClientLeaveActivity20CClientLeaveActivity21TSaveLeaveMessageDataE @ 447 NONAME
	_ZTIN22CprClientLeaveActivity20CClientLeaveActivity27TSendLeaveCompleteIfRequestE @ 448 NONAME
	_ZTIN22CprClientLeaveActivity20CClientLeaveActivityE @ 449 NONAME
	_ZTIN25CprPriorityUpdateActivity23CPriorityUpdateActivity33TUpdatePriorityForControlProviderE @ 450 NONAME
	_ZTIN25CprPriorityUpdateActivity23CPriorityUpdateActivity34TNoTagOrSendPriorityToCtrlProviderE @ 451 NONAME
	_ZTIN25CprPriorityUpdateActivity23CPriorityUpdateActivity34TNoTagOrSendPriorityToServProviderE @ 452 NONAME
	_ZTIN25CprPriorityUpdateActivity23CPriorityUpdateActivity34TUpdatePriorityForServiceProvidersE @ 453 NONAME
	_ZTIN28CprControlClientJoinActivity26CControlClientJoinActivity18TNoTagOrSendActiveE @ 454 NONAME
	_ZTIN28CprControlClientJoinActivity26CControlClientJoinActivity26TAddClientOrUpdatePriorityE @ 455 NONAME
	_ZTIN28CprControlClientJoinActivity26CControlClientJoinActivity26TSendJoinCompleteIfRequestE @ 456 NONAME
	_ZTIN28CprControlClientJoinActivity26CControlClientJoinActivityE @ 457 NONAME
	_ZTIN9CprStates17TAddControlClientE @ 458 NONAME
	_ZTV18CContentionManager @ 459 NONAME
	_ZTVN10MCprStates24TProcessDataClientRejoinE @ 460 NONAME
	_ZTVN17CprBindToActivity18CCprBindToActivity41TSendControlClientJoinRequestWithPriorityE @ 461 NONAME
	_ZTVN22CprClientLeaveActivity20CClientLeaveActivity21TSaveLeaveMessageDataE @ 462 NONAME
	_ZTVN22CprClientLeaveActivity20CClientLeaveActivity27TSendLeaveCompleteIfRequestE @ 463 NONAME
	_ZTVN22CprClientLeaveActivity20CClientLeaveActivityE @ 464 NONAME
	_ZTVN25CprPriorityUpdateActivity23CPriorityUpdateActivity33TUpdatePriorityForControlProviderE @ 465 NONAME
	_ZTVN25CprPriorityUpdateActivity23CPriorityUpdateActivity34TNoTagOrSendPriorityToCtrlProviderE @ 466 NONAME
	_ZTVN25CprPriorityUpdateActivity23CPriorityUpdateActivity34TNoTagOrSendPriorityToServProviderE @ 467 NONAME
	_ZTVN25CprPriorityUpdateActivity23CPriorityUpdateActivity34TUpdatePriorityForServiceProvidersE @ 468 NONAME
	_ZTVN28CprControlClientJoinActivity26CControlClientJoinActivity18TNoTagOrSendActiveE @ 469 NONAME
	_ZTVN28CprControlClientJoinActivity26CControlClientJoinActivity26TAddClientOrUpdatePriorityE @ 470 NONAME
	_ZTVN28CprControlClientJoinActivity26CControlClientJoinActivity26TSendJoinCompleteIfRequestE @ 471 NONAME
	_ZTVN28CprControlClientJoinActivity26CControlClientJoinActivityE @ 472 NONAME
	_ZTVN9CprStates17TAddControlClientE @ 473 NONAME
	_ZThn4_N18CContentionManager18ContentionResolvedEv @ 474 NONAME
	_ZN9CprStates37TPostPolicyCheckResponseToOriginators12GetVTablePtrER6TDesC8Pv @ 475 NONAME
	_ZN9CprStates37TPostPolicyCheckResponseToOriginators3DoLEv @ 476 NONAME
	_ZTIN9CprStates37TPostPolicyCheckResponseToOriginatorsE @ 477 NONAME
	_ZTVN9CprStates37TPostPolicyCheckResponseToOriginatorsE @ 478 NONAME
	_ZTIN16TierNotification29CCprFactoryQueryDataCollectorE @ 479 NONAME
	_ZTIN16TierNotification30CCprFactoryNotifyDataCollectorE @ 480 NONAME
	_ZTVN16TierNotification29CCprFactoryQueryDataCollectorE @ 481 NONAME
	_ZTVN16TierNotification30CCprFactoryNotifyDataCollectorE @ 482 NONAME
	_ZTI21TFactoryIteratorQuery @ 483 NONAME
	_ZTV21TFactoryIteratorQuery @ 484 NONAME

