EXPORTS
	_ZN17CT_LbsTestPsyBase10ConstructLEv @ 1 NONAME
	_ZN17CT_LbsTestPsyBase11CheckMaxAgeEP13TPositionInfo @ 2 NONAME
	_ZN17CT_LbsTestPsyBase11SetModuleIdERK4TUid @ 3 NONAME
	_ZN17CT_LbsTestPsyBase12ReportStatusEii @ 4 NONAME
	_ZN17CT_LbsTestPsyBase13SetTimerDelayERK25TTimeIntervalMicroSeconds @ 5 NONAME
	_ZN17CT_LbsTestPsyBase13SetUpdateTypeERKm @ 6 NONAME
	_ZN17CT_LbsTestPsyBase15CompleteRequestEii @ 7 NONAME
	_ZN17CT_LbsTestPsyBase15SetCapabilitiesERKm @ 8 NONAME
	_ZN17CT_LbsTestPsyBase16SetPositionInfoLEP13TPositionInfoRKi @ 9 NONAME
	_ZN17CT_LbsTestPsyBase16SetTPositionInfoER13TPositionInfoRKi @ 10 NONAME
	_ZN17CT_LbsTestPsyBase19SetNMEAGenericInfoLER20HPositionGenericInfo @ 11 NONAME
	_ZN17CT_LbsTestPsyBase19SetRequestsHandlingERKNS_17TRequestsHandlingE @ 12 NONAME
	_ZN17CT_LbsTestPsyBase19SetSupportedClassesERKm @ 13 NONAME
	_ZN17CT_LbsTestPsyBase20NotifyPositionUpdateEP13TPositionInfoP14TRequestStatus @ 14 NONAME
	_ZN17CT_LbsTestPsyBase20SetMediaGenericInfoLER20HPositionGenericInfo @ 15 NONAME
	_ZN17CT_LbsTestPsyBase20SetSpeedGenericInfoLER20HPositionGenericInfo @ 16 NONAME
	_ZN17CT_LbsTestPsyBase22SetAddressGenericInfoLER20HPositionGenericInfo @ 17 NONAME
	_ZN17CT_LbsTestPsyBase22SetCompassGenericInfoLER20HPositionGenericInfo @ 18 NONAME
	_ZN17CT_LbsTestPsyBase22SetTPositionCourseInfoER19TPositionCourseInfo @ 19 NONAME
	_ZN17CT_LbsTestPsyBase23SetBuildingGenericInfoLER20HPositionGenericInfo @ 20 NONAME
	_ZN17CT_LbsTestPsyBase24SetDirectionGenericInfoLER20HPositionGenericInfo @ 21 NONAME
	_ZN17CT_LbsTestPsyBase24SetSatelliteGenericInfoLER20HPositionGenericInfoRKi @ 22 NONAME
	_ZN17CT_LbsTestPsyBase25SetTPositionSatelliteInfoER22TPositionSatelliteInfoRKi @ 23 NONAME
	_ZN17CT_LbsTestPsyBase26CancelNotifyPositionUpdateEP14TRequestStatus @ 24 NONAME
	_ZN17CT_LbsTestPsyBase27ClearTPositionSatelliteInfoER22TPositionSatelliteInfo @ 25 NONAME
	_ZN17CT_LbsTestPsyBase4RunLEv @ 26 NONAME
	_ZN17CT_LbsTestPsyBase5TraceE5TBuf8ILi40EE @ 27 NONAME
	_ZN17CT_LbsTestPsyBase7ReleaseEv @ 28 NONAME
	_ZN17CT_LbsTestPsyBase8DoCancelEv @ 29 NONAME
	_ZN17CT_LbsTestPsyBase8RunErrorEi @ 30 NONAME
	_ZN17CT_LbsTestPsyBase9InstanceLEP17MPositionerStatus @ 31 NONAME
	_ZN17CT_LbsTestPsyBase9SetMaxAgeERK5TTime @ 32 NONAME
	_ZN17CT_LbsTestPsyBaseC1EP17MPositionerStatus @ 33 NONAME
	_ZN17CT_LbsTestPsyBaseC2EP17MPositionerStatus @ 34 NONAME
	_ZN17CT_LbsTestPsyBaseD0Ev @ 35 NONAME
	_ZN17CT_LbsTestPsyBaseD1Ev @ 36 NONAME
	_ZN17CT_LbsTestPsyBaseD2Ev @ 37 NONAME
	_ZNK17CT_LbsTestPsyBase10FindStatusEP14TRequestStatus @ 38 NONAME
	_ZNK17CT_LbsTestPsyBase19RequestsStatusCountEv @ 39 NONAME
	_ZTI17CT_LbsTestPsyBase @ 40 NONAME
	_ZTV17CT_LbsTestPsyBase @ 41 NONAME

