EXPORTS
	_Z10FbsStartupv @ 1 NONAME
	_Z14DummyReserved1v @ 2 NONAME
	_ZN10CChunkPile4FreeEPv @ 3 NONAME
	_ZN10CChunkPile4NewLERK6RChunk @ 4 NONAME
	_ZN10CChunkPile5AllocEi @ 5 NONAME
	_ZN10CChunkPileD0Ev @ 6 NONAME
	_ZN10CChunkPileD1Ev @ 7 NONAME
	_ZN10CChunkPileD2Ev @ 8 NONAME
	_ZN10CFbsBitmap10SetPaletteEP8CPalette @ 9 NONAME
	_ZN10CFbsBitmap10UnlockHeapEPv @ 10 NONAME
	_ZN10CFbsBitmap11IsFileInRomERK7TDesC16RPm @ 11 NONAME
	_ZN10CFbsBitmap12InternalizeLER11RReadStream @ 12 NONAME
	_ZN10CFbsBitmap13SetRomBitmapLEP14CBitwiseBitmapRi @ 13 NONAME
	_ZN10CFbsBitmap14ScanLineLengthEi12TDisplayMode @ 14 NONAME
	_ZN10CFbsBitmap14SetDisplayModeE12TDisplayMode @ 15 NONAME
	_ZN10CFbsBitmap14SetSizeInTwipsEPK18MGraphicsDeviceMap @ 16 NONAME
	_ZN10CFbsBitmap14SetSizeInTwipsERK5TSize @ 17 NONAME
	_ZN10CFbsBitmap15LoadAndCompressERK7TDesC16li @ 18 NONAME
	_ZN10CFbsBitmap15LoadAndCompressERK7TDesC16lij @ 19 NONAME
	_ZN10CFbsBitmap18SwapWidthAndHeightEv @ 20 NONAME
	_ZN10CFbsBitmap20CreateHardwareBitmapERK5TSize12TDisplayMode4TUid @ 21 NONAME
	_ZN10CFbsBitmap4LoadERK7TDesC16li @ 22 NONAME
	_ZN10CFbsBitmap4LoadERK7TDesC16lij @ 23 NONAME
	_ZN10CFbsBitmap4SaveERK7TDesC16 @ 24 NONAME
	_ZN10CFbsBitmap5ResetEv @ 25 NONAME
	_ZN10CFbsBitmap6CreateERK5TSize12TDisplayMode @ 26 NONAME
	_ZN10CFbsBitmap6ResizeERK5TSize @ 27 NONAME
	_ZN10CFbsBitmap6StoreLERK7TDesC16iPPS1_Pl @ 28 NONAME
	_ZN10CFbsBitmap8CompressEv @ 29 NONAME
	_ZN10CFbsBitmap9DuplicateEi @ 30 NONAME
	_ZN10CFbsBitmapC1Ev @ 31 NONAME
	_ZN10CFbsBitmapC2Ev @ 32 NONAME
	_ZN10CFbsBitmapD0Ev @ 33 NONAME
	_ZN10CFbsBitmapD1Ev @ 34 NONAME
	_ZN10CFbsBitmapD2Ev @ 35 NONAME
	_ZN11RFbsSession10DisconnectEv @ 36 NONAME
	_ZN11RFbsSession10GetSessionEv @ 37 NONAME
	_ZN11RFbsSession11SetCallBackE9TCallBack @ 38 NONAME
	_ZN11RFbsSession13ResetCallBackEv @ 39 NONAME
	_ZN11RFbsSession13ResourceCountEv @ 40 NONAME
	_ZN11RFbsSession7ConnectEv @ 41 NONAME
	_ZN11RFbsSession7VersionEv @ 42 NONAME
	_ZN11RFbsSession8CallBackEv @ 43 NONAME
	_ZN11RFbsSessionC1Ev @ 44 NONAME
	_ZN11RFbsSessionC2Ev @ 45 NONAME
	_ZN11TBitmapUtil3EndEv @ 46 NONAME
	_ZN11TBitmapUtil5BeginERK6TPoint @ 47 NONAME
	_ZN11TBitmapUtil5BeginERK6TPointRKS_ @ 48 NONAME
	_ZN11TBitmapUtil6SetPosERK6TPoint @ 49 NONAME
	_ZN11TBitmapUtil7DecXPosEv @ 50 NONAME
	_ZN11TBitmapUtil7DecYPosEv @ 51 NONAME
	_ZN11TBitmapUtil7IncXPosEv @ 52 NONAME
	_ZN11TBitmapUtil7IncYPosEv @ 53 NONAME
	_ZN11TBitmapUtil8SetPixelERKS_ @ 54 NONAME
	_ZN11TBitmapUtil8SetPixelEm @ 55 NONAME
	_ZN11TBitmapUtilC1EP10CFbsBitmap @ 56 NONAME
	_ZN11TBitmapUtilC2EP10CFbsBitmap @ 57 NONAME
	_ZN14CBitwiseBitmap10ConstructLER3RFsRK7TDesC16lj @ 58 NONAME
	_ZN14CBitwiseBitmap12CompressDataEv @ 59 NONAME
	_ZN14CBitwiseBitmap12InternalizeLER11RReadStream @ 60 NONAME
	_ZN14CBitwiseBitmap18InternalizeHeaderLER11RReadStreamR17SEpocBitmapHeader @ 61 NONAME
	_ZN14CBitwiseBitmap22SetCompressionBookmarkER21TLineScanningPositionPmPK10CFbsBitmap @ 62 NONAME
	_ZN14CBitwiseBitmap5ResetEv @ 63 NONAME
	_ZN14CBitwiseBitmap8CopyDataERKS_ @ 64 NONAME
	_ZN10CChunkPile11VirtualSizeEv @ 65 NONAME
	_ZN14CBitwiseBitmap9ConstructERK5TSize12TDisplayMode4TUid @ 66 NONAME
	_ZN14CBitwiseBitmapC1EP5RHeapP10CChunkPile @ 67 NONAME
	_ZN14CBitwiseBitmapC2EP5RHeapP10CChunkPile @ 68 NONAME
	_ZN14CBitwiseBitmapD1Ev @ 69 NONAME
	_ZN14CBitwiseBitmapD2Ev @ 70 NONAME
	_ZN14CBitwiseBitmapdlEPv @ 71 NONAME
	_ZN17CFbsTypefaceStore10RemoveFileEi @ 72 NONAME
	_ZN17CFbsTypefaceStore11GetFontByIdERP5CFont4TUidRK9TAlgStyle @ 73 NONAME
	_ZN17CFbsTypefaceStore11InstallFileERK7TDesC16Ri @ 74 NONAME
	_ZN17CFbsTypefaceStore20RemoveFontFileLocksLERK7TDesC16 @ 75 NONAME
	_ZN17CFbsTypefaceStore20RemoveFontFileLocksLERK7TDesC16i @ 76 NONAME
	_ZN17CFbsTypefaceStore20RemoveFontFileLocksLEv @ 77 NONAME
	_ZN17CFbsTypefaceStore21GetNearestFontInTwipsERP5CFontRK9TFontSpec @ 78 NONAME
	_ZN17CFbsTypefaceStore22GetNearestFontInPixelsERP5CFontRK9TFontSpec @ 79 NONAME
	_ZN17CFbsTypefaceStore4NewLEP15CGraphicsDevice @ 80 NONAME
	_ZN17CFbsTypefaceStore7AddFileERK7TDesC16Ri @ 81 NONAME
	_ZN17CFbsTypefaceStoreD0Ev @ 82 NONAME
	_ZN17CFbsTypefaceStoreD1Ev @ 83 NONAME
	_ZN17CFbsTypefaceStoreD2Ev @ 84 NONAME
	_ZN22CFbsColor256BitmapUtil10CopyBitmapEP10CFbsBitmapS1_NS_7TDitherE @ 85 NONAME
	_ZN22CFbsColor256BitmapUtil4NewLEPK8CPalette @ 86 NONAME
	_ZN23CFbsBitmapAsyncStreamer14LoadScanLinesLEiRP10CFbsBitmap @ 87 NONAME
	_ZN23CFbsBitmapAsyncStreamer14SaveScanLinesLEi @ 88 NONAME
	_ZN23CFbsBitmapAsyncStreamer4LoadERK7TDesC16lRi @ 89 NONAME
	_ZN23CFbsBitmapAsyncStreamer4NewLENS_5TModeE @ 90 NONAME
	_ZN23CFbsBitmapAsyncStreamer4SaveERK7TDesC16P10CFbsBitmapRlRi @ 91 NONAME
	_ZN23CFbsBitmapAsyncStreamerD0Ev @ 92 NONAME
	_ZN23CFbsBitmapAsyncStreamerD1Ev @ 93 NONAME
	_ZN23CFbsBitmapAsyncStreamerD2Ev @ 94 NONAME
	_ZN8CFbsFont5ResetEv @ 95 NONAME
	_ZN8CFbsFont9DuplicateEi @ 96 NONAME
	_ZN8CFbsFontC1ERKS_ @ 97 NONAME
	_ZN8CFbsFontC1Ev @ 98 NONAME
	_ZN8CFbsFontC2ERKS_ @ 99 NONAME
	_ZN8CFbsFontC2Ev @ 100 NONAME
	_ZN8CFbsFontD0Ev @ 101 NONAME
	_ZN8CFbsFontD1Ev @ 102 NONAME
	_ZN8CFbsFontD2Ev @ 103 NONAME
	_ZNK10CChunkPile9ChunkBaseEv @ 104 NONAME
	_ZNK10CFbsBitmap10GetPaletteERP8CPalette @ 105 NONAME
	_ZNK10CFbsBitmap10LockHeapLCEi @ 106 NONAME
	_ZNK10CFbsBitmap10UnlockHeapEi @ 107 NONAME
	_ZNK10CFbsBitmap11DataAddressEv @ 108 NONAME
	_ZNK10CFbsBitmap11DisplayModeEv @ 109 NONAME
	_ZNK10CFbsBitmap11GetScanLineER5TDes8RK6TPointi12TDisplayMode @ 110 NONAME
	_ZNK10CFbsBitmap11GetScanLineER5TDes8RK6TPointiS4_12TDisplayMode @ 111 NONAME
	_ZNK10CFbsBitmap11IsRomBitmapEv @ 112 NONAME
	_ZNK10CFbsBitmap11SetScanLineER5TDes8i @ 113 NONAME
	_ZNK10CFbsBitmap11SizeInTwipsEv @ 114 NONAME
	_ZNK10CFbsBitmap12ExternalizeLER12RWriteStream @ 115 NONAME
	_ZNK10CFbsBitmap12IsMonochromeEv @ 116 NONAME
	_ZNK10CFbsBitmap12SizeInPixelsEv @ 117 NONAME
	_ZNK10CFbsBitmap13IsLargeBitmapEv @ 118 NONAME
	_ZNK10CFbsBitmap17IsCompressedInRAMEv @ 119 NONAME
	_ZNK10CFbsBitmap17PaletteAttributesERiS0_ @ 120 NONAME
	_ZNK10CFbsBitmap18InitialDisplayModeEv @ 121 NONAME
	_ZNK10CFbsBitmap19GetVerticalScanLineER5TDes8i12TDisplayMode @ 122 NONAME
	_ZNK10CFbsBitmap19GetVerticalScanLineER5TDes8iRK6TPoint12TDisplayMode @ 123 NONAME
	_ZNK10CFbsBitmap20HardwareBitmapHandleEv @ 124 NONAME
	_ZNK10CFbsBitmap21ExternalizeRectangleLER12RWriteStreamRK5TRect @ 125 NONAME
	_ZNK10CFbsBitmap21VerticalPixelsToTwipsEi @ 126 NONAME
	_ZNK10CFbsBitmap21VerticalTwipsToPixelsEi @ 127 NONAME
	_ZNK10CFbsBitmap23HorizontalPixelsToTwipsEi @ 128 NONAME
	_ZNK10CFbsBitmap23HorizontalTwipsToPixelsEi @ 129 NONAME
	_ZNK10CFbsBitmap6HandleEv @ 130 NONAME
	_ZNK10CFbsBitmap6HeaderEv @ 131 NONAME
	_ZNK10CFbsBitmap8GetPixelER4TRgbRK6TPoint @ 132 NONAME
	_ZNK10CFbsBitmap8LockHeapEi @ 133 NONAME
	_ZNK11RFbsSession11SendCommandEiiiii @ 134 NONAME
	_ZNK11RFbsSession8HeapBaseEv @ 135 NONAME
	_ZNK11TBitmapUtil8GetPixelEv @ 136 NONAME
	_ZNK14CBitwiseBitmap11DisplayModeEv @ 137 NONAME
	_ZNK14CBitwiseBitmap11GetScanLineER5TDes8RK6TPointiiS4_12TDisplayModePm @ 138 NONAME
	_ZNK14CBitwiseBitmap11GetScanLineER5TDes8RK6TPointiiS4_12TDisplayModePmR21TLineScanningPosition @ 139 NONAME
	_ZNK14CBitwiseBitmap11GetScanLineERPmR5TDes8RK6TPointiiS6_12TDisplayMode @ 140 NONAME
	_ZNK14CBitwiseBitmap11SizeInTwipsEv @ 141 NONAME
	_ZNK14CBitwiseBitmap12ExternalizeLER12RWriteStreamRK10CFbsBitmap @ 142 NONAME
	_ZNK14CBitwiseBitmap12IsMonochromeEPm @ 143 NONAME
	_ZNK14CBitwiseBitmap12SizeInPixelsEv @ 144 NONAME
	_ZNK14CBitwiseBitmap13IsLargeBitmapEv @ 145 NONAME
	_ZNK14CBitwiseBitmap14GetScanLinePtrERPmR6TPointiS0_R21TLineScanningPosition @ 146 NONAME
	_ZNK14CBitwiseBitmap14GetScanLinePtrERPmRiR6TPointS0_R21TLineScanningPosition @ 147 NONAME
	_ZNK14CBitwiseBitmap15ScanLineAddressEPmj @ 148 NONAME
	_ZNK14CBitwiseBitmap15StretchScanLineER5TDes8RK6TPointiiiiiS4_12TDisplayModePm @ 149 NONAME
	_ZNK14CBitwiseBitmap15StretchScanLineER5TDes8RK6TPointiiiiiS4_12TDisplayModePmR21TLineScanningPosition @ 150 NONAME
	_ZNK14CBitwiseBitmap17IsCompressedInRAMEv @ 151 NONAME
	_ZNK14CBitwiseBitmap19GetVerticalScanLineER5TDes8iiRK6TPoint12TDisplayModePmP14CFbsRasterizer @ 152 NONAME
	_ZNK14CBitwiseBitmap20HardwareBitmapHandleEv @ 153 NONAME
	_ZNK14CBitwiseBitmap21ExternalizeRectangleLER12RWriteStreamRK5TRectRK10CFbsBitmap @ 154 NONAME
	_ZNK14CBitwiseBitmap21VerticalPixelsToTwipsEi @ 155 NONAME
	_ZNK14CBitwiseBitmap21VerticalTwipsToPixelsEi @ 156 NONAME
	_ZNK14CBitwiseBitmap23HorizontalPixelsToTwipsEi @ 157 NONAME
	_ZNK14CBitwiseBitmap23HorizontalTwipsToPixelsEi @ 158 NONAME
	_ZNK14CBitwiseBitmap3UidEv @ 159 NONAME
	_ZNK14CBitwiseBitmap8GetPixelER4TRgbRK6TPointPmP14CFbsRasterizer @ 160 NONAME
	_ZNK17CFbsTypefaceStore12NumTypefacesEv @ 161 NONAME
	_ZNK17CFbsTypefaceStore15TypefaceSupportER16TTypefaceSupporti @ 162 NONAME
	_ZNK17CFbsTypefaceStore17DefaultBitmapTypeEv @ 163 NONAME
	_ZNK17CFbsTypefaceStore17FontHeightInTwipsEii @ 164 NONAME
	_ZNK17CFbsTypefaceStore17SetFontNameAliasLERK7TDesC16S2_ @ 165 NONAME
	_ZNK17CFbsTypefaceStore18FontHeightInPixelsEii @ 166 NONAME
	_ZNK17CFbsTypefaceStore20SetDefaultBitmapTypeE16TGlyphBitmapType @ 167 NONAME
	_ZNK8CFbsFont10IsOpenFontEv @ 168 NONAME
	_ZNK8CFbsFont12HasCharacterEi @ 169 NONAME
	_ZNK8CFbsFont13GetFaceAttribER19TOpenFontFaceAttrib @ 170 NONAME
	_ZNK8CFbsFont16DoAscentInPixelsEv @ 171 NONAME
	_ZNK8CFbsFont14GetFontMetricsER16TOpenFontMetrics @ 172 NONAME
	_ZNK8CFbsFont16DoHeightInPixelsEv @ 173 NONAME
	_ZNK8CFbsFont17DoFontSpecInTwipsEv @ 174 NONAME
	_ZNK8CFbsFont16CharacterMetricsEiRPKh @ 175 NONAME
	_ZNK8CFbsFont18DoGetCharacterDataEjR20TOpenFontCharMetricsRPKhR5TSize @ 176 NONAME
	_ZNK8CFbsFont19DoCharWidthInPixelsE5TChar @ 177 NONAME
	_ZNK8CFbsFont17TextWidthInPixelsERK7TDesC16 @ 178 NONAME
	_ZNK8CFbsFont17TextWidthInPixelsERK7TDesC16R10SCharWidth @ 179 NONAME
	_ZNK8CFbsFont22DoMaxCharWidthInPixelsEv @ 180 NONAME
	_ZNK8CFbsFont20RawTextWidthInPixelsERK7TDesC16 @ 181 NONAME
	_ZNK8CFbsFont24DoBaselineOffsetInPixelsEv @ 182 NONAME
	_ZNK8CFbsFont28DoMaxNormalCharWidthInPixelsEv @ 183 NONAME
	_ZNK8CFbsFont6HandleEv @ 184 NONAME
	_ZNK8CFbsFont7AddressEv @ 185 NONAME
	_ZNK8CFbsFont11DoTextCountERK7TDesC16i @ 186 NONAME
	_ZNK8CFbsFont11DoTextCountERK7TDesC16iRi @ 187 NONAME
	_ZTI10CFbsBitmap @ 188 NONAME ; #<TI>#
	_ZTI17CFbsTypefaceStore @ 189 NONAME ; #<TI>#
	_ZTI8CFbsFont @ 190 NONAME ; #<TI>#
	_ZTV10CFbsBitmap @ 191 NONAME ; #<VT>#
	_ZTV17CFbsTypefaceStore @ 192 NONAME ; #<VT>#
	_ZTV8CFbsFont @ 193 NONAME ; #<VT>#
	_ZN14CBitwiseBitmap10ConstructLEP17CShiftedFileStore9TStreamId @ 194 NONAME
	_ZTI10CChunkPile @ 195 NONAME ; #<TI>#
	_ZTI12CFbsRalCache @ 196 NONAME ABSENT ; #<TI>#
	_ZTI14CFbsRalCacheEl @ 197 NONAME ABSENT ; #<TI>#
	_ZTI15CDitherColor256 @ 198 NONAME ABSENT ; #<TI>#
	_ZTI22CFbsColor256BitmapUtil @ 199 NONAME ; #<TI>#
	_ZTI23CFbsBitmapAsyncStreamer @ 200 NONAME ; #<TI>#
	_ZTV10CChunkPile @ 201 NONAME ; #<VT>#
	_ZTV12CFbsRalCache @ 202 NONAME ABSENT ; #<VT>#
	_ZTV14CFbsRalCacheEl @ 203 NONAME ABSENT ; #<VT>#
	_ZTV15CDitherColor256 @ 204 NONAME ABSENT ; #<VT>#
	_ZTV22CFbsColor256BitmapUtil @ 205 NONAME ; #<VT>#
	_ZTV23CFbsBitmapAsyncStreamer @ 206 NONAME ; #<VT>#
	_ZN14CBitwiseBitmap10ConstructLER5RFilelj @ 207 NONAME
	_ZN11RFbsSession12GetHeapSizesERiS0_S0_ @ 208 NONAME
	_ZN17CFbsTypefaceStore32GetNearestFontToMaxHeightInTwipsERP5CFontRK9TFontSpeci @ 209 NONAME
	_ZN17CFbsTypefaceStore33GetNearestFontToMaxHeightInPixelsERP5CFontRK9TFontSpeci @ 210 NONAME
	_ZN17CFbsTypefaceStore35GetNearestFontToDesignHeightInTwipsERP5CFontRK9TFontSpec @ 211 NONAME
	_ZN17CFbsTypefaceStore36GetNearestFontToDesignHeightInPixelsERP5CFontRK9TFontSpec @ 212 NONAME
	_ZNK8CFbsFont18DoExtendedFunctionE4TUidPv @ 213 NONAME
	_ZN10CFbsBitmap15LoadAndCompressER5RFileli @ 214 NONAME
	_ZN10CFbsBitmap15LoadAndCompressER5RFilelij @ 215 NONAME
	_ZN10CFbsBitmap4LoadER5RFileli @ 216 NONAME
	_ZN10CFbsBitmap4LoadER5RFilelij @ 217 NONAME
	_ZN10CFbsBitmap4SaveER5RFile @ 218 NONAME
	_ZN10CFbsBitmap6StoreLER5RFileiPPK7TDesC16Pl @ 219 NONAME
	_ZN10CFbsBitmap11IsFileInRomER5RFileRPm @ 220 NONAME
	_ZN11RFbsSession7ConnectER3RFs @ 221 NONAME
	_ZNK8CFbsFont19DoTextWidthInPixelsERK7TDesC16 @ 222 NONAME
	_ZN10CFbsBitmap22GetDecompressionBufferEi @ 223 NONAME
	_ZNK14CBitwiseBitmap12IsCompressedEv @ 224 NONAME
	_ZNK10CFbsBitmap10DataStrideEv @ 225 NONAME
	_ZNK17CFbsTypefaceStore28SetDefaultLanguageForMetricsE9TLanguage @ 226 NONAME
	_ZN10CChunkPile22DefragmentChunkOneStepEv @ 227 NONAME ABSENT
	_ZN10CChunkPile15DefragmentChunkEi @ 228 NONAME ABSENT
	_ZN14CBitwiseBitmap27CheckBackgroundCompressDataEv @ 229 NONAME
	_ZNK10CChunkPile16DefragmentNeededEv @ 230 NONAME ABSENT
	_ZN10CFbsBitmap20CompressInBackgroundER14TRequestStatus @ 231 NONAME
	_ZN10CFbsBitmap20CompressInBackgroundEv @ 232 NONAME
	_ZN17CFbsTypefaceStore17ReleaseTwipsCacheEv @ 233 NONAME
	_ZNK14CBitwiseBitmap10DataStrideEv @ 234 NONAME
	_ZN10CFbsBitmap20CompressInBackgroundE28TBitmapfileCompressionScheme @ 235 NONAME
	_ZN10CFbsBitmap20CompressInBackgroundER14TRequestStatus28TBitmapfileCompressionScheme @ 236 NONAME
	_ZN10CFbsBitmap8CompressE28TBitmapfileCompressionScheme @ 237 NONAME
	_ZN14CBitwiseBitmap12CompressDataE28TBitmapfileCompressionScheme @ 238 NONAME
	_ZNK14CBitwiseBitmap6HeaderEv @ 239 NONAME
	_ZN17CFbsTypefaceStore29SetSystemDefaultTypefaceNameLERK7TDesC16 @ 240 NONAME
	_ZNK10CFbsBitmap19GetAllBitmapHandlesER6RArrayIiE @ 241 NONAME
	_ZN17CFbsTypefaceStore22RegisterLinkedTypefaceERK28CLinkedTypefaceSpecificationRi @ 242 NONAME
	KFbServLargeChunkGrowByShifter @ 243 NONAME DATA 4
	KFbServLargeChunkMaxVirtualSize @ 244 NONAME DATA 4
	KFbServLargeChunkMinPhysicalSize @ 245 NONAME DATA 4
	KFbServLargeChunkMinVirtualSize @ 246 NONAME DATA 4
	KFbServLargeChunkSizeShifter @ 247 NONAME DATA 4
	_ZNK10CFbsBitmap12CleanAddressEv @ 248 NONAME
	_ZNK10CFbsBitmap13EndDataAccessEi @ 249 NONAME
	_ZNK10CFbsBitmap15BeginDataAccessEv @ 250 NONAME
	_ZNK8CFbsFont17TextWidthInPixelsERK7TDesC16PKN5CFont17TMeasureTextInputE @ 251 NONAME
	_ZNK8CFbsFont17TextWidthInPixelsERK7TDesC16PKN5CFont17TMeasureTextInputER10SCharWidth @ 252 NONAME
	_ZNK10CFbsBitmap10IsVolatileEv @ 253 NONAME
	_ZNK10CFbsBitmap10TouchCountEv @ 254 NONAME
	_ZNK10CFbsBitmap12SerialNumberEv @ 255 NONAME
	_ZN17CFbsTypefaceStore22RegisterLinkedTypefaceERK28CLinkedTypefaceSpecification @ 256 NONAME
	_ZN17CFbsTypefaceStore18GetLinkedTypefaceLER28CLinkedTypefaceSpecification @ 257 NONAME
	_ZN10CFbsBitmap10RasterizerEv @ 258 NONAME
	_ZN10CFbsBitmap20CreateExtendedBitmapERK5TSize12TDisplayMode4TUidPKvi @ 259 NONAME
	_ZN10CFbsBitmap20CreateExtendedBitmapERK5TSize12TDisplayMode4TUidiR29MFbsExtendedBitmapInitializer @ 260 NONAME
	_ZN14CBitwiseBitmap17ConstructExtendedERK5TSize12TDisplayMode4TUidi @ 261 NONAME
	_ZNK10CFbsBitmap18ExtendedBitmapTypeEv @ 262 NONAME
	_ZNK10CFbsBitmap8DataSizeEv @ 263 NONAME
	_ZN17CFbsTypefaceStore20UpdateLinkedTypefaceERK28CLinkedTypefaceSpecification @ 264 NONAME
	_ZN10CFbsBitmap14GetExtraBufferEi @ 265 NONAME
	_ZN21RFbsGlyphDataIterator4NextEv @ 266 NONAME
	_ZN21RFbsGlyphDataIterator4OpenER8CFbsFontPKji @ 267 NONAME
	_ZN21RFbsGlyphDataIterator5CloseEv @ 268 NONAME
	_ZN21RFbsGlyphDataIteratorC1Ev @ 269 NONAME
	_ZN21RFbsGlyphDataIteratorC2Ev @ 270 NONAME
	_ZN21RFbsGlyphMetricsArray3GetER8CFbsFontPKji @ 271 NONAME
	_ZN21RFbsGlyphMetricsArray5CloseEv @ 272 NONAME
	_ZN21RFbsGlyphMetricsArrayC1Ev @ 273 NONAME
	_ZN21RFbsGlyphMetricsArrayC2Ev @ 274 NONAME
	_ZNK21RFbsGlyphDataIterator4RectEv @ 275 NONAME
	_ZNK21RFbsGlyphDataIterator5ImageEv @ 276 NONAME
	_ZNK21RFbsGlyphDataIterator7MetricsEv @ 277 NONAME
	_ZNK21RFbsGlyphDataIterator9GlyphCodeEv @ 278 NONAME
	_ZNK21RFbsGlyphMetricsArray5CountEv @ 279 NONAME
	_ZNK21RFbsGlyphMetricsArrayixEi @ 280 NONAME
	_ZN11RFbsSession20GetGlyphCacheMetricsER18TGlyphCacheMetrics @ 281 NONAME
	_ZN11RFbsSession17ConveyOogmMessageER15TFbsOogmMessage @ 282 NONAME

