EXPORTS
	_Z6E32Dll10TDllReason @ 1 NONAME
	_ZN12CMMFDevSound10RecordDataEv @ 2 NONAME
	_ZN12CMMFDevSound10SetConfigLERK16TMMFCapabilities @ 3 NONAME
	_ZN12CMMFDevSound11InitializeLER17MDevSoundObserver4TUid9TMMFState @ 4 NONAME
	_ZN12CMMFDevSound11InitializeLER17MDevSoundObserver7TFourCC9TMMFState @ 5 NONAME
	_ZN12CMMFDevSound11InitializeLER17MDevSoundObserver9TMMFState @ 6 NONAME
	_ZN12CMMFDevSound11RecordInitLEv @ 7 NONAME
	_ZN12CMMFDevSound12CapabilitiesEv @ 8 NONAME
	_ZN12CMMFDevSound13PlayDualToneLEiiRK25TTimeIntervalMicroSeconds @ 9 NONAME
	_ZN12CMMFDevSound13SamplesPlayedEv @ 10 NONAME
	_ZN12CMMFDevSound13SetVolumeRampERK25TTimeIntervalMicroSeconds @ 11 NONAME
	_ZN12CMMFDevSound14SetDTMFLengthsER27TTimeIntervalMicroSeconds32S1_S1_ @ 12 NONAME
	_ZN12CMMFDevSound14SetToneRepeatsEiRK25TTimeIntervalMicroSeconds @ 13 NONAME
	_ZN12CMMFDevSound15CustomInterfaceE4TUid @ 14 NONAME
	_ZN12CMMFDevSound15GetPlayBalanceLERiS0_ @ 15 NONAME
	_ZN12CMMFDevSound15PlayDTMFStringLERK7TDesC16 @ 16 NONAME
	_ZN12CMMFDevSound15SamplesRecordedEv @ 17 NONAME
	_ZN12CMMFDevSound15SetPlayBalanceLEii @ 18 NONAME
	_ZN12CMMFDevSound17FixedSequenceNameEi @ 19 NONAME
	_ZN12CMMFDevSound17GetRecordBalanceLERiS0_ @ 20 NONAME
	_ZN12CMMFDevSound17PlayToneSequenceLERK6TDesC8 @ 21 NONAME
	_ZN12CMMFDevSound17SetRecordBalanceLEii @ 22 NONAME
	_ZN12CMMFDevSound18FixedSequenceCountEv @ 23 NONAME
	_ZN12CMMFDevSound18PlayFixedSequenceLEi @ 24 NONAME
	_ZN12CMMFDevSound19SetPrioritySettingsERK20TMMFPrioritySettings @ 25 NONAME
	_ZN12CMMFDevSound4GainEv @ 26 NONAME
	_ZN12CMMFDevSound4NewLEv @ 27 NONAME
	_ZN12CMMFDevSound4StopEv @ 28 NONAME
	_ZN12CMMFDevSound5PauseEv @ 29 NONAME
	_ZN12CMMFDevSound6VolumeEv @ 30 NONAME
	_ZN12CMMFDevSound7MaxGainEv @ 31 NONAME
	_ZN12CMMFDevSound7SetGainEi @ 32 NONAME
	_ZN12CMMFDevSound8PlayDataEv @ 33 NONAME
	_ZN12CMMFDevSound9MaxVolumeEv @ 34 NONAME
	_ZN12CMMFDevSound9PlayInitLEv @ 35 NONAME
	_ZN12CMMFDevSound9PlayToneLEiRK25TTimeIntervalMicroSeconds @ 36 NONAME
	_ZN12CMMFDevSound9SetVolumeEi @ 37 NONAME
	_ZN12CMMFDevSoundD0Ev @ 38 NONAME
	_ZN12CMMFDevSoundD1Ev @ 39 NONAME
	_ZN12CMMFDevSoundD2Ev @ 40 NONAME
	_ZN24CMMFDevSoundEventHandler4NewLEP20RMMFAudioPolicyProxy @ 41 NONAME
	_ZNK12CMMFDevSound6ConfigEv @ 42 NONAME
	_ZNK12CMMFDevSound27GetSupportedInputDataTypesLER6RArrayI7TFourCCERK20TMMFPrioritySettings @ 43 NONAME
	_ZNK12CMMFDevSound28GetSupportedOutputDataTypesLER6RArrayI7TFourCCERK20TMMFPrioritySettings @ 44 NONAME
	_ZTI12CMMFDevSound @ 45 NONAME ; #<TI>#
	_ZTV12CMMFDevSound @ 46 NONAME ; #<VT>#
	

