EXPORTS
	_ZN10RLbsLogger11UpdateEventER12CLbsLogEvent @ 1 NONAME
	_ZN10RLbsLogger19ExtensionInterfaceLE4TUidRPv @ 2 NONAME
	_ZN10RLbsLogger4OpenEj @ 3 NONAME
	_ZN10RLbsLogger5CloseEv @ 4 NONAME
	_ZN10RLbsLogger8AddEventER12CLbsLogEvent @ 5 NONAME
	_ZN10RLbsLoggerC1Ev @ 6 NONAME
	_ZN10RLbsLoggerC2Ev @ 7 NONAME
	_ZN10RLbsLoggerD1Ev @ 8 NONAME
	_ZN10RLbsLoggerD2Ev @ 9 NONAME
	_ZN12CLbsLogEvent15SetPositionInfoEP17TPositionInfoBase @ 10 NONAME
	_ZN12CLbsLogEvent4NewLERK9CLogEvent @ 11 NONAME
	_ZN22CLbsSelfLocateLogEvent4NewLE4TUidP17TPositionInfoBase @ 12 NONAME
	_ZN25CLbsNetworkLocateLogEvent4NewLE4TUidP17TPositionInfoBase @ 13 NONAME
	_ZN26CLbsAssistanceDataLogEvent4NewLEmm @ 14 NONAME
	_ZN26CLbsExternalLocateLogEvent20SetReferenceLocationEP17TPositionInfoBase @ 15 NONAME
	_ZN26CLbsExternalLocateLogEvent23SetPrivacyRequestParamsERK31TLbsLoggingPrivacyRequestParams @ 16 NONAME
	_ZN26CLbsExternalLocateLogEvent24SetPrivacyResponseParamsERK32TLbsLoggingPrivacyResponseParams @ 17 NONAME
	_ZN26CLbsExternalLocateLogEvent4NewLE4TUidP17TPositionInfoBaseS2_ @ 18 NONAME
	_ZN28CLbsTransmitLocationLogEvent4NewLE4TUidP17TPositionInfoBaseR7TDesC16 @ 19 NONAME
	_ZNK12CLbsLogEvent12ExternalizeLEv @ 20 NONAME
	_ZTI10RLbsLogger @ 21 NONAME
	_ZTI12CLbsLogEvent @ 22 NONAME
	_ZTI19CLbsLogWriterEngine @ 23 NONAME
	_ZTI22CLbsSelfLocateLogEvent @ 24 NONAME
	_ZTI25CLbsNetworkLocateLogEvent @ 25 NONAME
	_ZTI26CLbsAssistanceDataLogEvent @ 26 NONAME
	_ZTI26CLbsExternalLocateLogEvent @ 27 NONAME
	_ZTI28CLbsTransmitLocationLogEvent @ 28 NONAME
	_ZTV10RLbsLogger @ 29 NONAME
	_ZTV12CLbsLogEvent @ 30 NONAME
	_ZTV19CLbsLogWriterEngine @ 31 NONAME
	_ZTV22CLbsSelfLocateLogEvent @ 32 NONAME
	_ZTV25CLbsNetworkLocateLogEvent @ 33 NONAME
	_ZTV26CLbsAssistanceDataLogEvent @ 34 NONAME
	_ZTV26CLbsExternalLocateLogEvent @ 35 NONAME
	_ZTV28CLbsTransmitLocationLogEvent @ 36 NONAME
	_ZN12CLbsLogEvent12SetDirectionEi @ 37 NONAME
	_ZN12CLbsLogEvent12SetEventTypeE4TUid @ 38 NONAME
	_ZN12CLbsLogEvent17SetRequestOutcomeE18TLbsRequestOutcome @ 39 NONAME
	_ZN12CLbsLogEvent18SetCostInformationEj @ 40 NONAME
	_ZN22CLbsSelfLocateLogEvent11SetLocalAppE4TUid @ 41 NONAME
	_ZN25CLbsNetworkLocateLogEvent11SetLocalAppE4TUid @ 42 NONAME
	_ZN26CLbsAssistanceDataLogEvent28SetReceiveAssistanceDataTypeEm @ 43 NONAME
	_ZN26CLbsAssistanceDataLogEvent28SetRequestAssistanceDataTypeEm @ 44 NONAME
	_ZN26CLbsExternalLocateLogEvent20SetRequestOriginatorE4TUid @ 45 NONAME
	_ZN28CLbsTransmitLocationLogEvent14SetDestinationER7TDesC16 @ 46 NONAME
	_ZN28CLbsTransmitLocationLogEvent9SetX3PAppE4TUid @ 47 NONAME
	_ZNK12CLbsLogEvent12PositionInfoEv @ 48 NONAME
	_ZNK12CLbsLogEvent14RequestOutcomeEv @ 49 NONAME
	_ZNK12CLbsLogEvent15CostInformationEv @ 50 NONAME
	_ZNK12CLbsLogEvent26IsCostInformationAvailableEv @ 51 NONAME
	_ZNK12CLbsLogEvent9DirectionEv @ 52 NONAME
	_ZNK12CLbsLogEvent9EventTypeEv @ 53 NONAME
	_ZNK22CLbsSelfLocateLogEvent8LocalAppEv @ 54 NONAME
	_ZNK25CLbsNetworkLocateLogEvent8LocalAppEv @ 55 NONAME
	_ZNK26CLbsAssistanceDataLogEvent25ReceiveAssistanceDataTypeEv @ 56 NONAME
	_ZNK26CLbsAssistanceDataLogEvent25RequestAssistanceDataTypeEv @ 57 NONAME
	_ZNK26CLbsExternalLocateLogEvent17ReferenceLocationEv @ 58 NONAME
	_ZNK26CLbsExternalLocateLogEvent17RequestOriginatorEv @ 59 NONAME
	_ZNK26CLbsExternalLocateLogEvent20PrivacyRequestParamsEv @ 60 NONAME
	_ZNK26CLbsExternalLocateLogEvent21PrivacyResponseParamsEv @ 61 NONAME
	_ZNK28CLbsTransmitLocationLogEvent11DestinationEv @ 62 NONAME
	_ZNK28CLbsTransmitLocationLogEvent6X3PAppEv @ 63 NONAME
	_ZNK19CLbsLogWriterEngine18__DbgTestInvariantEv @ 64 NONAME

