EXPORTS
	??0RMBufAsyncRequest@@QAE@XZ @ 1 NONAME ; public: __thiscall RMBufAsyncRequest::RMBufAsyncRequest(void)
	??0RMBufPacketBase@@QAE@XZ @ 2 NONAME ; public: __thiscall RMBufPacketBase::RMBufPacketBase(void)
	??0RMBufQ@@QAE@PAVRMBuf@@@Z @ 3 NONAME ; public: __thiscall RMBufQ::RMBufQ(class RMBuf *)
	??0RMBufStreamQ@@QAE@XZ @ 4 NONAME ; public: __thiscall RMBufStreamQ::RMBufStreamQ(void)
	??1CMBufManager@@UAE@XZ @ 5 NONAME ; public: virtual __thiscall CMBufManager::~CMBufManager(void)
	??1RMBufAsyncRequest@@QAE@XZ @ 6 NONAME ; public: __thiscall RMBufAsyncRequest::~RMBufAsyncRequest(void)
	??2RMBufCell@@SAPAXIW4TLeave@@I@Z @ 7 NONAME ; public: static void * __cdecl RMBufCell::operator new(unsigned int,enum TLeave,unsigned int)
	??3RMBufCell@@SAXPAX@Z @ 8 NONAME ; public: static void __cdecl RMBufCell::operator delete(void *)
	??ETMBufPktQIter@@QAEABVRMBufChain@@H@Z @ 9 NONAME ; public: class RMBufChain const & __thiscall TMBufPktQIter::operator++(int)
	?Align@RMBufChain@@QAEHH@Z @ 10 NONAME ; public: int __thiscall RMBufChain::Align(int)
	?Alloc@RMBufAsyncRequest@@QAEXAAVRMBufChain@@HAAVTRequestStatus@@@Z @ 11 NONAME ; public: void __thiscall RMBufAsyncRequest::Alloc(class RMBufChain &,int,class TRequestStatus &)
	?AllocL@CMBufManager@@QAEPAVRMBuf@@H@Z @ 12 NONAME ; public: class RMBuf * __thiscall CMBufManager::AllocL(int)
	?AllocL@RMBuf@@SAPAV1@XZ @ 13 NONAME ; public: static class RMBuf * __cdecl RMBuf::AllocL(void)
	?AllocL@RMBufChain@@QAEXH@Z @ 14 NONAME ; public: void __thiscall RMBufChain::AllocL(int)
	?Append@RMBufChain@@QAEXAAV1@@Z @ 15 NONAME ; public: void __thiscall RMBufChain::Append(class RMBufChain &)
	?Append@RMBufPktQ@@QAEXAAV1@@Z @ 16 NONAME ; public: void __thiscall RMBufPktQ::Append(class RMBufPktQ &)
	?Append@RMBufPktQ@@QAEXAAVRMBufChain@@@Z @ 17 NONAME ; public: void __thiscall RMBufPktQ::Append(class RMBufChain &)
	?Append@RMBufQ@@QAEXAAV1@@Z @ 18 NONAME ; public: void __thiscall RMBufQ::Append(class RMBufQ &)
	?Append@RMBufQ@@QAEXAAVRMBufChain@@@Z @ 19 NONAME ; public: void __thiscall RMBufQ::Append(class RMBufChain &)
	?Append@RMBufQ@@QAEXPAVRMBuf@@@Z @ 20 NONAME ; public: void __thiscall RMBufQ::Append(class RMBuf *)
	?Append@RMBufStreamQ@@QAEXAAVRMBufChain@@@Z @ 21 NONAME ; public: void __thiscall RMBufStreamQ::Append(class RMBufChain &)
	?AppendL@RMBufChain@@QAEXH@Z @ 22 NONAME ; public: void __thiscall RMBufChain::AppendL(int)
	?Assign@RMBufChain@@QAEXAAV1@@Z @ 23 NONAME ; public: void __thiscall RMBufChain::Assign(class RMBufChain &)
	?Assign@RMBufChain@@QAEXAAVRMBufQ@@@Z @ 24 NONAME ; public: void __thiscall RMBufChain::Assign(class RMBufQ &)
	?Assign@RMBufQ@@QAEXAAV1@@Z @ 25 NONAME ; public: void __thiscall RMBufQ::Assign(class RMBufQ &)
	?Assign@RMBufQ@@QAEXAAVRMBufChain@@@Z @ 26 NONAME ; public: void __thiscall RMBufQ::Assign(class RMBufChain &)
	?Cancel@RMBufAsyncRequest@@QAEXXZ @ 27 NONAME ; public: void __thiscall RMBufAsyncRequest::Cancel(void)
	?Context@CMBufManager@@SAPAV1@XZ @ 28 NONAME ; public: static class CMBufManager * __cdecl CMBufManager::Context(void)
	?CopyIn@RMBufChain@@QAEXABVTDesC8@@H@Z @ 29 NONAME ; public: void __thiscall RMBufChain::CopyIn(class TDesC8 const &,int)
	?CopyInfoL@RMBufPacketBase@@QAEXAAV1@@Z @ 30 NONAME ; public: void __thiscall RMBufPacketBase::CopyInfoL(class RMBufPacketBase &)
	?CopyL@RMBufCell@@QAEPAV1@XZ @ 31 NONAME ; public: class RMBufCell * __thiscall RMBufCell::CopyL(void)
	?CopyL@RMBufChain@@QBEXAAV1@HH@Z @ 32 NONAME ; public: void __thiscall RMBufChain::CopyL(class RMBufChain &,int,int)const 
	?CopyOut@RMBufChain@@QBEXAAVTDes8@@H@Z @ 33 NONAME ; public: void __thiscall RMBufChain::CopyOut(class TDes8 &,int)const 
	?CopyOut@RMBufStreamQ@@QAEXAAVTDes8@@@Z @ 34 NONAME ; public: void __thiscall RMBufStreamQ::CopyOut(class TDes8 &)
	?CopyPackedL@RMBufPacketBase@@QAEXAAVRMBufChain@@@Z @ 35 NONAME ; public: void __thiscall RMBufPacketBase::CopyPackedL(class RMBufChain &)
	?CopySegmentL@RMBufStreamQ@@QAEXAAVRMBufChain@@HH@Z @ 36 NONAME ; public: void __thiscall RMBufStreamQ::CopySegmentL(class RMBufChain &,int,int)
	?CreateCopyL@RMBufPacketBase@@IAEPAVRMBufPktInfo@@AAVRMBufStreamQ@@HHHI@Z @ 37 NONAME ; protected: class RMBufPktInfo * __thiscall RMBufPacketBase::CreateCopyL(class RMBufStreamQ &,int,int,int,unsigned int)
	?CreateCopyL@RMBufPacketBase@@IAEPAVRMBufPktInfo@@ABVRMBufPktQ@@HI@Z @ 38 NONAME ; protected: class RMBufPktInfo * __thiscall RMBufPacketBase::CreateCopyL(class RMBufPktQ const &,int,unsigned int)
	?CreateCopyL@RMBufPacketBase@@IAEPAVRMBufPktInfo@@ABVRMBufQ@@HHHI@Z @ 39 NONAME ; protected: class RMBufPktInfo * __thiscall RMBufPacketBase::CreateCopyL(class RMBufQ const &,int,int,int,unsigned int)
	?CreateL@CMBufManager@@QAEXH@Z @ 40 NONAME ABSENT ; public: void __thiscall CMBufManager::CreateL(int)
	?CreateL@RMBufChain@@QAEXABVTDesC8@@H@Z @ 41 NONAME ; public: void __thiscall RMBufChain::CreateL(class TDesC8 const &,int)
	?CreateL@RMBufPacketBase@@IAEPAVRMBufPktInfo@@AAVRMBufQ@@HI@Z @ 42 NONAME ; protected: class RMBufPktInfo * __thiscall RMBufPacketBase::CreateL(class RMBufQ &,int,unsigned int)
	?CreateL@RMBufPacketBase@@IAEPAVRMBufPktInfo@@ABVTDesC8@@HI@Z @ 43 NONAME ; protected: class RMBufPktInfo * __thiscall RMBufPacketBase::CreateL(class TDesC8 const &,int,unsigned int)
	?CreateL@RMBufPacketBase@@IAEPAVRMBufPktInfo@@HI@Z @ 44 NONAME ; protected: class RMBufPktInfo * __thiscall RMBufPacketBase::CreateL(int,unsigned int)
	?FillZ@RMBufChain@@QAEXH@Z @ 45 NONAME ; public: void __thiscall RMBufChain::FillZ(int)
	?Free@CMBufManager@@QAEXPAVRMBuf@@@Z @ 46 NONAME ; public: void __thiscall CMBufManager::Free(class RMBuf *)
	?Free@RMBuf@@QAEXXZ @ 47 NONAME ; public: void __thiscall RMBuf::Free(void)
	?Free@RMBufChain@@QAEXXZ @ 48 NONAME ; public: void __thiscall RMBufChain::Free(void)
	?Free@RMBufPacketBase@@QAEXXZ @ 49 NONAME ; public: void __thiscall RMBufPacketBase::Free(void)
	?Free@RMBufPktQ@@QAEXXZ @ 50 NONAME ; public: void __thiscall RMBufPktQ::Free(void)
	?Free@RMBufQ@@QAEXXZ @ 51 NONAME ; public: void __thiscall RMBufQ::Free(void)
	?FreeInfo@RMBufPacketBase@@QAEXXZ @ 52 NONAME ; public: void __thiscall RMBufPacketBase::FreeInfo(void)
	?Goto@RMBufChain@@QBEHHAAPAVRMBuf@@AAH10@Z @ 53 NONAME ; public: int __thiscall RMBufChain::Goto(int,class RMBuf * &,int &,int &,class RMBuf * &)const 
	?Info@RMBufPacketBase@@QAEPAVRMBufPktInfo@@XZ @ 54 NONAME ; public: class RMBufPktInfo * __thiscall RMBufPacketBase::Info(void)
	?Init@RMBuf@@QAEXW4TMBufType@@@Z @ 55 NONAME ; public: void __thiscall RMBuf::Init(enum TMBufType)
	?Init@RMBufPktQ@@QAEXXZ @ 56 NONAME ; public: void __thiscall RMBufPktQ::Init(void)
	?Init@RMBufQ@@QAEXXZ @ 57 NONAME ; public: void __thiscall RMBufQ::Init(void)
	?Insert@TMBufPktQIter@@QAEXAAVRMBufChain@@@Z @ 58 NONAME ; public: void __thiscall TMBufPktQIter::Insert(class RMBufChain &)
	?Last@RMBuf@@QAEPAV1@XZ @ 59 NONAME ; public: class RMBuf * __thiscall RMBuf::Last(void)
	?Last@RMBufChain@@QBEPAVRMBuf@@XZ @ 60 NONAME ; public: class RMBuf * __thiscall RMBufChain::Last(void)const 
	?Length@RMBufChain@@QBEHXZ @ 61 NONAME ; public: int __thiscall RMBufChain::Length(void)const 
	?NewInfoL@RMBufPacketBase@@QAEPAVRMBufPktInfo@@I@Z @ 62 NONAME ; public: class RMBufPktInfo * __thiscall RMBufPacketBase::NewInfoL(unsigned int)
	?NewL@CMBufManager@@SAPAV1@H@Z @ 63 NONAME ABSENT ; public: static class CMBufManager * __cdecl CMBufManager::NewL(int)
	?NumBufs@RMBufChain@@QBEHXZ @ 64 NONAME ; public: int __thiscall RMBufChain::NumBufs(void)const 
	?Pack@RMBufPacketBase@@QAEXXZ @ 65 NONAME ; public: void __thiscall RMBufPacketBase::Pack(void)
	?Panic@CMBufManager@@SAXW4TMBufPanic@@@Z @ 66 NONAME ; public: static void __cdecl CMBufManager::Panic(enum TMBufPanic)
	?PeekInfo@RMBufPacketBase@@QAEPAVRMBufPktInfo@@XZ @ 67 NONAME ; public: class RMBufPktInfo * __thiscall RMBufPacketBase::PeekInfo(void)
	?PeekInfoInChain@RMBufPacketBase@@SAPAVRMBufPktInfo@@AAVRMBufChain@@@Z @ 68 NONAME ; public: static class RMBufPktInfo * __cdecl RMBufPacketBase::PeekInfoInChain(class RMBufChain &)
	?Prepend@RMBufChain@@QAEXAAV1@@Z @ 69 NONAME ; public: void __thiscall RMBufChain::Prepend(class RMBufChain &)
	?Prepend@RMBufChain@@QAEXPAVRMBuf@@@Z @ 70 NONAME ; public: void __thiscall RMBufChain::Prepend(class RMBuf *)
	?Prepend@RMBufPktQ@@QAEXAAVRMBufChain@@@Z @ 71 NONAME ; public: void __thiscall RMBufPktQ::Prepend(class RMBufChain &)
	?Prepend@RMBufQ@@QAEXAAV1@@Z @ 72 NONAME ; public: void __thiscall RMBufQ::Prepend(class RMBufQ &)
	?Prepend@RMBufQ@@QAEXAAVRMBufChain@@@Z @ 73 NONAME ; public: void __thiscall RMBufQ::Prepend(class RMBufChain &)
	?Prepend@RMBufQ@@QAEXPAVRMBuf@@@Z @ 74 NONAME ; public: void __thiscall RMBufQ::Prepend(class RMBuf *)
	?PrependL@RMBufChain@@QAEXH@Z @ 75 NONAME ; public: void __thiscall RMBufChain::PrependL(int)
	?Queue@MBufTimer@@SAXVTTimeIntervalMicroSeconds32@@AAVTDeltaTimerEntry@@@Z @ 76 NONAME ; public: static void __cdecl MBufTimer::Queue(class TTimeIntervalMicroSeconds32,class TDeltaTimerEntry &)
	?Remove@MBufTimer@@SAXAAVTDeltaTimerEntry@@@Z @ 77 NONAME ; public: static void __cdecl MBufTimer::Remove(class TDeltaTimerEntry &)
	?Remove@RMBufChain@@QAEPAVRMBuf@@XZ @ 78 NONAME ; public: class RMBuf * __thiscall RMBufChain::Remove(void)
	?Remove@RMBufPktQ@@QAEHAAVRMBufChain@@@Z @ 79 NONAME ; public: int __thiscall RMBufPktQ::Remove(class RMBufChain &)
	?Remove@RMBufQ@@QAEPAVRMBuf@@XZ @ 80 NONAME ; public: class RMBuf * __thiscall RMBufQ::Remove(void)
	?Remove@TMBufPktQIter@@QAEXAAVRMBufChain@@@Z @ 81 NONAME ; public: void __thiscall TMBufPktQIter::Remove(class RMBufChain &)
	?SetInfo@RMBufPacketBase@@QAEXPAVRMBufPktInfo@@@Z @ 82 NONAME ; public: void __thiscall RMBufPacketBase::SetInfo(class RMBufPktInfo *)
	?SplitL@RMBufChain@@QAEXHAAV1@@Z @ 83 NONAME ; public: void __thiscall RMBufChain::SplitL(int,class RMBufChain &)
	?TidyAfterUpdate@TMBufPktQIter@@QAEXXZ @ 84 NONAME ; public: void __thiscall TMBufPktQIter::TidyAfterUpdate(void)
	?TrimEnd@RMBufChain@@QAEXH@Z @ 85 NONAME ; public: void __thiscall RMBufChain::TrimEnd(int)
	?TrimEnd@RMBufPacketBase@@QAEXH@Z @ 86 NONAME ; public: void __thiscall RMBufPacketBase::TrimEnd(int)
	?TrimStart@RMBufChain@@QAEXH@Z @ 87 NONAME ; public: void __thiscall RMBufChain::TrimStart(int)
	?TrimStart@RMBufPacketBase@@QAEXH@Z @ 88 NONAME ; public: void __thiscall RMBufPacketBase::TrimStart(int)
	?TrimStart@RMBufStreamQ@@QAEXH@Z @ 89 NONAME ; public: void __thiscall RMBufStreamQ::TrimStart(int)
	?Unpack@RMBufPacketBase@@QAEPAVRMBufPktInfo@@XZ @ 90 NONAME ; public: class RMBufPktInfo * __thiscall RMBufPacketBase::Unpack(void)
	?__Cleanup@RMBufChain@@CAXPAX@Z @ 91 NONAME ; private: static void __cdecl RMBufChain::__Cleanup(void *)
	?__Cleanup@RMBufPacketBase@@CAXPAX@Z @ 92 NONAME ; private: static void __cdecl RMBufPacketBase::__Cleanup(void *)
	?__Cleanup@RMBufPktQ@@CAXPAX@Z @ 93 NONAME ; private: static void __cdecl RMBufPktQ::__Cleanup(void *)
	?__Cleanup@RMBufQ@@CAXPAX@Z @ 94 NONAME ; private: static void __cdecl RMBufQ::__Cleanup(void *)
	?__DbgCheckBuffer@CMBufManager@@QAEHPAVRMBuf@@@Z @ 95 NONAME ; public: int __thiscall CMBufManager::__DbgCheckBuffer(class RMBuf *)
	?__DbgCheckBuffer@CMBufPool@@QAEHPAVRMBuf@@@Z @ 96 NONAME ; public: int __thiscall CMBufPool::__DbgCheckBuffer(class RMBuf *)
	?__DbgCheckChain@CMBufManager@@SAXPAVRMBuf@@W4TMBufType@@HH@Z @ 97 NONAME ; public: static void __cdecl CMBufManager::__DbgCheckChain(class RMBuf *,enum TMBufType,int,int)
	?__DbgGet@RMBuf@@ABEEH@Z @ 98 NONAME ; private: unsigned char __thiscall RMBuf::__DbgGet(int)const 
	?__DbgPut@RMBuf@@AAEXEH@Z @ 99 NONAME ; private: void __thiscall RMBuf::__DbgPut(unsigned char,int)
	?SetContext@CMBufManager@@QAEXXZ @ 100 NONAME ; public: void __thiscall CMBufManager::SetContext(void)
	?ReAllocL@RMBufChain@@QAEXH@Z @ 101 NONAME ; public: void __thiscall RMBufChain::ReAllocL(int)
	?CreateL@CMBufManager@@QAEXHH@Z @ 102 NONAME ABSENT ; void CMBufManager::CreateL(int, int)
	?NewL@CMBufManager@@SAPAV1@HH@Z @ 103 NONAME ABSENT ; class CMBufManager * CMBufManager::NewL(int, int)
	??2RMBufCell@@SAPAXII@Z @ 104 NONAME ; void * RMBufCell::operator new(unsigned int, unsigned int)
	?Alloc@CMBufManager@@QAEPAVRMBuf@@H@Z @ 105 NONAME ; class RMBuf * CMBufManager::Alloc(int)
	?Alloc@RMBuf@@SAPAV1@XZ @ 106 NONAME ; class RMBuf * RMBuf::Alloc(void)
	?Alloc@RMBufChain@@QAEHH@Z @ 107 NONAME ; int RMBufChain::Alloc(int)
	?Append@RMBufChain@@QAEHH@Z @ 108 NONAME ; int RMBufChain::Append(int)
	?Copy@RMBufChain@@QBEHAAV1@HH@Z @ 109 NONAME ; int RMBufChain::Copy(class RMBufChain &, int, int) const
	?Create@RMBufChain@@QAEHABVTDesC8@@H@Z @ 110 NONAME ; int RMBufChain::Create(class TDesC8 const &, int)
	?NewInfo@RMBufPacketBase@@QAEPAVRMBufPktInfo@@I@Z @ 111 NONAME ; class RMBufPktInfo * RMBufPacketBase::NewInfo(unsigned int)
	?Prepend@RMBufChain@@QAEHH@Z @ 112 NONAME ; int RMBufChain::Prepend(int)
	?ReAlloc@RMBufChain@@QAEHH@Z @ 113 NONAME ; int RMBufChain::ReAlloc(int)
	?Split@RMBufChain@@QAEHHAAV1@@Z @ 114 NONAME ; int RMBufChain::Split(int, class RMBufChain &)
	?Alloc@CMBufManager@@QAEPAVRMBuf@@XZ @ 115 NONAME ABSENT ; class RMBuf * CMBufManager::Alloc(void)
	?Alloc@RMBuf@@SAPAV1@I@Z @ 116 NONAME ; class RMBuf * RMBuf::Alloc(unsigned int)
	?AllocL@CMBufManager@@QAEPAVRMBuf@@XZ @ 117 NONAME ABSENT ; class RMBuf * CMBufManager::AllocL(void)
	?AllocL@RMBuf@@SAPAV1@I@Z @ 118 NONAME ; class RMBuf * RMBuf::AllocL(unsigned int)
	?__DbgGetBufSpace@CMBufManager@@QAEII@Z @ 119 NONAME ; unsigned int CMBufManager::__DbgGetBufSpace(unsigned int)
	?__DbgGetBufSpace@CMBufManager@@QAEIXZ @ 120 NONAME ; unsigned int CMBufManager::__DbgGetBufSpace(void)
	?__DbgGetBufTotal@CMBufManager@@QAEII@Z @ 121 NONAME ; unsigned int CMBufManager::__DbgGetBufTotal(unsigned int)
	?__DbgGetBufTotal@CMBufManager@@QAEIXZ @ 122 NONAME ; unsigned int CMBufManager::__DbgGetBufTotal(void)
	?__DbgMBufChain@CMBufManager@@QAEPAVRMBuf@@I@Z @ 123 NONAME ; class RMBuf * CMBufManager::__DbgMBufChain(unsigned int)
	?__DbgMBufChain@CMBufManager@@QAEPAVRMBuf@@XZ @ 124 NONAME ; class RMBuf * CMBufManager::__DbgMBufChain(void)
	?__DbgSetPoolLimit@CMBufManager@@QAEXH@Z @ 125 NONAME ; void CMBufManager::__DbgSetPoolLimit(int)
	?__DbgSetPoolLimit@CMBufManager@@QAEXHI@Z @ 126 NONAME ; void CMBufManager::__DbgSetPoolLimit(int, unsigned int)
	?__DbgGetHeapSize@CMBufManager@@QAEHXZ @ 127 NONAME ; int CMBufManager::__DbgGetHeapSize(void)
	?__DbgSetFailAfter@CMBufManager@@QAEXH@Z @ 128 NONAME ; void CMBufManager::__DbgSetFailAfter(int)
	?Alloc@RMBufChain@@QAEHHH@Z @ 129 NONAME ; int RMBufChain::Alloc(int, int)
	?Alloc@RMBufChain@@QAEHHHH@Z @ 130 NONAME ; int RMBufChain::Alloc(int, int, int)
	?NewL@CMBufManager@@SAPAV1@HHAAPAVMMBufSizeAllocator@@@Z @ 131 NONAME ABSENT ; class CMBufManager * CMBufManager::NewL(int, int, class MMBufSizeAllocator * &)
	?NewL@CMBufManager@@SAPAV1@HAAPAVMMBufSizeAllocator@@@Z @ 132 NONAME ; class CMBufManager * CMBufManager::NewL(int, class MMBufSizeAllocator * &)
	??0RMBufAllocator@@QAE@XZ @ 133 NONAME ; RMBufAllocator::RMBufAllocator(void)
	?Alloc@RMBuf@@SAPAV1@AAVRMBufAllocator@@@Z @ 134 NONAME ; class RMBuf * RMBuf::Alloc(class RMBufAllocator &)
	?Alloc@RMBuf@@SAPAV1@IAAVRMBufAllocator@@@Z @ 135 NONAME ; class RMBuf * RMBuf::Alloc(unsigned int, class RMBufAllocator &)
	?Alloc@RMBufChain@@QAEHHAAVRMBufAllocator@@@Z @ 136 NONAME ; int RMBufChain::Alloc(int, class RMBufAllocator &)
	?Alloc@RMBufChain@@QAEHHHAAVRMBufAllocator@@@Z @ 137 NONAME ; int RMBufChain::Alloc(int, int, class RMBufAllocator &)
	?Alloc@RMBufChain@@QAEHHHHAAVRMBufAllocator@@@Z @ 138 NONAME ; int RMBufChain::Alloc(int, int, int, class RMBufAllocator &)
	?AllocL@RMBuf@@SAPAV1@AAVRMBufAllocator@@@Z @ 139 NONAME ; class RMBuf * RMBuf::AllocL(class RMBufAllocator &)
	?AllocL@RMBuf@@SAPAV1@IAAVRMBufAllocator@@@Z @ 140 NONAME ; class RMBuf * RMBuf::AllocL(unsigned int, class RMBufAllocator &)
	?AllocL@RMBufChain@@QAEXHAAVRMBufAllocator@@@Z @ 141 NONAME ; void RMBufChain::AllocL(int, class RMBufAllocator &)
	?Append@RMBufChain@@QAEHHAAVRMBufAllocator@@@Z @ 142 NONAME ; int RMBufChain::Append(int, class RMBufAllocator &)
	?BytesAvailable@RMBufAllocator@@QBEHH@Z @ 143 NONAME ; int RMBufAllocator::BytesAvailable(int) const
	?BytesAvailable@RMBufAllocator@@QBEHXZ @ 144 NONAME ; int RMBufAllocator::BytesAvailable(void) const
	?LargestMBufSize@RMBufAllocator@@QBEHXZ @ 145 NONAME ; int RMBufAllocator::LargestMBufSize(void) const
	?NextMBufSize@RMBufAllocator@@QBEHH@Z @ 146 NONAME ; int RMBufAllocator::NextMBufSize(int) const
	?Prepend@RMBufChain@@QAEHHAAVRMBufAllocator@@@Z @ 147 NONAME ; int RMBufChain::Prepend(int, class RMBufAllocator &)
	?Split@RMBufChain@@QAEHHAAV1@AAVRMBufAllocator@@@Z @ 148 NONAME ; int RMBufChain::Split(int, class RMBufChain &, class RMBufAllocator &)
	?KMBufCacheLineSize@@3IB @ 149 NONAME ; unsigned int const KMBufCacheLineSize
	?Create@RCFThread@CommsFW@@QAEHABVTDesC16@@P6AHPAX@ZHHH1@Z @ 150 NONAME ; int CommsFW::RCFThread::Create(class TDesC16 const &, int (*)(void *), int, int, int, void *)
	?Create@RCFThread@CommsFW@@QAEHABVTDesC16@@P6AHPAX@ZHPAVRHeap@@1@Z @ 151 NONAME ; int CommsFW::RCFThread::Create(class TDesC16 const &, int (*)(void *), int, class RHeap *, void *)

