EXPORTS
	LibEntry @ 1 NONAME
	_ZTI10CFaxDMmTsy @ 2 NONAME ; #<TI>#
	_ZTI11CCallDMmTsy @ 3 NONAME ; #<TI>#
	_ZTI11CDTSYLogger @ 4 NONAME ; #<TI>#
	_ZTI11CLineDMmTsy @ 5 NONAME ; #<TI>#
	_ZTI12CPhoneDMmTsy @ 6 NONAME ; #<TI>#
	_ZTI13CFaxDummyBase @ 7 NONAME ; #<TI>#
	_ZTI14CCallDummyBase @ 8 NONAME ; #<TI>#
	_ZTI14CENStoreDMmTsy @ 9 NONAME ; #<TI>#
	_ZTI14CLineDummyBase @ 10 NONAME ; #<TI>#
	_ZTI14CONStoreDMmTsy @ 11 NONAME ; #<TI>#
	_ZTI15CNamStoreDMmTsy @ 12 NONAME ; #<TI>#
	_ZTI15CPhoneDummyBase @ 13 NONAME ; #<TI>#
	_ZTI15CSmsStoreDMmTsy @ 14 NONAME ; #<TI>#
	_ZTI17CDelayedCompleter @ 15 NONAME ; #<TI>#
	_ZTI19CListReadAllAttempt @ 16 NONAME ; #<TI>#
	_ZTI19CPhoneFactoryDMmTsy @ 17 NONAME ; #<TI>#
	_ZTI19CSmsMessagingDMmTsy @ 18 NONAME ; #<TI>#
	_ZTI20CUssdMessagingDMmTsy @ 19 NONAME ; #<TI>#
	_ZTI22CPhoneFactoryDummyBase @ 20 NONAME ; #<TI>#
	_ZTI23CSubSessionExtDummyBase @ 21 NONAME ; #<TI>#
	_ZTI25CBroadcastMessagingDMmTsy @ 22 NONAME ; #<TI>#
	_ZTI27CMobileConferenceCallDMmTsy @ 23 NONAME ; #<TI>#
	_ZTI27CMobilePhoneBookStoreDMmTsy @ 24 NONAME ; #<TI>#
	_ZTIN12CPhoneDMmTsy15CActiveListNodeE @ 25 NONAME ; #<TI>#
	_ZTV10CFaxDMmTsy @ 26 NONAME ; #<VT>#
	_ZTV11CCallDMmTsy @ 27 NONAME ; #<VT>#
	_ZTV11CDTSYLogger @ 28 NONAME ; #<VT>#
	_ZTV11CLineDMmTsy @ 29 NONAME ; #<VT>#
	_ZTV12CPhoneDMmTsy @ 30 NONAME ; #<VT>#
	_ZTV13CFaxDummyBase @ 31 NONAME ; #<VT>#
	_ZTV14CCallDummyBase @ 32 NONAME ; #<VT>#
	_ZTV14CENStoreDMmTsy @ 33 NONAME ; #<VT>#
	_ZTV14CLineDummyBase @ 34 NONAME ; #<VT>#
	_ZTV14CONStoreDMmTsy @ 35 NONAME ; #<VT>#
	_ZTV15CNamStoreDMmTsy @ 36 NONAME ; #<VT>#
	_ZTV15CPhoneDummyBase @ 37 NONAME ; #<VT>#
	_ZTV15CSmsStoreDMmTsy @ 38 NONAME ; #<VT>#
	_ZTV17CDelayedCompleter @ 39 NONAME ; #<VT>#
	_ZTV19CListReadAllAttempt @ 40 NONAME ; #<VT>#
	_ZTV19CPhoneFactoryDMmTsy @ 41 NONAME ; #<VT>#
	_ZTV19CSmsMessagingDMmTsy @ 42 NONAME ; #<VT>#
	_ZTV20CUssdMessagingDMmTsy @ 43 NONAME ; #<VT>#
	_ZTV22CPhoneFactoryDummyBase @ 44 NONAME ; #<VT>#
	_ZTV23CSubSessionExtDummyBase @ 45 NONAME ; #<VT>#
	_ZTV25CBroadcastMessagingDMmTsy @ 46 NONAME ; #<VT>#
	_ZTV27CMobileConferenceCallDMmTsy @ 47 NONAME ; #<VT>#
	_ZTV27CMobilePhoneBookStoreDMmTsy @ 48 NONAME ; #<VT>#
	_ZTVN12CPhoneDMmTsy15CActiveListNodeE @ 49 NONAME ; #<VT>#
	_ZTI19CSmartCardEapDMmTsy @ 50 NONAME ; #<TI>#
	_ZTIN19CSmartCardEapDMmTsy15CActiveListNodeE @ 51 NONAME ; #<TI>#
	_ZTV19CSmartCardEapDMmTsy @ 52 NONAME ; #<VT>#
	_ZTVN19CSmartCardEapDMmTsy15CActiveListNodeE @ 53 NONAME ; #<VT>#
	_ZTIN19CSmartCardEapDMmTsy26CThreadTerminationNotifierE @ 54 NONAME ; #<TI>#
	_ZTVN19CSmartCardEapDMmTsy26CThreadTerminationNotifierE @ 55 NONAME ; #<VT>#
	_ZTI29CMobileLocationServicesDMmTsy @ 56 NONAME ; #<TI>#
	_ZTV29CMobileLocationServicesDMmTsy @ 57 NONAME ; #<VT>#

