EXPORTS
	_ZN36CRetrieveMobilePhoneDetectedNetworks15RetrieveListV2LEv @ 1 NONAME
	_ZN36CRetrieveMobilePhoneDetectedNetworks7StartV2ER14TRequestStatus @ 2 NONAME
	_ZN11RMobileCall10ConstructLEv @ 3 NONAME
	_ZN11RMobileCall12TAudioToneV3C1Ev @ 4 NONAME
	_ZN11RMobileCall12TAudioToneV3C2Ev @ 5 NONAME
	_ZN11RMobileCall16TMobileCallCugV1C1Ev @ 6 NONAME
	_ZN11RMobileCall16TMobileCallCugV1C2Ev @ 7 NONAME
	_ZN11RMobileCall17TMobileCallCapsV1C1Ev @ 8 NONAME
	_ZN11RMobileCall17TMobileCallCapsV1C2Ev @ 9 NONAME
	_ZN11RMobileCall17TMobileCallInfoV1C1Ev @ 10 NONAME
	_ZN11RMobileCall17TMobileCallInfoV1C2Ev @ 11 NONAME
	_ZN11RMobileCall17TMobileCallInfoV3C1Ev @ 12 NONAME
	_ZN11RMobileCall17TMobileCallInfoV3C2Ev @ 13 NONAME
	_ZN11RMobileCall19TMobileCallParamsV1C1Ev @ 14 NONAME
	_ZN11RMobileCall19TMobileCallParamsV1C2Ev @ 15 NONAME
	_ZN11RMobileCall19TMobileCallParamsV2C1Ev @ 16 NONAME
	_ZN11RMobileCall19TMobileCallParamsV2C2Ev @ 17 NONAME
	_ZN11RMobileCall21TMobileCallDataCapsV1C1Ev @ 18 NONAME
	_ZN11RMobileCall21TMobileCallDataCapsV1C2Ev @ 19 NONAME
	_ZN11RMobileCall22TMobileCallHscsdInfoV1C1Ev @ 20 NONAME
	_ZN11RMobileCall22TMobileCallHscsdInfoV1C2Ev @ 21 NONAME
	_ZN11RMobileCall22TMobileDataRLPRangesV1C1Ev @ 22 NONAME
	_ZN11RMobileCall22TMobileDataRLPRangesV1C2Ev @ 23 NONAME
	_ZN11RMobileCall23TMobileCallUUSRequestV1C1Ev @ 24 NONAME
	_ZN11RMobileCall23TMobileCallUUSRequestV1C2Ev @ 25 NONAME
	_ZN11RMobileCall23TMobileDataCallParamsV1C1Ev @ 26 NONAME
	_ZN11RMobileCall23TMobileDataCallParamsV1C2Ev @ 27 NONAME
	_ZN11RMobileCall23TMobileDataCallParamsV2C1Ev @ 28 NONAME
	_ZN11RMobileCall23TMobileDataCallParamsV2C2Ev @ 29 NONAME
	_ZN11RMobileCall24TMobileHscsdCallParamsV1C1Ev @ 30 NONAME
	_ZN11RMobileCall24TMobileHscsdCallParamsV1C2Ev @ 31 NONAME
	_ZN11RMobileCall24TMobileHscsdCallParamsV2C1Ev @ 32 NONAME
	_ZN11RMobileCall24TMobileHscsdCallParamsV2C2Ev @ 33 NONAME
	_ZN11RMobileCall28TMobileCallRemotePartyInfoV1C1Ev @ 34 NONAME
	_ZN11RMobileCall28TMobileCallRemotePartyInfoV1C2Ev @ 35 NONAME
	_ZN11RMobileCall31TEtel3rdPartyMobileCallParamsV1C1Ev @ 36 NONAME
	_ZN11RMobileCall31TEtel3rdPartyMobileCallParamsV1C2Ev @ 37 NONAME
	_ZN11RMobileCall8DestructEv @ 38 NONAME
	_ZN11RMobileCallC1Ev @ 39 NONAME
	_ZN11RMobileCallC2Ev @ 40 NONAME
	_ZN11RMobileLine10ConstructLEv @ 41 NONAME
	_ZN11RMobileLine8DestructEv @ 42 NONAME
	_ZN11RMobileLineC1Ev @ 43 NONAME
	_ZN11RMobileLineC2Ev @ 44 NONAME
	_ZN12RMobilePhone10ConstructLEv @ 45 NONAME
	_ZN12RMobilePhone11TAPNEntryV3C1Ev @ 46 NONAME
	_ZN12RMobilePhone11TAPNEntryV3C2Ev @ 47 NONAME
	_ZN12RMobilePhone14TMobileAddressC1Ev @ 48 NONAME
	_ZN12RMobilePhone14TMobileAddressC2Ev @ 49 NONAME
	_ZN12RMobilePhone16TMobilePhoneNITZC1Ei6TMonthiiiii @ 50 NONAME
	_ZN12RMobilePhone16TMobilePhoneNITZC1Ev @ 51 NONAME
	_ZN12RMobilePhone16TMobilePhoneNITZC2Ei6TMonthiiiii @ 52 NONAME
	_ZN12RMobilePhone16TMobilePhoneNITZC2Ev @ 53 NONAME
	_ZN12RMobilePhone18TMmsNotificationV3C1Ev @ 54 NONAME
	_ZN12RMobilePhone18TMmsNotificationV3C2Ev @ 55 NONAME
	_ZN12RMobilePhone18TMobilePhonePuctV1C1Ev @ 56 NONAME
	_ZN12RMobilePhone18TMobilePhonePuctV1C2Ev @ 57 NONAME
	_ZN12RMobilePhone19TMobilePhoneOPlmnV3C1Ev @ 58 NONAME
	_ZN12RMobilePhone19TMobilePhoneOPlmnV3C2Ev @ 59 NONAME
	_ZN12RMobilePhone21TMobilePhoneCspFileV1C1Ev @ 60 NONAME
	_ZN12RMobilePhone21TMobilePhoneCspFileV1C2Ev @ 61 NONAME
	_ZN12RMobilePhone22TMobilePhoneCBChangeV1C1Ev @ 62 NONAME
	_ZN12RMobilePhone22TMobilePhoneCBChangeV1C2Ev @ 63 NONAME
	_ZN12RMobilePhone22TMobilePhoneCFChangeV1C1Ev @ 64 NONAME
	_ZN12RMobilePhone22TMobilePhoneCFChangeV1C2Ev @ 65 NONAME
	_ZN12RMobilePhone22TMobilePhoneCostInfoV1C1Ev @ 66 NONAME
	_ZN12RMobilePhone22TMobilePhoneCostInfoV1C2Ev @ 67 NONAME
	_ZN12RMobilePhone22TMobilePhoneIdentityV1C1Ev @ 68 NONAME
	_ZN12RMobilePhone22TMobilePhoneIdentityV1C2Ev @ 69 NONAME
	_ZN12RMobilePhone22TMobilePhoneLockInfoV1C1Ev @ 70 NONAME
	_ZN12RMobilePhone22TMobilePhoneLockInfoV1C2Ev @ 71 NONAME
	_ZN12RMobilePhone22TUSimApplicationInfoV2C1Ev @ 72 NONAME
	_ZN12RMobilePhone22TUSimApplicationInfoV2C2Ev @ 73 NONAME
	_ZN12RMobilePhone23TMobilePhoneCCBSEntryV1C1Ev @ 74 NONAME
	_ZN12RMobilePhone23TMobilePhoneCCBSEntryV1C2Ev @ 75 NONAME
	_ZN12RMobilePhone23TMobilePhoneCCBSEntryV2C1Ev @ 76 NONAME
	_ZN12RMobilePhone23TMobilePhoneCCBSEntryV2C2Ev @ 77 NONAME
	_ZN12RMobilePhone25TMobilePhoneBatteryInfoV1C1Ev @ 78 NONAME
	_ZN12RMobilePhone25TMobilePhoneBatteryInfoV1C2Ev @ 79 NONAME
	_ZN12RMobilePhone25TMobilePhoneCBInfoEntryV1C1Ev @ 80 NONAME
	_ZN12RMobilePhone25TMobilePhoneCBInfoEntryV1C2Ev @ 81 NONAME
	_ZN12RMobilePhone25TMobilePhoneCBInfoEntryV3C1Ev @ 82 NONAME
	_ZN12RMobilePhone25TMobilePhoneCBInfoEntryV3C2Ev @ 83 NONAME
	_ZN12RMobilePhone25TMobilePhoneCFInfoEntryV1C1Ev @ 84 NONAME
	_ZN12RMobilePhone25TMobilePhoneCFInfoEntryV1C2Ev @ 85 NONAME
	_ZN12RMobilePhone25TMobilePhoneCWInfoEntryV1C1Ev @ 86 NONAME
	_ZN12RMobilePhone25TMobilePhoneCWInfoEntryV1C2Ev @ 87 NONAME
	_ZN12RMobilePhone25TMobilePhoneNetworkInfoV1C1Ev @ 88 NONAME
	_ZN12RMobilePhone25TMobilePhoneNetworkInfoV1C2Ev @ 89 NONAME
	_ZN12RMobilePhone25TMobilePhoneNetworkInfoV2C1Ev @ 90 NONAME
	_ZN12RMobilePhone25TMobilePhoneNetworkInfoV2C2Ev @ 91 NONAME
	_ZN12RMobilePhone25TMobilePhoneNetworkNameV3C1Ev @ 92 NONAME
	_ZN12RMobilePhone25TMobilePhoneNetworkNameV3C2Ev @ 93 NONAME
	_ZN12RMobilePhone26TMobilePhoneCFUIndicatorV3C1Ev @ 94 NONAME
	_ZN12RMobilePhone26TMobilePhoneCFUIndicatorV3C2Ev @ 95 NONAME
	_ZN12RMobilePhone26TMobilePhoneLocationAreaV1C1Ev @ 96 NONAME
	_ZN12RMobilePhone26TMobilePhoneLocationAreaV1C2Ev @ 97 NONAME
	_ZN12RMobilePhone26TMobilePhoneServiceTableV1C1Ev @ 98 NONAME
	_ZN12RMobilePhone26TMobilePhoneServiceTableV1C2Ev @ 99 NONAME
	_ZN12RMobilePhone26TMobilePhoneServiceTableV2C1Ev @ 100 NONAME
	_ZN12RMobilePhone26TMobilePhoneServiceTableV2C2Ev @ 101 NONAME
	_ZN12RMobilePhone26TMobilePhoneVoicemailIdsV3C1Ev @ 102 NONAME
	_ZN12RMobilePhone26TMobilePhoneVoicemailIdsV3C2Ev @ 103 NONAME
	_ZN12RMobilePhone27TMobilePhoneSendSSRequestV3C1Ev @ 104 NONAME
	_ZN12RMobilePhone27TMobilePhoneSendSSRequestV3C2Ev @ 105 NONAME
	_ZN12RMobilePhone28TMobilePhoneMessageWaitingV1C1Ev @ 106 NONAME
	_ZN12RMobilePhone28TMobilePhoneMessageWaitingV1C2Ev @ 107 NONAME
	_ZN12RMobilePhone28TMobilePhonePasswordChangeV1C1Ev @ 108 NONAME
	_ZN12RMobilePhone28TMobilePhonePasswordChangeV1C2Ev @ 109 NONAME
	_ZN12RMobilePhone28TMobilePhonePasswordChangeV2C1Ev @ 110 NONAME
	_ZN12RMobilePhone28TMobilePhonePasswordChangeV2C2Ev @ 111 NONAME
	_ZN12RMobilePhone30TMobilePhoneNetworkSelectionV1C1Ev @ 112 NONAME
	_ZN12RMobilePhone30TMobilePhoneNetworkSelectionV1C2Ev @ 113 NONAME
	_ZN12RMobilePhone30TMobilePreferredNetworkEntryV3C1Ev @ 114 NONAME
	_ZN12RMobilePhone30TMobilePreferredNetworkEntryV3C2Ev @ 115 NONAME
	_ZN12RMobilePhone31TMobilePhoneMulticallSettingsV1C1Ev @ 116 NONAME
	_ZN12RMobilePhone31TMobilePhoneMulticallSettingsV1C2Ev @ 117 NONAME
	_ZN12RMobilePhone32TEtel3rdPartyMobileNetworkInfoV1C1Ev @ 118 NONAME
	_ZN12RMobilePhone32TEtel3rdPartyMobileNetworkInfoV1C2Ev @ 119 NONAME
	_ZN12RMobilePhone33TMobilePhoneServiceProviderNameV2C1Ev @ 120 NONAME
	_ZN12RMobilePhone33TMobilePhoneServiceProviderNameV2C2Ev @ 121 NONAME
	_ZN12RMobilePhone36NotifyMultimediaCallPreferenceChangeER14TRequestStatusRNS_30TMobilePhoneMultimediaSettingsE @ 122 NONAME
	_ZN12RMobilePhone8DestructEv @ 123 NONAME
	_ZN12RMobilePhoneC1Ev @ 124 NONAME
	_ZN12RMobilePhoneC2Ev @ 125 NONAME
	_ZN14RMobileENStore10ConstructLEv @ 126 NONAME
	_ZN14RMobileENStore16TMobileENEntryV1C1Ev @ 127 NONAME
	_ZN14RMobileENStore16TMobileENEntryV1C2Ev @ 128 NONAME
	_ZN14RMobileENStore4OpenER12RMobilePhone @ 129 NONAME
	_ZN14RMobileENStore5CloseEv @ 130 NONAME
	_ZN14RMobileENStoreC1Ev @ 131 NONAME
	_ZN14RMobileENStoreC2Ev @ 132 NONAME
	_ZN14RMobileONStore10ConstructLEv @ 133 NONAME
	_ZN14RMobileONStore16TMobileONEntryV1C1Ev @ 134 NONAME
	_ZN14RMobileONStore16TMobileONEntryV1C2Ev @ 135 NONAME
	_ZN14RMobileONStore20TMobileONStoreInfoV1C1Ev @ 136 NONAME
	_ZN14RMobileONStore20TMobileONStoreInfoV1C2Ev @ 137 NONAME
	_ZN14RMobileONStore4OpenER12RMobilePhone @ 138 NONAME
	_ZN14RMobileONStore5CloseEv @ 139 NONAME
	_ZN14RMobileONStoreC1Ev @ 140 NONAME
	_ZN14RMobileONStoreC2Ev @ 141 NONAME
	_ZN15RMobileNamStore10ConstructLEv @ 142 NONAME
	_ZN15RMobileNamStore17TMobileNamEntryV1C1Ev @ 143 NONAME
	_ZN15RMobileNamStore17TMobileNamEntryV1C2Ev @ 144 NONAME
	_ZN15RMobileNamStore21TMobileNamStoreInfoV1C1Ev @ 145 NONAME
	_ZN15RMobileNamStore21TMobileNamStoreInfoV1C2Ev @ 146 NONAME
	_ZN15RMobileNamStore4OpenER12RMobilePhone @ 147 NONAME
	_ZN15RMobileNamStore5CloseEv @ 148 NONAME
	_ZN15RMobileNamStoreC1Ev @ 149 NONAME
	_ZN15RMobileNamStoreC2Ev @ 150 NONAME
	_ZN15RMobileSmsStore10ConstructLEv @ 151 NONAME
	_ZN15RMobileSmsStore20TMobileGsmSmsEntryV1C1Ev @ 152 NONAME
	_ZN15RMobileSmsStore20TMobileGsmSmsEntryV1C2Ev @ 153 NONAME
	_ZN15RMobileSmsStore21TMobileCdmaSmsEntryV1C1Ev @ 154 NONAME
	_ZN15RMobileSmsStore21TMobileCdmaSmsEntryV1C2Ev @ 155 NONAME
	_ZN15RMobileSmsStore4OpenER19RMobileSmsMessagingRK7TDesC16 @ 156 NONAME
	_ZN15RMobileSmsStore5CloseEv @ 157 NONAME
	_ZN15RMobileSmsStoreC1Ev @ 158 NONAME
	_ZN15RMobileSmsStoreC2Ev @ 159 NONAME
	_ZN16CPhoneBookBuffer12BufferLengthEv @ 160 NONAME
	_ZN16CPhoneBookBuffer13GetTagAndTypeERhRNS_12TPhBkTagTypeE @ 161 NONAME
	_ZN16CPhoneBookBuffer14AddNewEntryTagEv @ 162 NONAME
	_ZN16CPhoneBookBuffer14PutTagAndValueEhRK6TDesC8 @ 163 NONAME
	_ZN16CPhoneBookBuffer14PutTagAndValueEhRK7TDesC16 @ 164 NONAME
	_ZN16CPhoneBookBuffer14PutTagAndValueEhh @ 165 NONAME
	_ZN16CPhoneBookBuffer14PutTagAndValueEhm @ 166 NONAME
	_ZN16CPhoneBookBuffer14PutTagAndValueEht @ 167 NONAME
	_ZN16CPhoneBookBuffer15AddNewNumberTagEv @ 168 NONAME
	_ZN16CPhoneBookBuffer18RemovePartialEntryEv @ 169 NONAME
	_ZN16CPhoneBookBuffer19RemainingReadLengthEv @ 170 NONAME
	_ZN16CPhoneBookBuffer3SetEP5TDes8 @ 171 NONAME
	_ZN16CPhoneBookBuffer8GetValueER6TPtrC8 @ 172 NONAME
	_ZN16CPhoneBookBuffer8GetValueER7TPtrC16 @ 173 NONAME
	_ZN16CPhoneBookBuffer8GetValueERh @ 174 NONAME
	_ZN16CPhoneBookBuffer8GetValueERm @ 175 NONAME
	_ZN16CPhoneBookBuffer8GetValueERt @ 176 NONAME
	_ZN16CPhoneBookBuffer9SkipValueENS_12TPhBkTagTypeE @ 177 NONAME
	_ZN16CPhoneBookBuffer9StartReadEv @ 178 NONAME
	_ZN16CPhoneBookBufferC1Ev @ 179 NONAME
	_ZN16CPhoneBookBufferC2Ev @ 180 NONAME
	_ZN17RMobilePhoneStore13BaseConstructEP26CMobilePhoneStorePtrHolder @ 181 NONAME
	_ZN17RMobilePhoneStore23TMobilePhoneStoreInfoV1C1Ev @ 182 NONAME
	_ZN17RMobilePhoneStore23TMobilePhoneStoreInfoV1C2Ev @ 183 NONAME
	_ZN17RMobilePhoneStore8DestructEv @ 184 NONAME
	_ZN18CMobilePhoneCBList4NewLEv @ 185 NONAME
	_ZN18CMobilePhoneCBListD0Ev @ 186 NONAME
	_ZN18CMobilePhoneCBListD1Ev @ 187 NONAME
	_ZN18CMobilePhoneCBListD2Ev @ 188 NONAME
	_ZN18CMobilePhoneCFList4NewLEv @ 189 NONAME
	_ZN18CMobilePhoneCFListD0Ev @ 190 NONAME
	_ZN18CMobilePhoneCFListD1Ev @ 191 NONAME
	_ZN18CMobilePhoneCFListD2Ev @ 192 NONAME
	_ZN18CMobilePhoneCWList4NewLEv @ 193 NONAME
	_ZN18CMobilePhoneCWListD0Ev @ 194 NONAME
	_ZN18CMobilePhoneCWListD1Ev @ 195 NONAME
	_ZN18CMobilePhoneCWListD2Ev @ 196 NONAME
	_ZN18CMobilePhoneENList4NewLEv @ 197 NONAME
	_ZN18CMobilePhoneENListD0Ev @ 198 NONAME
	_ZN18CMobilePhoneENListD1Ev @ 199 NONAME
	_ZN18CMobilePhoneENListD2Ev @ 200 NONAME
	_ZN18CMobilePhoneONList4NewLEv @ 201 NONAME
	_ZN18CMobilePhoneONListD0Ev @ 202 NONAME
	_ZN18CMobilePhoneONListD1Ev @ 203 NONAME
	_ZN18CMobilePhoneONListD2Ev @ 204 NONAME
	_ZN19CMobilePhoneNamList4NewLEv @ 205 NONAME
	_ZN19CMobilePhoneNamListD0Ev @ 206 NONAME
	_ZN19CMobilePhoneNamListD1Ev @ 207 NONAME
	_ZN19CMobilePhoneNamListD2Ev @ 208 NONAME
	_ZN19RMobileSmsMessaging10ConstructLEv @ 209 NONAME
	_ZN19RMobileSmsMessaging16TMobileSmsCapsV1C1Ev @ 210 NONAME
	_ZN19RMobileSmsMessaging16TMobileSmsCapsV1C2Ev @ 211 NONAME
	_ZN19RMobileSmsMessaging18TMobileSmspEntryV1C1Ev @ 212 NONAME
	_ZN19RMobileSmsMessaging18TMobileSmspEntryV1C2Ev @ 213 NONAME
	_ZN19RMobileSmsMessaging23NotifyMoSmsBearerChangeER14TRequestStatusRNS_16TMobileSmsBearerE @ 214 NONAME
	_ZN19RMobileSmsMessaging23NotifyReceiveModeChangeER14TRequestStatusRNS_21TMobileSmsReceiveModeE @ 215 NONAME
	_ZN19RMobileSmsMessaging26TMobileSmsSendAttributesV1C1Ev @ 216 NONAME
	_ZN19RMobileSmsMessaging26TMobileSmsSendAttributesV1C2Ev @ 217 NONAME
	_ZN19RMobileSmsMessaging29TMobileSmsReceiveAttributesV1C1Ev @ 218 NONAME
	_ZN19RMobileSmsMessaging29TMobileSmsReceiveAttributesV1C2Ev @ 219 NONAME
	_ZN19RMobileSmsMessaging4OpenER12RMobilePhone @ 220 NONAME
	_ZN19RMobileSmsMessaging5CloseEv @ 221 NONAME
	_ZN19RMobileSmsMessaging8DestructEv @ 222 NONAME
	_ZN19RMobileSmsMessagingC1Ev @ 223 NONAME
	_ZN19RMobileSmsMessagingC2Ev @ 224 NONAME
	_ZN20CMobilePhoneCcbsList4NewLEv @ 225 NONAME
	_ZN20CMobilePhoneCcbsListD0Ev @ 226 NONAME
	_ZN20CMobilePhoneCcbsListD1Ev @ 227 NONAME
	_ZN20CMobilePhoneCcbsListD2Ev @ 228 NONAME
	_ZN20CMobilePhoneListBase12InternalizeLER11RReadStream @ 229 NONAME
	_ZN20CMobilePhoneListBase19SetMaxNumberEntriesEi @ 230 NONAME
	_ZN20CMobilePhoneListBase6StoreLER5TDes8 @ 231 NONAME
	_ZN20CMobilePhoneListBase7StoreLCEv @ 232 NONAME
	_ZN20CMobilePhoneListBase8RestoreLERK6TDesC8 @ 233 NONAME
	_ZN20CMobilePhoneListBase9AddEntryLEPKv @ 234 NONAME
	_ZN20CMobilePhoneSmspList4NewLEv @ 235 NONAME
	_ZN20CMobilePhoneSmspListD0Ev @ 236 NONAME
	_ZN20CMobilePhoneSmspListD1Ev @ 237 NONAME
	_ZN20CMobilePhoneSmspListD2Ev @ 238 NONAME
	_ZN20RMobileUssdMessaging10ConstructLEv @ 239 NONAME
	_ZN20RMobileUssdMessaging17TMobileUssdCapsV1C1Ev @ 240 NONAME
	_ZN20RMobileUssdMessaging17TMobileUssdCapsV1C2Ev @ 241 NONAME
	_ZN20RMobileUssdMessaging23TMobileUssdAttributesV1C1Ev @ 242 NONAME
	_ZN20RMobileUssdMessaging23TMobileUssdAttributesV1C2Ev @ 243 NONAME
	_ZN20RMobileUssdMessaging4OpenER12RMobilePhone @ 244 NONAME
	_ZN20RMobileUssdMessaging5CloseEv @ 245 NONAME
	_ZN20RMobileUssdMessaging8DestructEv @ 246 NONAME
	_ZN20RMobileUssdMessagingC1Ev @ 247 NONAME
	_ZN20RMobileUssdMessagingC2Ev @ 248 NONAME
	_ZN21RMobileConferenceCall10ConstructLEv @ 249 NONAME
	_ZN21RMobileConferenceCall4OpenER12RMobilePhone @ 250 NONAME
	_ZN21RMobileConferenceCall5CloseEv @ 251 NONAME
	_ZN21RMobileConferenceCall8DestructEv @ 252 NONAME
	_ZN21RMobileConferenceCallC1Ev @ 253 NONAME
	_ZN21RMobileConferenceCallC2Ev @ 254 NONAME
	_ZN21RMobilePhoneBookStore10ConstructLEv @ 255 NONAME
	_ZN21RMobilePhoneBookStore22TMobilePhoneBookInfoV1C1Ev @ 256 NONAME
	_ZN21RMobilePhoneBookStore22TMobilePhoneBookInfoV1C2Ev @ 257 NONAME
	_ZN21RMobilePhoneBookStore22TMobilePhoneBookInfoV2C1Ev @ 258 NONAME
	_ZN21RMobilePhoneBookStore22TMobilePhoneBookInfoV2C2Ev @ 259 NONAME
	_ZN21RMobilePhoneBookStore4OpenER12RMobilePhoneRK7TDesC16 @ 260 NONAME
	_ZN21RMobilePhoneBookStore4OpenER12RMobilePhoneRK7TDesC16S4_ @ 261 NONAME
	_ZN21RMobilePhoneBookStore5CloseEv @ 262 NONAME
	_ZN21RMobilePhoneBookStoreC1Ev @ 263 NONAME
	_ZN21RMobilePhoneBookStoreC2Ev @ 264 NONAME
	_ZN22CMobilePhoneGsmSmsList4NewLEv @ 265 NONAME
	_ZN22CMobilePhoneGsmSmsListD0Ev @ 266 NONAME
	_ZN22CMobilePhoneGsmSmsListD1Ev @ 267 NONAME
	_ZN22CMobilePhoneGsmSmsListD2Ev @ 268 NONAME
	_ZN23CMobilePhoneCdmaSmsList4NewLEv @ 269 NONAME
	_ZN23CMobilePhoneCdmaSmsListD0Ev @ 270 NONAME
	_ZN23CMobilePhoneCdmaSmsListD1Ev @ 271 NONAME
	_ZN23CMobilePhoneCdmaSmsListD2Ev @ 272 NONAME
	_ZN23CMobilePhoneNetworkList4NewLEv @ 273 NONAME
	_ZN23CMobilePhoneNetworkListD0Ev @ 274 NONAME
	_ZN23CMobilePhoneNetworkListD1Ev @ 275 NONAME
	_ZN23CMobilePhoneNetworkListD2Ev @ 276 NONAME
	_ZN25RMobileBroadcastMessaging10ConstructLEv @ 277 NONAME
	_ZN25RMobileBroadcastMessaging21StoreBroadcastIdListLER14TRequestStatusP27CMobilePhoneBroadcastIdListNS_22TMobileBroadcastIdTypeE @ 278 NONAME
	_ZN25RMobileBroadcastMessaging22TMobileBroadcastCapsV1C1Ev @ 279 NONAME
	_ZN25RMobileBroadcastMessaging22TMobileBroadcastCapsV1C2Ev @ 280 NONAME
	_ZN25RMobileBroadcastMessaging25TMobileBroadcastIdEntryV1C1Ev @ 281 NONAME
	_ZN25RMobileBroadcastMessaging25TMobileBroadcastIdEntryV1C2Ev @ 282 NONAME
	_ZN25RMobileBroadcastMessaging28TMobileBroadcastAttributesV1C1Ev @ 283 NONAME
	_ZN25RMobileBroadcastMessaging28TMobileBroadcastAttributesV1C2Ev @ 284 NONAME
	_ZN25RMobileBroadcastMessaging28TMobileBroadcastAttributesV2C1Ev @ 285 NONAME
	_ZN25RMobileBroadcastMessaging28TMobileBroadcastAttributesV2C2Ev @ 286 NONAME
	_ZN25RMobileBroadcastMessaging4OpenER12RMobilePhone @ 287 NONAME
	_ZN25RMobileBroadcastMessaging5CloseEv @ 288 NONAME
	_ZN25RMobileBroadcastMessaging8DestructEv @ 289 NONAME
	_ZN25RMobileBroadcastMessagingC1Ev @ 290 NONAME
	_ZN25RMobileBroadcastMessagingC2Ev @ 291 NONAME
	_ZN26CRetrieveMobilePhoneCBList13RetrieveListLEv @ 292 NONAME
	_ZN26CRetrieveMobilePhoneCBList4NewLER12RMobilePhone @ 293 NONAME
	_ZN26CRetrieveMobilePhoneCBList5StartER14TRequestStatusN12RMobilePhone23TMobilePhoneCBConditionENS2_19TMobileInfoLocationE @ 294 NONAME
	_ZN26CRetrieveMobilePhoneCBListD0Ev @ 295 NONAME
	_ZN26CRetrieveMobilePhoneCBListD1Ev @ 296 NONAME
	_ZN26CRetrieveMobilePhoneCBListD2Ev @ 297 NONAME
	_ZN26CRetrieveMobilePhoneCFList13RetrieveListLEv @ 298 NONAME
	_ZN26CRetrieveMobilePhoneCFList4NewLER12RMobilePhone @ 299 NONAME
	_ZN26CRetrieveMobilePhoneCFList5StartER14TRequestStatusN12RMobilePhone23TMobilePhoneCFConditionENS2_14TMobileServiceENS2_19TMobileInfoLocationE @ 300 NONAME
	_ZN26CRetrieveMobilePhoneCFList5StartER14TRequestStatusN12RMobilePhone23TMobilePhoneCFConditionENS2_19TMobileInfoLocationE @ 301 NONAME
	_ZN26CRetrieveMobilePhoneCFListD0Ev @ 302 NONAME
	_ZN26CRetrieveMobilePhoneCFListD1Ev @ 303 NONAME
	_ZN26CRetrieveMobilePhoneCFListD2Ev @ 304 NONAME
	_ZN26CRetrieveMobilePhoneCWList13RetrieveListLEv @ 305 NONAME
	_ZN26CRetrieveMobilePhoneCWList4NewLER12RMobilePhone @ 306 NONAME
	_ZN26CRetrieveMobilePhoneCWList5StartER14TRequestStatusN12RMobilePhone19TMobileInfoLocationE @ 307 NONAME
	_ZN26CRetrieveMobilePhoneCWListD0Ev @ 308 NONAME
	_ZN26CRetrieveMobilePhoneCWListD1Ev @ 309 NONAME
	_ZN26CRetrieveMobilePhoneCWListD2Ev @ 310 NONAME
	_ZN26CRetrieveMobilePhoneENList13RetrieveListLEv @ 311 NONAME
	_ZN26CRetrieveMobilePhoneENList4NewLER17RMobilePhoneStore @ 312 NONAME
	_ZN26CRetrieveMobilePhoneENList5StartER14TRequestStatus @ 313 NONAME
	_ZN26CRetrieveMobilePhoneENListD0Ev @ 314 NONAME
	_ZN26CRetrieveMobilePhoneENListD1Ev @ 315 NONAME
	_ZN26CRetrieveMobilePhoneENListD2Ev @ 316 NONAME
	_ZN26CRetrieveMobilePhoneONList13RetrieveListLEv @ 317 NONAME
	_ZN26CRetrieveMobilePhoneONList4NewLER17RMobilePhoneStore @ 318 NONAME
	_ZN26CRetrieveMobilePhoneONList5StartER14TRequestStatus @ 319 NONAME
	_ZN26CRetrieveMobilePhoneONListD0Ev @ 320 NONAME
	_ZN26CRetrieveMobilePhoneONListD1Ev @ 321 NONAME
	_ZN26CRetrieveMobilePhoneONListD2Ev @ 322 NONAME
	_ZN27CMobilePhoneBroadcastIdList14AddRangeEntryLERKN25RMobileBroadcastMessaging25TMobileBroadcastIdEntryV1ES3_ @ 323 NONAME
	_ZN27CMobilePhoneBroadcastIdList4NewLEv @ 324 NONAME
	_ZN27CMobilePhoneBroadcastIdListD0Ev @ 325 NONAME
	_ZN27CMobilePhoneBroadcastIdListD1Ev @ 326 NONAME
	_ZN27CMobilePhoneBroadcastIdListD2Ev @ 327 NONAME
	_ZN27CRetrieveMobilePhoneNamList13RetrieveListLEv @ 328 NONAME
	_ZN27CRetrieveMobilePhoneNamList4NewLER17RMobilePhoneStore @ 329 NONAME
	_ZN27CRetrieveMobilePhoneNamList5StartER14TRequestStatusi @ 330 NONAME
	_ZN27CRetrieveMobilePhoneNamListD0Ev @ 331 NONAME
	_ZN27CRetrieveMobilePhoneNamListD1Ev @ 332 NONAME
	_ZN27CRetrieveMobilePhoneNamListD2Ev @ 333 NONAME
	_ZN27CRetrieveMobilePhoneSmsList10StartBatchER14TRequestStatusii @ 334 NONAME
	_ZN27CRetrieveMobilePhoneSmsList16RetrieveGsmListLEv @ 335 NONAME
	_ZN27CRetrieveMobilePhoneSmsList17RetrieveCdmaListLEv @ 336 NONAME
	_ZN27CRetrieveMobilePhoneSmsList4NewLER17RMobilePhoneStoreN15RMobileSmsStore26TMobileSmsEntryExtensionIdE @ 337 NONAME
	_ZN27CRetrieveMobilePhoneSmsList5StartER14TRequestStatus @ 338 NONAME
	_ZN27CRetrieveMobilePhoneSmsListD0Ev @ 339 NONAME
	_ZN27CRetrieveMobilePhoneSmsListD1Ev @ 340 NONAME
	_ZN27CRetrieveMobilePhoneSmsListD2Ev @ 341 NONAME
	_ZN28CMobilePhoneEditableListBase12DeleteEntryLEi @ 342 NONAME
	_ZN28CMobilePhoneEditableListBase12InsertEntryLEiPKv @ 343 NONAME
	_ZN28CRetrieveMobilePhoneCcbsList13RetrieveListLEv @ 344 NONAME
	_ZN28CRetrieveMobilePhoneCcbsList4NewLER12RMobilePhone @ 345 NONAME
	_ZN28CRetrieveMobilePhoneCcbsList5StartER14TRequestStatus @ 346 NONAME
	_ZN28CRetrieveMobilePhoneCcbsListD0Ev @ 347 NONAME
	_ZN28CRetrieveMobilePhoneCcbsListD1Ev @ 348 NONAME
	_ZN28CRetrieveMobilePhoneCcbsListD2Ev @ 349 NONAME
	_ZN28CRetrieveMobilePhoneSmspList13RetrieveListLEv @ 350 NONAME
	_ZN28CRetrieveMobilePhoneSmspList4NewLER19RMobileSmsMessaging @ 351 NONAME
	_ZN28CRetrieveMobilePhoneSmspList5StartER14TRequestStatus @ 352 NONAME
	_ZN28CRetrieveMobilePhoneSmspListD0Ev @ 353 NONAME
	_ZN28CRetrieveMobilePhoneSmspListD1Ev @ 354 NONAME
	_ZN28CRetrieveMobilePhoneSmspListD2Ev @ 355 NONAME
	_ZN29CMobilePhoneStoredNetworkList12ChangeEntryLEiRKN12RMobilePhone30TMobilePreferredNetworkEntryV3E @ 356 NONAME
	_ZN29CMobilePhoneStoredNetworkList12DeleteEntryLEi @ 357 NONAME
	_ZN29CMobilePhoneStoredNetworkList12InsertEntryLEiRKN12RMobilePhone30TMobilePreferredNetworkEntryV3E @ 358 NONAME
	_ZN29CMobilePhoneStoredNetworkList4NewLEv @ 359 NONAME
	_ZN29CMobilePhoneStoredNetworkListD0Ev @ 360 NONAME
	_ZN29CMobilePhoneStoredNetworkListD1Ev @ 361 NONAME
	_ZN29CMobilePhoneStoredNetworkListD2Ev @ 362 NONAME
	_ZN35CRetrieveMobilePhoneBroadcastIdList13RetrieveListLEv @ 363 NONAME
	_ZN35CRetrieveMobilePhoneBroadcastIdList4NewLER25RMobileBroadcastMessaging @ 364 NONAME
	_ZN35CRetrieveMobilePhoneBroadcastIdList5StartER14TRequestStatusN25RMobileBroadcastMessaging22TMobileBroadcastIdTypeE @ 365 NONAME
	_ZN35CRetrieveMobilePhoneBroadcastIdListD0Ev @ 366 NONAME
	_ZN35CRetrieveMobilePhoneBroadcastIdListD1Ev @ 367 NONAME
	_ZN35CRetrieveMobilePhoneBroadcastIdListD2Ev @ 368 NONAME
	_ZN36CRetrieveMobilePhoneDetectedNetworks13RetrieveListLEv @ 369 NONAME
	_ZN36CRetrieveMobilePhoneDetectedNetworks4NewLER12RMobilePhone @ 370 NONAME
	_ZN36CRetrieveMobilePhoneDetectedNetworks5StartER14TRequestStatus @ 371 NONAME
	_ZN36CRetrieveMobilePhoneDetectedNetworksD0Ev @ 372 NONAME
	_ZN36CRetrieveMobilePhoneDetectedNetworksD1Ev @ 373 NONAME
	_ZN36CRetrieveMobilePhoneDetectedNetworksD2Ev @ 374 NONAME
	_ZN37CRetrieveMobilePhonePreferredNetworks13RetrieveListLEv @ 375 NONAME
	_ZN37CRetrieveMobilePhonePreferredNetworks4NewLER12RMobilePhone @ 376 NONAME
	_ZN37CRetrieveMobilePhonePreferredNetworks5StartER14TRequestStatus @ 377 NONAME
	_ZN37CRetrieveMobilePhonePreferredNetworksD0Ev @ 378 NONAME
	_ZN37CRetrieveMobilePhonePreferredNetworksD1Ev @ 379 NONAME
	_ZN37CRetrieveMobilePhonePreferredNetworksD2Ev @ 380 NONAME
	_ZNK11RMobileCall10GetUUSCapsERm @ 381 NONAME
	_ZNK11RMobileCall10GoOneToOneER14TRequestStatus @ 382 NONAME
	_ZNK11RMobileCall10ReceiveUUIER14TRequestStatusR4TBufILi129EE @ 383 NONAME
	_ZNK11RMobileCall10RejectCCBSEv @ 384 NONAME
	_ZNK11RMobileCall10SetPrivacyEN12RMobilePhone19TMobilePhonePrivacyE @ 385 NONAME
	_ZNK11RMobileCall11ActivateUUSER14TRequestStatusRK6TDesC8 @ 386 NONAME
	_ZNK11RMobileCall12ActivateCCBSER14TRequestStatusRi @ 387 NONAME
	_ZNK11RMobileCall13HangupWithUUIER14TRequestStatusRK4TBufILi129EE @ 388 NONAME
	_ZNK11RMobileCall14DialNoFdnCheckER14TRequestStatusRK6TDesC8RK7TDesC16 @ 389 NONAME
	_ZNK11RMobileCall14DialNoFdnCheckER14TRequestStatusRK7TDesC16 @ 390 NONAME
	_ZNK11RMobileCall15NotifyCallEventER14TRequestStatusRNS_16TMobileCallEventE @ 391 NONAME
	_ZNK11RMobileCall17DialEmergencyCallER14TRequestStatusRK7TDesC16 @ 392 NONAME
	_ZNK11RMobileCall17GetMobileCallCapsER5TDes8 @ 393 NONAME
	_ZNK11RMobileCall17GetMobileCallInfoER5TDes8 @ 394 NONAME
	_ZNK11RMobileCall17SetTrafficChannelENS_14TMobileCallTchE @ 395 NONAME
	_ZNK11RMobileCall19GetCurrentHscsdInfoER5TDes8 @ 396 NONAME
	_ZNK11RMobileCall19GetMobileCallStatusERNS_17TMobileCallStatusE @ 397 NONAME
	_ZNK11RMobileCall19NotifyUUSCapsChangeER14TRequestStatusRm @ 398 NONAME
	_ZNK11RMobileCall19NotifyVoiceFallbackER14TRequestStatusR4TBufILi128EE @ 399 NONAME
	_ZNK11RMobileCall20NotifyAudioToneEventER14TRequestStatusR5TDes8 @ 400 NONAME
	_ZNK11RMobileCall21GetMobileDataCallCapsER5TDes8 @ 401 NONAME
	_ZNK11RMobileCall21NotifyHscsdInfoChangeER14TRequestStatusR5TDes8 @ 402 NONAME
	_ZNK11RMobileCall21SetDynamicHscsdParamsER14TRequestStatusNS_15TMobileCallAiurEi @ 403 NONAME
	_ZNK11RMobileCall21SwitchAlternatingCallER14TRequestStatus @ 404 NONAME
	_ZNK11RMobileCall25AnswerIncomingCallWithUUIER14TRequestStatusRK6TDesC8RK4TBufILi129EE @ 405 NONAME
	_ZNK11RMobileCall25GetMobileDataCallRLPRangeER14TRequestStatusiR5TDes8 @ 406 NONAME
	_ZNK11RMobileCall25NotifyPrivacyConfirmationER14TRequestStatusRN12RMobilePhone19TMobilePhonePrivacyE @ 407 NONAME
	_ZNK11RMobileCall26NotifyMobileCallCapsChangeER14TRequestStatusR5TDes8 @ 408 NONAME
	_ZNK11RMobileCall27AnswerMultimediaCallAsVoiceER14TRequestStatusRK6TDesC8R4TBufILi128EE @ 409 NONAME
	_ZNK11RMobileCall27NotifyAlternatingCallSwitchER14TRequestStatus @ 410 NONAME
	_ZNK11RMobileCall27NotifyRemotePartyInfoChangeER14TRequestStatusR5TDes8 @ 411 NONAME
	_ZNK11RMobileCall28NotifyMobileCallStatusChangeER14TRequestStatusRNS_17TMobileCallStatusE @ 412 NONAME
	_ZNK11RMobileCall30NotifyMobileDataCallCapsChangeER14TRequestStatusR5TDes8 @ 413 NONAME
	_ZNK11RMobileCall32NotifyTrafficChannelConfirmationER14TRequestStatusRNS_14TMobileCallTchE @ 414 NONAME
	_ZNK11RMobileCall4HoldER14TRequestStatus @ 415 NONAME
	_ZNK11RMobileCall4SwapER14TRequestStatus @ 416 NONAME
	_ZNK11RMobileCall6ResumeER14TRequestStatus @ 417 NONAME
	_ZNK11RMobileCall7DeflectER14TRequestStatusNS_18TMobileCallDeflectERKN12RMobilePhone14TMobileAddressE @ 418 NONAME
	_ZNK11RMobileCall7SendUUIER14TRequestStatusiRK4TBufILi129EE @ 419 NONAME
	_ZNK11RMobileCall8TransferER14TRequestStatus @ 420 NONAME
	_ZNK11RMobileLine19GetMobileLineStatusERN11RMobileCall17TMobileCallStatusE @ 421 NONAME
	_ZNK11RMobileLine28NotifyMobileLineStatusChangeER14TRequestStatusRN11RMobileCall17TMobileCallStatusE @ 422 NONAME
	_ZNK12RMobilePhone10GetALSLineERNS_19TMobilePhoneALSLineE @ 423 NONAME
	_ZNK12RMobilePhone10GetAPNnameER14TRequestStatusmR5TDes8 @ 424 NONAME
	_ZNK12RMobilePhone10GetPhoneIdER14TRequestStatusRNS_22TMobilePhoneIdentityV1E @ 425 NONAME
	_ZNK12RMobilePhone10SetALSLineER14TRequestStatusNS_19TMobilePhoneALSLineE @ 426 NONAME
	_ZNK12RMobilePhone11GetCostCapsERm @ 427 NONAME
	_ZNK12RMobilePhone11GetCostInfoER14TRequestStatusR5TDes8 @ 428 NONAME
	_ZNK12RMobilePhone11GetDTMFCapsERm @ 429 NONAME
	_ZNK12RMobilePhone11GetLockInfoER14TRequestStatusNS_16TMobilePhoneLockER5TDes8 @ 430 NONAME
	_ZNK12RMobilePhone11GetNITZInfoERNS_16TMobilePhoneNITZE @ 431 NONAME
	_ZNK12RMobilePhone12GetFdnStatusER14TRequestStatusRNS_21TMobilePhoneFdnStatusE @ 432 NONAME
	_ZNK12RMobilePhone12GetFdnStatusERNS_21TMobilePhoneFdnStatusE @ 433 NONAME
	_ZNK12RMobilePhone12GetIndicatorER14TRequestStatusRm @ 434 NONAME
	_ZNK12RMobilePhone12GetMmsConfigER14TRequestStatusNS_14TMmsConnParamsER5TDes8 @ 435 NONAME
	_ZNK12RMobilePhone12InitialiseMMER14TRequestStatusR5TDes8 @ 436 NONAME
	_ZNK12RMobilePhone12StopDTMFToneEv @ 437 NONAME
	_ZNK12RMobilePhone13GetCCBSStatusER14TRequestStatusRNS_22TMobilePhoneCCBSStatusENS_19TMobileInfoLocationE @ 438 NONAME
	_ZNK12RMobilePhone13GetSignalCapsERm @ 439 NONAME
	_ZNK12RMobilePhone13GetUUSSettingER14TRequestStatusRNS_22TMobilePhoneUUSSettingE @ 440 NONAME
	_ZNK12RMobilePhone13ReadDTMFTonesER14TRequestStatusR6TDes16 @ 441 NONAME
	_ZNK12RMobilePhone13SelectNetworkER14TRequestStatusiRKNS_34TMobilePhoneNetworkManualSelectionE @ 442 NONAME
	_ZNK12RMobilePhone13SendDTMFTonesER14TRequestStatusRK7TDesC16 @ 443 NONAME
	_ZNK12RMobilePhone13SetFdnSettingER14TRequestStatusNS_22TMobilePhoneFdnSettingE @ 444 NONAME
	_ZNK12RMobilePhone13SetSSPasswordER14TRequestStatusRK6TDesC8i @ 445 NONAME
	_ZNK12RMobilePhone13SetUUSSettingER14TRequestStatusNS_22TMobilePhoneUUSSettingE @ 446 NONAME
	_ZNK12RMobilePhone13StartDTMFToneE5TChar @ 447 NONAME
	_ZNK12RMobilePhone14ClearBlacklistER14TRequestStatus @ 448 NONAME
	_ZNK12RMobilePhone14ClearCostMeterER14TRequestStatusNS_22TMobilePhoneCostMetersE @ 449 NONAME
	_ZNK12RMobilePhone14DeactivateCCBSER14TRequestStatusi @ 450 NONAME
	_ZNK12RMobilePhone14GetBatteryCapsERm @ 451 NONAME
	_ZNK12RMobilePhone14GetBatteryInfoER14TRequestStatusRNS_25TMobilePhoneBatteryInfoV1E @ 452 NONAME
	_ZNK12RMobilePhone14GetCurrentModeERNS_23TMobilePhoneNetworkModeE @ 453 NONAME
	_ZNK12RMobilePhone14GetFeatureCodeER14TRequestStatusR6TDes16NS_26TMobilePhoneNetworkServiceENS_25TMobilePhoneServiceActionE @ 454 NONAME
	_ZNK12RMobilePhone14GetHomeNetworkER14TRequestStatusR5TDes8 @ 455 NONAME
	_ZNK12RMobilePhone14GetNetworkCapsERm @ 456 NONAME
	_ZNK12RMobilePhone14SetLockSettingER14TRequestStatusNS_16TMobilePhoneLockENS_23TMobilePhoneLockSettingE @ 457 NONAME
	_ZNK12RMobilePhone14TMultimodeType11ExtensionIdEv @ 458 NONAME
	_ZNK12RMobilePhone15GetIdentityCapsERm @ 459 NONAME
	_ZNK12RMobilePhone15GetSecurityCapsERm @ 460 NONAME
	_ZNK12RMobilePhone15GetServiceTableER14TRequestStatusNS_24TMobilePhoneServiceTableER5TDes8 @ 461 NONAME
	_ZNK12RMobilePhone15GetSubscriberIdER14TRequestStatusR4TBufILi15EE @ 462 NONAME
	_ZNK12RMobilePhone15NotifyDTMFEventER14TRequestStatusRNS_21TMobilePhoneDTMFEventE @ 463 NONAME
	_ZNK12RMobilePhone15NotifyMmsConfigER14TRequestStatusNS_14TMmsConnParamsER5TDes8 @ 464 NONAME
	_ZNK12RMobilePhone15NotifyMmsUpdateER14TRequestStatusR5TDes8 @ 465 NONAME
	_ZNK12RMobilePhone15SetMaxCostMeterER14TRequestStatusj @ 466 NONAME
	_ZNK12RMobilePhone16AcceptCCBSRecallER14TRequestStatusiR4TBufILi128EE @ 467 NONAME
	_ZNK12RMobilePhone16GetIccAccessCapsERm @ 468 NONAME
	_ZNK12RMobilePhone16GetIndicatorCapsERmS0_ @ 469 NONAME
	_ZNK12RMobilePhone16GetMultimodeCapsERm @ 470 NONAME
	_ZNK12RMobilePhone16NotifyCCBSRecallER14TRequestStatusR5TDes8 @ 471 NONAME
	_ZNK12RMobilePhone16NotifyModeChangeER14TRequestStatusRNS_23TMobilePhoneNetworkModeE @ 472 NONAME
	_ZNK12RMobilePhone16RefuseCCBSRecallEi @ 473 NONAME
	_ZNK12RMobilePhone17AbortSecurityCodeENS_24TMobilePhoneSecurityCodeE @ 474 NONAME
	_ZNK12RMobilePhone17GetCompMethodNameER14TRequestStatusR6TDes16h @ 475 NONAME
	_ZNK12RMobilePhone17GetCurrentNetworkER14TRequestStatusR5TDes8RNS_26TMobilePhoneLocationAreaV1E @ 476 NONAME
	_ZNK12RMobilePhone17GetDefaultPrivacyERNS_19TMobilePhonePrivacyE @ 477 NONAME
	_ZNK12RMobilePhone17GetMailboxNumbersER14TRequestStatusR5TDes8 @ 478 NONAME
	_ZNK12RMobilePhone17GetPhoneStoreInfoER14TRequestStatusR5TDes8RK7TDesC16 @ 479 NONAME
	_ZNK12RMobilePhone17GetPhoneStoreInfoER14TRequestStatusR5TDes8RK7TDesC16S6_ @ 480 NONAME
	_ZNK12RMobilePhone17GetSignalStrengthER14TRequestStatusRlRa @ 481 NONAME
	_ZNK12RMobilePhone17SetDefaultPrivacyER14TRequestStatusNS_19TMobilePhonePrivacyE @ 482 NONAME
	_ZNK12RMobilePhone17TerminateAllCallsER14TRequestStatus @ 483 NONAME
	_ZNK12RMobilePhone18ChangeSecurityCodeER14TRequestStatusNS_24TMobilePhoneSecurityCodeERKNS_28TMobilePhonePasswordChangeV1E @ 484 NONAME
	_ZNK12RMobilePhone18GetAirTimeDurationER20TTimeIntervalSeconds @ 485 NONAME
	_ZNK12RMobilePhone18GetCallServiceCapsERm @ 486 NONAME
	_ZNK12RMobilePhone18GetMulticallParamsER14TRequestStatusR5TDes8 @ 487 NONAME
	_ZNK12RMobilePhone18ProgramFeatureCodeER14TRequestStatusRK7TDesC16NS_26TMobilePhoneNetworkServiceENS_25TMobilePhoneServiceActionE @ 488 NONAME
	_ZNK12RMobilePhone18SetMulticallParamsER14TRequestStatusi @ 489 NONAME
	_ZNK12RMobilePhone18VerifySecurityCodeER14TRequestStatusNS_24TMobilePhoneSecurityCodeERK4TBufILi10EES6_ @ 490 NONAME
	_ZNK12RMobilePhone19EnumerateAPNEntriesER14TRequestStatusRm @ 491 NONAME
	_ZNK12RMobilePhone19GetIncomingCallTypeER14TRequestStatusRNS_28TMobilePhoneIncomingCallTypeER5TDes8 @ 492 NONAME
	_ZNK12RMobilePhone19NotifyALSLineChangeER14TRequestStatusRNS_19TMobilePhoneALSLineE @ 493 NONAME
	_ZNK12RMobilePhone19NotifySecurityEventER14TRequestStatusRNS_25TMobilePhoneSecurityEventE @ 494 NONAME
	_ZNK12RMobilePhone19SetIncomingCallTypeER14TRequestStatusNS_28TMobilePhoneIncomingCallTypeER5TDes8 @ 495 NONAME
	_ZNK12RMobilePhone20NotifyCostCapsChangeER14TRequestStatusRm @ 496 NONAME
	_ZNK12RMobilePhone20NotifyCostInfoChangeER14TRequestStatusR5TDes8 @ 497 NONAME
	_ZNK12RMobilePhone20NotifyDTMFCapsChangeER14TRequestStatusRm @ 498 NONAME
	_ZNK12RMobilePhone20NotifyLockInfoChangeER14TRequestStatusRNS_16TMobilePhoneLockER5TDes8 @ 499 NONAME
	_ZNK12RMobilePhone20NotifyMessageWaitingER14TRequestStatusRi @ 500 NONAME
	_ZNK12RMobilePhone20NotifyNITZInfoChangeER14TRequestStatusRNS_16TMobilePhoneNITZE @ 501 NONAME
	_ZNK12RMobilePhone20SetCallBarringStatusER14TRequestStatusNS_23TMobilePhoneCBConditionERKNS_22TMobilePhoneCBChangeV1E @ 502 NONAME
	_ZNK12RMobilePhone20SetCallWaitingStatusER14TRequestStatusNS_14TMobileServiceENS_25TMobilePhoneServiceActionE @ 503 NONAME
	_ZNK12RMobilePhone20SetMmsUserConnParamsER14TRequestStatusR5TDes8 @ 504 NONAME
	_ZNK12RMobilePhone21GetCurrentNetworkNameER14TRequestStatusR5TDes8S3_ @ 505 NONAME
	_ZNK12RMobilePhone21NotifyFdnStatusChangeER14TRequestStatusRNS_21TMobilePhoneFdnStatusE @ 506 NONAME
	_ZNK12RMobilePhone21NotifyIndicatorChangeER14TRequestStatusRm @ 507 NONAME
	_ZNK12RMobilePhone21SetMmsUserPreferencesER14TRequestStatusR5TDes8 @ 508 NONAME
	_ZNK12RMobilePhone22GetAlternatingCallCapsERm @ 509 NONAME
	_ZNK12RMobilePhone22GetAlternatingCallModeERNS_31TMobilePhoneAlternatingCallModeERNS_14TMobileServiceE @ 510 NONAME
	_ZNK12RMobilePhone22GetMultimodeAPIVersionERi @ 511 NONAME
	_ZNK12RMobilePhone22GetPersonalisationCapsERm @ 512 NONAME
	_ZNK12RMobilePhone22GetServiceProviderNameER14TRequestStatusR5TDes8 @ 513 NONAME
	_ZNK12RMobilePhone22GetUSimApplicationInfoER14TRequestStatusiR5TDes8 @ 514 NONAME
	_ZNK12RMobilePhone22NotifyCCBSStatusChangeER14TRequestStatusRNS_22TMobilePhoneCCBSStatusE @ 515 NONAME
	_ZNK12RMobilePhone22NotifyStopInDTMFStringER14TRequestStatus @ 516 NONAME
	_ZNK12RMobilePhone22NotifyUUSSettingChangeER14TRequestStatusRNS_22TMobilePhoneUUSSettingE @ 517 NONAME
	_ZNK12RMobilePhone22SetAlternatingCallModeER14TRequestStatusNS_31TMobilePhoneAlternatingCallModeENS_14TMobileServiceE @ 518 NONAME
	_ZNK12RMobilePhone22SetCallBarringPasswordER14TRequestStatusRKNS_28TMobilePhonePasswordChangeV1E @ 519 NONAME
	_ZNK12RMobilePhone23GetNetworkSecurityLevelER14TRequestStatusRNS_27TMobilePhoneNetworkSecurityE @ 520 NONAME
	_ZNK12RMobilePhone23NotifyBatteryInfoChangeER14TRequestStatusRNS_25TMobilePhoneBatteryInfoV1E @ 521 NONAME
	_ZNK12RMobilePhone23SetCallForwardingStatusER14TRequestStatusNS_23TMobilePhoneCFConditionERKNS_22TMobilePhoneCFChangeV1E @ 522 NONAME
	_ZNK12RMobilePhone24GetIdentityServiceStatusER14TRequestStatusNS_21TMobilePhoneIdServiceERNS_27TMobilePhoneIdServiceStatusENS_19TMobileInfoLocationE @ 523 NONAME
	_ZNK12RMobilePhone24GetNetworkInvScanSettingERNS_29TMobilePhoneInvestigationScanE @ 524 NONAME
	_ZNK12RMobilePhone24GetPersonalisationStatusER14TRequestStatusRm @ 525 NONAME
	_ZNK12RMobilePhone24GetUSimAppsSelectionModeERNS_18TUSimSelectionModeE @ 526 NONAME
	_ZNK12RMobilePhone24NotifySecurityCapsChangeER14TRequestStatusRm @ 527 NONAME
	_ZNK12RMobilePhone24SetIdentityServiceStatusER14TRequestStatusNS_21TMobilePhoneIdServiceENS_28TMobilePhoneIdServiceSettingE @ 528 NONAME
	_ZNK12RMobilePhone24SetPersonalisationStatusER14TRequestStatusNS_27TMobilePhonePersonalisationERK6TDes16 @ 529 NONAME
	_ZNK12RMobilePhone24SetUSimApplicationStatusER14TRequestStatus5TBuf8ILi16EENS_14TUSimAppActionE @ 530 NONAME
	_ZNK12RMobilePhone24SetUSimAppsSelectionModeENS_18TUSimSelectionModeE @ 531 NONAME
	_ZNK12RMobilePhone25ContinueDTMFStringSendingEi @ 532 NONAME
	_ZNK12RMobilePhone25EnumerateUSimApplicationsER14TRequestStatusRiR5TBuf8ILi16EE @ 533 NONAME
	_ZNK12RMobilePhone25GetCustomerServiceProfileER14TRequestStatusR5TDes8 @ 534 NONAME
	_ZNK12RMobilePhone25NotifyIccAccessCapsChangeER14TRequestStatusRm @ 535 NONAME
	_ZNK12RMobilePhone25NotifyNetworkInvScanEventER14TRequestStatusRNS_34TMobilePhoneInvestigationScanEventE @ 536 NONAME
	_ZNK12RMobilePhone25SendNetworkServiceRequestER14TRequestStatusRK7TDesC16 @ 537 NONAME
	_ZNK12RMobilePhone26GetCallForwardingIndicatorER14TRequestStatusR5TDes8 @ 538 NONAME
	_ZNK12RMobilePhone26GetHomeNetworkSearchPeriodER14TRequestStatusRi @ 539 NONAME
	_ZNK12RMobilePhone26GetNetworkSelectionSettingER5TDes8 @ 540 NONAME
	_ZNK12RMobilePhone26NotifyCallForwardingActiveER14TRequestStatusRNS_14TMobileServiceERNS_20TMobilePhoneCFActiveE @ 541 NONAME
	_ZNK12RMobilePhone26NotifyCurrentNetworkChangeER14TRequestStatusR5TDes8RNS_26TMobilePhoneLocationAreaV1E @ 542 NONAME
	_ZNK12RMobilePhone26NotifyDefaultPrivacyChangeER14TRequestStatusRNS_19TMobilePhonePrivacyE @ 543 NONAME
	_ZNK12RMobilePhone26NotifyMailboxNumbersChangeER14TRequestStatusR5TDes8 @ 544 NONAME
	_ZNK12RMobilePhone26NotifyNetworkInvScanChangeER14TRequestStatusRNS_29TMobilePhoneInvestigationScanE @ 545 NONAME
	_ZNK12RMobilePhone26NotifySignalStrengthChangeER14TRequestStatusRlRa @ 546 NONAME
	_ZNK12RMobilePhone26SetNetworkSelectionSettingER14TRequestStatusRK5TDes8 @ 547 NONAME
	_ZNK12RMobilePhone27GetCipheringIndicatorStatusER14TRequestStatusRNS_29TMobileCallCipheringIndicatorE @ 548 NONAME
	_ZNK12RMobilePhone27GetLastUsedAccessTechnologyER14TRequestStatusRNS_25TMobilePhoneNetworkAccessE @ 549 NONAME
	_ZNK12RMobilePhone27GetMultimediaCallPreferenceERNS_30TMobilePhoneMultimediaSettingsE @ 550 NONAME
	_ZNK12RMobilePhone27NotifyAirTimeDurationChangeER14TRequestStatusR20TTimeIntervalSeconds @ 551 NONAME
	_ZNK12RMobilePhone27NotifyCallServiceCapsChangeER14TRequestStatusRm @ 552 NONAME
	_ZNK12RMobilePhone27NotifyIdentityServiceStatusER14TRequestStatusNS_21TMobilePhoneIdServiceERNS_27TMobilePhoneIdServiceStatusE @ 553 NONAME
	_ZNK12RMobilePhone27NotifyMulticallParamsChangeER14TRequestStatusR5TDes8 @ 554 NONAME
	_ZNK12RMobilePhone27SetMultimediaCallPreferenceER14TRequestStatusNS_30TMobilePhoneMultimediaSettingsE @ 555 NONAME
	_ZNK12RMobilePhone27StorePreferredNetworksListLER14TRequestStatusP29CMobilePhoneStoredNetworkList @ 556 NONAME
	_ZNK12RMobilePhone28GetNetworkRegistrationStatusER14TRequestStatusRNS_30TMobilePhoneRegistrationStatusE @ 557 NONAME
	_ZNK12RMobilePhone28NotifyIncomingCallTypeChangeER14TRequestStatusRNS_28TMobilePhoneIncomingCallTypeER5TDes8 @ 558 NONAME
	_ZNK12RMobilePhone29NotifyCallBarringStatusChangeER14TRequestStatusRNS_23TMobilePhoneCBConditionE @ 559 NONAME
	_ZNK12RMobilePhone29NotifyCallWaitingStatusChangeER14TRequestStatusR5TDes8 @ 560 NONAME
	_ZNK12RMobilePhone30GetIccMessageWaitingIndicatorsER14TRequestStatusR5TDes8 @ 561 NONAME
	_ZNK12RMobilePhone30NotifyCipheringIndicatorStatusER14TRequestStatusRNS_29TMobileCallCipheringIndicatorE @ 562 NONAME
	_ZNK12RMobilePhone30NotifyMulticallIndicatorChangeER14TRequestStatusRNS_30TMobilePhoneMulticallIndicatorE @ 563 NONAME
	_ZNK12RMobilePhone30SetIccMessageWaitingIndicatorsER14TRequestStatusRK6TDesC8 @ 564 NONAME
	_ZNK12RMobilePhone31NotifyAlternatingCallCapsChangeER14TRequestStatusRm @ 565 NONAME
	_ZNK12RMobilePhone31NotifyAlternatingCallModeChangeER14TRequestStatusRNS_31TMobilePhoneAlternatingCallModeERNS_14TMobileServiceE @ 566 NONAME
	_ZNK12RMobilePhone31NotifySendNetworkServiceRequestER14TRequestStatusNS_33TMobilePhoneNotifySendSSOperationER5TDes8 @ 567 NONAME
	_ZNK12RMobilePhone32NotifyCallForwardingStatusChangeER14TRequestStatusRNS_23TMobilePhoneCFConditionE @ 568 NONAME
	_ZNK12RMobilePhone32NotifyNetworkSecurityLevelChangeER14TRequestStatusRNS_27TMobilePhoneNetworkSecurityE @ 569 NONAME
	_ZNK12RMobilePhone32NotifyUSimApplicationsInfoChangeER14TRequestStatusRiR5TBuf8ILi16EE @ 570 NONAME
	_ZNK12RMobilePhone33NotifyIdentitySuppressionRejectedER14TRequestStatus @ 571 NONAME
	_ZNK12RMobilePhone33NotifyPreferredNetworksListChangeER14TRequestStatus @ 572 NONAME
	_ZNK12RMobilePhone33NotifyUSimAppsSelectionModeChangeER14TRequestStatusRNS_18TUSimSelectionModeE @ 573 NONAME
	_ZNK12RMobilePhone35NotifyNetworkSelectionSettingChangeER14TRequestStatusR5TDes8 @ 574 NONAME
	_ZNK12RMobilePhone35SendNetworkServiceRequestNoFdnCheckER14TRequestStatusRK7TDesC16 @ 575 NONAME
	_ZNK12RMobilePhone37NotifyNetworkRegistrationStatusChangeER14TRequestStatusRNS_30TMobilePhoneRegistrationStatusE @ 576 NONAME
	_ZNK12RMobilePhone39NotifyIccMessageWaitingIndicatorsChangeER14TRequestStatusR5TDes8 @ 577 NONAME
	_ZNK12RMobilePhone7SetPuctER14TRequestStatusRK6TDesC8 @ 578 NONAME
	_ZNK14RMobileONStore9StoreAllLER14TRequestStatusP18CMobilePhoneONList @ 579 NONAME
	_ZNK15RMobileNamStore12SetActiveNamER14TRequestStatusi @ 580 NONAME
	_ZNK15RMobileNamStore9StoreAllLER14TRequestStatusiP19CMobilePhoneNamList @ 581 NONAME
	_ZNK17RMobilePhoneStore16NotifyStoreEventER14TRequestStatusRmRi @ 582 NONAME
	_ZNK17RMobilePhoneStore4ReadER14TRequestStatusR5TDes8 @ 583 NONAME
	_ZNK17RMobilePhoneStore5WriteER14TRequestStatusR5TDes8 @ 584 NONAME
	_ZNK17RMobilePhoneStore6DeleteER14TRequestStatusi @ 585 NONAME
	_ZNK17RMobilePhoneStore7GetInfoER14TRequestStatusR5TDes8 @ 586 NONAME
	_ZNK17RMobilePhoneStore9DeleteAllER14TRequestStatus @ 587 NONAME
	_ZNK19RMobileSmsMessaging11SendMessageER14TRequestStatusRK6TDesC8R5TDes8 @ 588 NONAME
	_ZNK19RMobileSmsMessaging12AckSmsStoredER14TRequestStatusRK6TDesC8i @ 589 NONAME
	_ZNK19RMobileSmsMessaging13NackSmsStoredER14TRequestStatusRK6TDesC8i @ 590 NONAME
	_ZNK19RMobileSmsMessaging14GetMoSmsBearerERNS_16TMobileSmsBearerE @ 591 NONAME
	_ZNK19RMobileSmsMessaging14GetReceiveModeERNS_21TMobileSmsReceiveModeE @ 592 NONAME
	_ZNK19RMobileSmsMessaging14ReceiveMessageER14TRequestStatusR5TDes8S3_ @ 593 NONAME
	_ZNK19RMobileSmsMessaging14SetMoSmsBearerER14TRequestStatusNS_16TMobileSmsBearerE @ 594 NONAME
	_ZNK19RMobileSmsMessaging14SetReceiveModeER14TRequestStatusNS_21TMobileSmsReceiveModeE @ 595 NONAME
	_ZNK19RMobileSmsMessaging14StoreSmspListLER14TRequestStatusP20CMobilePhoneSmspList @ 596 NONAME
	_ZNK19RMobileSmsMessaging18ResumeSmsReceptionER14TRequestStatus @ 597 NONAME
	_ZNK19RMobileSmsMessaging19GetMessageStoreInfoER14TRequestStatusiR5TDes8 @ 598 NONAME
	_ZNK19RMobileSmsMessaging20NotifySmspListChangeER14TRequestStatus @ 599 NONAME
	_ZNK19RMobileSmsMessaging21SendMessageNoFdnCheckER14TRequestStatusRK6TDesC8R5TDes8 @ 600 NONAME
	_ZNK19RMobileSmsMessaging22EnumerateMessageStoresERi @ 601 NONAME
	_ZNK19RMobileSmsMessaging7GetCapsER5TDes8 @ 602 NONAME
	_ZNK20CMobilePhoneListBase12ExternalizeLER12RWriteStream @ 603 NONAME
	_ZNK20CMobilePhoneListBase16MaxNumberEntriesEv @ 604 NONAME
	_ZNK20CMobilePhoneListBase9EnumerateEv @ 605 NONAME
	_ZNK20CMobilePhoneListBase9GetEntryLEi @ 606 NONAME
	_ZNK20RMobileUssdMessaging11SendMessageER14TRequestStatusRK6TDesC8S4_ @ 607 NONAME
	_ZNK20RMobileUssdMessaging11SendReleaseER14TRequestStatusR5TDes8 @ 608 NONAME
	_ZNK20RMobileUssdMessaging14ReceiveMessageER14TRequestStatusR5TDes8S3_ @ 609 NONAME
	_ZNK20RMobileUssdMessaging20NotifyNetworkReleaseER14TRequestStatusR5TDes8 @ 610 NONAME
	_ZNK20RMobileUssdMessaging21SendMessageNoFdnCheckER14TRequestStatusRK6TDesC8S4_ @ 611 NONAME
	_ZNK20RMobileUssdMessaging7GetCapsER5TDes8 @ 612 NONAME
	_ZNK21RMobileConferenceCall14EnumerateCallsERi @ 613 NONAME
	_ZNK21RMobileConferenceCall16CreateConferenceER14TRequestStatus @ 614 NONAME
	_ZNK21RMobileConferenceCall16NotifyCapsChangeER14TRequestStatusRm @ 615 NONAME
	_ZNK21RMobileConferenceCall17GetMobileCallInfoEiR5TDes8 @ 616 NONAME
	_ZNK21RMobileConferenceCall19GetConferenceStatusERNS_23TMobileConferenceStatusE @ 617 NONAME
	_ZNK21RMobileConferenceCall21NotifyConferenceEventER14TRequestStatusRNS_22TMobileConferenceEventER4TBufILi128EE @ 618 NONAME
	_ZNK21RMobileConferenceCall28NotifyConferenceStatusChangeER14TRequestStatusRNS_23TMobileConferenceStatusE @ 619 NONAME
	_ZNK21RMobileConferenceCall4SwapER14TRequestStatus @ 620 NONAME
	_ZNK21RMobileConferenceCall6HangUpER14TRequestStatus @ 621 NONAME
	_ZNK21RMobileConferenceCall7AddCallER14TRequestStatusRK4TBufILi128EE @ 622 NONAME
	_ZNK21RMobileConferenceCall7GetCapsERm @ 623 NONAME
	_ZNK21RMobilePhoneBookStore4ReadER14TRequestStatusiiR5TDes8 @ 624 NONAME
	_ZNK21RMobilePhoneBookStore5WriteER14TRequestStatusRK6TDesC8Ri @ 625 NONAME
	_ZNK25RMobileBroadcastMessaging14ReceiveMessageER14TRequestStatusR5TDes8S3_ @ 626 NONAME
	_ZNK25RMobileBroadcastMessaging16GetFilterSettingERNS_27TMobilePhoneBroadcastFilterE @ 627 NONAME
	_ZNK25RMobileBroadcastMessaging16SetFilterSettingER14TRequestStatusNS_27TMobilePhoneBroadcastFilterE @ 628 NONAME
	_ZNK25RMobileBroadcastMessaging17GetLanguageFilterER14TRequestStatusR6TDes16 @ 629 NONAME
	_ZNK25RMobileBroadcastMessaging17SetLanguageFilterER14TRequestStatusRK7TDesC16 @ 630 NONAME
	_ZNK25RMobileBroadcastMessaging25NotifyFilterSettingChangeER14TRequestStatusRNS_27TMobilePhoneBroadcastFilterE @ 631 NONAME
	_ZNK25RMobileBroadcastMessaging26NotifyLanguageFilterChangeER14TRequestStatusR6TDes16 @ 632 NONAME
	_ZNK25RMobileBroadcastMessaging27NotifyBroadcastIdListChangeER14TRequestStatus @ 633 NONAME
	_ZNK25RMobileBroadcastMessaging7GetCapsER5TDes8 @ 634 NONAME
	_ZTI11RMobileCall @ 635 NONAME ; #<TI>#
	_ZTI11RMobileLine @ 636 NONAME ; #<TI>#
	_ZTI12RMobilePhone @ 637 NONAME ; #<TI>#
	_ZTV37CRetrieveMobilePhonePreferredNetworks @ 638 NONAME ; #<VT>#
	_ZTV11RMobileCall @ 639 NONAME ; #<VT>#
	_ZTV11RMobileLine @ 640 NONAME ; #<VT>#
	_ZTV12RMobilePhone @ 641 NONAME ; #<VT>#
	_ZN19RMobileSmsMessaging30TMobileSmsCdmaSendAttributesV4C1Ev @ 642 NONAME
	_ZN19RMobileSmsMessaging30TMobileSmsCdmaSendAttributesV4C2Ev @ 643 NONAME
	_ZN25CMobilePhoneNetworkListV2D2Ev @ 644 NONAME
	_ZN20CMobilePhoneListBaseC2Eii @ 645 NONAME
	_ZN20CMobilePhoneListBaseD0Ev @ 646 NONAME
	_ZN20CMobilePhoneListBaseD1Ev @ 647 NONAME
	_ZN20CMobilePhoneListBaseD2Ev @ 648 NONAME
	_ZN23CAsyncRetrievePhoneList3GetEiR14TRequestStatusR5TDes8S3_ @ 649 NONAME
	_ZN23CAsyncRetrievePhoneList9CancelReqEii @ 650 NONAME
	_ZN23CAsyncRetrievePhoneListC1ER12RMobilePhone @ 651 NONAME
	_ZN23CAsyncRetrievePhoneListC2ER12RMobilePhone @ 652 NONAME
	_ZN23CAsyncRetrievePhoneListD0Ev @ 653 NONAME
	_ZN23CAsyncRetrievePhoneListD1Ev @ 654 NONAME
	_ZN23CAsyncRetrievePhoneListD2Ev @ 655 NONAME
	_ZN25CMobilePhoneNetworkListV2D1Ev @ 656 NONAME
	_ZN28CMobilePhoneEditableListBaseC2Eii @ 657 NONAME
	_ZN28CMobilePhoneEditableListBaseD0Ev @ 658 NONAME
	_ZN28CMobilePhoneEditableListBaseD1Ev @ 659 NONAME
	_ZN28CMobilePhoneEditableListBaseD2Ev @ 660 NONAME
	_ZN34CAsyncRetrieveVariableLengthBuffer10FreeBufferEv @ 661 NONAME
	_ZN34CAsyncRetrieveVariableLengthBuffer15CompleteIfInUseER14TRequestStatus @ 662 NONAME
	_ZN34CAsyncRetrieveVariableLengthBuffer4RunLEv @ 663 NONAME
	_ZN34CAsyncRetrieveVariableLengthBuffer5StartER14TRequestStatusP5TDes8S3_ @ 664 NONAME
	_ZN34CAsyncRetrieveVariableLengthBuffer8DoCancelEv @ 665 NONAME
	_ZTI20CMobilePhoneListBase @ 666 NONAME ; #<TI>#
	_ZTI23CAsyncRetrievePhoneList @ 667 NONAME ; #<TI>#
	_ZTI28CMobilePhoneEditableListBase @ 668 NONAME ; #<TI>#
	_ZTI34CAsyncRetrieveVariableLengthBuffer @ 669 NONAME ; #<TI>#
	_ZTV20CMobilePhoneListBase @ 670 NONAME ; #<VT>#
	_ZTV23CAsyncRetrievePhoneList @ 671 NONAME ; #<VT>#
	_ZTV28CMobilePhoneEditableListBase @ 672 NONAME ; #<VT>#
	_ZTV34CAsyncRetrieveVariableLengthBuffer @ 673 NONAME ; #<VT>#
	_ZN25CMobilePhoneNetworkListV24NewLEv @ 674 NONAME
	_ZN25CMobilePhoneNetworkListV2D0Ev @ 675 NONAME
	_ZN15RMobileNamStore17TMobileNamEntryV4C1Ev @ 676 NONAME
	_ZN15RMobileNamStore17TMobileNamEntryV4C2Ev @ 677 NONAME
	_ZN21CMobilePhoneNamListV44NewLEv @ 678 NONAME
	_ZN21CMobilePhoneNamListV4D0Ev @ 679 NONAME
	_ZN21CMobilePhoneNamListV4D1Ev @ 680 NONAME
	_ZN21CMobilePhoneNamListV4D2Ev @ 681 NONAME
	_ZN27CRetrieveMobilePhoneNamList15RetrieveListV4LEv @ 682 NONAME
	_ZN27CRetrieveMobilePhoneNamList7StartV4ER14TRequestStatusi @ 683 NONAME
	_ZNK15RMobileNamStore9StoreAllLER14TRequestStatusiP21CMobilePhoneNamListV4 @ 684 NONAME
	_ZTI12CMmPtrHolder @ 685 NONAME ; #<TI>#
	_ZTI17CONStorePtrHolder @ 686 NONAME ; #<TI>#
	_ZTI18CMobilePhoneCBList @ 687 NONAME ; #<TI>#
	_ZTI18CMobilePhoneCFList @ 688 NONAME ; #<TI>#
	_ZTI18CMobilePhoneCWList @ 689 NONAME ; #<TI>#
	_ZTI18CMobilePhoneENList @ 690 NONAME ; #<TI>#
	_ZTI18CMobilePhoneONList @ 691 NONAME ; #<TI>#
	_ZTI18CNamStorePtrHolder @ 692 NONAME ; #<TI>#
	_ZTI19CMobilePhoneNamList @ 693 NONAME ; #<TI>#
	_ZTI20CMobilePhoneCcbsList @ 694 NONAME ; #<TI>#
	_ZTI20CMobilePhoneSmspList @ 695 NONAME ; #<TI>#
	_ZTI21CMobilePhoneNamListV4 @ 696 NONAME ; #<TI>#
	_ZTI21CMobilePhonePtrHolder @ 697 NONAME ; #<TI>#
	_ZTI22CCbsMessagingPtrHolder @ 698 NONAME ; #<TI>#
	_ZTI22CMobilePhoneGsmSmsList @ 699 NONAME ; #<TI>#
	_ZTI22CSmsMessagingPtrHolder @ 700 NONAME ; #<TI>#
	_ZTI23CAsyncRetrieveStoreList @ 701 NONAME ; #<TI>#
	_ZTI23CMobilePhoneCdmaSmsList @ 702 NONAME ; #<TI>#
	_ZTI23CMobilePhoneNetworkList @ 703 NONAME ; #<TI>#
	_ZTI25CMobilePhoneNetworkListV2 @ 704 NONAME ; #<TI>#
	_ZTI26CRetrieveMobilePhoneCBList @ 705 NONAME ; #<TI>#
	_ZTI26CRetrieveMobilePhoneCFList @ 706 NONAME ; #<TI>#
	_ZTI26CRetrieveMobilePhoneCWList @ 707 NONAME ; #<TI>#
	_ZTI26CRetrieveMobilePhoneENList @ 708 NONAME ; #<TI>#
	_ZTI26CRetrieveMobilePhoneONList @ 709 NONAME ; #<TI>#
	_ZTI27CMobilePhoneBroadcastIdList @ 710 NONAME ; #<TI>#
	_ZTI27CRetrieveMobilePhoneNamList @ 711 NONAME ; #<TI>#
	_ZTI27CRetrieveMobilePhoneSmsList @ 712 NONAME ; #<TI>#
	_ZTI28CRetrieveMobilePhoneCcbsList @ 713 NONAME ; #<TI>#
	_ZTI28CRetrieveMobilePhoneSmspList @ 714 NONAME ; #<TI>#
	_ZTI29CMobilePhoneStoredNetworkList @ 715 NONAME ; #<TI>#
	_ZTI35CRetrieveMobilePhoneBroadcastIdList @ 716 NONAME ; #<TI>#
	_ZTI36CRetrieveMobilePhoneDetectedNetworks @ 717 NONAME ; #<TI>#
	_ZTI37CRetrieveMobilePhonePreferredNetworks @ 718 NONAME ; #<TI>#
	_ZTV12CMmPtrHolder @ 719 NONAME ; #<VT>#
	_ZTV17CONStorePtrHolder @ 720 NONAME ; #<VT>#
	_ZTV18CMobilePhoneCBList @ 721 NONAME ; #<VT>#
	_ZTV18CMobilePhoneCFList @ 722 NONAME ; #<VT>#
	_ZTV18CMobilePhoneCWList @ 723 NONAME ; #<VT>#
	_ZTV18CMobilePhoneENList @ 724 NONAME ; #<VT>#
	_ZTV18CMobilePhoneONList @ 725 NONAME ; #<VT>#
	_ZTV18CNamStorePtrHolder @ 726 NONAME ; #<VT>#
	_ZTV19CMobilePhoneNamList @ 727 NONAME ; #<VT>#
	_ZTV20CMobilePhoneCcbsList @ 728 NONAME ; #<VT>#
	_ZTV20CMobilePhoneSmspList @ 729 NONAME ; #<VT>#
	_ZTV21CMobilePhoneNamListV4 @ 730 NONAME ; #<VT>#
	_ZTV21CMobilePhonePtrHolder @ 731 NONAME ; #<VT>#
	_ZTV22CCbsMessagingPtrHolder @ 732 NONAME ; #<VT>#
	_ZTV22CMobilePhoneGsmSmsList @ 733 NONAME ; #<VT>#
	_ZTV22CSmsMessagingPtrHolder @ 734 NONAME ; #<VT>#
	_ZTV23CAsyncRetrieveStoreList @ 735 NONAME ; #<VT>#
	_ZTV23CMobilePhoneCdmaSmsList @ 736 NONAME ; #<VT>#
	_ZTV23CMobilePhoneNetworkList @ 737 NONAME ; #<VT>#
	_ZTV25CMobilePhoneNetworkListV2 @ 738 NONAME ; #<VT>#
	_ZTV26CRetrieveMobilePhoneCBList @ 739 NONAME ; #<VT>#
	_ZTV26CRetrieveMobilePhoneCFList @ 740 NONAME ; #<VT>#
	_ZTV26CRetrieveMobilePhoneCWList @ 741 NONAME ; #<VT>#
	_ZTV26CRetrieveMobilePhoneENList @ 742 NONAME ; #<VT>#
	_ZTV26CRetrieveMobilePhoneONList @ 743 NONAME ; #<VT>#
	_ZTV27CMobilePhoneBroadcastIdList @ 744 NONAME ; #<VT>#
	_ZTV27CRetrieveMobilePhoneNamList @ 745 NONAME ; #<VT>#
	_ZTV27CRetrieveMobilePhoneSmsList @ 746 NONAME ; #<VT>#
	_ZTV28CRetrieveMobilePhoneCcbsList @ 747 NONAME ; #<VT>#
	_ZTV28CRetrieveMobilePhoneSmspList @ 748 NONAME ; #<VT>#
	_ZTV29CMobilePhoneStoredNetworkList @ 749 NONAME ; #<VT>#
	_ZTV35CRetrieveMobilePhoneBroadcastIdList @ 750 NONAME ; #<VT>#
	_ZTV36CRetrieveMobilePhoneDetectedNetworks @ 751 NONAME ; #<VT>#
	_ZN11RMobileCall21AnswerIncomingCallISVER14TRequestStatusRK6TDesC8 @ 752 NONAME
	_ZN11RMobileCall7DialISVER14TRequestStatusRK6TDesC8RK7TDesC16 @ 753 NONAME
	_ZNK12RMobilePhone17GetCurrentNetworkER14TRequestStatusR5TDes8 @ 754 NONAME
	_ZNK12RMobilePhone26NotifyCurrentNetworkChangeER14TRequestStatusR5TDes8 @ 755 NONAME
	_ZN12RMobilePhone22TImsAuthenticateDataV5C1Ev @ 756 NONAME
	_ZN12RMobilePhone22TImsAuthenticateDataV5C2Ev @ 757 NONAME
	_ZN12RMobilePhone23CImsAuthorizationInfoV512ExternalizeLERP6HBufC8 @ 758 NONAME
	_ZN12RMobilePhone23CImsAuthorizationInfoV512InternalizeLERK6TDesC8 @ 759 NONAME
	_ZN12RMobilePhone23CImsAuthorizationInfoV54NewLEv @ 760 NONAME
	_ZN12RMobilePhone23CImsAuthorizationInfoV5D0Ev @ 761 NONAME
	_ZN12RMobilePhone23CImsAuthorizationInfoV5D1Ev @ 762 NONAME
	_ZN12RMobilePhone23CImsAuthorizationInfoV5D2Ev @ 763 NONAME
	_ZN31CAsyncRetrieveAuthorizationInfo4NewLER12RMobilePhoneRNS0_23CImsAuthorizationInfoV5E @ 764 NONAME
	_ZN31CAsyncRetrieveAuthorizationInfo5StartER14TRequestStatus @ 765 NONAME
	_ZNK12RMobilePhone15ImsAuthenticateER14TRequestStatusR5TDes8 @ 766 NONAME
	_ZNK12RMobilePhone23CImsAuthorizationInfoV511ExtensionIdEv @ 767 NONAME
	_ZNK12RMobilePhone32NotifyImsAuthorizationInfoChangeER14TRequestStatus @ 768 NONAME
	_ZNK31CAsyncRetrieveAuthorizationInfo13AuthInfoValidEv @ 769 NONAME
	_ZTIN12RMobilePhone23CImsAuthorizationInfoV5E @ 770 NONAME ; #<TI>#
	_ZTVN12RMobilePhone23CImsAuthorizationInfoV5E @ 771 NONAME ; #<VT>#
	_ZN12RMobilePhone11TScFilePathC1Ev @ 772 NONAME
	_ZN12RMobilePhone11TScFilePathC2Ev @ 773 NONAME
	_ZN12RMobilePhone13TScFileInfoV5C1Ev @ 774 NONAME
	_ZN12RMobilePhone13TScFileInfoV5C2Ev @ 775 NONAME
	_ZN12RMobilePhone27TSmartCardApplicationInfoV5C1Ev @ 776 NONAME
	_ZN12RMobilePhone27TSmartCardApplicationInfoV5C2Ev @ 777 NONAME
	_ZN12RMobilePhone28TScFilePathWithAccessOffsetsC1Ev @ 778 NONAME
	_ZN12RMobilePhone28TScFilePathWithAccessOffsetsC2Ev @ 779 NONAME
	_ZNK12RMobilePhone10ReadScFileER14TRequestStatusRKNS_28TScFilePathWithAccessOffsetsER5TDes8 @ 780 NONAME
	_ZNK12RMobilePhone12UpdateScFileER14TRequestStatusRKNS_28TScFilePathWithAccessOffsetsER5TDes8 @ 781 NONAME
	_ZNK12RMobilePhone13GetScFileInfoER14TRequestStatusRKNS_11TScFilePathER5TDes8 @ 782 NONAME
	_ZNK12RMobilePhone27GetSmartCardApplicationInfoER14TRequestStatusjR5TDes8 @ 783 NONAME
	_ZNK12RMobilePhone29SetSmartCardApplicationStatusER14TRequestStatusRK5TBuf8ILi16EENS_27TSmartCardApplicationActionE @ 784 NONAME
	_ZNK12RMobilePhone30EnumerateSmartCardApplicationsER14TRequestStatusRj @ 785 NONAME
	_ZNK12RMobilePhone31GetCurrentActiveUSimApplicationER14TRequestStatusR5TBuf8ILi16EE @ 786 NONAME
	_ZNK12RMobilePhone36NotifySmartCardApplicationInfoChangeER14TRequestStatusR5TBuf8ILi16EERNS_26TSmartCardApplicationEventE @ 787 NONAME
	_ZNK12RMobilePhone14GetIccIdentityER14TRequestStatusR5TBuf8ILi20EE @ 788 NONAME
	_ZN21RMobilePhoneBookStore22TMobilePhoneBookInfoV5C1Ev @ 789 NONAME
	_ZN21RMobilePhoneBookStore22TMobilePhoneBookInfoV5C2Ev @ 790 NONAME
	_ZN12RMobilePhone30TMobilePhoneSecurityCodeInfoV5C1Ev @ 791 NONAME
	_ZN12RMobilePhone30TMobilePhoneSecurityCodeInfoV5C2Ev @ 792 NONAME
	_ZNK12RMobilePhone19GetSecurityCodeInfoER14TRequestStatusNS_24TMobilePhoneSecurityCodeER5TDes8 @ 793 NONAME
	_ZNK12RMobilePhone28NotifySecurityCodeInfoChangeER14TRequestStatusRNS_24TMobilePhoneSecurityCodeER5TDes8 @ 794 NONAME
	_ZN12RMobilePhone28TSmartCardAuthenticateDataV6C1Ev @ 795 NONAME
	_ZN12RMobilePhone28TSmartCardAuthenticateDataV6C2Ev @ 796 NONAME
	_ZNK12RMobilePhone21SmartCardAuthenticateER14TRequestStatusR5TDes8 @ 797 NONAME
	_ZNK12RMobilePhone21SmartCardAuthenticateER14TRequestStatusRK5TBuf8ILi16EER5TDes8 @ 798 NONAME
	_ZN19RMobileSmartCardEap10ConstructLEv @ 799 NONAME
	_ZN19RMobileSmartCardEap15GetUserIdentityER14TRequestStatusNS_14TEapUserIdTypeER5TDes8 @ 800 NONAME
	_ZN19RMobileSmartCardEap16ReleaseEapMethodEv @ 801 NONAME
	_ZN19RMobileSmartCardEap18TEapUserIdentityV6C1Ev @ 802 NONAME
	_ZN19RMobileSmartCardEap18TEapUserIdentityV6C2Ev @ 803 NONAME
	_ZN19RMobileSmartCardEap19InitialiseEapMethodER14TRequestStatus @ 804 NONAME
	_ZN19RMobileSmartCardEap23GetAuthenticationStatusER14TRequestStatusRNS_14TEapAuthStatusE @ 805 NONAME
	_ZN19RMobileSmartCardEap24GetEapMethodAccessStatusERNS_22TEapMethodAccessStatusE @ 806 NONAME
	_ZN19RMobileSmartCardEap29CEapAuthenticateRequestDataV612ExternalizeLER5TPtr8 @ 807 NONAME
	_ZN19RMobileSmartCardEap29CEapAuthenticateRequestDataV612InternalizeLERK6TDesC8 @ 808 NONAME
	_ZN19RMobileSmartCardEap29CEapAuthenticateRequestDataV616SetEapReqPacketLERK6TDesC8 @ 809 NONAME
	_ZN19RMobileSmartCardEap29CEapAuthenticateRequestDataV64NewLEv @ 810 NONAME
	_ZN19RMobileSmartCardEap29CEapAuthenticateRequestDataV6D0Ev @ 811 NONAME
	_ZN19RMobileSmartCardEap29CEapAuthenticateRequestDataV6D1Ev @ 812 NONAME
	_ZN19RMobileSmartCardEap29CEapAuthenticateRequestDataV6D2Ev @ 813 NONAME
	_ZN19RMobileSmartCardEap33NotifyEapMethodAccessStatusChangeER14TRequestStatusRNS_22TEapMethodAccessStatusE @ 814 NONAME
	_ZN19RMobileSmartCardEap4OpenER12RMobilePhoneRK5TBuf8ILi16EES5_ @ 815 NONAME
	_ZN19RMobileSmartCardEap5CloseEv @ 816 NONAME
	_ZN19RMobileSmartCardEap8DestructEv @ 817 NONAME
	_ZN19RMobileSmartCardEap9GetEapKeyER14TRequestStatusNS_10TEapKeyTagER5TDes8 @ 818 NONAME
	_ZN19RMobileSmartCardEap9TEapKeyV6C1Ev @ 819 NONAME
	_ZN19RMobileSmartCardEap9TEapKeyV6C2Ev @ 820 NONAME
	_ZN19RMobileSmartCardEapC1Ev @ 821 NONAME
	_ZN19RMobileSmartCardEapC2Ev @ 822 NONAME
	_ZN32CAsyncSmartCardEapAuthentication19RetrieveEapResponseEv @ 823 NONAME
	_ZN32CAsyncSmartCardEapAuthentication4NewLER19RMobileSmartCardEapRK6TDesC8 @ 824 NONAME
	_ZN32CAsyncSmartCardEapAuthentication5StartER14TRequestStatus @ 825 NONAME
	_ZN32CAsyncSmartCardEapAuthenticationD0Ev @ 826 NONAME
	_ZN32CAsyncSmartCardEapAuthenticationD1Ev @ 827 NONAME
	_ZN32CAsyncSmartCardEapAuthenticationD2Ev @ 828 NONAME
	_ZNK19RMobileSmartCardEap16IsEapMethodOwnerEv @ 829 NONAME
	_ZNK19RMobileSmartCardEap29CEapAuthenticateRequestDataV615GetEapReqPacketEv @ 830 NONAME
	_ZNK19RMobileSmartCardEap29CEapAuthenticateRequestDataV69VersionIdEv @ 831 NONAME
	_ZTI28CMobileSmartCardEapPtrHolder @ 832 NONAME ; #<TI>#
	_ZTI32CAsyncSmartCardEapAuthentication @ 833 NONAME ; #<TI>#
	_ZTIN19RMobileSmartCardEap29CEapAuthenticateRequestDataV6E @ 834 NONAME ; #<TI>#
	_ZTV28CMobileSmartCardEapPtrHolder @ 835 NONAME ; #<VT>#
	_ZTV32CAsyncSmartCardEapAuthentication @ 836 NONAME ; #<VT>#
	_ZTVN19RMobileSmartCardEap29CEapAuthenticateRequestDataV6E @ 837 NONAME ; #<VT>#
	_ZN12RMobilePhone25TUiccApplicationEapInfoV6C1Ev @ 838 NONAME
	_ZN12RMobilePhone25TUiccApplicationEapInfoV6C2Ev @ 839 NONAME
	_ZN12RMobilePhone25TMobilePhoneNetworkInfoV5C1Ev @ 840 NONAME
	_ZN12RMobilePhone25TMobilePhoneNetworkInfoV5C2Ev @ 841 NONAME
	_ZN25CMobilePhoneNetworkListV54NewLEv @ 842 NONAME
	_ZN25CMobilePhoneNetworkListV5D0Ev @ 843 NONAME
	_ZN25CMobilePhoneNetworkListV5D1Ev @ 844 NONAME
	_ZN25CMobilePhoneNetworkListV5D2Ev @ 845 NONAME
	_ZN36CRetrieveMobilePhoneDetectedNetworks15RetrieveListV5LEv @ 846 NONAME
	_ZN36CRetrieveMobilePhoneDetectedNetworks7StartV5ER14TRequestStatus @ 847 NONAME
	_ZTI25CMobilePhoneNetworkListV5 @ 848 NONAME ; #<TI>#
	_ZTV25CMobilePhoneNetworkListV5 @ 849 NONAME ; #<VT>#
	_ZNK12RMobilePhone13AppendAPNNameER14TRequestStatusRK5TDes8 @ 850 NONAME
	_ZNK12RMobilePhone13DeleteAPNNameER14TRequestStatusm @ 851 NONAME
	_ZNK12RMobilePhone20NotifyAPNListChangedER14TRequestStatus @ 852 NONAME
	_ZNK12RMobilePhone30GetAPNControlListServiceStatusER14TRequestStatusRNS_28TAPNControlListServiceStatusE @ 853 NONAME
	_ZNK12RMobilePhone30SetAPNControlListServiceStatusER14TRequestStatusNS_28TAPNControlListServiceStatusE @ 854 NONAME
	_ZNK12RMobilePhone39NotifyAPNControlListServiceStatusChangeER14TRequestStatusRNS_28TAPNControlListServiceStatusE @ 855 NONAME
	_ZNK20RMobileUssdMessaging20NotifyNetworkReleaseER14TRequestStatusR5TDes8S3_ @ 856 NONAME
	_ZN23RMobileLocationServices10NotifyMtlrER14TRequestStatusR5TDes8 @ 857 NONAME
	_ZN23RMobileLocationServices12SetLcsDomainENS_7TDomainE @ 858 NONAME
	_ZN23RMobileLocationServices12TStartMolrV7C1Ev @ 859 NONAME
	_ZN23RMobileLocationServices12TStartMolrV7C2Ev @ 860 NONAME
	_ZN23RMobileLocationServices13TNotifyMtlrV7C1Ev @ 861 NONAME
	_ZN23RMobileLocationServices13TNotifyMtlrV7C2Ev @ 862 NONAME
	_ZN23RMobileLocationServices16SendMtlrResponseER14TRequestStatusNS_10TMtlrErrorE @ 863 NONAME
	_ZN23RMobileLocationServices16SendMtlrResponseER14TRequestStatusNS_11TMtlrRejectE @ 864 NONAME
	_ZN23RMobileLocationServices16SendMtlrResponseER14TRequestStatusNS_13TMtlrResponseE @ 865 NONAME
	_ZN23RMobileLocationServices19TMolrReturnResultV7C1Ev @ 866 NONAME
	_ZN23RMobileLocationServices19TMolrReturnResultV7C2Ev @ 867 NONAME
	_ZN23RMobileLocationServices20TMeasurementReportV7C1Ev @ 868 NONAME
	_ZN23RMobileLocationServices20TMeasurementReportV7C2Ev @ 869 NONAME
	_ZN23RMobileLocationServices21SendMeasurementReportER14TRequestStatusNS_26TMeasurementControlFailureE @ 870 NONAME
	_ZN23RMobileLocationServices21SendMeasurementReportER14TRequestStatusRK6TDesC8 @ 871 NONAME
	_ZN23RMobileLocationServices21TMeasurementControlV7C1Ev @ 872 NONAME
	_ZN23RMobileLocationServices21TMeasurementControlV7C2Ev @ 873 NONAME
	_ZN23RMobileLocationServices24NotifyMeasurementControlER14TRequestStatusR5TDes8 @ 874 NONAME
	_ZN23RMobileLocationServices4OpenER12RMobilePhone @ 875 NONAME
	_ZN23RMobileLocationServices5CloseEv @ 876 NONAME
	_ZN23RMobileLocationServices8SendMolrER14TRequestStatusRK6TDesC8R5TDes8 @ 877 NONAME
	_ZN23RMobileLocationServicesC1Ev @ 878 NONAME
	_ZN23RMobileLocationServicesC2Ev @ 879 NONAME
	_ZN12RMobilePhone26TMobilePhoneCFUIndicatorV6C1Ev @ 880 NONAME
	_ZN12RMobilePhone26TMobilePhoneCFUIndicatorV6C2Ev @ 881 NONAME
	_ZN11RMobileCall17TMobileCallInfoV7C1Ev @ 882 NONAME
	_ZN11RMobileCall17TMobileCallInfoV7C2Ev @ 883 NONAME
	_ZN11RMobileCall19TMobileCallParamsV7C1Ev @ 884 NONAME
	_ZN11RMobileCall19TMobileCallParamsV7C2Ev @ 885 NONAME
	_ZN11RMobileCall22TMobileCallHscsdInfoV7C1Ev @ 886 NONAME
	_ZN11RMobileCall22TMobileCallHscsdInfoV7C2Ev @ 887 NONAME
	_ZN11RMobileCall24TMobileHscsdCallParamsV7C1Ev @ 888 NONAME
	_ZN11RMobileCall24TMobileHscsdCallParamsV7C2Ev @ 889 NONAME
	_ZNK11RMobileCall15DialCallControlER14TRequestStatusRK6TDesC8RK7TDesC16 @ 890 NONAME
	_ZN12RMobilePhone25TMobilePhoneNetworkInfoV8C1Ev @ 891 NONAME
	_ZN12RMobilePhone25TMobilePhoneNetworkInfoV8C2Ev @ 892 NONAME
	_ZN25CMobilePhoneNetworkListV84NewLEv @ 893 NONAME
	_ZN25CMobilePhoneNetworkListV8D0Ev @ 894 NONAME
	_ZN25CMobilePhoneNetworkListV8D1Ev @ 895 NONAME
	_ZN25CMobilePhoneNetworkListV8D2Ev @ 896 NONAME
	_ZN36CRetrieveMobilePhoneDetectedNetworks15RetrieveListV8LEv @ 897 NONAME
	_ZN36CRetrieveMobilePhoneDetectedNetworks7StartV8ER14TRequestStatus @ 898 NONAME
	_ZTI25CMobilePhoneNetworkListV8 @ 899 NONAME
	_ZTV25CMobilePhoneNetworkListV8 @ 900 NONAME
	_ZNK12RMobilePhone34NotifyAllSendNetworkServiceRequestER14TRequestStatusRNS_33TMobilePhoneNotifySendSSOperationER5TDes8 @ 901 NONAME
	_ZN12RMobilePhone10TBsfDataV8C1Ev @ 902 NONAME
	_ZN12RMobilePhone10TBsfDataV8C2Ev @ 903 NONAME
	_ZN12RMobilePhone10TWlanSIDV8C1Ev @ 904 NONAME
	_ZN12RMobilePhone10TWlanSIDV8C2Ev @ 905 NONAME
	_ZN12RMobilePhone11TAuthInfoV8C1Ev @ 906 NONAME
	_ZN12RMobilePhone11TAuthInfoV8C2Ev @ 907 NONAME
	_ZN12RMobilePhone11TMskEntryV8C1Ev @ 908 NONAME
	_ZN12RMobilePhone11TMskEntryV8C2Ev @ 909 NONAME
	_ZN12RMobilePhone14TGbaNafEntryV8C1Ev @ 910 NONAME
	_ZN12RMobilePhone14TGbaNafEntryV8C2Ev @ 911 NONAME
	_ZN12RMobilePhone14TMbmsUserKeyV8C1Ev @ 912 NONAME
	_ZN12RMobilePhone14TMbmsUserKeyV8C2Ev @ 913 NONAME
	_ZN12RMobilePhone15TUsimWlanDataV8C1Ev @ 914 NONAME
	_ZN12RMobilePhone15TUsimWlanDataV8C2Ev @ 915 NONAME
	_ZN12RMobilePhone17TGbaNafAuthDataV8C1Ev @ 916 NONAME
	_ZN12RMobilePhone17TGbaNafAuthDataV8C2Ev @ 917 NONAME
	_ZN12RMobilePhone20TMbmsMskDeleteDataV8C1Ev @ 918 NONAME
	_ZN12RMobilePhone20TMbmsMskDeleteDataV8C2Ev @ 919 NONAME
	_ZN12RMobilePhone20TMbmsMskUpdateDataV8C1Ev @ 920 NONAME
	_ZN12RMobilePhone20TMbmsMskUpdateDataV8C2Ev @ 921 NONAME
	_ZN12RMobilePhone20TMbmsMukDeleteDataV8C1Ev @ 922 NONAME
	_ZN12RMobilePhone20TMbmsMukDeleteDataV8C2Ev @ 923 NONAME
	_ZN12RMobilePhone21TGbaBootstrapParamsV8C1Ev @ 924 NONAME
	_ZN12RMobilePhone21TGbaBootstrapParamsV8C2Ev @ 925 NONAME
	_ZN12RMobilePhone22TMbmsMtkGenerateDataV8C1Ev @ 926 NONAME
	_ZN12RMobilePhone22TMbmsMtkGenerateDataV8C2Ev @ 927 NONAME
	_ZN12RMobilePhone23TGbaBootstrapAuthDataV8C1Ev @ 928 NONAME
	_ZN12RMobilePhone23TGbaBootstrapAuthDataV8C2Ev @ 929 NONAME
	_ZN12RMobilePhone26TMobilePhoneServiceTableV8C1Ev @ 930 NONAME
	_ZN12RMobilePhone26TMobilePhoneServiceTableV8C2Ev @ 931 NONAME
	_ZN12RMobilePhone26TMobilePhoneVoicemailIdsV8C1Ev @ 932 NONAME
	_ZN12RMobilePhone26TMobilePhoneVoicemailIdsV8C2Ev @ 933 NONAME
	_ZN12RMobilePhone28TMobilePhoneMessageWaitingV8C1Ev @ 934 NONAME
	_ZN12RMobilePhone28TMobilePhoneMessageWaitingV8C2Ev @ 935 NONAME
	_ZN24CMobilePhoneGbaNafIdList4NewLEv @ 936 NONAME
	_ZN24CMobilePhoneGbaNafIdListD0Ev @ 937 NONAME
	_ZN24CMobilePhoneGbaNafIdListD1Ev @ 938 NONAME
	_ZN24CMobilePhoneGbaNafIdListD2Ev @ 939 NONAME
	_ZN25CMobilePhoneMbmsMskIdList4NewLEv @ 940 NONAME
	_ZN25CMobilePhoneMbmsMskIdListD0Ev @ 941 NONAME
	_ZN25CMobilePhoneMbmsMskIdListD1Ev @ 942 NONAME
	_ZN25CMobilePhoneMbmsMskIdListD2Ev @ 943 NONAME
	_ZN29CMobilePhoneStoredWlanSIDList12ChangeEntryLEiRKN12RMobilePhone10TWlanSIDV8E @ 944 NONAME
	_ZN29CMobilePhoneStoredWlanSIDList12DeleteEntryLEi @ 945 NONAME
	_ZN29CMobilePhoneStoredWlanSIDList12InsertEntryLEiRKN12RMobilePhone10TWlanSIDV8E @ 946 NONAME
	_ZN29CMobilePhoneStoredWlanSIDList4NewLEv @ 947 NONAME
	_ZN29CMobilePhoneStoredWlanSIDListD0Ev @ 948 NONAME
	_ZN29CMobilePhoneStoredWlanSIDListD1Ev @ 949 NONAME
	_ZN29CMobilePhoneStoredWlanSIDListD2Ev @ 950 NONAME
	_ZN37CRetrieveMobilePhoneAuthenticationIds16RetrieveGbaListLEv @ 951 NONAME
	_ZN37CRetrieveMobilePhoneAuthenticationIds17RetrieveMbmsListLEv @ 952 NONAME
	_ZN37CRetrieveMobilePhoneAuthenticationIds4NewLER12RMobilePhone @ 953 NONAME
	_ZN37CRetrieveMobilePhoneAuthenticationIds5StartER14TRequestStatusRK6TDesC8 @ 954 NONAME
	_ZN37CRetrieveMobilePhoneAuthenticationIdsD0Ev @ 955 NONAME
	_ZN37CRetrieveMobilePhoneAuthenticationIdsD1Ev @ 956 NONAME
	_ZN37CRetrieveMobilePhoneAuthenticationIdsD2Ev @ 957 NONAME
	_ZN37CRetrieveMobilePhonePreferredWlanSIDs13RetrieveListLEv @ 958 NONAME
	_ZN37CRetrieveMobilePhonePreferredWlanSIDs4NewLER12RMobilePhone @ 959 NONAME
	_ZN37CRetrieveMobilePhonePreferredWlanSIDs5StartER14TRequestStatus @ 960 NONAME
	_ZN37CRetrieveMobilePhonePreferredWlanSIDsD0Ev @ 961 NONAME
	_ZN37CRetrieveMobilePhonePreferredWlanSIDsD1Ev @ 962 NONAME
	_ZN37CRetrieveMobilePhonePreferredWlanSIDsD2Ev @ 963 NONAME
	_ZNK12RMobilePhone11GetWlanDataER14TRequestStatusR5TDes8 @ 964 NONAME
	_ZNK12RMobilePhone11SetWlanDataER14TRequestStatusRK6TDesC8 @ 965 NONAME
	_ZNK12RMobilePhone20NotifyWlanDataChangeER14TRequestStatusR5TDes8 @ 966 NONAME
	_ZNK12RMobilePhone21SetGbaBootstrapParamsER14TRequestStatusRK5TBuf8ILi16EERK6TDesC8 @ 967 NONAME
	_ZNK12RMobilePhone23GetAuthenticationParamsER14TRequestStatusRK6TDesC8R5TDes8 @ 968 NONAME
	_ZNK12RMobilePhone26StorePreferredWlanSIDListLER14TRequestStatusP29CMobilePhoneStoredWlanSIDList @ 969 NONAME
	_ZNK12RMobilePhone28NotifyAuthenticateDataChangeER14TRequestStatusR5TDes8 @ 970 NONAME
	_ZNK12RMobilePhone32NotifyPreferredWlanSIDListChangeER14TRequestStatus @ 971 NONAME
	_ZTI24CMobilePhoneGbaNafIdList @ 972 NONAME
	_ZTI25CMobilePhoneMbmsMskIdList @ 973 NONAME
	_ZTI29CMobilePhoneStoredWlanSIDList @ 974 NONAME
	_ZTI37CRetrieveMobilePhoneAuthenticationIds @ 975 NONAME
	_ZTI37CRetrieveMobilePhonePreferredWlanSIDs @ 976 NONAME
	_ZTV24CMobilePhoneGbaNafIdList @ 977 NONAME
	_ZTV25CMobilePhoneMbmsMskIdList @ 978 NONAME
	_ZTV29CMobilePhoneStoredWlanSIDList @ 979 NONAME
	_ZTV37CRetrieveMobilePhoneAuthenticationIds @ 980 NONAME
	_ZTV37CRetrieveMobilePhonePreferredWlanSIDs @ 981 NONAME
	_ZN12RMobilePhone22TMobilePhoneCellInfoV9C1Ev @ 982 NONAME
	_ZN12RMobilePhone22TMobilePhoneCellInfoV9C2Ev @ 983 NONAME
	_ZNK12RMobilePhone11GetCellInfoER14TRequestStatusR5TDes8 @ 984 NONAME
	_ZNK12RMobilePhone20NotifyCellInfoChangeER14TRequestStatusR5TDes8 @ 985 NONAME
	_ZNK23RMobileLocationServices35NotifyResetUePositioningInformationER14TRequestStatusRNS_16TUePosTechnologyE @ 986 NONAME
	_ZN11RMobileCall17TMobileCallInfoV8C1Ev @ 987 NONAME
	_ZN11RMobileCall17TMobileCallInfoV8C2Ev @ 988 NONAME
	_ZN11RMobileCall22TMobileCallHscsdInfoV8C1Ev @ 989 NONAME
	_ZN11RMobileCall22TMobileCallHscsdInfoV8C2Ev @ 990 NONAME
	_ZN11RMobileCall23TMobileDataCallParamsV8C1Ev @ 991 NONAME
	_ZN11RMobileCall23TMobileDataCallParamsV8C2Ev @ 992 NONAME
	_ZN11RMobileCall24TMobileHscsdCallParamsV8C1Ev @ 993 NONAME
	_ZN11RMobileCall24TMobileHscsdCallParamsV8C2Ev @ 994 NONAME
	_ZNK12RMobilePhone20TerminateActiveCallsER14TRequestStatus @ 995 NONAME

