EXPORTS
	_Z13NewTestSuiteLv @ 1 NONAME
	_ZTI11TComparator @ 2 NONAME ; #<TI>#
	_ZTI13TDbComparatorILin300EE @ 3 NONAME ; #<TI>#
	_ZTI15CTestIMaadCodec @ 4 NONAME ; #<TI>#
	_ZTI16CTestStepOomTestI20CMMFAlawToPcm16CodecE @ 5 NONAME ; #<TI>#
	_ZTI16CTestStepOomTestI20CMMFPcm16ToALawCodecE @ 6 NONAME ; #<TI>#
	_ZTI16CTestStepOomTestI20CMMFPcm8ToPcm16CodecE @ 7 NONAME ; #<TI>#
	_ZTI16CTestStepOomTestI21CMMFMulawToPcm16CodecE @ 8 NONAME ; #<TI>#
	_ZTI16CTestStepOomTestI21CMMFPcm16ToMuLawCodecE @ 9 NONAME ; #<TI>#
	_ZTI16CTestStepOomTestI21CMMFPcm16ToPcmU8CodecE @ 10 NONAME ; #<TI>#
	_ZTI16CTestStepOomTestI22CMMFGsm610ToPcm16CodecE @ 11 NONAME ; #<TI>#
	_ZTI16CTestStepOomTestI22CMMFPcmS16ToPcmS8CodecE @ 12 NONAME ; #<TI>#
	_ZTI16CTestStepOomTestI24CMMFImaAdpcmToPcm16CodecE @ 13 NONAME ; #<TI>#
	_ZTI16CTestStepOomTestI24CMMFPcm16SwapEndianCodecE @ 14 NONAME ; #<TI>#
	_ZTI16CTestStepOomTestI24CMMFPcm16ToImaAdpcmCodecE @ 15 NONAME ; #<TI>#
	_ZTI16CTestStepOomTestI24CMMFPcm16ToPcmU16BECodecE @ 16 NONAME ; #<TI>#
	_ZTI16CTestStepOomTestI25CMMFPcmU16BeToPcmS16CodecE @ 17 NONAME ; #<TI>#
	_ZTI16CTestStepOomTestI27CMMFPcm16ToPcmU16CodecCodecE @ 18 NONAME ; #<TI>#
	_ZTI16CTest_MMF_Gsm610 @ 19 NONAME ; #<TI>#
	_ZTI17CMMFDataGenerator @ 20 NONAME ; #<TI>#
	_ZTI17CTestStepLoopTestI20CMMFAlawToPcm16CodecE @ 21 NONAME ; #<TI>#
	_ZTI17CTestStepLoopTestI20CMMFPcm16ToALawCodecE @ 22 NONAME ; #<TI>#
	_ZTI17CTestStepLoopTestI20CMMFPcm8ToPcm16CodecE @ 23 NONAME ; #<TI>#
	_ZTI17CTestStepLoopTestI21CMMFMulawToPcm16CodecE @ 24 NONAME ; #<TI>#
	_ZTI17CTestStepLoopTestI21CMMFPcm16ToMuLawCodecE @ 25 NONAME ; #<TI>#
	_ZTI17CTestStepLoopTestI21CMMFPcm16ToPcmU8CodecE @ 26 NONAME ; #<TI>#
	_ZTI17CTestStepLoopTestI22CMMFGsm610ToPcm16CodecE @ 27 NONAME ; #<TI>#
	_ZTI17CTestStepLoopTestI22CMMFPcm16ToGsm610CodecE @ 28 NONAME ; #<TI>#
	_ZTI17CTestStepLoopTestI22CMMFPcmS16ToPcmS8CodecE @ 29 NONAME ; #<TI>#
	_ZTI17CTestStepLoopTestI24CMMFImaAdpcmToPcm16CodecE @ 30 NONAME ; #<TI>#
	_ZTI17CTestStepLoopTestI24CMMFPcm16SwapEndianCodecE @ 31 NONAME ; #<TI>#
	_ZTI17CTestStepLoopTestI24CMMFPcm16ToImaAdpcmCodecE @ 32 NONAME ; #<TI>#
	_ZTI17CTestStepLoopTestI24CMMFPcm16ToPcmU16BECodecE @ 33 NONAME ; #<TI>#
	_ZTI17CTestStepLoopTestI25CMMFPcmU16BeToPcmS16CodecE @ 34 NONAME ; #<TI>#
	_ZTI17CTestStepLoopTestI27CMMFPcm16ToPcmU16CodecCodecE @ 35 NONAME ; #<TI>#
	_ZTI20CMMFAlawToPcm16Codec @ 36 NONAME ; #<TI>#
	_ZTI20CMMFPcm16ToALawCodec @ 37 NONAME ; #<TI>#
	_ZTI20CMMFPcm8ToPcm16Codec @ 38 NONAME ; #<TI>#
	_ZTI21CMMFMulawToPcm16Codec @ 39 NONAME ; #<TI>#
	_ZTI21CMMFPcm16ToMuLawCodec @ 40 NONAME ; #<TI>#
	_ZTI21CMMFPcm16ToPcm16Codec @ 41 NONAME ; #<TI>#
	_ZTI21CMMFPcm16ToPcmU8Codec @ 42 NONAME ; #<TI>#
	_ZTI21CMMFPcmU8ToPcm16Codec @ 43 NONAME ; #<TI>#
	_ZTI21CTestALawCodec_U_0004 @ 44 NONAME ; #<TI>#
	_ZTI22CMMFGsm610ToPcm16Codec @ 45 NONAME ; #<TI>#
	_ZTI22CMMFPcm16ToGsm610Codec @ 46 NONAME ; #<TI>#
	_ZTI22CMMFPcmS16ToPcmS8Codec @ 47 NONAME ; #<TI>#
	_ZTI22CMMFPcmU16ToPcm16Codec @ 48 NONAME ; #<TI>#
	_ZTI22CTestMuLawCodec_U_0006 @ 49 NONAME ; #<TI>#
	_ZTI22CTestStepCodecUnitTestI21CMMFPcm16ToPcmU8Codec11TComparatorLi0ELi0ELi0EE @ 50 NONAME ; #<TI>#
	_ZTI22CTestStepCodecUnitTestI21CMMFPcmU8ToPcm16Codec13TDbComparatorILin300EELi0ELi0ELi1EE @ 51 NONAME ; #<TI>#
	_ZTI22CTestStepCodecUnitTestI24CMMFImaAdpcmToPcm16Codec13TDbComparatorILin300EELi0ELi0ELi1EE @ 52 NONAME ; #<TI>#
	_ZTI22CTestStepCodecUnitTestI24CMMFPcm16SwapEndianCodec11TComparatorLi0ELi1ELi1EE @ 53 NONAME ; #<TI>#
	_ZTI22CTestStepCodecUnitTestI24CMMFPcm16ToImaAdpcmCodec11TComparatorLi0ELi0ELi0EE @ 54 NONAME ; #<TI>#
	_ZTI23CMMFPcm16ToAlawHwDevice @ 55 NONAME ; #<TI>#
	_ZTI23CMMFPcm8ToPcm16HwDevice @ 56 NONAME ; #<TI>#
	_ZTI24CMMFImaAdpcmToPcm16Codec @ 57 NONAME ; #<TI>#
	_ZTI24CMMFPcm16SwapEndianCodec @ 58 NONAME ; #<TI>#
	_ZTI24CMMFPcm16ToImaAdpcmCodec @ 59 NONAME ; #<TI>#
	_ZTI24CMMFPcm16ToMulawHwDevice @ 60 NONAME ; #<TI>#
	_ZTI24CMMFPcm16ToPcm16HwDevice @ 61 NONAME ; #<TI>#
	_ZTI24CMMFPcm16ToPcmU16BECodec @ 62 NONAME ; #<TI>#
	_ZTI24CMMFPcm16ToPcmU8HwDevice @ 63 NONAME ; #<TI>#
	_ZTI24CMMFPcm8ToPcm16Generator @ 64 NONAME ; #<TI>#
	_ZTI24CMMFPcmU8ToPcm16HwDevice @ 65 NONAME ; #<TI>#
	_ZTI25CMMFPcm16ToPcmU16HwDevice @ 66 NONAME ; #<TI>#
	_ZTI25CMMFPcm16ToPcmU8Generator @ 67 NONAME ; #<TI>#
	_ZTI25CMMFPcmS16ToPcmS8HwDevice @ 68 NONAME ; #<TI>#
	_ZTI25CMMFPcmU16BeToPcmS16Codec @ 69 NONAME ; #<TI>#
	_ZTI25CMMFPcmU16ToPcm16HwDevice @ 70 NONAME ; #<TI>#
	_ZTI25CMMFPcmU8ToPcm16Generator @ 71 NONAME ; #<TI>#
	_ZTI25CMmfGsm610ToPcm16HwDevice @ 72 NONAME ; #<TI>#
	_ZTI25CMmfPcm16ToGsm610HwDevice @ 73 NONAME ; #<TI>#
	_ZTI27CMMFPcm16SwapEndianHwDevice @ 74 NONAME ; #<TI>#
	_ZTI27CMMFPcm16ToImaAdpcmHwDevice @ 75 NONAME ; #<TI>#
	_ZTI27CMMFPcm16ToPcmU16BEHwDevice @ 76 NONAME ; #<TI>#
	_ZTI27CMMFPcm16ToPcmU16CodecCodec @ 77 NONAME ; #<TI>#
	_ZTI27CTestStepSignConversionTestI20CMMFPcm8ToPcm16Codec24CMMFPcm8ToPcm16GeneratorLi1EE @ 78 NONAME ; #<TI>#
	_ZTI27CTestStepSignConversionTestI21CMMFPcm16ToPcmU8Codec25CMMFPcm16ToPcmU8GeneratorLi0EE @ 79 NONAME ; #<TI>#
	_ZTI27CTestStepSignConversionTestI21CMMFPcmU8ToPcm16Codec25CMMFPcmU8ToPcm16GeneratorLi4EE @ 80 NONAME ; #<TI>#
	_ZTI27CTestStepSignConversionTestI24CMMFPcm16SwapEndianCodec28CMMFPcmU16BtoPcmU16GeneratorLi3EE @ 81 NONAME ; #<TI>#
	_ZTI27CTestStepSignConversionTestI24CMMFPcm16SwapEndianCodec28CMMFPcmU16toPcmU16BGeneratorLi2EE @ 82 NONAME ; #<TI>#
	_ZTI28CMMFAlawToPcm16CodecHwDevice @ 83 NONAME ; #<TI>#
	_ZTI28CMMFPcmU16BeToPcmS16HwDevice @ 84 NONAME ; #<TI>#
	_ZTI28CMMFPcmU16BtoPcmU16Generator @ 85 NONAME ; #<TI>#
	_ZTI28CMMFPcmU16toPcmU16BGenerator @ 86 NONAME ; #<TI>#
	_ZTI28CTestStep_MMF_SwCodecDevices @ 87 NONAME ; #<TI>#
	_ZTI29CMMFMulawToPcm16CodecHwDevice @ 88 NONAME ; #<TI>#
	_ZTI29CTestStepGsm610ToPcm16OomTest @ 89 NONAME ; #<TI>#
	_ZTI29CTestStepPcm16ToGsm610OomTest @ 90 NONAME ; #<TI>#
	_ZTI29CTestSuite_MMF_SwCodecDevices @ 91 NONAME ; #<TI>#
	_ZTI31CTest_MMF_SwCodecDevices_U_0001 @ 92 NONAME ; #<TI>#
	_ZTI31CTest_MMF_SwCodecDevices_U_0002 @ 93 NONAME ; #<TI>#
	_ZTI31CTest_MMF_SwCodecDevices_U_0003 @ 94 NONAME ; #<TI>#
	_ZTI32CMMFImaAdpcmToPcm16CodecHwDevice @ 95 NONAME ; #<TI>#
	_ZTV11TComparator @ 96 NONAME ; #<VT>#
	_ZTV13TDbComparatorILin300EE @ 97 NONAME ; #<VT>#
	_ZTV15CTestIMaadCodec @ 98 NONAME ; #<VT>#
	_ZTV16CTestStepOomTestI20CMMFAlawToPcm16CodecE @ 99 NONAME ; #<VT>#
	_ZTV16CTestStepOomTestI20CMMFPcm16ToALawCodecE @ 100 NONAME ; #<VT>#
	_ZTV16CTestStepOomTestI20CMMFPcm8ToPcm16CodecE @ 101 NONAME ; #<VT>#
	_ZTV16CTestStepOomTestI21CMMFMulawToPcm16CodecE @ 102 NONAME ; #<VT>#
	_ZTV16CTestStepOomTestI21CMMFPcm16ToMuLawCodecE @ 103 NONAME ; #<VT>#
	_ZTV16CTestStepOomTestI21CMMFPcm16ToPcmU8CodecE @ 104 NONAME ; #<VT>#
	_ZTV16CTestStepOomTestI22CMMFGsm610ToPcm16CodecE @ 105 NONAME ; #<VT>#
	_ZTV16CTestStepOomTestI22CMMFPcmS16ToPcmS8CodecE @ 106 NONAME ; #<VT>#
	_ZTV16CTestStepOomTestI24CMMFImaAdpcmToPcm16CodecE @ 107 NONAME ; #<VT>#
	_ZTV16CTestStepOomTestI24CMMFPcm16SwapEndianCodecE @ 108 NONAME ; #<VT>#
	_ZTV16CTestStepOomTestI24CMMFPcm16ToImaAdpcmCodecE @ 109 NONAME ; #<VT>#
	_ZTV16CTestStepOomTestI24CMMFPcm16ToPcmU16BECodecE @ 110 NONAME ; #<VT>#
	_ZTV16CTestStepOomTestI25CMMFPcmU16BeToPcmS16CodecE @ 111 NONAME ; #<VT>#
	_ZTV16CTestStepOomTestI27CMMFPcm16ToPcmU16CodecCodecE @ 112 NONAME ; #<VT>#
	_ZTV16CTest_MMF_Gsm610 @ 113 NONAME ; #<VT>#
	_ZTV17CMMFDataGenerator @ 114 NONAME ; #<VT>#
	_ZTV17CTestStepLoopTestI20CMMFAlawToPcm16CodecE @ 115 NONAME ; #<VT>#
	_ZTV17CTestStepLoopTestI20CMMFPcm16ToALawCodecE @ 116 NONAME ; #<VT>#
	_ZTV17CTestStepLoopTestI20CMMFPcm8ToPcm16CodecE @ 117 NONAME ; #<VT>#
	_ZTV17CTestStepLoopTestI21CMMFMulawToPcm16CodecE @ 118 NONAME ; #<VT>#
	_ZTV17CTestStepLoopTestI21CMMFPcm16ToMuLawCodecE @ 119 NONAME ; #<VT>#
	_ZTV17CTestStepLoopTestI21CMMFPcm16ToPcmU8CodecE @ 120 NONAME ; #<VT>#
	_ZTV17CTestStepLoopTestI22CMMFGsm610ToPcm16CodecE @ 121 NONAME ; #<VT>#
	_ZTV17CTestStepLoopTestI22CMMFPcm16ToGsm610CodecE @ 122 NONAME ; #<VT>#
	_ZTV17CTestStepLoopTestI22CMMFPcmS16ToPcmS8CodecE @ 123 NONAME ; #<VT>#
	_ZTV17CTestStepLoopTestI24CMMFImaAdpcmToPcm16CodecE @ 124 NONAME ; #<VT>#
	_ZTV17CTestStepLoopTestI24CMMFPcm16SwapEndianCodecE @ 125 NONAME ; #<VT>#
	_ZTV17CTestStepLoopTestI24CMMFPcm16ToImaAdpcmCodecE @ 126 NONAME ; #<VT>#
	_ZTV17CTestStepLoopTestI24CMMFPcm16ToPcmU16BECodecE @ 127 NONAME ; #<VT>#
	_ZTV17CTestStepLoopTestI25CMMFPcmU16BeToPcmS16CodecE @ 128 NONAME ; #<VT>#
	_ZTV17CTestStepLoopTestI27CMMFPcm16ToPcmU16CodecCodecE @ 129 NONAME ; #<VT>#
	_ZTV20CMMFAlawToPcm16Codec @ 130 NONAME ; #<VT>#
	_ZTV20CMMFPcm16ToALawCodec @ 131 NONAME ; #<VT>#
	_ZTV20CMMFPcm8ToPcm16Codec @ 132 NONAME ; #<VT>#
	_ZTV21CMMFMulawToPcm16Codec @ 133 NONAME ; #<VT>#
	_ZTV21CMMFPcm16ToMuLawCodec @ 134 NONAME ; #<VT>#
	_ZTV21CMMFPcm16ToPcm16Codec @ 135 NONAME ; #<VT>#
	_ZTV21CMMFPcm16ToPcmU8Codec @ 136 NONAME ; #<VT>#
	_ZTV21CMMFPcmU8ToPcm16Codec @ 137 NONAME ; #<VT>#
	_ZTV21CTestALawCodec_U_0004 @ 138 NONAME ; #<VT>#
	_ZTV22CMMFGsm610ToPcm16Codec @ 139 NONAME ; #<VT>#
	_ZTV22CMMFPcm16ToGsm610Codec @ 140 NONAME ; #<VT>#
	_ZTV22CMMFPcmS16ToPcmS8Codec @ 141 NONAME ; #<VT>#
	_ZTV22CMMFPcmU16ToPcm16Codec @ 142 NONAME ; #<VT>#
	_ZTV22CTestMuLawCodec_U_0006 @ 143 NONAME ; #<VT>#
	_ZTV22CTestStepCodecUnitTestI21CMMFPcm16ToPcmU8Codec11TComparatorLi0ELi0ELi0EE @ 144 NONAME ; #<VT>#
	_ZTV22CTestStepCodecUnitTestI21CMMFPcmU8ToPcm16Codec13TDbComparatorILin300EELi0ELi0ELi1EE @ 145 NONAME ; #<VT>#
	_ZTV22CTestStepCodecUnitTestI24CMMFImaAdpcmToPcm16Codec13TDbComparatorILin300EELi0ELi0ELi1EE @ 146 NONAME ; #<VT>#
	_ZTV22CTestStepCodecUnitTestI24CMMFPcm16SwapEndianCodec11TComparatorLi0ELi1ELi1EE @ 147 NONAME ; #<VT>#
	_ZTV22CTestStepCodecUnitTestI24CMMFPcm16ToImaAdpcmCodec11TComparatorLi0ELi0ELi0EE @ 148 NONAME ; #<VT>#
	_ZTV23CMMFPcm16ToAlawHwDevice @ 149 NONAME ; #<VT>#
	_ZTV23CMMFPcm8ToPcm16HwDevice @ 150 NONAME ; #<VT>#
	_ZTV24CMMFImaAdpcmToPcm16Codec @ 151 NONAME ; #<VT>#
	_ZTV24CMMFPcm16SwapEndianCodec @ 152 NONAME ; #<VT>#
	_ZTV24CMMFPcm16ToImaAdpcmCodec @ 153 NONAME ; #<VT>#
	_ZTV24CMMFPcm16ToMulawHwDevice @ 154 NONAME ; #<VT>#
	_ZTV24CMMFPcm16ToPcm16HwDevice @ 155 NONAME ; #<VT>#
	_ZTV24CMMFPcm16ToPcmU16BECodec @ 156 NONAME ; #<VT>#
	_ZTV24CMMFPcm16ToPcmU8HwDevice @ 157 NONAME ; #<VT>#
	_ZTV24CMMFPcm8ToPcm16Generator @ 158 NONAME ; #<VT>#
	_ZTV24CMMFPcmU8ToPcm16HwDevice @ 159 NONAME ; #<VT>#
	_ZTV25CMMFPcm16ToPcmU16HwDevice @ 160 NONAME ; #<VT>#
	_ZTV25CMMFPcm16ToPcmU8Generator @ 161 NONAME ; #<VT>#
	_ZTV25CMMFPcmS16ToPcmS8HwDevice @ 162 NONAME ; #<VT>#
	_ZTV25CMMFPcmU16BeToPcmS16Codec @ 163 NONAME ; #<VT>#
	_ZTV25CMMFPcmU16ToPcm16HwDevice @ 164 NONAME ; #<VT>#
	_ZTV25CMMFPcmU8ToPcm16Generator @ 165 NONAME ; #<VT>#
	_ZTV25CMmfGsm610ToPcm16HwDevice @ 166 NONAME ; #<VT>#
	_ZTV25CMmfPcm16ToGsm610HwDevice @ 167 NONAME ; #<VT>#
	_ZTV27CMMFPcm16SwapEndianHwDevice @ 168 NONAME ; #<VT>#
	_ZTV27CMMFPcm16ToImaAdpcmHwDevice @ 169 NONAME ; #<VT>#
	_ZTV27CMMFPcm16ToPcmU16BEHwDevice @ 170 NONAME ; #<VT>#
	_ZTV27CMMFPcm16ToPcmU16CodecCodec @ 171 NONAME ; #<VT>#
	_ZTV27CTestStepSignConversionTestI20CMMFPcm8ToPcm16Codec24CMMFPcm8ToPcm16GeneratorLi1EE @ 172 NONAME ; #<VT>#
	_ZTV27CTestStepSignConversionTestI21CMMFPcm16ToPcmU8Codec25CMMFPcm16ToPcmU8GeneratorLi0EE @ 173 NONAME ; #<VT>#
	_ZTV27CTestStepSignConversionTestI21CMMFPcmU8ToPcm16Codec25CMMFPcmU8ToPcm16GeneratorLi4EE @ 174 NONAME ; #<VT>#
	_ZTV27CTestStepSignConversionTestI24CMMFPcm16SwapEndianCodec28CMMFPcmU16BtoPcmU16GeneratorLi3EE @ 175 NONAME ; #<VT>#
	_ZTV27CTestStepSignConversionTestI24CMMFPcm16SwapEndianCodec28CMMFPcmU16toPcmU16BGeneratorLi2EE @ 176 NONAME ; #<VT>#
	_ZTV28CMMFAlawToPcm16CodecHwDevice @ 177 NONAME ; #<VT>#
	_ZTV28CMMFPcmU16BeToPcmS16HwDevice @ 178 NONAME ; #<VT>#
	_ZTV28CMMFPcmU16BtoPcmU16Generator @ 179 NONAME ; #<VT>#
	_ZTV28CMMFPcmU16toPcmU16BGenerator @ 180 NONAME ; #<VT>#
	_ZTV28CTestStep_MMF_SwCodecDevices @ 181 NONAME ; #<VT>#
	_ZTV29CMMFMulawToPcm16CodecHwDevice @ 182 NONAME ; #<VT>#
	_ZTV29CTestStepGsm610ToPcm16OomTest @ 183 NONAME ; #<VT>#
	_ZTV29CTestStepPcm16ToGsm610OomTest @ 184 NONAME ; #<VT>#
	_ZTV29CTestSuite_MMF_SwCodecDevices @ 185 NONAME ; #<VT>#
	_ZTV31CTest_MMF_SwCodecDevices_U_0001 @ 186 NONAME ; #<VT>#
	_ZTV31CTest_MMF_SwCodecDevices_U_0002 @ 187 NONAME ; #<VT>#
	_ZTV31CTest_MMF_SwCodecDevices_U_0003 @ 188 NONAME ; #<VT>#
	_ZTV32CMMFImaAdpcmToPcm16CodecHwDevice @ 189 NONAME ; #<VT>#

