EXPORTS
	_ZN16RSsmStateManager16RequestSwpChangeE7TSsmSwp @ 1 NONAME
	_ZN16RSsmStateManager16RequestSwpChangeE7TSsmSwpR14TRequestStatus @ 2 NONAME
	_ZN16RSsmStateManager18RegisterSwpMappingEjRK7TDesC16 @ 3 NONAME
	_ZN16RSsmStateManager22RequestStateTransitionE19TSsmStateTransition @ 4 NONAME
	_ZN16RSsmStateManager22RequestStateTransitionE19TSsmStateTransitionR14TRequestStatus @ 5 NONAME
	_ZN16RSsmStateManager22RequestSwpChangeCancelEv @ 6 NONAME
	_ZN16RSsmStateManager28RequestStateTransitionCancelEv @ 7 NONAME
	_ZN16RSsmStateManager5CloseEv @ 8 NONAME
	_ZN16RSsmStateManager7ConnectEi @ 9 NONAME
	_ZN16RSsmStateManager7ConnectEv @ 10 NONAME
	_ZN19TSsmStateTransitionC1E9TSsmStatei @ 11 NONAME
	_ZN19TSsmStateTransitionC1ERKS_ @ 12 NONAME
	_ZN19TSsmStateTransitionC1Etti @ 13 NONAME
	_ZN19TSsmStateTransitionC1Ev @ 14 NONAME
	_ZN19TSsmStateTransitionC2E9TSsmStatei @ 15 NONAME
	_ZN19TSsmStateTransitionC2ERKS_ @ 16 NONAME
	_ZN19TSsmStateTransitionC2Etti @ 17 NONAME
	_ZN19TSsmStateTransitionC2Ev @ 18 NONAME
	_ZN19TSsmStateTransitionaSERKS_ @ 19 NONAME
	_ZN21CSsmStartupProperties10SetRetriesEi @ 20 NONAME
	_ZN21CSsmStartupProperties10SetTimeoutEl @ 21 NONAME
	_ZN21CSsmStartupProperties11SetViewlessEi @ 22 NONAME
	_ZN21CSsmStartupProperties12InternalizeLER11RReadStream @ 23 NONAME
	_ZN21CSsmStartupProperties14SetFileParamsLERK7TDesC16S2_ @ 24 NONAME
	_ZN21CSsmStartupProperties15SetCommandTypeLE15TSsmCommandType @ 25 NONAME
	_ZN21CSsmStartupProperties15SetMonitorInfoLE15TSsmMonitorInfo @ 26 NONAME
	_ZN21CSsmStartupProperties20SetStartInBackgroundEi @ 27 NONAME
	_ZN21CSsmStartupProperties21SetExecutionBehaviourE22TSsmExecutionBehaviour @ 28 NONAME
	_ZN21CSsmStartupProperties4NewLER15RResourceReaderP13CResourceFile15TSsmCommandType @ 29 NONAME
	_ZN21CSsmStartupProperties4NewLERK7TDesC16S2_ @ 30 NONAME
	_ZN21CSsmStartupProperties4NewLERKS_ @ 31 NONAME
	_ZN21CSsmStartupProperties4NewLEv @ 32 NONAME
	_ZN21CSsmStartupProperties5NewLCER15RResourceReaderP13CResourceFile15TSsmCommandType @ 33 NONAME
	_ZN21CSsmStartupProperties5NewLCERK7TDesC16S2_ @ 34 NONAME
	_ZN21CSsmStartupProperties5NewLCEv @ 35 NONAME
	_ZN21CSsmStartupProperties5ResetEv @ 36 NONAME
	_ZN21CSsmStartupPropertiesD0Ev @ 37 NONAME
	_ZN21CSsmStartupPropertiesD1Ev @ 38 NONAME
	_ZN21CSsmStartupPropertiesD2Ev @ 39 NONAME
	_ZN21CSsmStateAwareSession14AddSubscriberLER34MStateChangeNotificationSubscriber @ 40 NONAME
	_ZN21CSsmStateAwareSession16RemoveSubscriberERK34MStateChangeNotificationSubscriber @ 41 NONAME
	_ZN21CSsmStateAwareSession4NewLEt @ 42 NONAME
	_ZN21CSsmStateAwareSession5NewLCEt @ 43 NONAME
	_ZN21CSsmStateAwareSessionD0Ev @ 44 NONAME
	_ZN21CSsmStateAwareSessionD1Ev @ 45 NONAME
	_ZN21CSsmStateAwareSessionD2Ev @ 46 NONAME
	_ZN21RSsmStateAwareSession24RequestStateNotificationER14TRequestStatus @ 47 NONAME
	_ZN21RSsmStateAwareSession28AcknowledgeStateNotificationEi @ 48 NONAME
	_ZN21RSsmStateAwareSession30RequestStateNotificationCancelEv @ 49 NONAME
	_ZN21RSsmStateAwareSession38AcknowledgeAndRequestStateNotificationEiR14TRequestStatus @ 50 NONAME
	_ZN21RSsmStateAwareSession5CloseEv @ 51 NONAME
	_ZN21RSsmStateAwareSession7ConnectEt @ 52 NONAME
	_ZN21RSsmStateAwareSessionC1Ev @ 53 NONAME
	_ZN21RSsmStateAwareSessionC2Ev @ 54 NONAME
	_ZN21RSsmStateAwareSessionD1Ev @ 55 NONAME ABSENT
	_ZN21RSsmStateAwareSessionD2Ev @ 56 NONAME ABSENT
	_ZN22CSsmSystemWideProperty14AddSubscriberLER32MSwpChangeNotificationSubscriber @ 57 NONAME
	_ZN22CSsmSystemWideProperty16RemoveSubscriberERK32MSwpChangeNotificationSubscriber @ 58 NONAME
	_ZN22CSsmSystemWideProperty4NewLEj @ 59 NONAME
	_ZN22CSsmSystemWideProperty5NewLCEj @ 60 NONAME
	_ZN22CSsmSystemWidePropertyD0Ev @ 61 NONAME
	_ZN22CSsmSystemWidePropertyD1Ev @ 62 NONAME
	_ZN22CSsmSystemWidePropertyD2Ev @ 63 NONAME
	_ZN22RSsmSystemWideProperty15SubscribeCancelEv @ 64 NONAME
	_ZN22RSsmSystemWideProperty5CloseEv @ 65 NONAME
	_ZN22RSsmSystemWideProperty7ConnectEj @ 66 NONAME
	_ZN22RSsmSystemWideProperty9SubscribeER14TRequestStatus @ 67 NONAME
	_ZN7TSsmSwp3SetEjl @ 68 NONAME
	_ZN7TSsmSwpC1ERKS_ @ 69 NONAME
	_ZN7TSsmSwpC1Ejl @ 70 NONAME
	_ZN7TSsmSwpC2ERKS_ @ 71 NONAME
	_ZN7TSsmSwpC2Ejl @ 72 NONAME
	_ZN7TSsmSwpaSERKS_ @ 73 NONAME
	_ZN9TSsmState10SetFromIntEm @ 74 NONAME
	_ZN9TSsmState3SetEtt @ 75 NONAME
	_ZN9TSsmStateC1E20TSsmMainSystemStatest @ 76 NONAME
	_ZN9TSsmStateC1ERKS_ @ 77 NONAME
	_ZN9TSsmStateC1Ett @ 78 NONAME
	_ZN9TSsmStateC1Ev @ 79 NONAME
	_ZN9TSsmStateC2E20TSsmMainSystemStatest @ 80 NONAME
	_ZN9TSsmStateC2ERKS_ @ 81 NONAME
	_ZN9TSsmStateC2Ett @ 82 NONAME
	_ZN9TSsmStateC2Ev @ 83 NONAME
	_ZN9TSsmStateaSERKS_ @ 84 NONAME
	_ZNK19TSsmStateTransition5StateEv @ 85 NONAME
	_ZNK19TSsmStateTransition6ReasonEv @ 86 NONAME
	_ZNK19TSsmStateTransitioneqERKS_ @ 87 NONAME
	_ZNK19TSsmStateTransitionneERKS_ @ 88 NONAME
	_ZNK21CSsmStartupProperties11CommandTypeEv @ 89 NONAME
	_ZNK21CSsmStartupProperties11MonitorInfoEv @ 90 NONAME
	_ZNK21CSsmStartupProperties12ExternalizeLER12RWriteStream @ 91 NONAME
	_ZNK21CSsmStartupProperties17StartInBackgroundEv @ 92 NONAME
	_ZNK21CSsmStartupProperties18ExecutionBehaviourEv @ 93 NONAME
	_ZNK21CSsmStartupProperties20IsMonitoringRequiredEv @ 94 NONAME
	_ZNK21CSsmStartupProperties4ArgsEv @ 95 NONAME
	_ZNK21CSsmStartupProperties7RetriesEv @ 96 NONAME
	_ZNK21CSsmStartupProperties7TimeoutEv @ 97 NONAME
	_ZNK21CSsmStartupProperties8FileNameEv @ 98 NONAME
	_ZNK21CSsmStartupProperties8ViewlessEv @ 99 NONAME
	_ZNK21CSsmStateAwareSession5StateEv @ 100 NONAME
	_ZNK21RSsmStateAwareSession5StateEv @ 101 NONAME
	_ZNK22CSsmSystemWideProperty8GetValueER7TSsmSwp @ 102 NONAME
	_ZNK22RSsmSystemWideProperty8GetValueERi @ 103 NONAME
	_ZNK7TSsmSwp3KeyEv @ 104 NONAME
	_ZNK7TSsmSwp5ValueEv @ 105 NONAME
	_ZNK7TSsmSwpeqERKS_ @ 106 NONAME
	_ZNK7TSsmSwpneERKS_ @ 107 NONAME
	_ZNK9TSsmState3IntEv @ 108 NONAME
	_ZNK9TSsmState4NameEv @ 109 NONAME
	_ZNK9TSsmState8SubStateEv @ 110 NONAME
	_ZNK9TSsmState9MainStateEv @ 111 NONAME
	_ZNK9TSsmStateeqERKS_ @ 112 NONAME
	_ZNK9TSsmStateneERKS_ @ 113 NONAME
	KSsmGracefulShutdown @ 114 NONAME DATA 4
	_Z21IsSsmGracefulShutdownv @ 115 NONAME
	KSsmGracefulOffline @ 116 NONAME DATA 4
	_Z20IsSsmGracefulOfflinev @ 117 NONAME
	KSsmInvalidSim @ 118 NONAME DATA 4

