EXPORTS
	_ZN12LbsDevLogger21GetMessageProcessNameERK9RMessage2R4TBufILi256EE @ 1 NONAME
	_ZN12LbsDevLogger5WriteE11TLbsLogType15TLbsLogPriority11TRefByValueIK6TDesC8Ez @ 2 NONAME
	_ZN12LbsDevLogger5WriteE11TLbsLogType15TLbsLogPriority11TRefByValueIK7TDesC16Ez @ 3 NONAME
	_ZN12LbsDevLogger7HexDumpE15TLbsLogPriorityPKhi @ 4 NONAME
	_ZN12LbsDevLogger9OverWriteERK6TDesC8 @ 5 NONAME
	_ZN12LbsDevLogger9OverWriteERK7TDesC16 @ 6 NONAME
	_ZN13LbsTimerUtils33AddUpInt64TimersWithOverflowCheckE5TTime25TTimeIntervalMicroSeconds @ 7 NONAME
	_ZN17CLbsCallbackTimer10ConstructLEv @ 8 NONAME
	_ZN17CLbsCallbackTimer10EventAfterERK20TTimeIntervalSecondsi @ 9 NONAME
	_ZN17CLbsCallbackTimer10EventAfterERK25TTimeIntervalMicroSecondsi @ 10 NONAME
	_ZN17CLbsCallbackTimer10EventAfterERK27TTimeIntervalMicroSeconds32i @ 11 NONAME
	_ZN17CLbsCallbackTimer10EventAtUTCERK5TTimei @ 12 NONAME
	_ZN17CLbsCallbackTimer4NewLER25MLbsCallbackTimerObserver @ 13 NONAME
	_ZN17CLbsCallbackTimer6CancelEv @ 14 NONAME
	_ZN17CLbsCallbackTimerC1ER25MLbsCallbackTimerObserver @ 15 NONAME
	_ZN17CLbsCallbackTimerC2ER25MLbsCallbackTimerObserver @ 16 NONAME
	_ZNK17CLbsCallbackTimer8IsActiveEv @ 17 NONAME
	_ZTI17CLbsCallbackTimer @ 18 NONAME ; #<TI>#
	_ZTV17CLbsCallbackTimer @ 19 NONAME ; #<VT>#
	_ZN13LbsTimerUtils37SubtractInt64TimersWithUnderflowCheckE5TTimeS0_ @ 20 NONAME
	_ZN18CMemoryUsageLogger6CancelEv @ 21 NONAME
	_ZN18CMemoryUsageLogger5NewLCEv @ 22 NONAME

