EXPORTS
	??0TAuthenticationCompleteEvent@@QAE@ABVTDesC8@@@Z @ 1 NONAME ; TAuthenticationCompleteEvent::TAuthenticationCompleteEvent(class TDesC8 const &)
	??0TAuthenticationCompleteEvent@@QAE@W4THCIErrorCode@@VTHCIConnectionHandle@@AAVTDes8@@@Z @ 2 NONAME ; TAuthenticationCompleteEvent::TAuthenticationCompleteEvent(enum THCIErrorCode, class THCIConnectionHandle, class TDes8 &)
	??0TChangeLinkKeyEvent@@QAE@ABVTDesC8@@@Z @ 3 NONAME ; TChangeLinkKeyEvent::TChangeLinkKeyEvent(class TDesC8 const &)
	??0TChangeLinkKeyEvent@@QAE@W4THCIErrorCode@@VTHCIConnectionHandle@@AAVTDes8@@@Z @ 4 NONAME ; TChangeLinkKeyEvent::TChangeLinkKeyEvent(enum THCIErrorCode, class THCIConnectionHandle, class TDes8 &)
	??0TCommandStatusEvent@@QAE@ABVTDesC8@@@Z @ 5 NONAME ; TCommandStatusEvent::TCommandStatusEvent(class TDesC8 const &)
	??0TCommandStatusEvent@@QAE@W4THCIErrorCode@@EGAAVTDes8@@@Z @ 6 NONAME ; TCommandStatusEvent::TCommandStatusEvent(enum THCIErrorCode, unsigned char, unsigned short, class TDes8 &)
	??0TConnectionCompleteEvent@@QAE@ABVTDesC8@@@Z @ 7 NONAME ; TConnectionCompleteEvent::TConnectionCompleteEvent(class TDesC8 const &)
	??0TConnectionCompleteEvent@@QAE@W4THCIErrorCode@@VTHCIConnectionHandle@@ABVTBTDevAddr@@EEAAVTDes8@@@Z @ 8 NONAME ; TConnectionCompleteEvent::TConnectionCompleteEvent(enum THCIErrorCode, class THCIConnectionHandle, class TBTDevAddr const &, unsigned char, unsigned char, class TDes8 &)
	??0TConnectionPacketTypeChangedEvent@@QAE@ABVTDesC8@@@Z @ 9 NONAME ; TConnectionPacketTypeChangedEvent::TConnectionPacketTypeChangedEvent(class TDesC8 const &)
	??0TConnectionPacketTypeChangedEvent@@QAE@W4THCIErrorCode@@VTHCIConnectionHandle@@GAAVTDes8@@@Z @ 10 NONAME ; TConnectionPacketTypeChangedEvent::TConnectionPacketTypeChangedEvent(enum THCIErrorCode, class THCIConnectionHandle, unsigned short, class TDes8 &)
	??0TConnectionRequestEvent@@QAE@ABVTBTDevAddr@@KEAAVTDes8@@@Z @ 11 NONAME ; TConnectionRequestEvent::TConnectionRequestEvent(class TBTDevAddr const &, unsigned long, unsigned char, class TDes8 &)
	??0TConnectionRequestEvent@@QAE@ABVTDesC8@@@Z @ 12 NONAME ; TConnectionRequestEvent::TConnectionRequestEvent(class TDesC8 const &)
	??0TCreateConnectionCancelCompleteEvent@@QAE@ABVTDesC8@@@Z @ 13 NONAME ; TCreateConnectionCancelCompleteEvent::TCreateConnectionCancelCompleteEvent(class TDesC8 const &)
	??0TCreateConnectionCancelCompleteEvent@@QAE@W4THCIErrorCode@@EABVTBTDevAddr@@AAVTDes8@@@Z @ 14 NONAME ; TCreateConnectionCancelCompleteEvent::TCreateConnectionCancelCompleteEvent(enum THCIErrorCode, unsigned char, class TBTDevAddr const &, class TDes8 &)
	??0TCreateNewUnitKeyCompleteEvent@@QAE@ABVTDesC8@@@Z @ 15 NONAME ; TCreateNewUnitKeyCompleteEvent::TCreateNewUnitKeyCompleteEvent(class TDesC8 const &)
	??0TCreateNewUnitKeyCompleteEvent@@QAE@W4THCIErrorCode@@EAAVTDes8@@@Z @ 16 NONAME ; TCreateNewUnitKeyCompleteEvent::TCreateNewUnitKeyCompleteEvent(enum THCIErrorCode, unsigned char, class TDes8 &)
	??0TDataBufferOverflowEvent@@QAE@ABVTDesC8@@@Z @ 17 NONAME ; TDataBufferOverflowEvent::TDataBufferOverflowEvent(class TDesC8 const &)
	??0TDataBufferOverflowEvent@@QAE@EAAVTDes8@@@Z @ 18 NONAME ; TDataBufferOverflowEvent::TDataBufferOverflowEvent(unsigned char, class TDes8 &)
	??0TDeleteStoredLinkKeyCompleteEvent@@QAE@ABVTDesC8@@@Z @ 19 NONAME ; TDeleteStoredLinkKeyCompleteEvent::TDeleteStoredLinkKeyCompleteEvent(class TDesC8 const &)
	??0TDeleteStoredLinkKeyCompleteEvent@@QAE@W4THCIErrorCode@@EGAAVTDes8@@@Z @ 20 NONAME ; TDeleteStoredLinkKeyCompleteEvent::TDeleteStoredLinkKeyCompleteEvent(enum THCIErrorCode, unsigned char, unsigned short, class TDes8 &)
	??0TDisconnectionCompleteEvent@@QAE@ABVTDesC8@@@Z @ 21 NONAME ; TDisconnectionCompleteEvent::TDisconnectionCompleteEvent(class TDesC8 const &)
	??0TDisconnectionCompleteEvent@@QAE@W4THCIErrorCode@@VTHCIConnectionHandle@@EAAVTDes8@@@Z @ 22 NONAME ; TDisconnectionCompleteEvent::TDisconnectionCompleteEvent(enum THCIErrorCode, class THCIConnectionHandle, unsigned char, class TDes8 &)
	??0TEnableDeviceUnderTestModeCompleteEvent@@QAE@ABVTDesC8@@@Z @ 23 NONAME ; TEnableDeviceUnderTestModeCompleteEvent::TEnableDeviceUnderTestModeCompleteEvent(class TDesC8 const &)
	??0TEnableDeviceUnderTestModeCompleteEvent@@QAE@W4THCIErrorCode@@EAAVTDes8@@@Z @ 24 NONAME ; TEnableDeviceUnderTestModeCompleteEvent::TEnableDeviceUnderTestModeCompleteEvent(enum THCIErrorCode, unsigned char, class TDes8 &)
	??0TEncryptionChangeEvent@@QAE@ABVTDesC8@@@Z @ 25 NONAME ; TEncryptionChangeEvent::TEncryptionChangeEvent(class TDesC8 const &)
	??0TEncryptionChangeEvent@@QAE@W4THCIErrorCode@@VTHCIConnectionHandle@@EAAVTDes8@@@Z @ 26 NONAME ; TEncryptionChangeEvent::TEncryptionChangeEvent(enum THCIErrorCode, class THCIConnectionHandle, unsigned char, class TDes8 &)
	??0TExitPeriodicInquiryModeCompleteEvent@@QAE@ABVTDesC8@@@Z @ 27 NONAME ; TExitPeriodicInquiryModeCompleteEvent::TExitPeriodicInquiryModeCompleteEvent(class TDesC8 const &)
	??0TExitPeriodicInquiryModeCompleteEvent@@QAE@W4THCIErrorCode@@EAAVTDes8@@@Z @ 28 NONAME ; TExitPeriodicInquiryModeCompleteEvent::TExitPeriodicInquiryModeCompleteEvent(enum THCIErrorCode, unsigned char, class TDes8 &)
	??0TFlowSpecificationCompleteEvent@@QAE@ABVTDesC8@@@Z @ 29 NONAME ; TFlowSpecificationCompleteEvent::TFlowSpecificationCompleteEvent(class TDesC8 const &)
	??0TFlowSpecificationCompleteEvent@@QAE@W4THCIErrorCode@@VTHCIConnectionHandle@@EEEKKKKAAVTDes8@@@Z @ 30 NONAME ; TFlowSpecificationCompleteEvent::TFlowSpecificationCompleteEvent(enum THCIErrorCode, class THCIConnectionHandle, unsigned char, unsigned char, unsigned char, unsigned long, unsigned long, unsigned long, unsigned long, class TDes8 &)
	??0TFlushCompleteEvent@@QAE@ABVTDesC8@@@Z @ 31 NONAME ; TFlushCompleteEvent::TFlushCompleteEvent(class TDesC8 const &)
	??0TFlushCompleteEvent@@QAE@W4THCIErrorCode@@EVTHCIConnectionHandle@@AAVTDes8@@@Z @ 32 NONAME ; TFlushCompleteEvent::TFlushCompleteEvent(enum THCIErrorCode, unsigned char, class THCIConnectionHandle, class TDes8 &)
	??0TFlushOccurredEvent@@QAE@ABVTDesC8@@@Z @ 33 NONAME ; TFlushOccurredEvent::TFlushOccurredEvent(class TDesC8 const &)
	??0TFlushOccurredEvent@@QAE@VTHCIConnectionHandle@@AAVTDes8@@@Z @ 34 NONAME ; TFlushOccurredEvent::TFlushOccurredEvent(class THCIConnectionHandle, class TDes8 &)
	??0THardwareErrorEvent@@QAE@ABVTDesC8@@@Z @ 35 NONAME ; THardwareErrorEvent::THardwareErrorEvent(class TDesC8 const &)
	??0THardwareErrorEvent@@QAE@EAAVTDes8@@@Z @ 36 NONAME ; THardwareErrorEvent::THardwareErrorEvent(unsigned char, class TDes8 &)
	??0THostBufferSizeCompleteEvent@@QAE@ABVTDesC8@@@Z @ 37 NONAME ; THostBufferSizeCompleteEvent::THostBufferSizeCompleteEvent(class TDesC8 const &)
	??0THostBufferSizeCompleteEvent@@QAE@W4THCIErrorCode@@EAAVTDes8@@@Z @ 38 NONAME ; THostBufferSizeCompleteEvent::THostBufferSizeCompleteEvent(enum THCIErrorCode, unsigned char, class TDes8 &)
	??0THostNumberOfCompletedPacketsCompleteEvent@@QAE@ABVTDesC8@@@Z @ 39 NONAME ; THostNumberOfCompletedPacketsCompleteEvent::THostNumberOfCompletedPacketsCompleteEvent(class TDesC8 const &)
	??0THostNumberOfCompletedPacketsCompleteEvent@@QAE@W4THCIErrorCode@@EAAVTDes8@@@Z @ 40 NONAME ; THostNumberOfCompletedPacketsCompleteEvent::THostNumberOfCompletedPacketsCompleteEvent(enum THCIErrorCode, unsigned char, class TDes8 &)
	??0TInquiryCancelCompleteEvent@@QAE@ABVTDesC8@@@Z @ 41 NONAME ; TInquiryCancelCompleteEvent::TInquiryCancelCompleteEvent(class TDesC8 const &)
	??0TInquiryCancelCompleteEvent@@QAE@W4THCIErrorCode@@EAAVTDes8@@@Z @ 42 NONAME ; TInquiryCancelCompleteEvent::TInquiryCancelCompleteEvent(enum THCIErrorCode, unsigned char, class TDes8 &)
	??0TInquiryCompleteEvent@@QAE@ABVTDesC8@@@Z @ 43 NONAME ; TInquiryCompleteEvent::TInquiryCompleteEvent(class TDesC8 const &)
	??0TInquiryCompleteEvent@@QAE@W4THCIErrorCode@@AAVTDes8@@@Z @ 44 NONAME ; TInquiryCompleteEvent::TInquiryCompleteEvent(enum THCIErrorCode, class TDes8 &)
	??0TInquiryResultEvent@@QAE@ABVTDesC8@@@Z @ 45 NONAME ; TInquiryResultEvent::TInquiryResultEvent(class TDesC8 const &)
	??0TInquiryResultEvent@@QAE@EABV?$TArray@VTBTDevAddr@@@@ABV?$TArray@VTHCIPageScanRepetitionMode@@@@ABV?$TArray@VTHCIReservedOctet@@@@2ABV?$TArray@K@@ABV?$TArray@VTHCIClockOffset@@@@AAVTDes8@@@Z @ 46 NONAME ; TInquiryResultEvent::TInquiryResultEvent(unsigned char, class TArray<class TBTDevAddr> const &, class TArray<class THCIPageScanRepetitionMode> const &, class TArray<class THCIReservedOctet> const &, class TArray<class THCIReservedOctet> const &, class TArray<unsigned long> const &, class TArray<class THCIClockOffset> const &, class TDes8 &)
	??0TInquiryResultwithRSSIEvent@@QAE@ABVTDesC8@@@Z @ 47 NONAME ; TInquiryResultwithRSSIEvent::TInquiryResultwithRSSIEvent(class TDesC8 const &)
	??0TInquiryResultwithRSSIEvent@@QAE@EABV?$TArray@VTBTDevAddr@@@@ABV?$TArray@VTHCIPageScanRepetitionMode@@@@ABV?$TArray@VTHCIReservedOctet@@@@ABV?$TArray@K@@ABV?$TArray@VTHCIClockOffset@@@@ABV?$TArray@VTHCIRssi@@@@AAVTDes8@@@Z @ 48 NONAME ; TInquiryResultwithRSSIEvent::TInquiryResultwithRSSIEvent(unsigned char, class TArray<class TBTDevAddr> const &, class TArray<class THCIPageScanRepetitionMode> const &, class TArray<class THCIReservedOctet> const &, class TArray<unsigned long> const &, class TArray<class THCIClockOffset> const &, class TArray<class THCIRssi> const &, class TDes8 &)
	??0TLinkKeyNotificationEvent@@QAE@ABVTBTDevAddr@@ABV?$TPckgBuf@VTLinkKeyV10@@@@EAAVTDes8@@@Z @ 49 NONAME ; TLinkKeyNotificationEvent::TLinkKeyNotificationEvent(class TBTDevAddr const &, class TPckgBuf<class TLinkKeyV10> const &, unsigned char, class TDes8 &)
	??0TLinkKeyNotificationEvent@@QAE@ABVTDesC8@@@Z @ 50 NONAME ; TLinkKeyNotificationEvent::TLinkKeyNotificationEvent(class TDesC8 const &)
	??0TLinkKeyRequestEvent@@QAE@ABVTBTDevAddr@@AAVTDes8@@@Z @ 51 NONAME ; TLinkKeyRequestEvent::TLinkKeyRequestEvent(class TBTDevAddr const &, class TDes8 &)
	??0TLinkKeyRequestEvent@@QAE@ABVTDesC8@@@Z @ 52 NONAME ; TLinkKeyRequestEvent::TLinkKeyRequestEvent(class TDesC8 const &)
	??0TLinkKeyRequestReplyCompleteEvent@@QAE@ABVTDesC8@@@Z @ 53 NONAME ; TLinkKeyRequestReplyCompleteEvent::TLinkKeyRequestReplyCompleteEvent(class TDesC8 const &)
	??0TLinkKeyRequestReplyCompleteEvent@@QAE@W4THCIErrorCode@@EABVTBTDevAddr@@AAVTDes8@@@Z @ 54 NONAME ; TLinkKeyRequestReplyCompleteEvent::TLinkKeyRequestReplyCompleteEvent(enum THCIErrorCode, unsigned char, class TBTDevAddr const &, class TDes8 &)
	??0TLinkKeyRequestReplyNegativeCompleteEvent@@QAE@ABVTDesC8@@@Z @ 55 NONAME ; TLinkKeyRequestReplyNegativeCompleteEvent::TLinkKeyRequestReplyNegativeCompleteEvent(class TDesC8 const &)
	??0TLinkKeyRequestReplyNegativeCompleteEvent@@QAE@W4THCIErrorCode@@EABVTBTDevAddr@@AAVTDes8@@@Z @ 56 NONAME ; TLinkKeyRequestReplyNegativeCompleteEvent::TLinkKeyRequestReplyNegativeCompleteEvent(enum THCIErrorCode, unsigned char, class TBTDevAddr const &, class TDes8 &)
	??0TLoopbackCommandEvent@@QAE@ABVTDesC8@@@Z @ 57 NONAME ; TLoopbackCommandEvent::TLoopbackCommandEvent(class TDesC8 const &)
	??0TLoopbackCommandEvent@@QAE@ABVTDesC8@@AAVTDes8@@@Z @ 58 NONAME ; TLoopbackCommandEvent::TLoopbackCommandEvent(class TDesC8 const &, class TDes8 &)
	??0TMasterLinkKeyEvent@@QAE@ABVTDesC8@@@Z @ 59 NONAME ; TMasterLinkKeyEvent::TMasterLinkKeyEvent(class TDesC8 const &)
	??0TMasterLinkKeyEvent@@QAE@W4THCIErrorCode@@VTHCIConnectionHandle@@EAAVTDes8@@@Z @ 60 NONAME ; TMasterLinkKeyEvent::TMasterLinkKeyEvent(enum THCIErrorCode, class THCIConnectionHandle, unsigned char, class TDes8 &)
	??0TMaxSlotsChangeEvent@@QAE@ABVTDesC8@@@Z @ 61 NONAME ; TMaxSlotsChangeEvent::TMaxSlotsChangeEvent(class TDesC8 const &)
	??0TMaxSlotsChangeEvent@@QAE@VTHCIConnectionHandle@@EAAVTDes8@@@Z @ 62 NONAME ; TMaxSlotsChangeEvent::TMaxSlotsChangeEvent(class THCIConnectionHandle, unsigned char, class TDes8 &)
	??0TModeChangeEvent@@QAE@ABVTDesC8@@@Z @ 63 NONAME ; TModeChangeEvent::TModeChangeEvent(class TDesC8 const &)
	??0TModeChangeEvent@@QAE@W4THCIErrorCode@@VTHCIConnectionHandle@@EGAAVTDes8@@@Z @ 64 NONAME ; TModeChangeEvent::TModeChangeEvent(enum THCIErrorCode, class THCIConnectionHandle, unsigned char, unsigned short, class TDes8 &)
	??0TNumberOfCompletedPacketsEvent@@QAE@ABVTDesC8@@@Z @ 65 NONAME ; TNumberOfCompletedPacketsEvent::TNumberOfCompletedPacketsEvent(class TDesC8 const &)
	??0TNumberOfCompletedPacketsEvent@@QAE@EABV?$TArray@VTHCIConnectionHandle@@@@ABV?$TArray@VTHCINumOfCompletedPackets@@@@AAVTDes8@@@Z @ 66 NONAME ; TNumberOfCompletedPacketsEvent::TNumberOfCompletedPacketsEvent(unsigned char, class TArray<class THCIConnectionHandle> const &, class TArray<class THCINumOfCompletedPackets> const &, class TDes8 &)
	??0TPINCodeRequestEvent@@QAE@ABVTBTDevAddr@@AAVTDes8@@@Z @ 67 NONAME ; TPINCodeRequestEvent::TPINCodeRequestEvent(class TBTDevAddr const &, class TDes8 &)
	??0TPINCodeRequestEvent@@QAE@ABVTDesC8@@@Z @ 68 NONAME ; TPINCodeRequestEvent::TPINCodeRequestEvent(class TDesC8 const &)
	??0TPINCodeRequestReplyCompleteEvent@@QAE@ABVTDesC8@@@Z @ 69 NONAME ; TPINCodeRequestReplyCompleteEvent::TPINCodeRequestReplyCompleteEvent(class TDesC8 const &)
	??0TPINCodeRequestReplyCompleteEvent@@QAE@W4THCIErrorCode@@EABVTBTDevAddr@@AAVTDes8@@@Z @ 70 NONAME ; TPINCodeRequestReplyCompleteEvent::TPINCodeRequestReplyCompleteEvent(enum THCIErrorCode, unsigned char, class TBTDevAddr const &, class TDes8 &)
	??0TPINCodeRequestReplyNegativeCompleteEvent@@QAE@ABVTDesC8@@@Z @ 71 NONAME ; TPINCodeRequestReplyNegativeCompleteEvent::TPINCodeRequestReplyNegativeCompleteEvent(class TDesC8 const &)
	??0TPINCodeRequestReplyNegativeCompleteEvent@@QAE@W4THCIErrorCode@@EABVTBTDevAddr@@AAVTDes8@@@Z @ 72 NONAME ; TPINCodeRequestReplyNegativeCompleteEvent::TPINCodeRequestReplyNegativeCompleteEvent(enum THCIErrorCode, unsigned char, class TBTDevAddr const &, class TDes8 &)
	??0TPageScanModeChangeEvent@@QAE@ABVTBTDevAddr@@EAAVTDes8@@@Z @ 73 NONAME ; TPageScanModeChangeEvent::TPageScanModeChangeEvent(class TBTDevAddr const &, unsigned char, class TDes8 &)
	??0TPageScanModeChangeEvent@@QAE@ABVTDesC8@@@Z @ 74 NONAME ; TPageScanModeChangeEvent::TPageScanModeChangeEvent(class TDesC8 const &)
	??0TPageScanRepetitionModeChangeEvent@@QAE@ABVTBTDevAddr@@VTHCIPageScanRepetitionMode@@AAVTDes8@@@Z @ 75 NONAME ; TPageScanRepetitionModeChangeEvent::TPageScanRepetitionModeChangeEvent(class TBTDevAddr const &, class THCIPageScanRepetitionMode, class TDes8 &)
	??0TPageScanRepetitionModeChangeEvent@@QAE@ABVTDesC8@@@Z @ 76 NONAME ; TPageScanRepetitionModeChangeEvent::TPageScanRepetitionModeChangeEvent(class TDesC8 const &)
	??0TPeriodicInquiryModeCompleteEvent@@QAE@ABVTDesC8@@@Z @ 77 NONAME ; TPeriodicInquiryModeCompleteEvent::TPeriodicInquiryModeCompleteEvent(class TDesC8 const &)
	??0TPeriodicInquiryModeCompleteEvent@@QAE@W4THCIErrorCode@@EAAVTDes8@@@Z @ 78 NONAME ; TPeriodicInquiryModeCompleteEvent::TPeriodicInquiryModeCompleteEvent(enum THCIErrorCode, unsigned char, class TDes8 &)
	??0TQOSSetupCompleteEvent@@QAE@ABVTDesC8@@@Z @ 79 NONAME ; TQOSSetupCompleteEvent::TQOSSetupCompleteEvent(class TDesC8 const &)
	??0TQOSSetupCompleteEvent@@QAE@W4THCIErrorCode@@VTHCIConnectionHandle@@EEKKKKAAVTDes8@@@Z @ 80 NONAME ; TQOSSetupCompleteEvent::TQOSSetupCompleteEvent(enum THCIErrorCode, class THCIConnectionHandle, unsigned char, unsigned char, unsigned long, unsigned long, unsigned long, unsigned long, class TDes8 &)
	??0TQOSViolationEvent@@QAE@ABVTDesC8@@@Z @ 81 NONAME ; TQOSViolationEvent::TQOSViolationEvent(class TDesC8 const &)
	??0TQOSViolationEvent@@QAE@VTHCIConnectionHandle@@AAVTDes8@@@Z @ 82 NONAME ; TQOSViolationEvent::TQOSViolationEvent(class THCIConnectionHandle, class TDes8 &)
	??0TReadAFHChannelAssessmentModeCompleteEvent@@QAE@ABVTDesC8@@@Z @ 83 NONAME ; TReadAFHChannelAssessmentModeCompleteEvent::TReadAFHChannelAssessmentModeCompleteEvent(class TDesC8 const &)
	??0TReadAFHChannelAssessmentModeCompleteEvent@@QAE@W4THCIErrorCode@@EEAAVTDes8@@@Z @ 84 NONAME ; TReadAFHChannelAssessmentModeCompleteEvent::TReadAFHChannelAssessmentModeCompleteEvent(enum THCIErrorCode, unsigned char, unsigned char, class TDes8 &)
	??0TReadAFHChannelMapCompleteEvent@@QAE@ABVTDesC8@@@Z @ 85 NONAME ; TReadAFHChannelMapCompleteEvent::TReadAFHChannelMapCompleteEvent(class TDesC8 const &)
	??0TReadAFHChannelMapCompleteEvent@@QAE@W4THCIErrorCode@@EVTHCIConnectionHandle@@EVTDesC8@@AAVTDes8@@@Z @ 86 NONAME ; TReadAFHChannelMapCompleteEvent::TReadAFHChannelMapCompleteEvent(enum THCIErrorCode, unsigned char, class THCIConnectionHandle, unsigned char, class TDesC8, class TDes8 &)
	??0TReadAuthenticationEnableCompleteEvent@@QAE@ABVTDesC8@@@Z @ 87 NONAME ; TReadAuthenticationEnableCompleteEvent::TReadAuthenticationEnableCompleteEvent(class TDesC8 const &)
	??0TReadAuthenticationEnableCompleteEvent@@QAE@W4THCIErrorCode@@EEAAVTDes8@@@Z @ 88 NONAME ; TReadAuthenticationEnableCompleteEvent::TReadAuthenticationEnableCompleteEvent(enum THCIErrorCode, unsigned char, unsigned char, class TDes8 &)
	??0TReadAutomaticFlushTimeoutCompleteEvent@@QAE@ABVTDesC8@@@Z @ 89 NONAME ; TReadAutomaticFlushTimeoutCompleteEvent::TReadAutomaticFlushTimeoutCompleteEvent(class TDesC8 const &)
	??0TReadAutomaticFlushTimeoutCompleteEvent@@QAE@W4THCIErrorCode@@EVTHCIConnectionHandle@@GAAVTDes8@@@Z @ 90 NONAME ; TReadAutomaticFlushTimeoutCompleteEvent::TReadAutomaticFlushTimeoutCompleteEvent(enum THCIErrorCode, unsigned char, class THCIConnectionHandle, unsigned short, class TDes8 &)
	??0TReadBdaddrCompleteEvent@@QAE@ABVTDesC8@@@Z @ 91 NONAME ; TReadBdaddrCompleteEvent::TReadBdaddrCompleteEvent(class TDesC8 const &)
	??0TReadBdaddrCompleteEvent@@QAE@W4THCIErrorCode@@EABVTBTDevAddr@@AAVTDes8@@@Z @ 92 NONAME ; TReadBdaddrCompleteEvent::TReadBdaddrCompleteEvent(enum THCIErrorCode, unsigned char, class TBTDevAddr const &, class TDes8 &)
	??0TReadBufferSizeCompleteEvent@@QAE@ABVTDesC8@@@Z @ 93 NONAME ; TReadBufferSizeCompleteEvent::TReadBufferSizeCompleteEvent(class TDesC8 const &)
	??0TReadBufferSizeCompleteEvent@@QAE@W4THCIErrorCode@@EGEGGAAVTDes8@@@Z @ 94 NONAME ; TReadBufferSizeCompleteEvent::TReadBufferSizeCompleteEvent(enum THCIErrorCode, unsigned char, unsigned short, unsigned char, unsigned short, unsigned short, class TDes8 &)
	??0TReadClassOfDeviceCompleteEvent@@QAE@ABVTDesC8@@@Z @ 95 NONAME ; TReadClassOfDeviceCompleteEvent::TReadClassOfDeviceCompleteEvent(class TDesC8 const &)
	??0TReadClassOfDeviceCompleteEvent@@QAE@W4THCIErrorCode@@EKAAVTDes8@@@Z @ 96 NONAME ; TReadClassOfDeviceCompleteEvent::TReadClassOfDeviceCompleteEvent(enum THCIErrorCode, unsigned char, unsigned long, class TDes8 &)
	??0TReadClockCompleteEvent@@QAE@ABVTDesC8@@@Z @ 97 NONAME ; TReadClockCompleteEvent::TReadClockCompleteEvent(class TDesC8 const &)
	??0TReadClockCompleteEvent@@QAE@W4THCIErrorCode@@EVTHCIConnectionHandle@@KGAAVTDes8@@@Z @ 98 NONAME ; TReadClockCompleteEvent::TReadClockCompleteEvent(enum THCIErrorCode, unsigned char, class THCIConnectionHandle, unsigned long, unsigned short, class TDes8 &)
	??0TReadClockOffsetEvent@@QAE@ABVTDesC8@@@Z @ 99 NONAME ; TReadClockOffsetEvent::TReadClockOffsetEvent(class TDesC8 const &)
	??0TReadClockOffsetEvent@@QAE@W4THCIErrorCode@@VTHCIConnectionHandle@@VTHCIClockOffset@@AAVTDes8@@@Z @ 100 NONAME ; TReadClockOffsetEvent::TReadClockOffsetEvent(enum THCIErrorCode, class THCIConnectionHandle, class THCIClockOffset, class TDes8 &)
	??0TReadConnectionAcceptTimeoutCompleteEvent@@QAE@ABVTDesC8@@@Z @ 101 NONAME ; TReadConnectionAcceptTimeoutCompleteEvent::TReadConnectionAcceptTimeoutCompleteEvent(class TDesC8 const &)
	??0TReadConnectionAcceptTimeoutCompleteEvent@@QAE@W4THCIErrorCode@@EGAAVTDes8@@@Z @ 102 NONAME ; TReadConnectionAcceptTimeoutCompleteEvent::TReadConnectionAcceptTimeoutCompleteEvent(enum THCIErrorCode, unsigned char, unsigned short, class TDes8 &)
	??0TReadCurrentIACLAPCompleteEvent@@QAE@ABVTDesC8@@@Z @ 103 NONAME ; TReadCurrentIACLAPCompleteEvent::TReadCurrentIACLAPCompleteEvent(class TDesC8 const &)
	??0TReadCurrentIACLAPCompleteEvent@@QAE@W4THCIErrorCode@@EEABV?$TArray@K@@AAVTDes8@@@Z @ 104 NONAME ; TReadCurrentIACLAPCompleteEvent::TReadCurrentIACLAPCompleteEvent(enum THCIErrorCode, unsigned char, unsigned char, class TArray<unsigned long> const &, class TDes8 &)
	??0TReadDefaultLinkPolicySettingsCompleteEvent@@QAE@ABVTDesC8@@@Z @ 105 NONAME ; TReadDefaultLinkPolicySettingsCompleteEvent::TReadDefaultLinkPolicySettingsCompleteEvent(class TDesC8 const &)
	??0TReadDefaultLinkPolicySettingsCompleteEvent@@QAE@W4THCIErrorCode@@EGAAVTDes8@@@Z @ 106 NONAME ; TReadDefaultLinkPolicySettingsCompleteEvent::TReadDefaultLinkPolicySettingsCompleteEvent(enum THCIErrorCode, unsigned char, unsigned short, class TDes8 &)
	??0TReadEncryptionModeCompleteEvent@@QAE@ABVTDesC8@@@Z @ 107 NONAME ; TReadEncryptionModeCompleteEvent::TReadEncryptionModeCompleteEvent(class TDesC8 const &)
	??0TReadEncryptionModeCompleteEvent@@QAE@W4THCIErrorCode@@EEAAVTDes8@@@Z @ 108 NONAME ; TReadEncryptionModeCompleteEvent::TReadEncryptionModeCompleteEvent(enum THCIErrorCode, unsigned char, unsigned char, class TDes8 &)
	??0TReadFailedContactCounterCompleteEvent@@QAE@ABVTDesC8@@@Z @ 109 NONAME ; TReadFailedContactCounterCompleteEvent::TReadFailedContactCounterCompleteEvent(class TDesC8 const &)
	??0TReadFailedContactCounterCompleteEvent@@QAE@W4THCIErrorCode@@EVTHCIConnectionHandle@@GAAVTDes8@@@Z @ 110 NONAME ; TReadFailedContactCounterCompleteEvent::TReadFailedContactCounterCompleteEvent(enum THCIErrorCode, unsigned char, class THCIConnectionHandle, unsigned short, class TDes8 &)
	??0TReadHoldModeActivityCompleteEvent@@QAE@ABVTDesC8@@@Z @ 111 NONAME ; TReadHoldModeActivityCompleteEvent::TReadHoldModeActivityCompleteEvent(class TDesC8 const &)
	??0TReadHoldModeActivityCompleteEvent@@QAE@W4THCIErrorCode@@EEAAVTDes8@@@Z @ 112 NONAME ; TReadHoldModeActivityCompleteEvent::TReadHoldModeActivityCompleteEvent(enum THCIErrorCode, unsigned char, unsigned char, class TDes8 &)
	??0TReadInquiryModeCompleteEvent@@QAE@ABVTDesC8@@@Z @ 113 NONAME ; TReadInquiryModeCompleteEvent::TReadInquiryModeCompleteEvent(class TDesC8 const &)
	??0TReadInquiryModeCompleteEvent@@QAE@W4THCIErrorCode@@EEAAVTDes8@@@Z @ 114 NONAME ; TReadInquiryModeCompleteEvent::TReadInquiryModeCompleteEvent(enum THCIErrorCode, unsigned char, unsigned char, class TDes8 &)
	??0TReadInquiryScanActivityCompleteEvent@@QAE@ABVTDesC8@@@Z @ 115 NONAME ; TReadInquiryScanActivityCompleteEvent::TReadInquiryScanActivityCompleteEvent(class TDesC8 const &)
	??0TReadInquiryScanActivityCompleteEvent@@QAE@W4THCIErrorCode@@EGGAAVTDes8@@@Z @ 116 NONAME ; TReadInquiryScanActivityCompleteEvent::TReadInquiryScanActivityCompleteEvent(enum THCIErrorCode, unsigned char, unsigned short, unsigned short, class TDes8 &)
	??0TReadInquiryScanTypeCompleteEvent@@QAE@ABVTDesC8@@@Z @ 117 NONAME ; TReadInquiryScanTypeCompleteEvent::TReadInquiryScanTypeCompleteEvent(class TDesC8 const &)
	??0TReadInquiryScanTypeCompleteEvent@@QAE@W4THCIErrorCode@@EEAAVTDes8@@@Z @ 118 NONAME ; TReadInquiryScanTypeCompleteEvent::TReadInquiryScanTypeCompleteEvent(enum THCIErrorCode, unsigned char, unsigned char, class TDes8 &)
	??0TReadLMPHandleCompleteEvent@@QAE@ABVTDesC8@@@Z @ 119 NONAME ; TReadLMPHandleCompleteEvent::TReadLMPHandleCompleteEvent(class TDesC8 const &)
	??0TReadLMPHandleCompleteEvent@@QAE@W4THCIErrorCode@@EVTHCIConnectionHandle@@EKAAVTDes8@@@Z @ 120 NONAME ; TReadLMPHandleCompleteEvent::TReadLMPHandleCompleteEvent(enum THCIErrorCode, unsigned char, class THCIConnectionHandle, unsigned char, unsigned long, class TDes8 &)
	??0TReadLinkPolicySettingsCompleteEvent@@QAE@ABVTDesC8@@@Z @ 121 NONAME ; TReadLinkPolicySettingsCompleteEvent::TReadLinkPolicySettingsCompleteEvent(class TDesC8 const &)
	??0TReadLinkPolicySettingsCompleteEvent@@QAE@W4THCIErrorCode@@EVTHCIConnectionHandle@@GAAVTDes8@@@Z @ 122 NONAME ; TReadLinkPolicySettingsCompleteEvent::TReadLinkPolicySettingsCompleteEvent(enum THCIErrorCode, unsigned char, class THCIConnectionHandle, unsigned short, class TDes8 &)
	??0TReadLinkQualityCompleteEvent@@QAE@ABVTDesC8@@@Z @ 123 NONAME ; TReadLinkQualityCompleteEvent::TReadLinkQualityCompleteEvent(class TDesC8 const &)
	??0TReadLinkQualityCompleteEvent@@QAE@W4THCIErrorCode@@EVTHCIConnectionHandle@@EAAVTDes8@@@Z @ 124 NONAME ; TReadLinkQualityCompleteEvent::TReadLinkQualityCompleteEvent(enum THCIErrorCode, unsigned char, class THCIConnectionHandle, unsigned char, class TDes8 &)
	??0TReadLinkSupervisionTimeoutCompleteEvent@@QAE@ABVTDesC8@@@Z @ 125 NONAME ; TReadLinkSupervisionTimeoutCompleteEvent::TReadLinkSupervisionTimeoutCompleteEvent(class TDesC8 const &)
	??0TReadLinkSupervisionTimeoutCompleteEvent@@QAE@W4THCIErrorCode@@EVTHCIConnectionHandle@@GAAVTDes8@@@Z @ 126 NONAME ; TReadLinkSupervisionTimeoutCompleteEvent::TReadLinkSupervisionTimeoutCompleteEvent(enum THCIErrorCode, unsigned char, class THCIConnectionHandle, unsigned short, class TDes8 &)
	??0TReadLocalExtendedFeaturesCompleteEvent@@QAE@ABVTDesC8@@@Z @ 127 NONAME ; TReadLocalExtendedFeaturesCompleteEvent::TReadLocalExtendedFeaturesCompleteEvent(class TDesC8 const &)
	??0TReadLocalExtendedFeaturesCompleteEvent@@QAE@W4THCIErrorCode@@EEE_KAAVTDes8@@@Z @ 128 NONAME ; TReadLocalExtendedFeaturesCompleteEvent::TReadLocalExtendedFeaturesCompleteEvent(enum THCIErrorCode, unsigned char, unsigned char, unsigned char, unsigned long long, class TDes8 &)
	??0TReadLocalNameCompleteEvent@@QAE@ABVTDesC8@@@Z @ 129 NONAME ; TReadLocalNameCompleteEvent::TReadLocalNameCompleteEvent(class TDesC8 const &)
	??0TReadLocalNameCompleteEvent@@QAE@W4THCIErrorCode@@EABVTDesC8@@AAVTDes8@@@Z @ 130 NONAME ; TReadLocalNameCompleteEvent::TReadLocalNameCompleteEvent(enum THCIErrorCode, unsigned char, class TDesC8 const &, class TDes8 &)
	??0TReadLocalSupportedCommandsCompleteEvent@@QAE@ABVTDesC8@@@Z @ 131 NONAME ; TReadLocalSupportedCommandsCompleteEvent::TReadLocalSupportedCommandsCompleteEvent(class TDesC8 const &)
	??0TReadLocalSupportedCommandsCompleteEvent@@QAE@W4THCIErrorCode@@EVTDesC8@@AAVTDes8@@@Z @ 132 NONAME ; TReadLocalSupportedCommandsCompleteEvent::TReadLocalSupportedCommandsCompleteEvent(enum THCIErrorCode, unsigned char, class TDesC8, class TDes8 &)
	??0TReadLocalSupportedFeaturesCompleteEvent@@QAE@ABVTDesC8@@@Z @ 133 NONAME ; TReadLocalSupportedFeaturesCompleteEvent::TReadLocalSupportedFeaturesCompleteEvent(class TDesC8 const &)
	??0TReadLocalSupportedFeaturesCompleteEvent@@QAE@W4THCIErrorCode@@E_KAAVTDes8@@@Z @ 134 NONAME ; TReadLocalSupportedFeaturesCompleteEvent::TReadLocalSupportedFeaturesCompleteEvent(enum THCIErrorCode, unsigned char, unsigned long long, class TDes8 &)
	??0TReadLocalVersionInfoCompleteEvent@@QAE@ABVTDesC8@@@Z @ 135 NONAME ; TReadLocalVersionInfoCompleteEvent::TReadLocalVersionInfoCompleteEvent(class TDesC8 const &)
	??0TReadLocalVersionInfoCompleteEvent@@QAE@W4THCIErrorCode@@EEGEGGAAVTDes8@@@Z @ 136 NONAME ; TReadLocalVersionInfoCompleteEvent::TReadLocalVersionInfoCompleteEvent(enum THCIErrorCode, unsigned char, unsigned char, unsigned short, unsigned char, unsigned short, unsigned short, class TDes8 &)
	??0TReadLoopbackModeCompleteEvent@@QAE@ABVTDesC8@@@Z @ 137 NONAME ; TReadLoopbackModeCompleteEvent::TReadLoopbackModeCompleteEvent(class TDesC8 const &)
	??0TReadLoopbackModeCompleteEvent@@QAE@W4THCIErrorCode@@EEAAVTDes8@@@Z @ 138 NONAME ; TReadLoopbackModeCompleteEvent::TReadLoopbackModeCompleteEvent(enum THCIErrorCode, unsigned char, unsigned char, class TDes8 &)
	??0TReadNumBroadcastRetransmissionsCompleteEvent@@QAE@ABVTDesC8@@@Z @ 139 NONAME ; TReadNumBroadcastRetransmissionsCompleteEvent::TReadNumBroadcastRetransmissionsCompleteEvent(class TDesC8 const &)
	??0TReadNumBroadcastRetransmissionsCompleteEvent@@QAE@W4THCIErrorCode@@EEAAVTDes8@@@Z @ 140 NONAME ; TReadNumBroadcastRetransmissionsCompleteEvent::TReadNumBroadcastRetransmissionsCompleteEvent(enum THCIErrorCode, unsigned char, unsigned char, class TDes8 &)
	??0TReadNumberOfSupportedIACCompleteEvent@@QAE@ABVTDesC8@@@Z @ 141 NONAME ; TReadNumberOfSupportedIACCompleteEvent::TReadNumberOfSupportedIACCompleteEvent(class TDesC8 const &)
	??0TReadNumberOfSupportedIACCompleteEvent@@QAE@W4THCIErrorCode@@EEAAVTDes8@@@Z @ 142 NONAME ; TReadNumberOfSupportedIACCompleteEvent::TReadNumberOfSupportedIACCompleteEvent(enum THCIErrorCode, unsigned char, unsigned char, class TDes8 &)
	??0TReadPINTypeCompleteEvent@@QAE@ABVTDesC8@@@Z @ 143 NONAME ; TReadPINTypeCompleteEvent::TReadPINTypeCompleteEvent(class TDesC8 const &)
	??0TReadPINTypeCompleteEvent@@QAE@W4THCIErrorCode@@EEAAVTDes8@@@Z @ 144 NONAME ; TReadPINTypeCompleteEvent::TReadPINTypeCompleteEvent(enum THCIErrorCode, unsigned char, unsigned char, class TDes8 &)
	??0TReadPageScanActivityCompleteEvent@@QAE@ABVTDesC8@@@Z @ 145 NONAME ; TReadPageScanActivityCompleteEvent::TReadPageScanActivityCompleteEvent(class TDesC8 const &)
	??0TReadPageScanActivityCompleteEvent@@QAE@W4THCIErrorCode@@EGGAAVTDes8@@@Z @ 146 NONAME ; TReadPageScanActivityCompleteEvent::TReadPageScanActivityCompleteEvent(enum THCIErrorCode, unsigned char, unsigned short, unsigned short, class TDes8 &)
	??0TReadPageScanPeriodCompleteEvent@@QAE@ABVTDesC8@@@Z @ 147 NONAME ; TReadPageScanPeriodCompleteEvent::TReadPageScanPeriodCompleteEvent(class TDesC8 const &)
	??0TReadPageScanPeriodCompleteEvent@@QAE@W4THCIErrorCode@@EEAAVTDes8@@@Z @ 148 NONAME ; TReadPageScanPeriodCompleteEvent::TReadPageScanPeriodCompleteEvent(enum THCIErrorCode, unsigned char, unsigned char, class TDes8 &)
	??0TReadPageScanTypeCompleteEvent@@QAE@ABVTDesC8@@@Z @ 149 NONAME ; TReadPageScanTypeCompleteEvent::TReadPageScanTypeCompleteEvent(class TDesC8 const &)
	??0TReadPageScanTypeCompleteEvent@@QAE@W4THCIErrorCode@@EEAAVTDes8@@@Z @ 150 NONAME ; TReadPageScanTypeCompleteEvent::TReadPageScanTypeCompleteEvent(enum THCIErrorCode, unsigned char, unsigned char, class TDes8 &)
	??0TReadPageTimeoutCompleteEvent@@QAE@ABVTDesC8@@@Z @ 151 NONAME ; TReadPageTimeoutCompleteEvent::TReadPageTimeoutCompleteEvent(class TDesC8 const &)
	??0TReadPageTimeoutCompleteEvent@@QAE@W4THCIErrorCode@@EGAAVTDes8@@@Z @ 152 NONAME ; TReadPageTimeoutCompleteEvent::TReadPageTimeoutCompleteEvent(enum THCIErrorCode, unsigned char, unsigned short, class TDes8 &)
	??0TReadRSSICompleteEvent@@QAE@ABVTDesC8@@@Z @ 153 NONAME ; TReadRSSICompleteEvent::TReadRSSICompleteEvent(class TDesC8 const &)
	??0TReadRSSICompleteEvent@@QAE@W4THCIErrorCode@@EVTHCIConnectionHandle@@VTHCIRssi@@AAVTDes8@@@Z @ 154 NONAME ; TReadRSSICompleteEvent::TReadRSSICompleteEvent(enum THCIErrorCode, unsigned char, class THCIConnectionHandle, class THCIRssi, class TDes8 &)
	??0TReadRemSuppFeatCompleteEvent@@QAE@ABVTDesC8@@@Z @ 155 NONAME ; TReadRemSuppFeatCompleteEvent::TReadRemSuppFeatCompleteEvent(class TDesC8 const &)
	??0TReadRemSuppFeatCompleteEvent@@QAE@W4THCIErrorCode@@VTHCIConnectionHandle@@_KAAVTDes8@@@Z @ 156 NONAME ; TReadRemSuppFeatCompleteEvent::TReadRemSuppFeatCompleteEvent(enum THCIErrorCode, class THCIConnectionHandle, unsigned long long, class TDes8 &)
	??0TReadRemVerInfoCompleteEvent@@QAE@ABVTDesC8@@@Z @ 157 NONAME ; TReadRemVerInfoCompleteEvent::TReadRemVerInfoCompleteEvent(class TDesC8 const &)
	??0TReadRemVerInfoCompleteEvent@@QAE@W4THCIErrorCode@@VTHCIConnectionHandle@@EGGAAVTDes8@@@Z @ 158 NONAME ; TReadRemVerInfoCompleteEvent::TReadRemVerInfoCompleteEvent(enum THCIErrorCode, class THCIConnectionHandle, unsigned char, unsigned short, unsigned short, class TDes8 &)
	??0TReadRemoteExtendedFeaturesCompleteEvent@@QAE@ABVTDesC8@@@Z @ 159 NONAME ; TReadRemoteExtendedFeaturesCompleteEvent::TReadRemoteExtendedFeaturesCompleteEvent(class TDesC8 const &)
	??0TReadRemoteExtendedFeaturesCompleteEvent@@QAE@W4THCIErrorCode@@VTHCIConnectionHandle@@EE_KAAVTDes8@@@Z @ 160 NONAME ; TReadRemoteExtendedFeaturesCompleteEvent::TReadRemoteExtendedFeaturesCompleteEvent(enum THCIErrorCode, class THCIConnectionHandle, unsigned char, unsigned char, unsigned long long, class TDes8 &)
	??0TReadScanEnableCompleteEvent@@QAE@ABVTDesC8@@@Z @ 161 NONAME ; TReadScanEnableCompleteEvent::TReadScanEnableCompleteEvent(class TDesC8 const &)
	??0TReadScanEnableCompleteEvent@@QAE@W4THCIErrorCode@@EEAAVTDes8@@@Z @ 162 NONAME ; TReadScanEnableCompleteEvent::TReadScanEnableCompleteEvent(enum THCIErrorCode, unsigned char, unsigned char, class TDes8 &)
	??0TReadStoredLinkKeyCompleteEvent@@QAE@ABVTDesC8@@@Z @ 163 NONAME ; TReadStoredLinkKeyCompleteEvent::TReadStoredLinkKeyCompleteEvent(class TDesC8 const &)
	??0TReadStoredLinkKeyCompleteEvent@@QAE@W4THCIErrorCode@@EGGAAVTDes8@@@Z @ 164 NONAME ; TReadStoredLinkKeyCompleteEvent::TReadStoredLinkKeyCompleteEvent(enum THCIErrorCode, unsigned char, unsigned short, unsigned short, class TDes8 &)
	??0TReadSynchronousFlowControlEnableCompleteEvent@@QAE@ABVTDesC8@@@Z @ 165 NONAME ; TReadSynchronousFlowControlEnableCompleteEvent::TReadSynchronousFlowControlEnableCompleteEvent(class TDesC8 const &)
	??0TReadSynchronousFlowControlEnableCompleteEvent@@QAE@W4THCIErrorCode@@EEAAVTDes8@@@Z @ 166 NONAME ; TReadSynchronousFlowControlEnableCompleteEvent::TReadSynchronousFlowControlEnableCompleteEvent(enum THCIErrorCode, unsigned char, unsigned char, class TDes8 &)
	??0TReadTransmitPowerLevelCompleteEvent@@QAE@ABVTDesC8@@@Z @ 167 NONAME ; TReadTransmitPowerLevelCompleteEvent::TReadTransmitPowerLevelCompleteEvent(class TDesC8 const &)
	??0TReadTransmitPowerLevelCompleteEvent@@QAE@W4THCIErrorCode@@EVTHCIConnectionHandle@@EAAVTDes8@@@Z @ 168 NONAME ; TReadTransmitPowerLevelCompleteEvent::TReadTransmitPowerLevelCompleteEvent(enum THCIErrorCode, unsigned char, class THCIConnectionHandle, unsigned char, class TDes8 &)
	??0TReadVoiceSettingCompleteEvent@@QAE@ABVTDesC8@@@Z @ 169 NONAME ; TReadVoiceSettingCompleteEvent::TReadVoiceSettingCompleteEvent(class TDesC8 const &)
	??0TReadVoiceSettingCompleteEvent@@QAE@W4THCIErrorCode@@EGAAVTDes8@@@Z @ 170 NONAME ; TReadVoiceSettingCompleteEvent::TReadVoiceSettingCompleteEvent(enum THCIErrorCode, unsigned char, unsigned short, class TDes8 &)
	??0TRemoteNameReqCompleteEvent@@QAE@ABVTDesC8@@@Z @ 171 NONAME ; TRemoteNameReqCompleteEvent::TRemoteNameReqCompleteEvent(class TDesC8 const &)
	??0TRemoteNameReqCompleteEvent@@QAE@W4THCIErrorCode@@ABVTBTDevAddr@@VTDesC8@@AAVTDes8@@@Z @ 172 NONAME ; TRemoteNameReqCompleteEvent::TRemoteNameReqCompleteEvent(enum THCIErrorCode, class TBTDevAddr const &, class TDesC8, class TDes8 &)
	??0TRemoteNameRequestCancelCompleteEvent@@QAE@ABVTDesC8@@@Z @ 173 NONAME ; TRemoteNameRequestCancelCompleteEvent::TRemoteNameRequestCancelCompleteEvent(class TDesC8 const &)
	??0TRemoteNameRequestCancelCompleteEvent@@QAE@W4THCIErrorCode@@EABVTBTDevAddr@@AAVTDes8@@@Z @ 174 NONAME ; TRemoteNameRequestCancelCompleteEvent::TRemoteNameRequestCancelCompleteEvent(enum THCIErrorCode, unsigned char, class TBTDevAddr const &, class TDes8 &)
	??0TResetCompleteEvent@@QAE@ABVTDesC8@@@Z @ 175 NONAME ; TResetCompleteEvent::TResetCompleteEvent(class TDesC8 const &)
	??0TResetCompleteEvent@@QAE@W4THCIErrorCode@@EAAVTDes8@@@Z @ 176 NONAME ; TResetCompleteEvent::TResetCompleteEvent(enum THCIErrorCode, unsigned char, class TDes8 &)
	??0TResetFailedContactCounterCompleteEvent@@QAE@ABVTDesC8@@@Z @ 177 NONAME ; TResetFailedContactCounterCompleteEvent::TResetFailedContactCounterCompleteEvent(class TDesC8 const &)
	??0TResetFailedContactCounterCompleteEvent@@QAE@W4THCIErrorCode@@EVTHCIConnectionHandle@@AAVTDes8@@@Z @ 178 NONAME ; TResetFailedContactCounterCompleteEvent::TResetFailedContactCounterCompleteEvent(enum THCIErrorCode, unsigned char, class THCIConnectionHandle, class TDes8 &)
	??0TReturnLinkKeysEvent@@QAE@ABVTDesC8@@@Z @ 179 NONAME ; TReturnLinkKeysEvent::TReturnLinkKeysEvent(class TDesC8 const &)
	??0TReturnLinkKeysEvent@@QAE@EABV?$TArray@VTBTDevAddr@@@@ABV?$TArray@V?$TPckgBuf@VTLinkKeyV10@@@@@@AAVTDes8@@@Z @ 180 NONAME ; TReturnLinkKeysEvent::TReturnLinkKeysEvent(unsigned char, class TArray<class TBTDevAddr> const &, class TArray<class TPckgBuf<class TLinkKeyV10> > const &, class TDes8 &)
	??0TRoleChangeEvent@@QAE@ABVTDesC8@@@Z @ 181 NONAME ; TRoleChangeEvent::TRoleChangeEvent(class TDesC8 const &)
	??0TRoleChangeEvent@@QAE@W4THCIErrorCode@@ABVTBTDevAddr@@EAAVTDes8@@@Z @ 182 NONAME ; TRoleChangeEvent::TRoleChangeEvent(enum THCIErrorCode, class TBTDevAddr const &, unsigned char, class TDes8 &)
	??0TRoleDiscoveryCompleteEvent@@QAE@ABVTDesC8@@@Z @ 183 NONAME ; TRoleDiscoveryCompleteEvent::TRoleDiscoveryCompleteEvent(class TDesC8 const &)
	??0TRoleDiscoveryCompleteEvent@@QAE@W4THCIErrorCode@@EVTHCIConnectionHandle@@EAAVTDes8@@@Z @ 184 NONAME ; TRoleDiscoveryCompleteEvent::TRoleDiscoveryCompleteEvent(enum THCIErrorCode, unsigned char, class THCIConnectionHandle, unsigned char, class TDes8 &)
	??0TSetAFHHostChannelClassificationCompleteEvent@@QAE@ABVTDesC8@@@Z @ 185 NONAME ; TSetAFHHostChannelClassificationCompleteEvent::TSetAFHHostChannelClassificationCompleteEvent(class TDesC8 const &)
	??0TSetAFHHostChannelClassificationCompleteEvent@@QAE@W4THCIErrorCode@@EAAVTDes8@@@Z @ 186 NONAME ; TSetAFHHostChannelClassificationCompleteEvent::TSetAFHHostChannelClassificationCompleteEvent(enum THCIErrorCode, unsigned char, class TDes8 &)
	??0TSetControllerToHostFlowControlCompleteEvent@@QAE@ABVTDesC8@@@Z @ 187 NONAME ; TSetControllerToHostFlowControlCompleteEvent::TSetControllerToHostFlowControlCompleteEvent(class TDesC8 const &)
	??0TSetControllerToHostFlowControlCompleteEvent@@QAE@W4THCIErrorCode@@EAAVTDes8@@@Z @ 188 NONAME ; TSetControllerToHostFlowControlCompleteEvent::TSetControllerToHostFlowControlCompleteEvent(enum THCIErrorCode, unsigned char, class TDes8 &)
	??0TSetEventFilterCompleteEvent@@QAE@ABVTDesC8@@@Z @ 189 NONAME ; TSetEventFilterCompleteEvent::TSetEventFilterCompleteEvent(class TDesC8 const &)
	??0TSetEventFilterCompleteEvent@@QAE@W4THCIErrorCode@@EAAVTDes8@@@Z @ 190 NONAME ; TSetEventFilterCompleteEvent::TSetEventFilterCompleteEvent(enum THCIErrorCode, unsigned char, class TDes8 &)
	??0TSetEventMaskCompleteEvent@@QAE@ABVTDesC8@@@Z @ 191 NONAME ; TSetEventMaskCompleteEvent::TSetEventMaskCompleteEvent(class TDesC8 const &)
	??0TSetEventMaskCompleteEvent@@QAE@W4THCIErrorCode@@EAAVTDes8@@@Z @ 192 NONAME ; TSetEventMaskCompleteEvent::TSetEventMaskCompleteEvent(enum THCIErrorCode, unsigned char, class TDes8 &)
	??0TSynchronousConnectionChangedEvent@@QAE@ABVTDesC8@@@Z @ 193 NONAME ; TSynchronousConnectionChangedEvent::TSynchronousConnectionChangedEvent(class TDesC8 const &)
	??0TSynchronousConnectionChangedEvent@@QAE@W4THCIErrorCode@@VTHCIConnectionHandle@@EEGGAAVTDes8@@@Z @ 194 NONAME ; TSynchronousConnectionChangedEvent::TSynchronousConnectionChangedEvent(enum THCIErrorCode, class THCIConnectionHandle, unsigned char, unsigned char, unsigned short, unsigned short, class TDes8 &)
	??0TSynchronousConnectionCompleteEvent@@QAE@ABVTDesC8@@@Z @ 195 NONAME ; TSynchronousConnectionCompleteEvent::TSynchronousConnectionCompleteEvent(class TDesC8 const &)
	??0TSynchronousConnectionCompleteEvent@@QAE@W4THCIErrorCode@@VTHCIConnectionHandle@@ABVTBTDevAddr@@EEEGGEAAVTDes8@@@Z @ 196 NONAME ; TSynchronousConnectionCompleteEvent::TSynchronousConnectionCompleteEvent(enum THCIErrorCode, class THCIConnectionHandle, class TBTDevAddr const &, unsigned char, unsigned char, unsigned char, unsigned short, unsigned short, unsigned char, class TDes8 &)
	??0TVendorDebugCompleteEvent@@QAE@ABVTDesC8@@@Z @ 197 NONAME ; TVendorDebugCompleteEvent::TVendorDebugCompleteEvent(class TDesC8 const &)
	??0TVendorDebugCompleteEvent@@QAE@EGABVTDesC8@@AAVTDes8@@@Z @ 198 NONAME ; TVendorDebugCompleteEvent::TVendorDebugCompleteEvent(unsigned char, unsigned short, class TDesC8 const &, class TDes8 &)
	??0TVendorDebugEvent@@QAE@ABVTDesC8@@@Z @ 199 NONAME ; TVendorDebugEvent::TVendorDebugEvent(class TDesC8 const &)
	??0TVendorDebugEvent@@QAE@W4THCIEventCode@@ABVTDesC8@@AAVTDes8@@@Z @ 200 NONAME ; TVendorDebugEvent::TVendorDebugEvent(enum THCIEventCode, class TDesC8 const &, class TDes8 &)
	??0TWriteAFHChannelAssessmentModeCompleteEvent@@QAE@ABVTDesC8@@@Z @ 201 NONAME ; TWriteAFHChannelAssessmentModeCompleteEvent::TWriteAFHChannelAssessmentModeCompleteEvent(class TDesC8 const &)
	??0TWriteAFHChannelAssessmentModeCompleteEvent@@QAE@W4THCIErrorCode@@EAAVTDes8@@@Z @ 202 NONAME ; TWriteAFHChannelAssessmentModeCompleteEvent::TWriteAFHChannelAssessmentModeCompleteEvent(enum THCIErrorCode, unsigned char, class TDes8 &)
	??0TWriteAuthenticationEnableCompleteEvent@@QAE@ABVTDesC8@@@Z @ 203 NONAME ; TWriteAuthenticationEnableCompleteEvent::TWriteAuthenticationEnableCompleteEvent(class TDesC8 const &)
	??0TWriteAuthenticationEnableCompleteEvent@@QAE@W4THCIErrorCode@@EAAVTDes8@@@Z @ 204 NONAME ; TWriteAuthenticationEnableCompleteEvent::TWriteAuthenticationEnableCompleteEvent(enum THCIErrorCode, unsigned char, class TDes8 &)
	??0TWriteAutomaticFlushTimeoutCompleteEvent@@QAE@ABVTDesC8@@@Z @ 205 NONAME ; TWriteAutomaticFlushTimeoutCompleteEvent::TWriteAutomaticFlushTimeoutCompleteEvent(class TDesC8 const &)
	??0TWriteAutomaticFlushTimeoutCompleteEvent@@QAE@W4THCIErrorCode@@EVTHCIConnectionHandle@@AAVTDes8@@@Z @ 206 NONAME ; TWriteAutomaticFlushTimeoutCompleteEvent::TWriteAutomaticFlushTimeoutCompleteEvent(enum THCIErrorCode, unsigned char, class THCIConnectionHandle, class TDes8 &)
	??0TWriteClassOfDeviceCompleteEvent@@QAE@ABVTDesC8@@@Z @ 207 NONAME ; TWriteClassOfDeviceCompleteEvent::TWriteClassOfDeviceCompleteEvent(class TDesC8 const &)
	??0TWriteClassOfDeviceCompleteEvent@@QAE@W4THCIErrorCode@@EAAVTDes8@@@Z @ 208 NONAME ; TWriteClassOfDeviceCompleteEvent::TWriteClassOfDeviceCompleteEvent(enum THCIErrorCode, unsigned char, class TDes8 &)
	??0TWriteConnectionAcceptTimeoutCompleteEvent@@QAE@ABVTDesC8@@@Z @ 209 NONAME ; TWriteConnectionAcceptTimeoutCompleteEvent::TWriteConnectionAcceptTimeoutCompleteEvent(class TDesC8 const &)
	??0TWriteConnectionAcceptTimeoutCompleteEvent@@QAE@W4THCIErrorCode@@EAAVTDes8@@@Z @ 210 NONAME ; TWriteConnectionAcceptTimeoutCompleteEvent::TWriteConnectionAcceptTimeoutCompleteEvent(enum THCIErrorCode, unsigned char, class TDes8 &)
	??0TWriteCurrentIACLAPCompleteEvent@@QAE@ABVTDesC8@@@Z @ 211 NONAME ; TWriteCurrentIACLAPCompleteEvent::TWriteCurrentIACLAPCompleteEvent(class TDesC8 const &)
	??0TWriteCurrentIACLAPCompleteEvent@@QAE@W4THCIErrorCode@@EAAVTDes8@@@Z @ 212 NONAME ; TWriteCurrentIACLAPCompleteEvent::TWriteCurrentIACLAPCompleteEvent(enum THCIErrorCode, unsigned char, class TDes8 &)
	??0TWriteDefaultLinkPolicySettingsCompleteEvent@@QAE@ABVTDesC8@@@Z @ 213 NONAME ; TWriteDefaultLinkPolicySettingsCompleteEvent::TWriteDefaultLinkPolicySettingsCompleteEvent(class TDesC8 const &)
	??0TWriteDefaultLinkPolicySettingsCompleteEvent@@QAE@W4THCIErrorCode@@EAAVTDes8@@@Z @ 214 NONAME ; TWriteDefaultLinkPolicySettingsCompleteEvent::TWriteDefaultLinkPolicySettingsCompleteEvent(enum THCIErrorCode, unsigned char, class TDes8 &)
	??0TWriteEncryptionModeCompleteEvent@@QAE@ABVTDesC8@@@Z @ 215 NONAME ; TWriteEncryptionModeCompleteEvent::TWriteEncryptionModeCompleteEvent(class TDesC8 const &)
	??0TWriteEncryptionModeCompleteEvent@@QAE@W4THCIErrorCode@@EAAVTDes8@@@Z @ 216 NONAME ; TWriteEncryptionModeCompleteEvent::TWriteEncryptionModeCompleteEvent(enum THCIErrorCode, unsigned char, class TDes8 &)
	??0TWriteHoldModeActivityCompleteEvent@@QAE@ABVTDesC8@@@Z @ 217 NONAME ; TWriteHoldModeActivityCompleteEvent::TWriteHoldModeActivityCompleteEvent(class TDesC8 const &)
	??0TWriteHoldModeActivityCompleteEvent@@QAE@W4THCIErrorCode@@EAAVTDes8@@@Z @ 218 NONAME ; TWriteHoldModeActivityCompleteEvent::TWriteHoldModeActivityCompleteEvent(enum THCIErrorCode, unsigned char, class TDes8 &)
	??0TWriteInquiryModeCompleteEvent@@QAE@ABVTDesC8@@@Z @ 219 NONAME ; TWriteInquiryModeCompleteEvent::TWriteInquiryModeCompleteEvent(class TDesC8 const &)
	??0TWriteInquiryModeCompleteEvent@@QAE@W4THCIErrorCode@@EAAVTDes8@@@Z @ 220 NONAME ; TWriteInquiryModeCompleteEvent::TWriteInquiryModeCompleteEvent(enum THCIErrorCode, unsigned char, class TDes8 &)
	??0TWriteInquiryScanActivityCompleteEvent@@QAE@ABVTDesC8@@@Z @ 221 NONAME ; TWriteInquiryScanActivityCompleteEvent::TWriteInquiryScanActivityCompleteEvent(class TDesC8 const &)
	??0TWriteInquiryScanActivityCompleteEvent@@QAE@W4THCIErrorCode@@EAAVTDes8@@@Z @ 222 NONAME ; TWriteInquiryScanActivityCompleteEvent::TWriteInquiryScanActivityCompleteEvent(enum THCIErrorCode, unsigned char, class TDes8 &)
	??0TWriteInquiryScanTypeCompleteEvent@@QAE@ABVTDesC8@@@Z @ 223 NONAME ; TWriteInquiryScanTypeCompleteEvent::TWriteInquiryScanTypeCompleteEvent(class TDesC8 const &)
	??0TWriteInquiryScanTypeCompleteEvent@@QAE@W4THCIErrorCode@@EAAVTDes8@@@Z @ 224 NONAME ; TWriteInquiryScanTypeCompleteEvent::TWriteInquiryScanTypeCompleteEvent(enum THCIErrorCode, unsigned char, class TDes8 &)
	??0TWriteLinkPolicySettingsCompleteEvent@@QAE@ABVTDesC8@@@Z @ 225 NONAME ; TWriteLinkPolicySettingsCompleteEvent::TWriteLinkPolicySettingsCompleteEvent(class TDesC8 const &)
	??0TWriteLinkPolicySettingsCompleteEvent@@QAE@W4THCIErrorCode@@EVTHCIConnectionHandle@@AAVTDes8@@@Z @ 226 NONAME ; TWriteLinkPolicySettingsCompleteEvent::TWriteLinkPolicySettingsCompleteEvent(enum THCIErrorCode, unsigned char, class THCIConnectionHandle, class TDes8 &)
	??0TWriteLinkSupervisionTimeoutCompleteEvent@@QAE@ABVTDesC8@@@Z @ 227 NONAME ; TWriteLinkSupervisionTimeoutCompleteEvent::TWriteLinkSupervisionTimeoutCompleteEvent(class TDesC8 const &)
	??0TWriteLinkSupervisionTimeoutCompleteEvent@@QAE@W4THCIErrorCode@@EVTHCIConnectionHandle@@AAVTDes8@@@Z @ 228 NONAME ; TWriteLinkSupervisionTimeoutCompleteEvent::TWriteLinkSupervisionTimeoutCompleteEvent(enum THCIErrorCode, unsigned char, class THCIConnectionHandle, class TDes8 &)
	??0TWriteLocalNameCompleteEvent@@QAE@ABVTDesC8@@@Z @ 229 NONAME ; TWriteLocalNameCompleteEvent::TWriteLocalNameCompleteEvent(class TDesC8 const &)
	??0TWriteLocalNameCompleteEvent@@QAE@W4THCIErrorCode@@EAAVTDes8@@@Z @ 230 NONAME ; TWriteLocalNameCompleteEvent::TWriteLocalNameCompleteEvent(enum THCIErrorCode, unsigned char, class TDes8 &)
	??0TWriteLoopbackModeCompleteEvent@@QAE@ABVTDesC8@@@Z @ 231 NONAME ; TWriteLoopbackModeCompleteEvent::TWriteLoopbackModeCompleteEvent(class TDesC8 const &)
	??0TWriteLoopbackModeCompleteEvent@@QAE@W4THCIErrorCode@@EAAVTDes8@@@Z @ 232 NONAME ; TWriteLoopbackModeCompleteEvent::TWriteLoopbackModeCompleteEvent(enum THCIErrorCode, unsigned char, class TDes8 &)
	??0TWriteNumBroadcastRetransmissionsCompleteEvent@@QAE@ABVTDesC8@@@Z @ 233 NONAME ; TWriteNumBroadcastRetransmissionsCompleteEvent::TWriteNumBroadcastRetransmissionsCompleteEvent(class TDesC8 const &)
	??0TWriteNumBroadcastRetransmissionsCompleteEvent@@QAE@W4THCIErrorCode@@EAAVTDes8@@@Z @ 234 NONAME ; TWriteNumBroadcastRetransmissionsCompleteEvent::TWriteNumBroadcastRetransmissionsCompleteEvent(enum THCIErrorCode, unsigned char, class TDes8 &)
	??0TWritePINTypeCompleteEvent@@QAE@ABVTDesC8@@@Z @ 235 NONAME ; TWritePINTypeCompleteEvent::TWritePINTypeCompleteEvent(class TDesC8 const &)
	??0TWritePINTypeCompleteEvent@@QAE@W4THCIErrorCode@@EAAVTDes8@@@Z @ 236 NONAME ; TWritePINTypeCompleteEvent::TWritePINTypeCompleteEvent(enum THCIErrorCode, unsigned char, class TDes8 &)
	??0TWritePageScanActivityCompleteEvent@@QAE@ABVTDesC8@@@Z @ 237 NONAME ; TWritePageScanActivityCompleteEvent::TWritePageScanActivityCompleteEvent(class TDesC8 const &)
	??0TWritePageScanActivityCompleteEvent@@QAE@W4THCIErrorCode@@EAAVTDes8@@@Z @ 238 NONAME ; TWritePageScanActivityCompleteEvent::TWritePageScanActivityCompleteEvent(enum THCIErrorCode, unsigned char, class TDes8 &)
	??0TWritePageScanPeriodCompleteEvent@@QAE@ABVTDesC8@@@Z @ 239 NONAME ; TWritePageScanPeriodCompleteEvent::TWritePageScanPeriodCompleteEvent(class TDesC8 const &)
	??0TWritePageScanPeriodCompleteEvent@@QAE@W4THCIErrorCode@@EAAVTDes8@@@Z @ 240 NONAME ; TWritePageScanPeriodCompleteEvent::TWritePageScanPeriodCompleteEvent(enum THCIErrorCode, unsigned char, class TDes8 &)
	??0TWritePageScanTypeCompleteEvent@@QAE@ABVTDesC8@@@Z @ 241 NONAME ; TWritePageScanTypeCompleteEvent::TWritePageScanTypeCompleteEvent(class TDesC8 const &)
	??0TWritePageScanTypeCompleteEvent@@QAE@W4THCIErrorCode@@EAAVTDes8@@@Z @ 242 NONAME ; TWritePageScanTypeCompleteEvent::TWritePageScanTypeCompleteEvent(enum THCIErrorCode, unsigned char, class TDes8 &)
	??0TWritePageTimeoutCompleteEvent@@QAE@ABVTDesC8@@@Z @ 243 NONAME ; TWritePageTimeoutCompleteEvent::TWritePageTimeoutCompleteEvent(class TDesC8 const &)
	??0TWritePageTimeoutCompleteEvent@@QAE@W4THCIErrorCode@@EAAVTDes8@@@Z @ 244 NONAME ; TWritePageTimeoutCompleteEvent::TWritePageTimeoutCompleteEvent(enum THCIErrorCode, unsigned char, class TDes8 &)
	??0TWriteScanEnableCompleteEvent@@QAE@ABVTDesC8@@@Z @ 245 NONAME ; TWriteScanEnableCompleteEvent::TWriteScanEnableCompleteEvent(class TDesC8 const &)
	??0TWriteScanEnableCompleteEvent@@QAE@W4THCIErrorCode@@EAAVTDes8@@@Z @ 246 NONAME ; TWriteScanEnableCompleteEvent::TWriteScanEnableCompleteEvent(enum THCIErrorCode, unsigned char, class TDes8 &)
	??0TWriteStoredLinkKeyCompleteEvent@@QAE@ABVTDesC8@@@Z @ 247 NONAME ; TWriteStoredLinkKeyCompleteEvent::TWriteStoredLinkKeyCompleteEvent(class TDesC8 const &)
	??0TWriteStoredLinkKeyCompleteEvent@@QAE@W4THCIErrorCode@@EEAAVTDes8@@@Z @ 248 NONAME ; TWriteStoredLinkKeyCompleteEvent::TWriteStoredLinkKeyCompleteEvent(enum THCIErrorCode, unsigned char, unsigned char, class TDes8 &)
	??0TWriteSynchronousFlowControlEnableCompleteEvent@@QAE@ABVTDesC8@@@Z @ 249 NONAME ; TWriteSynchronousFlowControlEnableCompleteEvent::TWriteSynchronousFlowControlEnableCompleteEvent(class TDesC8 const &)
	??0TWriteSynchronousFlowControlEnableCompleteEvent@@QAE@W4THCIErrorCode@@EAAVTDes8@@@Z @ 250 NONAME ; TWriteSynchronousFlowControlEnableCompleteEvent::TWriteSynchronousFlowControlEnableCompleteEvent(enum THCIErrorCode, unsigned char, class TDes8 &)
	??0TWriteVoiceSettingCompleteEvent@@QAE@ABVTDesC8@@@Z @ 251 NONAME ; TWriteVoiceSettingCompleteEvent::TWriteVoiceSettingCompleteEvent(class TDesC8 const &)
	??0TWriteVoiceSettingCompleteEvent@@QAE@W4THCIErrorCode@@EAAVTDes8@@@Z @ 252 NONAME ; TWriteVoiceSettingCompleteEvent::TWriteVoiceSettingCompleteEvent(enum THCIErrorCode, unsigned char, class TDes8 &)
	??1TAuthenticationCompleteEvent@@QAE@XZ @ 253 NONAME ; TAuthenticationCompleteEvent::~TAuthenticationCompleteEvent(void)
	??1TChangeLinkKeyEvent@@QAE@XZ @ 254 NONAME ; TChangeLinkKeyEvent::~TChangeLinkKeyEvent(void)
	??1TCommandStatusEvent@@QAE@XZ @ 255 NONAME ; TCommandStatusEvent::~TCommandStatusEvent(void)
	??1TConnectionCompleteEvent@@QAE@XZ @ 256 NONAME ; TConnectionCompleteEvent::~TConnectionCompleteEvent(void)
	??1TConnectionPacketTypeChangedEvent@@QAE@XZ @ 257 NONAME ; TConnectionPacketTypeChangedEvent::~TConnectionPacketTypeChangedEvent(void)
	??1TConnectionRequestEvent@@QAE@XZ @ 258 NONAME ; TConnectionRequestEvent::~TConnectionRequestEvent(void)
	??1TDataBufferOverflowEvent@@QAE@XZ @ 259 NONAME ; TDataBufferOverflowEvent::~TDataBufferOverflowEvent(void)
	??1TDisconnectionCompleteEvent@@QAE@XZ @ 260 NONAME ; TDisconnectionCompleteEvent::~TDisconnectionCompleteEvent(void)
	??1TEncryptionChangeEvent@@QAE@XZ @ 261 NONAME ; TEncryptionChangeEvent::~TEncryptionChangeEvent(void)
	??1TFlowSpecificationCompleteEvent@@QAE@XZ @ 262 NONAME ; TFlowSpecificationCompleteEvent::~TFlowSpecificationCompleteEvent(void)
	??1TFlushOccurredEvent@@QAE@XZ @ 263 NONAME ; TFlushOccurredEvent::~TFlushOccurredEvent(void)
	??1THardwareErrorEvent@@QAE@XZ @ 264 NONAME ; THardwareErrorEvent::~THardwareErrorEvent(void)
	??1TInquiryCompleteEvent@@QAE@XZ @ 265 NONAME ; TInquiryCompleteEvent::~TInquiryCompleteEvent(void)
	??1TInquiryResultEvent@@QAE@XZ @ 266 NONAME ; TInquiryResultEvent::~TInquiryResultEvent(void)
	??1TInquiryResultwithRSSIEvent@@QAE@XZ @ 267 NONAME ; TInquiryResultwithRSSIEvent::~TInquiryResultwithRSSIEvent(void)
	??1TLinkKeyNotificationEvent@@QAE@XZ @ 268 NONAME ; TLinkKeyNotificationEvent::~TLinkKeyNotificationEvent(void)
	??1TLinkKeyRequestEvent@@QAE@XZ @ 269 NONAME ; TLinkKeyRequestEvent::~TLinkKeyRequestEvent(void)
	??1TLoopbackCommandEvent@@QAE@XZ @ 270 NONAME ; TLoopbackCommandEvent::~TLoopbackCommandEvent(void)
	??1TMasterLinkKeyEvent@@QAE@XZ @ 271 NONAME ; TMasterLinkKeyEvent::~TMasterLinkKeyEvent(void)
	??1TMaxSlotsChangeEvent@@QAE@XZ @ 272 NONAME ; TMaxSlotsChangeEvent::~TMaxSlotsChangeEvent(void)
	??1TModeChangeEvent@@QAE@XZ @ 273 NONAME ; TModeChangeEvent::~TModeChangeEvent(void)
	??1TNumberOfCompletedPacketsEvent@@QAE@XZ @ 274 NONAME ; TNumberOfCompletedPacketsEvent::~TNumberOfCompletedPacketsEvent(void)
	??1TPINCodeRequestEvent@@QAE@XZ @ 275 NONAME ; TPINCodeRequestEvent::~TPINCodeRequestEvent(void)
	??1TPageScanModeChangeEvent@@QAE@XZ @ 276 NONAME ; TPageScanModeChangeEvent::~TPageScanModeChangeEvent(void)
	??1TPageScanRepetitionModeChangeEvent@@QAE@XZ @ 277 NONAME ; TPageScanRepetitionModeChangeEvent::~TPageScanRepetitionModeChangeEvent(void)
	??1TQOSSetupCompleteEvent@@QAE@XZ @ 278 NONAME ; TQOSSetupCompleteEvent::~TQOSSetupCompleteEvent(void)
	??1TQOSViolationEvent@@QAE@XZ @ 279 NONAME ; TQOSViolationEvent::~TQOSViolationEvent(void)
	??1TReadClockOffsetEvent@@QAE@XZ @ 280 NONAME ; TReadClockOffsetEvent::~TReadClockOffsetEvent(void)
	??1TReadRemSuppFeatCompleteEvent@@QAE@XZ @ 281 NONAME ; TReadRemSuppFeatCompleteEvent::~TReadRemSuppFeatCompleteEvent(void)
	??1TReadRemVerInfoCompleteEvent@@QAE@XZ @ 282 NONAME ; TReadRemVerInfoCompleteEvent::~TReadRemVerInfoCompleteEvent(void)
	??1TReadRemoteExtendedFeaturesCompleteEvent@@QAE@XZ @ 283 NONAME ; TReadRemoteExtendedFeaturesCompleteEvent::~TReadRemoteExtendedFeaturesCompleteEvent(void)
	??1TRemoteNameReqCompleteEvent@@QAE@XZ @ 284 NONAME ; TRemoteNameReqCompleteEvent::~TRemoteNameReqCompleteEvent(void)
	??1TReturnLinkKeysEvent@@QAE@XZ @ 285 NONAME ; TReturnLinkKeysEvent::~TReturnLinkKeysEvent(void)
	??1TRoleChangeEvent@@QAE@XZ @ 286 NONAME ; TRoleChangeEvent::~TRoleChangeEvent(void)
	??1TSynchronousConnectionChangedEvent@@QAE@XZ @ 287 NONAME ; TSynchronousConnectionChangedEvent::~TSynchronousConnectionChangedEvent(void)
	??1TSynchronousConnectionCompleteEvent@@QAE@XZ @ 288 NONAME ; TSynchronousConnectionCompleteEvent::~TSynchronousConnectionCompleteEvent(void)
	?AFHChannelAssessmentMode@CWriteAFHChannelAssessmentModeCommand@@QBEEXZ @ 289 NONAME ; unsigned char CWriteAFHChannelAssessmentModeCommand::AFHChannelAssessmentMode(void) const
	?AFHChannelAssessmentMode@TReadAFHChannelAssessmentModeCompleteEvent@@QBEEXZ @ 290 NONAME ; unsigned char TReadAFHChannelAssessmentModeCompleteEvent::AFHChannelAssessmentMode(void) const
	?AFHChannelMap@TReadAFHChannelMapCompleteEvent@@QBE?AVTPtrC8@@XZ @ 291 NONAME ; class TPtrC8 TReadAFHChannelMapCompleteEvent::AFHChannelMap(void) const
	?AFHHostChannelClassification@CSetAFHHostChannelClassificationCommand@@QBE?AVTPtrC8@@XZ @ 292 NONAME ; class TPtrC8 CSetAFHHostChannelClassificationCommand::AFHHostChannelClassification(void) const
	?AFHMode@TReadAFHChannelMapCompleteEvent@@QBEEXZ @ 293 NONAME ; unsigned char TReadAFHChannelMapCompleteEvent::AFHMode(void) const
	?AccessLatency@CFlowSpecificationCommand@@QBEKXZ @ 294 NONAME ; unsigned long CFlowSpecificationCommand::AccessLatency(void) const
	?AccessLatency@TFlowSpecificationCompleteEvent@@QBEKXZ @ 295 NONAME ; unsigned long TFlowSpecificationCompleteEvent::AccessLatency(void) const
	?Accuracy@TReadClockCompleteEvent@@QBEGXZ @ 296 NONAME ; unsigned short TReadClockCompleteEvent::Accuracy(void) const
	?AirMode@TSynchronousConnectionCompleteEvent@@QBEEXZ @ 297 NONAME ; unsigned char TSynchronousConnectionCompleteEvent::AirMode(void) const
	?AllowRoleSwitch@CCreateACLConnectionCommand@@QBEEXZ @ 298 NONAME ; unsigned char CCreateACLConnectionCommand::AllowRoleSwitch(void) const
	?AsConnectionHandle@THCIEventBase@@IBE?AVTHCIConnectionHandle@@H@Z @ 299 NONAME ; class THCIConnectionHandle THCIEventBase::AsConnectionHandle(int) const
	?AsConnectionHandle@THCIEventBase@@IBE?AVTHCIConnectionHandle@@HHH@Z @ 300 NONAME ; class THCIConnectionHandle THCIEventBase::AsConnectionHandle(int, int, int) const
	?AsDevAddr@THCIEventBase@@IBE?AVTBTDevAddr@@H@Z @ 301 NONAME ; class TBTDevAddr THCIEventBase::AsDevAddr(int) const
	?AsDevAddr@THCIEventBase@@IBE?AVTBTDevAddr@@HHH@Z @ 302 NONAME ; class TBTDevAddr THCIEventBase::AsDevAddr(int, int, int) const
	?AsLinkKey@THCIEventBase@@IBE?AV?$TPckgBuf@VTLinkKeyV10@@@@H@Z @ 303 NONAME ; class TPckgBuf<class TLinkKeyV10> THCIEventBase::AsLinkKey(int) const
	?AsLinkKey@THCIEventBase@@IBE?AV?$TPckgBuf@VTLinkKeyV10@@@@HHH@Z @ 304 NONAME ; class TPckgBuf<class TLinkKeyV10> THCIEventBase::AsLinkKey(int, int, int) const
	?AsString@THCIEventBase@@IBE?AVTPtrC8@@H@Z @ 305 NONAME ; class TPtrC8 THCIEventBase::AsString(int) const
	?AsTUint16@THCIEventBase@@IBEGH@Z @ 306 NONAME ; unsigned short THCIEventBase::AsTUint16(int) const
	?AsTUint16@THCIEventBase@@IBEGHHH@Z @ 307 NONAME ; unsigned short THCIEventBase::AsTUint16(int, int, int) const
	?AsTUint32@THCIEventBase@@IBEKHE@Z @ 308 NONAME ; unsigned long THCIEventBase::AsTUint32(int, unsigned char) const
	?AsTUint32@THCIEventBase@@IBEKHHHE@Z @ 309 NONAME ; unsigned long THCIEventBase::AsTUint32(int, int, int, unsigned char) const
	?AsTUint64@THCIEventBase@@IBE_KH@Z @ 310 NONAME ; unsigned long long THCIEventBase::AsTUint64(int) const
	?AsTUint64@THCIEventBase@@IBE_KHHH@Z @ 311 NONAME ; unsigned long long THCIEventBase::AsTUint64(int, int, int) const
	?AsTUint8@THCIEventBase@@IBEEH@Z @ 312 NONAME ; unsigned char THCIEventBase::AsTUint8(int) const
	?AsTUint8@THCIEventBase@@IBEEHHH@Z @ 313 NONAME ; unsigned char THCIEventBase::AsTUint8(int, int, int) const
	?AuthenticationEnable@CWriteAuthenticationEnableCommand@@QBEEXZ @ 314 NONAME ; unsigned char CWriteAuthenticationEnableCommand::AuthenticationEnable(void) const
	?AuthenticationEnable@TReadAuthenticationEnableCompleteEvent@@QBEEXZ @ 315 NONAME ; unsigned char TReadAuthenticationEnableCompleteEvent::AuthenticationEnable(void) const
	?BDADDR@CAcceptConnectionRequestCommand@@QBE?AVTBTDevAddr@@XZ @ 316 NONAME ; class TBTDevAddr CAcceptConnectionRequestCommand::BDADDR(void) const
	?BDADDR@CAcceptSynchronousConnectionRequestCommand@@QBE?AVTBTDevAddr@@XZ @ 317 NONAME ; class TBTDevAddr CAcceptSynchronousConnectionRequestCommand::BDADDR(void) const
	?BDADDR@CAddSCOConnectionCommand@@QBE?AVTBTDevAddr@@XZ @ 318 NONAME ; class TBTDevAddr CAddSCOConnectionCommand::BDADDR(void) const
	?BDADDR@CCreateACLConnectionCommand@@QBE?AVTBTDevAddr@@XZ @ 319 NONAME ; class TBTDevAddr CCreateACLConnectionCommand::BDADDR(void) const
	?BDADDR@CCreateConnectionCancelCommand@@QBE?AVTBTDevAddr@@XZ @ 320 NONAME ; class TBTDevAddr CCreateConnectionCancelCommand::BDADDR(void) const
	?BDADDR@CDeleteStoredLinkKeyCommand@@QBE?AVTBTDevAddr@@XZ @ 321 NONAME ; class TBTDevAddr CDeleteStoredLinkKeyCommand::BDADDR(void) const
	?BDADDR@CLinkKeyRequestReplyCommand@@QBE?AVTBTDevAddr@@XZ @ 322 NONAME ; class TBTDevAddr CLinkKeyRequestReplyCommand::BDADDR(void) const
	?BDADDR@CLinkKeyRequestReplyNegativeCommand@@QBE?AVTBTDevAddr@@XZ @ 323 NONAME ; class TBTDevAddr CLinkKeyRequestReplyNegativeCommand::BDADDR(void) const
	?BDADDR@CPINCodeRequestReplyCommand@@QBE?AVTBTDevAddr@@XZ @ 324 NONAME ; class TBTDevAddr CPINCodeRequestReplyCommand::BDADDR(void) const
	?BDADDR@CPINCodeRequestReplyNegativeCommand@@QBE?AVTBTDevAddr@@XZ @ 325 NONAME ; class TBTDevAddr CPINCodeRequestReplyNegativeCommand::BDADDR(void) const
	?BDADDR@CReadStoredLinkKeyCommand@@QBE?AVTBTDevAddr@@XZ @ 326 NONAME ; class TBTDevAddr CReadStoredLinkKeyCommand::BDADDR(void) const
	?BDADDR@CRejectConnectionRequestCommand@@QBE?AVTBTDevAddr@@XZ @ 327 NONAME ; class TBTDevAddr CRejectConnectionRequestCommand::BDADDR(void) const
	?BDADDR@CRejectSynchronousConnectionRequestCommand@@QBE?AVTBTDevAddr@@XZ @ 328 NONAME ; class TBTDevAddr CRejectSynchronousConnectionRequestCommand::BDADDR(void) const
	?BDADDR@CRemoteNameRequestCancelCommand@@QBE?AVTBTDevAddr@@XZ @ 329 NONAME ; class TBTDevAddr CRemoteNameRequestCancelCommand::BDADDR(void) const
	?BDADDR@CRemoteNameRequestCommand@@QBE?AVTBTDevAddr@@XZ @ 330 NONAME ; class TBTDevAddr CRemoteNameRequestCommand::BDADDR(void) const
	?BDADDR@CSetupSynchronousConnectionCommand@@QBE?AVTBTDevAddr@@XZ @ 331 NONAME ; class TBTDevAddr CSetupSynchronousConnectionCommand::BDADDR(void) const
	?BDADDR@CSwitchRoleCommand@@QBE?AVTBTDevAddr@@XZ @ 332 NONAME ; class TBTDevAddr CSwitchRoleCommand::BDADDR(void) const
	?BDADDR@CWriteStoredLinkKeyCommand@@QBE?AVTBTDevAddr@@H@Z @ 333 NONAME ; class TBTDevAddr CWriteStoredLinkKeyCommand::BDADDR(int) const
	?BDADDR@TConnectionCompleteEvent@@QBE?AVTBTDevAddr@@XZ @ 334 NONAME ; class TBTDevAddr TConnectionCompleteEvent::BDADDR(void) const
	?BDADDR@TConnectionRequestEvent@@QBE?AVTBTDevAddr@@XZ @ 335 NONAME ; class TBTDevAddr TConnectionRequestEvent::BDADDR(void) const
	?BDADDR@TCreateConnectionCancelCompleteEvent@@QBE?AVTBTDevAddr@@XZ @ 336 NONAME ; class TBTDevAddr TCreateConnectionCancelCompleteEvent::BDADDR(void) const
	?BDADDR@TInquiryResultEvent@@QBE?AVTBTDevAddr@@H@Z @ 337 NONAME ; class TBTDevAddr TInquiryResultEvent::BDADDR(int) const
	?BDADDR@TInquiryResultwithRSSIEvent@@QBE?AVTBTDevAddr@@H@Z @ 338 NONAME ; class TBTDevAddr TInquiryResultwithRSSIEvent::BDADDR(int) const
	?BDADDR@TLinkKeyNotificationEvent@@QBE?AVTBTDevAddr@@XZ @ 339 NONAME ; class TBTDevAddr TLinkKeyNotificationEvent::BDADDR(void) const
	?BDADDR@TLinkKeyRequestEvent@@QBE?AVTBTDevAddr@@XZ @ 340 NONAME ; class TBTDevAddr TLinkKeyRequestEvent::BDADDR(void) const
	?BDADDR@TLinkKeyRequestReplyCompleteEvent@@QBE?AVTBTDevAddr@@XZ @ 341 NONAME ; class TBTDevAddr TLinkKeyRequestReplyCompleteEvent::BDADDR(void) const
	?BDADDR@TLinkKeyRequestReplyNegativeCompleteEvent@@QBE?AVTBTDevAddr@@XZ @ 342 NONAME ; class TBTDevAddr TLinkKeyRequestReplyNegativeCompleteEvent::BDADDR(void) const
	?BDADDR@TPINCodeRequestEvent@@QBE?AVTBTDevAddr@@XZ @ 343 NONAME ; class TBTDevAddr TPINCodeRequestEvent::BDADDR(void) const
	?BDADDR@TPINCodeRequestReplyCompleteEvent@@QBE?AVTBTDevAddr@@XZ @ 344 NONAME ; class TBTDevAddr TPINCodeRequestReplyCompleteEvent::BDADDR(void) const
	?BDADDR@TPINCodeRequestReplyNegativeCompleteEvent@@QBE?AVTBTDevAddr@@XZ @ 345 NONAME ; class TBTDevAddr TPINCodeRequestReplyNegativeCompleteEvent::BDADDR(void) const
	?BDADDR@TPageScanModeChangeEvent@@QBE?AVTBTDevAddr@@XZ @ 346 NONAME ; class TBTDevAddr TPageScanModeChangeEvent::BDADDR(void) const
	?BDADDR@TPageScanRepetitionModeChangeEvent@@QBE?AVTBTDevAddr@@XZ @ 347 NONAME ; class TBTDevAddr TPageScanRepetitionModeChangeEvent::BDADDR(void) const
	?BDADDR@TReadBdaddrCompleteEvent@@QBE?AVTBTDevAddr@@XZ @ 348 NONAME ; class TBTDevAddr TReadBdaddrCompleteEvent::BDADDR(void) const
	?BDADDR@TRemoteNameReqCompleteEvent@@QBE?AVTBTDevAddr@@XZ @ 349 NONAME ; class TBTDevAddr TRemoteNameReqCompleteEvent::BDADDR(void) const
	?BDADDR@TRemoteNameRequestCancelCompleteEvent@@QBE?AVTBTDevAddr@@XZ @ 350 NONAME ; class TBTDevAddr TRemoteNameRequestCancelCompleteEvent::BDADDR(void) const
	?BDADDR@TReturnLinkKeysEvent@@QBE?AVTBTDevAddr@@H@Z @ 351 NONAME ; class TBTDevAddr TReturnLinkKeysEvent::BDADDR(int) const
	?BDADDR@TRoleChangeEvent@@QBE?AVTBTDevAddr@@XZ @ 352 NONAME ; class TBTDevAddr TRoleChangeEvent::BDADDR(void) const
	?BDADDR@TSynchronousConnectionCompleteEvent@@QBE?AVTBTDevAddr@@XZ @ 353 NONAME ; class TBTDevAddr TSynchronousConnectionCompleteEvent::BDADDR(void) const
	?BeaconMaxInterval@CParkModeCommand@@QBEGXZ @ 354 NONAME ; unsigned short CParkModeCommand::BeaconMaxInterval(void) const
	?BeaconMinInterval@CParkModeCommand@@QBEGXZ @ 355 NONAME ; unsigned short CParkModeCommand::BeaconMinInterval(void) const
	?Cast@TAuthenticationCompleteEvent@@SAAAV1@ABVTHCIEventBase@@@Z @ 356 NONAME ; class TAuthenticationCompleteEvent & TAuthenticationCompleteEvent::Cast(class THCIEventBase const &)
	?Cast@TChangeLinkKeyEvent@@SAAAV1@ABVTHCIEventBase@@@Z @ 357 NONAME ; class TChangeLinkKeyEvent & TChangeLinkKeyEvent::Cast(class THCIEventBase const &)
	?Cast@TCommandStatusEvent@@SAAAV1@ABVTHCIEventBase@@@Z @ 358 NONAME ; class TCommandStatusEvent & TCommandStatusEvent::Cast(class THCIEventBase const &)
	?Cast@TConnectionCompleteEvent@@SAAAV1@ABVTHCIEventBase@@@Z @ 359 NONAME ; class TConnectionCompleteEvent & TConnectionCompleteEvent::Cast(class THCIEventBase const &)
	?Cast@TConnectionPacketTypeChangedEvent@@SAAAV1@ABVTHCIEventBase@@@Z @ 360 NONAME ; class TConnectionPacketTypeChangedEvent & TConnectionPacketTypeChangedEvent::Cast(class THCIEventBase const &)
	?Cast@TConnectionRequestEvent@@SAAAV1@ABVTHCIEventBase@@@Z @ 361 NONAME ; class TConnectionRequestEvent & TConnectionRequestEvent::Cast(class THCIEventBase const &)
	?Cast@TCreateConnectionCancelCompleteEvent@@SAAAV1@ABVTHCIEventBase@@@Z @ 362 NONAME ; class TCreateConnectionCancelCompleteEvent & TCreateConnectionCancelCompleteEvent::Cast(class THCIEventBase const &)
	?Cast@TCreateNewUnitKeyCompleteEvent@@SAAAV1@ABVTHCIEventBase@@@Z @ 363 NONAME ; class TCreateNewUnitKeyCompleteEvent & TCreateNewUnitKeyCompleteEvent::Cast(class THCIEventBase const &)
	?Cast@TDataBufferOverflowEvent@@SAAAV1@ABVTHCIEventBase@@@Z @ 364 NONAME ; class TDataBufferOverflowEvent & TDataBufferOverflowEvent::Cast(class THCIEventBase const &)
	?Cast@TDeleteStoredLinkKeyCompleteEvent@@SAAAV1@ABVTHCIEventBase@@@Z @ 365 NONAME ; class TDeleteStoredLinkKeyCompleteEvent & TDeleteStoredLinkKeyCompleteEvent::Cast(class THCIEventBase const &)
	?Cast@TDisconnectionCompleteEvent@@SAAAV1@ABVTHCIEventBase@@@Z @ 366 NONAME ; class TDisconnectionCompleteEvent & TDisconnectionCompleteEvent::Cast(class THCIEventBase const &)
	?Cast@TEnableDeviceUnderTestModeCompleteEvent@@SAAAV1@ABVTHCIEventBase@@@Z @ 367 NONAME ; class TEnableDeviceUnderTestModeCompleteEvent & TEnableDeviceUnderTestModeCompleteEvent::Cast(class THCIEventBase const &)
	?Cast@TEncryptionChangeEvent@@SAAAV1@ABVTHCIEventBase@@@Z @ 368 NONAME ; class TEncryptionChangeEvent & TEncryptionChangeEvent::Cast(class THCIEventBase const &)
	?Cast@TExitPeriodicInquiryModeCompleteEvent@@SAAAV1@ABVTHCIEventBase@@@Z @ 369 NONAME ; class TExitPeriodicInquiryModeCompleteEvent & TExitPeriodicInquiryModeCompleteEvent::Cast(class THCIEventBase const &)
	?Cast@TFlowSpecificationCompleteEvent@@SAAAV1@ABVTHCIEventBase@@@Z @ 370 NONAME ; class TFlowSpecificationCompleteEvent & TFlowSpecificationCompleteEvent::Cast(class THCIEventBase const &)
	?Cast@TFlushCompleteEvent@@SAAAV1@ABVTHCIEventBase@@@Z @ 371 NONAME ; class TFlushCompleteEvent & TFlushCompleteEvent::Cast(class THCIEventBase const &)
	?Cast@TFlushOccurredEvent@@SAAAV1@ABVTHCIEventBase@@@Z @ 372 NONAME ; class TFlushOccurredEvent & TFlushOccurredEvent::Cast(class THCIEventBase const &)
	?Cast@THCICommandCompleteEvent@@SAAAV1@ABVTHCIEventBase@@@Z @ 373 NONAME ; class THCICommandCompleteEvent & THCICommandCompleteEvent::Cast(class THCIEventBase const &)
	?Cast@THardwareErrorEvent@@SAAAV1@ABVTHCIEventBase@@@Z @ 374 NONAME ; class THardwareErrorEvent & THardwareErrorEvent::Cast(class THCIEventBase const &)
	?Cast@THostBufferSizeCompleteEvent@@SAAAV1@ABVTHCIEventBase@@@Z @ 375 NONAME ; class THostBufferSizeCompleteEvent & THostBufferSizeCompleteEvent::Cast(class THCIEventBase const &)
	?Cast@THostNumberOfCompletedPacketsCompleteEvent@@SAAAV1@ABVTHCIEventBase@@@Z @ 376 NONAME ; class THostNumberOfCompletedPacketsCompleteEvent & THostNumberOfCompletedPacketsCompleteEvent::Cast(class THCIEventBase const &)
	?Cast@TInquiryCancelCompleteEvent@@SAAAV1@ABVTHCIEventBase@@@Z @ 377 NONAME ; class TInquiryCancelCompleteEvent & TInquiryCancelCompleteEvent::Cast(class THCIEventBase const &)
	?Cast@TInquiryCompleteEvent@@SAAAV1@ABVTHCIEventBase@@@Z @ 378 NONAME ; class TInquiryCompleteEvent & TInquiryCompleteEvent::Cast(class THCIEventBase const &)
	?Cast@TInquiryResultEvent@@SAAAV1@ABVTHCIEventBase@@@Z @ 379 NONAME ; class TInquiryResultEvent & TInquiryResultEvent::Cast(class THCIEventBase const &)
	?Cast@TInquiryResultwithRSSIEvent@@SAAAV1@ABVTHCIEventBase@@@Z @ 380 NONAME ; class TInquiryResultwithRSSIEvent & TInquiryResultwithRSSIEvent::Cast(class THCIEventBase const &)
	?Cast@TLinkKeyNotificationEvent@@SAAAV1@ABVTHCIEventBase@@@Z @ 381 NONAME ; class TLinkKeyNotificationEvent & TLinkKeyNotificationEvent::Cast(class THCIEventBase const &)
	?Cast@TLinkKeyRequestEvent@@SAAAV1@ABVTHCIEventBase@@@Z @ 382 NONAME ; class TLinkKeyRequestEvent & TLinkKeyRequestEvent::Cast(class THCIEventBase const &)
	?Cast@TLinkKeyRequestReplyCompleteEvent@@SAAAV1@ABVTHCIEventBase@@@Z @ 383 NONAME ; class TLinkKeyRequestReplyCompleteEvent & TLinkKeyRequestReplyCompleteEvent::Cast(class THCIEventBase const &)
	?Cast@TLinkKeyRequestReplyNegativeCompleteEvent@@SAAAV1@ABVTHCIEventBase@@@Z @ 384 NONAME ; class TLinkKeyRequestReplyNegativeCompleteEvent & TLinkKeyRequestReplyNegativeCompleteEvent::Cast(class THCIEventBase const &)
	?Cast@TLoopbackCommandEvent@@SAAAV1@ABVTHCIEventBase@@@Z @ 385 NONAME ; class TLoopbackCommandEvent & TLoopbackCommandEvent::Cast(class THCIEventBase const &)
	?Cast@TMasterLinkKeyEvent@@SAAAV1@ABVTHCIEventBase@@@Z @ 386 NONAME ; class TMasterLinkKeyEvent & TMasterLinkKeyEvent::Cast(class THCIEventBase const &)
	?Cast@TMaxSlotsChangeEvent@@SAAAV1@ABVTHCIEventBase@@@Z @ 387 NONAME ; class TMaxSlotsChangeEvent & TMaxSlotsChangeEvent::Cast(class THCIEventBase const &)
	?Cast@TModeChangeEvent@@SAAAV1@ABVTHCIEventBase@@@Z @ 388 NONAME ; class TModeChangeEvent & TModeChangeEvent::Cast(class THCIEventBase const &)
	?Cast@TNumberOfCompletedPacketsEvent@@SAAAV1@ABVTHCIEventBase@@@Z @ 389 NONAME ; class TNumberOfCompletedPacketsEvent & TNumberOfCompletedPacketsEvent::Cast(class THCIEventBase const &)
	?Cast@TPINCodeRequestEvent@@SAAAV1@ABVTHCIEventBase@@@Z @ 390 NONAME ; class TPINCodeRequestEvent & TPINCodeRequestEvent::Cast(class THCIEventBase const &)
	?Cast@TPINCodeRequestReplyCompleteEvent@@SAAAV1@ABVTHCIEventBase@@@Z @ 391 NONAME ; class TPINCodeRequestReplyCompleteEvent & TPINCodeRequestReplyCompleteEvent::Cast(class THCIEventBase const &)
	?Cast@TPINCodeRequestReplyNegativeCompleteEvent@@SAAAV1@ABVTHCIEventBase@@@Z @ 392 NONAME ; class TPINCodeRequestReplyNegativeCompleteEvent & TPINCodeRequestReplyNegativeCompleteEvent::Cast(class THCIEventBase const &)
	?Cast@TPageScanModeChangeEvent@@SAAAV1@ABVTHCIEventBase@@@Z @ 393 NONAME ; class TPageScanModeChangeEvent & TPageScanModeChangeEvent::Cast(class THCIEventBase const &)
	?Cast@TPageScanRepetitionModeChangeEvent@@SAAAV1@ABVTHCIEventBase@@@Z @ 394 NONAME ; class TPageScanRepetitionModeChangeEvent & TPageScanRepetitionModeChangeEvent::Cast(class THCIEventBase const &)
	?Cast@TPeriodicInquiryModeCompleteEvent@@SAAAV1@ABVTHCIEventBase@@@Z @ 395 NONAME ; class TPeriodicInquiryModeCompleteEvent & TPeriodicInquiryModeCompleteEvent::Cast(class THCIEventBase const &)
	?Cast@TQOSSetupCompleteEvent@@SAAAV1@ABVTHCIEventBase@@@Z @ 396 NONAME ; class TQOSSetupCompleteEvent & TQOSSetupCompleteEvent::Cast(class THCIEventBase const &)
	?Cast@TQOSViolationEvent@@SAAAV1@ABVTHCIEventBase@@@Z @ 397 NONAME ; class TQOSViolationEvent & TQOSViolationEvent::Cast(class THCIEventBase const &)
	?Cast@TReadAFHChannelAssessmentModeCompleteEvent@@SAAAV1@ABVTHCIEventBase@@@Z @ 398 NONAME ; class TReadAFHChannelAssessmentModeCompleteEvent & TReadAFHChannelAssessmentModeCompleteEvent::Cast(class THCIEventBase const &)
	?Cast@TReadAFHChannelMapCompleteEvent@@SAAAV1@ABVTHCIEventBase@@@Z @ 399 NONAME ; class TReadAFHChannelMapCompleteEvent & TReadAFHChannelMapCompleteEvent::Cast(class THCIEventBase const &)
	?Cast@TReadAuthenticationEnableCompleteEvent@@SAAAV1@ABVTHCIEventBase@@@Z @ 400 NONAME ; class TReadAuthenticationEnableCompleteEvent & TReadAuthenticationEnableCompleteEvent::Cast(class THCIEventBase const &)
	?Cast@TReadAutomaticFlushTimeoutCompleteEvent@@SAAAV1@ABVTHCIEventBase@@@Z @ 401 NONAME ; class TReadAutomaticFlushTimeoutCompleteEvent & TReadAutomaticFlushTimeoutCompleteEvent::Cast(class THCIEventBase const &)
	?Cast@TReadBdaddrCompleteEvent@@SAAAV1@ABVTHCIEventBase@@@Z @ 402 NONAME ; class TReadBdaddrCompleteEvent & TReadBdaddrCompleteEvent::Cast(class THCIEventBase const &)
	?Cast@TReadBufferSizeCompleteEvent@@SAAAV1@ABVTHCIEventBase@@@Z @ 403 NONAME ; class TReadBufferSizeCompleteEvent & TReadBufferSizeCompleteEvent::Cast(class THCIEventBase const &)
	?Cast@TReadClassOfDeviceCompleteEvent@@SAAAV1@ABVTHCIEventBase@@@Z @ 404 NONAME ; class TReadClassOfDeviceCompleteEvent & TReadClassOfDeviceCompleteEvent::Cast(class THCIEventBase const &)
	?Cast@TReadClockCompleteEvent@@SAAAV1@ABVTHCIEventBase@@@Z @ 405 NONAME ; class TReadClockCompleteEvent & TReadClockCompleteEvent::Cast(class THCIEventBase const &)
	?Cast@TReadClockOffsetEvent@@SAAAV1@ABVTHCIEventBase@@@Z @ 406 NONAME ; class TReadClockOffsetEvent & TReadClockOffsetEvent::Cast(class THCIEventBase const &)
	?Cast@TReadConnectionAcceptTimeoutCompleteEvent@@SAAAV1@ABVTHCIEventBase@@@Z @ 407 NONAME ; class TReadConnectionAcceptTimeoutCompleteEvent & TReadConnectionAcceptTimeoutCompleteEvent::Cast(class THCIEventBase const &)
	?Cast@TReadCurrentIACLAPCompleteEvent@@SAAAV1@ABVTHCIEventBase@@@Z @ 408 NONAME ; class TReadCurrentIACLAPCompleteEvent & TReadCurrentIACLAPCompleteEvent::Cast(class THCIEventBase const &)
	?Cast@TReadDefaultLinkPolicySettingsCompleteEvent@@SAAAV1@ABVTHCIEventBase@@@Z @ 409 NONAME ; class TReadDefaultLinkPolicySettingsCompleteEvent & TReadDefaultLinkPolicySettingsCompleteEvent::Cast(class THCIEventBase const &)
	?Cast@TReadEncryptionModeCompleteEvent@@SAAAV1@ABVTHCIEventBase@@@Z @ 410 NONAME ; class TReadEncryptionModeCompleteEvent & TReadEncryptionModeCompleteEvent::Cast(class THCIEventBase const &)
	?Cast@TReadFailedContactCounterCompleteEvent@@SAAAV1@ABVTHCIEventBase@@@Z @ 411 NONAME ; class TReadFailedContactCounterCompleteEvent & TReadFailedContactCounterCompleteEvent::Cast(class THCIEventBase const &)
	?Cast@TReadHoldModeActivityCompleteEvent@@SAAAV1@ABVTHCIEventBase@@@Z @ 412 NONAME ; class TReadHoldModeActivityCompleteEvent & TReadHoldModeActivityCompleteEvent::Cast(class THCIEventBase const &)
	?Cast@TReadInquiryModeCompleteEvent@@SAAAV1@ABVTHCIEventBase@@@Z @ 413 NONAME ; class TReadInquiryModeCompleteEvent & TReadInquiryModeCompleteEvent::Cast(class THCIEventBase const &)
	?Cast@TReadInquiryScanActivityCompleteEvent@@SAAAV1@ABVTHCIEventBase@@@Z @ 414 NONAME ; class TReadInquiryScanActivityCompleteEvent & TReadInquiryScanActivityCompleteEvent::Cast(class THCIEventBase const &)
	?Cast@TReadInquiryScanTypeCompleteEvent@@SAAAV1@ABVTHCIEventBase@@@Z @ 415 NONAME ; class TReadInquiryScanTypeCompleteEvent & TReadInquiryScanTypeCompleteEvent::Cast(class THCIEventBase const &)
	?Cast@TReadLMPHandleCompleteEvent@@SAAAV1@ABVTHCIEventBase@@@Z @ 416 NONAME ; class TReadLMPHandleCompleteEvent & TReadLMPHandleCompleteEvent::Cast(class THCIEventBase const &)
	?Cast@TReadLinkPolicySettingsCompleteEvent@@SAAAV1@ABVTHCIEventBase@@@Z @ 417 NONAME ; class TReadLinkPolicySettingsCompleteEvent & TReadLinkPolicySettingsCompleteEvent::Cast(class THCIEventBase const &)
	?Cast@TReadLinkQualityCompleteEvent@@SAAAV1@ABVTHCIEventBase@@@Z @ 418 NONAME ; class TReadLinkQualityCompleteEvent & TReadLinkQualityCompleteEvent::Cast(class THCIEventBase const &)
	?Cast@TReadLinkSupervisionTimeoutCompleteEvent@@SAAAV1@ABVTHCIEventBase@@@Z @ 419 NONAME ; class TReadLinkSupervisionTimeoutCompleteEvent & TReadLinkSupervisionTimeoutCompleteEvent::Cast(class THCIEventBase const &)
	?Cast@TReadLocalExtendedFeaturesCompleteEvent@@SAAAV1@ABVTHCIEventBase@@@Z @ 420 NONAME ; class TReadLocalExtendedFeaturesCompleteEvent & TReadLocalExtendedFeaturesCompleteEvent::Cast(class THCIEventBase const &)
	?Cast@TReadLocalNameCompleteEvent@@SAAAV1@ABVTHCIEventBase@@@Z @ 421 NONAME ; class TReadLocalNameCompleteEvent & TReadLocalNameCompleteEvent::Cast(class THCIEventBase const &)
	?Cast@TReadLocalSupportedCommandsCompleteEvent@@SAAAV1@ABVTHCIEventBase@@@Z @ 422 NONAME ; class TReadLocalSupportedCommandsCompleteEvent & TReadLocalSupportedCommandsCompleteEvent::Cast(class THCIEventBase const &)
	?Cast@TReadLocalSupportedFeaturesCompleteEvent@@SAAAV1@ABVTHCIEventBase@@@Z @ 423 NONAME ; class TReadLocalSupportedFeaturesCompleteEvent & TReadLocalSupportedFeaturesCompleteEvent::Cast(class THCIEventBase const &)
	?Cast@TReadLocalVersionInfoCompleteEvent@@SAAAV1@ABVTHCIEventBase@@@Z @ 424 NONAME ; class TReadLocalVersionInfoCompleteEvent & TReadLocalVersionInfoCompleteEvent::Cast(class THCIEventBase const &)
	?Cast@TReadLoopbackModeCompleteEvent@@SAAAV1@ABVTHCIEventBase@@@Z @ 425 NONAME ; class TReadLoopbackModeCompleteEvent & TReadLoopbackModeCompleteEvent::Cast(class THCIEventBase const &)
	?Cast@TReadNumBroadcastRetransmissionsCompleteEvent@@SAAAV1@ABVTHCIEventBase@@@Z @ 426 NONAME ; class TReadNumBroadcastRetransmissionsCompleteEvent & TReadNumBroadcastRetransmissionsCompleteEvent::Cast(class THCIEventBase const &)
	?Cast@TReadNumberOfSupportedIACCompleteEvent@@SAAAV1@ABVTHCIEventBase@@@Z @ 427 NONAME ; class TReadNumberOfSupportedIACCompleteEvent & TReadNumberOfSupportedIACCompleteEvent::Cast(class THCIEventBase const &)
	?Cast@TReadPINTypeCompleteEvent@@SAAAV1@ABVTHCIEventBase@@@Z @ 428 NONAME ; class TReadPINTypeCompleteEvent & TReadPINTypeCompleteEvent::Cast(class THCIEventBase const &)
	?Cast@TReadPageScanActivityCompleteEvent@@SAAAV1@ABVTHCIEventBase@@@Z @ 429 NONAME ; class TReadPageScanActivityCompleteEvent & TReadPageScanActivityCompleteEvent::Cast(class THCIEventBase const &)
	?Cast@TReadPageScanPeriodCompleteEvent@@SAAAV1@ABVTHCIEventBase@@@Z @ 430 NONAME ; class TReadPageScanPeriodCompleteEvent & TReadPageScanPeriodCompleteEvent::Cast(class THCIEventBase const &)
	?Cast@TReadPageScanTypeCompleteEvent@@SAAAV1@ABVTHCIEventBase@@@Z @ 431 NONAME ; class TReadPageScanTypeCompleteEvent & TReadPageScanTypeCompleteEvent::Cast(class THCIEventBase const &)
	?Cast@TReadPageTimeoutCompleteEvent@@SAAAV1@ABVTHCIEventBase@@@Z @ 432 NONAME ; class TReadPageTimeoutCompleteEvent & TReadPageTimeoutCompleteEvent::Cast(class THCIEventBase const &)
	?Cast@TReadRSSICompleteEvent@@SAAAV1@ABVTHCIEventBase@@@Z @ 433 NONAME ; class TReadRSSICompleteEvent & TReadRSSICompleteEvent::Cast(class THCIEventBase const &)
	?Cast@TReadRemSuppFeatCompleteEvent@@SAAAV1@ABVTHCIEventBase@@@Z @ 434 NONAME ; class TReadRemSuppFeatCompleteEvent & TReadRemSuppFeatCompleteEvent::Cast(class THCIEventBase const &)
	?Cast@TReadRemVerInfoCompleteEvent@@SAAAV1@ABVTHCIEventBase@@@Z @ 435 NONAME ; class TReadRemVerInfoCompleteEvent & TReadRemVerInfoCompleteEvent::Cast(class THCIEventBase const &)
	?Cast@TReadRemoteExtendedFeaturesCompleteEvent@@SAAAV1@ABVTHCIEventBase@@@Z @ 436 NONAME ; class TReadRemoteExtendedFeaturesCompleteEvent & TReadRemoteExtendedFeaturesCompleteEvent::Cast(class THCIEventBase const &)
	?Cast@TReadScanEnableCompleteEvent@@SAAAV1@ABVTHCIEventBase@@@Z @ 437 NONAME ; class TReadScanEnableCompleteEvent & TReadScanEnableCompleteEvent::Cast(class THCIEventBase const &)
	?Cast@TReadStoredLinkKeyCompleteEvent@@SAAAV1@ABVTHCIEventBase@@@Z @ 438 NONAME ; class TReadStoredLinkKeyCompleteEvent & TReadStoredLinkKeyCompleteEvent::Cast(class THCIEventBase const &)
	?Cast@TReadSynchronousFlowControlEnableCompleteEvent@@SAAAV1@ABVTHCIEventBase@@@Z @ 439 NONAME ; class TReadSynchronousFlowControlEnableCompleteEvent & TReadSynchronousFlowControlEnableCompleteEvent::Cast(class THCIEventBase const &)
	?Cast@TReadTransmitPowerLevelCompleteEvent@@SAAAV1@ABVTHCIEventBase@@@Z @ 440 NONAME ; class TReadTransmitPowerLevelCompleteEvent & TReadTransmitPowerLevelCompleteEvent::Cast(class THCIEventBase const &)
	?Cast@TReadVoiceSettingCompleteEvent@@SAAAV1@ABVTHCIEventBase@@@Z @ 441 NONAME ; class TReadVoiceSettingCompleteEvent & TReadVoiceSettingCompleteEvent::Cast(class THCIEventBase const &)
	?Cast@TRemoteNameReqCompleteEvent@@SAAAV1@ABVTHCIEventBase@@@Z @ 442 NONAME ; class TRemoteNameReqCompleteEvent & TRemoteNameReqCompleteEvent::Cast(class THCIEventBase const &)
	?Cast@TRemoteNameRequestCancelCompleteEvent@@SAAAV1@ABVTHCIEventBase@@@Z @ 443 NONAME ; class TRemoteNameRequestCancelCompleteEvent & TRemoteNameRequestCancelCompleteEvent::Cast(class THCIEventBase const &)
	?Cast@TResetCompleteEvent@@SAAAV1@ABVTHCIEventBase@@@Z @ 444 NONAME ; class TResetCompleteEvent & TResetCompleteEvent::Cast(class THCIEventBase const &)
	?Cast@TResetFailedContactCounterCompleteEvent@@SAAAV1@ABVTHCIEventBase@@@Z @ 445 NONAME ; class TResetFailedContactCounterCompleteEvent & TResetFailedContactCounterCompleteEvent::Cast(class THCIEventBase const &)
	?Cast@TReturnLinkKeysEvent@@SAAAV1@ABVTHCIEventBase@@@Z @ 446 NONAME ; class TReturnLinkKeysEvent & TReturnLinkKeysEvent::Cast(class THCIEventBase const &)
	?Cast@TRoleChangeEvent@@SAAAV1@ABVTHCIEventBase@@@Z @ 447 NONAME ; class TRoleChangeEvent & TRoleChangeEvent::Cast(class THCIEventBase const &)
	?Cast@TRoleDiscoveryCompleteEvent@@SAAAV1@ABVTHCIEventBase@@@Z @ 448 NONAME ; class TRoleDiscoveryCompleteEvent & TRoleDiscoveryCompleteEvent::Cast(class THCIEventBase const &)
	?Cast@TSetAFHHostChannelClassificationCompleteEvent@@SAAAV1@ABVTHCIEventBase@@@Z @ 449 NONAME ; class TSetAFHHostChannelClassificationCompleteEvent & TSetAFHHostChannelClassificationCompleteEvent::Cast(class THCIEventBase const &)
	?Cast@TSetControllerToHostFlowControlCompleteEvent@@SAAAV1@ABVTHCIEventBase@@@Z @ 450 NONAME ; class TSetControllerToHostFlowControlCompleteEvent & TSetControllerToHostFlowControlCompleteEvent::Cast(class THCIEventBase const &)
	?Cast@TSetEventFilterCompleteEvent@@SAAAV1@ABVTHCIEventBase@@@Z @ 451 NONAME ; class TSetEventFilterCompleteEvent & TSetEventFilterCompleteEvent::Cast(class THCIEventBase const &)
	?Cast@TSetEventMaskCompleteEvent@@SAAAV1@ABVTHCIEventBase@@@Z @ 452 NONAME ; class TSetEventMaskCompleteEvent & TSetEventMaskCompleteEvent::Cast(class THCIEventBase const &)
	?Cast@TSynchronousConnectionChangedEvent@@SAAAV1@ABVTHCIEventBase@@@Z @ 453 NONAME ; class TSynchronousConnectionChangedEvent & TSynchronousConnectionChangedEvent::Cast(class THCIEventBase const &)
	?Cast@TSynchronousConnectionCompleteEvent@@SAAAV1@ABVTHCIEventBase@@@Z @ 454 NONAME ; class TSynchronousConnectionCompleteEvent & TSynchronousConnectionCompleteEvent::Cast(class THCIEventBase const &)
	?Cast@TVendorDebugCompleteEvent@@SAAAV1@ABVTHCIEventBase@@@Z @ 455 NONAME ; class TVendorDebugCompleteEvent & TVendorDebugCompleteEvent::Cast(class THCIEventBase const &)
	?Cast@TVendorDebugEvent@@SAAAV1@ABVTHCIEventBase@@@Z @ 456 NONAME ; class TVendorDebugEvent & TVendorDebugEvent::Cast(class THCIEventBase const &)
	?Cast@TWriteAFHChannelAssessmentModeCompleteEvent@@SAAAV1@ABVTHCIEventBase@@@Z @ 457 NONAME ; class TWriteAFHChannelAssessmentModeCompleteEvent & TWriteAFHChannelAssessmentModeCompleteEvent::Cast(class THCIEventBase const &)
	?Cast@TWriteAuthenticationEnableCompleteEvent@@SAAAV1@ABVTHCIEventBase@@@Z @ 458 NONAME ; class TWriteAuthenticationEnableCompleteEvent & TWriteAuthenticationEnableCompleteEvent::Cast(class THCIEventBase const &)
	?Cast@TWriteAutomaticFlushTimeoutCompleteEvent@@SAAAV1@ABVTHCIEventBase@@@Z @ 459 NONAME ; class TWriteAutomaticFlushTimeoutCompleteEvent & TWriteAutomaticFlushTimeoutCompleteEvent::Cast(class THCIEventBase const &)
	?Cast@TWriteClassOfDeviceCompleteEvent@@SAAAV1@ABVTHCIEventBase@@@Z @ 460 NONAME ; class TWriteClassOfDeviceCompleteEvent & TWriteClassOfDeviceCompleteEvent::Cast(class THCIEventBase const &)
	?Cast@TWriteConnectionAcceptTimeoutCompleteEvent@@SAAAV1@ABVTHCIEventBase@@@Z @ 461 NONAME ; class TWriteConnectionAcceptTimeoutCompleteEvent & TWriteConnectionAcceptTimeoutCompleteEvent::Cast(class THCIEventBase const &)
	?Cast@TWriteCurrentIACLAPCompleteEvent@@SAAAV1@ABVTHCIEventBase@@@Z @ 462 NONAME ; class TWriteCurrentIACLAPCompleteEvent & TWriteCurrentIACLAPCompleteEvent::Cast(class THCIEventBase const &)
	?Cast@TWriteDefaultLinkPolicySettingsCompleteEvent@@SAAAV1@ABVTHCIEventBase@@@Z @ 463 NONAME ; class TWriteDefaultLinkPolicySettingsCompleteEvent & TWriteDefaultLinkPolicySettingsCompleteEvent::Cast(class THCIEventBase const &)
	?Cast@TWriteEncryptionModeCompleteEvent@@SAAAV1@ABVTHCIEventBase@@@Z @ 464 NONAME ; class TWriteEncryptionModeCompleteEvent & TWriteEncryptionModeCompleteEvent::Cast(class THCIEventBase const &)
	?Cast@TWriteHoldModeActivityCompleteEvent@@SAAAV1@ABVTHCIEventBase@@@Z @ 465 NONAME ; class TWriteHoldModeActivityCompleteEvent & TWriteHoldModeActivityCompleteEvent::Cast(class THCIEventBase const &)
	?Cast@TWriteInquiryModeCompleteEvent@@SAAAV1@ABVTHCIEventBase@@@Z @ 466 NONAME ; class TWriteInquiryModeCompleteEvent & TWriteInquiryModeCompleteEvent::Cast(class THCIEventBase const &)
	?Cast@TWriteInquiryScanActivityCompleteEvent@@SAAAV1@ABVTHCIEventBase@@@Z @ 467 NONAME ; class TWriteInquiryScanActivityCompleteEvent & TWriteInquiryScanActivityCompleteEvent::Cast(class THCIEventBase const &)
	?Cast@TWriteInquiryScanTypeCompleteEvent@@SAAAV1@ABVTHCIEventBase@@@Z @ 468 NONAME ; class TWriteInquiryScanTypeCompleteEvent & TWriteInquiryScanTypeCompleteEvent::Cast(class THCIEventBase const &)
	?Cast@TWriteLinkPolicySettingsCompleteEvent@@SAAAV1@ABVTHCIEventBase@@@Z @ 469 NONAME ; class TWriteLinkPolicySettingsCompleteEvent & TWriteLinkPolicySettingsCompleteEvent::Cast(class THCIEventBase const &)
	?Cast@TWriteLinkSupervisionTimeoutCompleteEvent@@SAAAV1@ABVTHCIEventBase@@@Z @ 470 NONAME ; class TWriteLinkSupervisionTimeoutCompleteEvent & TWriteLinkSupervisionTimeoutCompleteEvent::Cast(class THCIEventBase const &)
	?Cast@TWriteLocalNameCompleteEvent@@SAAAV1@ABVTHCIEventBase@@@Z @ 471 NONAME ; class TWriteLocalNameCompleteEvent & TWriteLocalNameCompleteEvent::Cast(class THCIEventBase const &)
	?Cast@TWriteLoopbackModeCompleteEvent@@SAAAV1@ABVTHCIEventBase@@@Z @ 472 NONAME ; class TWriteLoopbackModeCompleteEvent & TWriteLoopbackModeCompleteEvent::Cast(class THCIEventBase const &)
	?Cast@TWriteNumBroadcastRetransmissionsCompleteEvent@@SAAAV1@ABVTHCIEventBase@@@Z @ 473 NONAME ; class TWriteNumBroadcastRetransmissionsCompleteEvent & TWriteNumBroadcastRetransmissionsCompleteEvent::Cast(class THCIEventBase const &)
	?Cast@TWritePINTypeCompleteEvent@@SAAAV1@ABVTHCIEventBase@@@Z @ 474 NONAME ; class TWritePINTypeCompleteEvent & TWritePINTypeCompleteEvent::Cast(class THCIEventBase const &)
	?Cast@TWritePageScanActivityCompleteEvent@@SAAAV1@ABVTHCIEventBase@@@Z @ 475 NONAME ; class TWritePageScanActivityCompleteEvent & TWritePageScanActivityCompleteEvent::Cast(class THCIEventBase const &)
	?Cast@TWritePageScanPeriodCompleteEvent@@SAAAV1@ABVTHCIEventBase@@@Z @ 476 NONAME ; class TWritePageScanPeriodCompleteEvent & TWritePageScanPeriodCompleteEvent::Cast(class THCIEventBase const &)
	?Cast@TWritePageScanTypeCompleteEvent@@SAAAV1@ABVTHCIEventBase@@@Z @ 477 NONAME ; class TWritePageScanTypeCompleteEvent & TWritePageScanTypeCompleteEvent::Cast(class THCIEventBase const &)
	?Cast@TWritePageTimeoutCompleteEvent@@SAAAV1@ABVTHCIEventBase@@@Z @ 478 NONAME ; class TWritePageTimeoutCompleteEvent & TWritePageTimeoutCompleteEvent::Cast(class THCIEventBase const &)
	?Cast@TWriteScanEnableCompleteEvent@@SAAAV1@ABVTHCIEventBase@@@Z @ 479 NONAME ; class TWriteScanEnableCompleteEvent & TWriteScanEnableCompleteEvent::Cast(class THCIEventBase const &)
	?Cast@TWriteStoredLinkKeyCompleteEvent@@SAAAV1@ABVTHCIEventBase@@@Z @ 480 NONAME ; class TWriteStoredLinkKeyCompleteEvent & TWriteStoredLinkKeyCompleteEvent::Cast(class THCIEventBase const &)
	?Cast@TWriteSynchronousFlowControlEnableCompleteEvent@@SAAAV1@ABVTHCIEventBase@@@Z @ 481 NONAME ; class TWriteSynchronousFlowControlEnableCompleteEvent & TWriteSynchronousFlowControlEnableCompleteEvent::Cast(class THCIEventBase const &)
	?Cast@TWriteVoiceSettingCompleteEvent@@SAAAV1@ABVTHCIEventBase@@@Z @ 482 NONAME ; class TWriteVoiceSettingCompleteEvent & TWriteVoiceSettingCompleteEvent::Cast(class THCIEventBase const &)
	?ClassOfDevice@CWriteClassOfDeviceCommand@@QBEKXZ @ 483 NONAME ; unsigned long CWriteClassOfDeviceCommand::ClassOfDevice(void) const
	?ClassOfDevice@TConnectionRequestEvent@@QBEKXZ @ 484 NONAME ; unsigned long TConnectionRequestEvent::ClassOfDevice(void) const
	?ClassOfDevice@TInquiryResultEvent@@QBEKH@Z @ 485 NONAME ; unsigned long TInquiryResultEvent::ClassOfDevice(int) const
	?ClassOfDevice@TInquiryResultwithRSSIEvent@@QBEKH@Z @ 486 NONAME ; unsigned long TInquiryResultwithRSSIEvent::ClassOfDevice(int) const
	?ClassOfDevice@TReadClassOfDeviceCompleteEvent@@QBEKXZ @ 487 NONAME ; unsigned long TReadClassOfDeviceCompleteEvent::ClassOfDevice(void) const
	?Clock@TReadClockCompleteEvent@@QBEKXZ @ 488 NONAME ; unsigned long TReadClockCompleteEvent::Clock(void) const
	?ClockOffset@CCreateACLConnectionCommand@@QBE?AVTHCIClockOffset@@XZ @ 489 NONAME ; class THCIClockOffset CCreateACLConnectionCommand::ClockOffset(void) const
	?ClockOffset@CRemoteNameRequestCommand@@QBE?AVTHCIClockOffset@@XZ @ 490 NONAME ; class THCIClockOffset CRemoteNameRequestCommand::ClockOffset(void) const
	?ClockOffset@TInquiryResultEvent@@QBE?AVTHCIClockOffset@@H@Z @ 491 NONAME ; class THCIClockOffset TInquiryResultEvent::ClockOffset(int) const
	?ClockOffset@TInquiryResultwithRSSIEvent@@QBE?AVTHCIClockOffset@@H@Z @ 492 NONAME ; class THCIClockOffset TInquiryResultwithRSSIEvent::ClockOffset(int) const
	?ClockOffset@TReadClockOffsetEvent@@QBE?AVTHCIClockOffset@@XZ @ 493 NONAME ; class THCIClockOffset TReadClockOffsetEvent::ClockOffset(void) const
	?Command@CVendorDebugCommand@@QAEAAVTDes8@@XZ @ 494 NONAME ; class TDes8 & CVendorDebugCommand::Command(void)
	?CommandOpcode@TCommandStatusEvent@@QBEGXZ @ 495 NONAME ; unsigned short TCommandStatusEvent::CommandOpcode(void) const
	?CommandOpcode@THCICommandCompleteEvent@@QBEGXZ @ 496 NONAME ; unsigned short THCICommandCompleteEvent::CommandOpcode(void) const
	?Condition@CSetEventFilterCommand@@QBE?AVTPtrC8@@XZ @ 497 NONAME ; class TPtrC8 CSetEventFilterCommand::Condition(void) const
	?ConnAcceptTimeout@CWriteConnectionAcceptTimeoutCommand@@QBEGXZ @ 498 NONAME ; unsigned short CWriteConnectionAcceptTimeoutCommand::ConnAcceptTimeout(void) const
	?ConnAcceptTimeout@TReadConnectionAcceptTimeoutCompleteEvent@@QBEGXZ @ 499 NONAME ; unsigned short TReadConnectionAcceptTimeoutCompleteEvent::ConnAcceptTimeout(void) const
	?ConnectionHandle@CAddSCOConnectionCommand@@QBE?AVTHCIConnectionHandle@@XZ @ 500 NONAME ; class THCIConnectionHandle CAddSCOConnectionCommand::ConnectionHandle(void) const
	?ConnectionHandle@CAuthenticationRequestedCommand@@QBE?AVTHCIConnectionHandle@@XZ @ 501 NONAME ; class THCIConnectionHandle CAuthenticationRequestedCommand::ConnectionHandle(void) const
	?ConnectionHandle@CChangeConnectionPacketTypeCommand@@QBE?AVTHCIConnectionHandle@@XZ @ 502 NONAME ; class THCIConnectionHandle CChangeConnectionPacketTypeCommand::ConnectionHandle(void) const
	?ConnectionHandle@CChangeLinkKeyCommand@@QBE?AVTHCIConnectionHandle@@XZ @ 503 NONAME ; class THCIConnectionHandle CChangeLinkKeyCommand::ConnectionHandle(void) const
	?ConnectionHandle@CDisconnectCommand@@QBE?AVTHCIConnectionHandle@@XZ @ 504 NONAME ; class THCIConnectionHandle CDisconnectCommand::ConnectionHandle(void) const
	?ConnectionHandle@CExitParkModeCommand@@QBE?AVTHCIConnectionHandle@@XZ @ 505 NONAME ; class THCIConnectionHandle CExitParkModeCommand::ConnectionHandle(void) const
	?ConnectionHandle@CExitSniffModeCommand@@QBE?AVTHCIConnectionHandle@@XZ @ 506 NONAME ; class THCIConnectionHandle CExitSniffModeCommand::ConnectionHandle(void) const
	?ConnectionHandle@CFlowSpecificationCommand@@QBE?AVTHCIConnectionHandle@@XZ @ 507 NONAME ; class THCIConnectionHandle CFlowSpecificationCommand::ConnectionHandle(void) const
	?ConnectionHandle@CFlushCommand@@QBE?AVTHCIConnectionHandle@@XZ @ 508 NONAME ; class THCIConnectionHandle CFlushCommand::ConnectionHandle(void) const
	?ConnectionHandle@CHoldModeCommand@@QBE?AVTHCIConnectionHandle@@XZ @ 509 NONAME ; class THCIConnectionHandle CHoldModeCommand::ConnectionHandle(void) const
	?ConnectionHandle@CHostNumberOfCompletedPacketsCommand@@QBE?AVTHCIConnectionHandle@@H@Z @ 510 NONAME ; class THCIConnectionHandle CHostNumberOfCompletedPacketsCommand::ConnectionHandle(int) const
	?ConnectionHandle@CParkModeCommand@@QBE?AVTHCIConnectionHandle@@XZ @ 511 NONAME ; class THCIConnectionHandle CParkModeCommand::ConnectionHandle(void) const
	?ConnectionHandle@CQOSSetupCommand@@QBE?AVTHCIConnectionHandle@@XZ @ 512 NONAME ; class THCIConnectionHandle CQOSSetupCommand::ConnectionHandle(void) const
	?ConnectionHandle@CReadAFHChannelMapCommand@@QBE?AVTHCIConnectionHandle@@XZ @ 513 NONAME ; class THCIConnectionHandle CReadAFHChannelMapCommand::ConnectionHandle(void) const
	?ConnectionHandle@CReadAutomaticFlushTimeoutCommand@@QBE?AVTHCIConnectionHandle@@XZ @ 514 NONAME ; class THCIConnectionHandle CReadAutomaticFlushTimeoutCommand::ConnectionHandle(void) const
	?ConnectionHandle@CReadClockCommand@@QBE?AVTHCIConnectionHandle@@XZ @ 515 NONAME ; class THCIConnectionHandle CReadClockCommand::ConnectionHandle(void) const
	?ConnectionHandle@CReadClockOffsetCommand@@QBE?AVTHCIConnectionHandle@@XZ @ 516 NONAME ; class THCIConnectionHandle CReadClockOffsetCommand::ConnectionHandle(void) const
	?ConnectionHandle@CReadFailedContactCounterCommand@@QBE?AVTHCIConnectionHandle@@XZ @ 517 NONAME ; class THCIConnectionHandle CReadFailedContactCounterCommand::ConnectionHandle(void) const
	?ConnectionHandle@CReadLMPHandleCommand@@QBE?AVTHCIConnectionHandle@@XZ @ 518 NONAME ; class THCIConnectionHandle CReadLMPHandleCommand::ConnectionHandle(void) const
	?ConnectionHandle@CReadLinkPolicySettingsCommand@@QBE?AVTHCIConnectionHandle@@XZ @ 519 NONAME ; class THCIConnectionHandle CReadLinkPolicySettingsCommand::ConnectionHandle(void) const
	?ConnectionHandle@CReadLinkQualityCommand@@QBE?AVTHCIConnectionHandle@@XZ @ 520 NONAME ; class THCIConnectionHandle CReadLinkQualityCommand::ConnectionHandle(void) const
	?ConnectionHandle@CReadLinkSupervisionTimeoutCommand@@QBE?AVTHCIConnectionHandle@@XZ @ 521 NONAME ; class THCIConnectionHandle CReadLinkSupervisionTimeoutCommand::ConnectionHandle(void) const
	?ConnectionHandle@CReadRSSICommand@@QBE?AVTHCIConnectionHandle@@XZ @ 522 NONAME ; class THCIConnectionHandle CReadRSSICommand::ConnectionHandle(void) const
	?ConnectionHandle@CReadRemoteExtendedFeaturesCommand@@QBE?AVTHCIConnectionHandle@@XZ @ 523 NONAME ; class THCIConnectionHandle CReadRemoteExtendedFeaturesCommand::ConnectionHandle(void) const
	?ConnectionHandle@CReadRemoteSupportedFeaturesCommand@@QBE?AVTHCIConnectionHandle@@XZ @ 524 NONAME ; class THCIConnectionHandle CReadRemoteSupportedFeaturesCommand::ConnectionHandle(void) const
	?ConnectionHandle@CReadRemoteVersionInfoCommand@@QBE?AVTHCIConnectionHandle@@XZ @ 525 NONAME ; class THCIConnectionHandle CReadRemoteVersionInfoCommand::ConnectionHandle(void) const
	?ConnectionHandle@CReadTransmitPowerLevelCommand@@QBE?AVTHCIConnectionHandle@@XZ @ 526 NONAME ; class THCIConnectionHandle CReadTransmitPowerLevelCommand::ConnectionHandle(void) const
	?ConnectionHandle@CResetFailedContactCounterCommand@@QBE?AVTHCIConnectionHandle@@XZ @ 527 NONAME ; class THCIConnectionHandle CResetFailedContactCounterCommand::ConnectionHandle(void) const
	?ConnectionHandle@CRoleDiscoveryCommand@@QBE?AVTHCIConnectionHandle@@XZ @ 528 NONAME ; class THCIConnectionHandle CRoleDiscoveryCommand::ConnectionHandle(void) const
	?ConnectionHandle@CSetConnectionEncryptionCommand@@QBE?AVTHCIConnectionHandle@@XZ @ 529 NONAME ; class THCIConnectionHandle CSetConnectionEncryptionCommand::ConnectionHandle(void) const
	?ConnectionHandle@CSetupSynchronousConnectionCommand@@QBE?AVTHCIConnectionHandle@@XZ @ 530 NONAME ; class THCIConnectionHandle CSetupSynchronousConnectionCommand::ConnectionHandle(void) const
	?ConnectionHandle@CSniffModeCommand@@QBE?AVTHCIConnectionHandle@@XZ @ 531 NONAME ; class THCIConnectionHandle CSniffModeCommand::ConnectionHandle(void) const
	?ConnectionHandle@CWriteAutomaticFlushTimeoutCommand@@QBE?AVTHCIConnectionHandle@@XZ @ 532 NONAME ; class THCIConnectionHandle CWriteAutomaticFlushTimeoutCommand::ConnectionHandle(void) const
	?ConnectionHandle@CWriteLinkPolicySettingsCommand@@QBE?AVTHCIConnectionHandle@@XZ @ 533 NONAME ; class THCIConnectionHandle CWriteLinkPolicySettingsCommand::ConnectionHandle(void) const
	?ConnectionHandle@CWriteLinkSupervisionTimeoutCommand@@QBE?AVTHCIConnectionHandle@@XZ @ 534 NONAME ; class THCIConnectionHandle CWriteLinkSupervisionTimeoutCommand::ConnectionHandle(void) const
	?ConnectionHandle@TAuthenticationCompleteEvent@@QBE?AVTHCIConnectionHandle@@XZ @ 535 NONAME ; class THCIConnectionHandle TAuthenticationCompleteEvent::ConnectionHandle(void) const
	?ConnectionHandle@TChangeLinkKeyEvent@@QBE?AVTHCIConnectionHandle@@XZ @ 536 NONAME ; class THCIConnectionHandle TChangeLinkKeyEvent::ConnectionHandle(void) const
	?ConnectionHandle@TConnectionCompleteEvent@@QBE?AVTHCIConnectionHandle@@XZ @ 537 NONAME ; class THCIConnectionHandle TConnectionCompleteEvent::ConnectionHandle(void) const
	?ConnectionHandle@TConnectionPacketTypeChangedEvent@@QBE?AVTHCIConnectionHandle@@XZ @ 538 NONAME ; class THCIConnectionHandle TConnectionPacketTypeChangedEvent::ConnectionHandle(void) const
	?ConnectionHandle@TDisconnectionCompleteEvent@@QBE?AVTHCIConnectionHandle@@XZ @ 539 NONAME ; class THCIConnectionHandle TDisconnectionCompleteEvent::ConnectionHandle(void) const
	?ConnectionHandle@TEncryptionChangeEvent@@QBE?AVTHCIConnectionHandle@@XZ @ 540 NONAME ; class THCIConnectionHandle TEncryptionChangeEvent::ConnectionHandle(void) const
	?ConnectionHandle@TFlowSpecificationCompleteEvent@@QBE?AVTHCIConnectionHandle@@XZ @ 541 NONAME ; class THCIConnectionHandle TFlowSpecificationCompleteEvent::ConnectionHandle(void) const
	?ConnectionHandle@TFlushCompleteEvent@@QBE?AVTHCIConnectionHandle@@XZ @ 542 NONAME ; class THCIConnectionHandle TFlushCompleteEvent::ConnectionHandle(void) const
	?ConnectionHandle@TFlushOccurredEvent@@QBE?AVTHCIConnectionHandle@@XZ @ 543 NONAME ; class THCIConnectionHandle TFlushOccurredEvent::ConnectionHandle(void) const
	?ConnectionHandle@TMasterLinkKeyEvent@@QBE?AVTHCIConnectionHandle@@XZ @ 544 NONAME ; class THCIConnectionHandle TMasterLinkKeyEvent::ConnectionHandle(void) const
	?ConnectionHandle@TMaxSlotsChangeEvent@@QBE?AVTHCIConnectionHandle@@XZ @ 545 NONAME ; class THCIConnectionHandle TMaxSlotsChangeEvent::ConnectionHandle(void) const
	?ConnectionHandle@TModeChangeEvent@@QBE?AVTHCIConnectionHandle@@XZ @ 546 NONAME ; class THCIConnectionHandle TModeChangeEvent::ConnectionHandle(void) const
	?ConnectionHandle@TNumberOfCompletedPacketsEvent@@QBE?AVTHCIConnectionHandle@@H@Z @ 547 NONAME ; class THCIConnectionHandle TNumberOfCompletedPacketsEvent::ConnectionHandle(int) const
	?ConnectionHandle@TQOSSetupCompleteEvent@@QBE?AVTHCIConnectionHandle@@XZ @ 548 NONAME ; class THCIConnectionHandle TQOSSetupCompleteEvent::ConnectionHandle(void) const
	?ConnectionHandle@TQOSViolationEvent@@QBE?AVTHCIConnectionHandle@@XZ @ 549 NONAME ; class THCIConnectionHandle TQOSViolationEvent::ConnectionHandle(void) const
	?ConnectionHandle@TReadAFHChannelMapCompleteEvent@@QBE?AVTHCIConnectionHandle@@XZ @ 550 NONAME ; class THCIConnectionHandle TReadAFHChannelMapCompleteEvent::ConnectionHandle(void) const
	?ConnectionHandle@TReadAutomaticFlushTimeoutCompleteEvent@@QBE?AVTHCIConnectionHandle@@XZ @ 551 NONAME ; class THCIConnectionHandle TReadAutomaticFlushTimeoutCompleteEvent::ConnectionHandle(void) const
	?ConnectionHandle@TReadClockCompleteEvent@@QBE?AVTHCIConnectionHandle@@XZ @ 552 NONAME ; class THCIConnectionHandle TReadClockCompleteEvent::ConnectionHandle(void) const
	?ConnectionHandle@TReadClockOffsetEvent@@QBE?AVTHCIConnectionHandle@@XZ @ 553 NONAME ; class THCIConnectionHandle TReadClockOffsetEvent::ConnectionHandle(void) const
	?ConnectionHandle@TReadFailedContactCounterCompleteEvent@@QBE?AVTHCIConnectionHandle@@XZ @ 554 NONAME ; class THCIConnectionHandle TReadFailedContactCounterCompleteEvent::ConnectionHandle(void) const
	?ConnectionHandle@TReadLMPHandleCompleteEvent@@QBE?AVTHCIConnectionHandle@@XZ @ 555 NONAME ; class THCIConnectionHandle TReadLMPHandleCompleteEvent::ConnectionHandle(void) const
	?ConnectionHandle@TReadLinkPolicySettingsCompleteEvent@@QBE?AVTHCIConnectionHandle@@XZ @ 556 NONAME ; class THCIConnectionHandle TReadLinkPolicySettingsCompleteEvent::ConnectionHandle(void) const
	?ConnectionHandle@TReadLinkQualityCompleteEvent@@QBE?AVTHCIConnectionHandle@@XZ @ 557 NONAME ; class THCIConnectionHandle TReadLinkQualityCompleteEvent::ConnectionHandle(void) const
	?ConnectionHandle@TReadLinkSupervisionTimeoutCompleteEvent@@QBE?AVTHCIConnectionHandle@@XZ @ 558 NONAME ; class THCIConnectionHandle TReadLinkSupervisionTimeoutCompleteEvent::ConnectionHandle(void) const
	?ConnectionHandle@TReadRSSICompleteEvent@@QBE?AVTHCIConnectionHandle@@XZ @ 559 NONAME ; class THCIConnectionHandle TReadRSSICompleteEvent::ConnectionHandle(void) const
	?ConnectionHandle@TReadRemSuppFeatCompleteEvent@@QBE?AVTHCIConnectionHandle@@XZ @ 560 NONAME ; class THCIConnectionHandle TReadRemSuppFeatCompleteEvent::ConnectionHandle(void) const
	?ConnectionHandle@TReadRemVerInfoCompleteEvent@@QBE?AVTHCIConnectionHandle@@XZ @ 561 NONAME ; class THCIConnectionHandle TReadRemVerInfoCompleteEvent::ConnectionHandle(void) const
	?ConnectionHandle@TReadRemoteExtendedFeaturesCompleteEvent@@QBE?AVTHCIConnectionHandle@@XZ @ 562 NONAME ; class THCIConnectionHandle TReadRemoteExtendedFeaturesCompleteEvent::ConnectionHandle(void) const
	?ConnectionHandle@TReadTransmitPowerLevelCompleteEvent@@QBE?AVTHCIConnectionHandle@@XZ @ 563 NONAME ; class THCIConnectionHandle TReadTransmitPowerLevelCompleteEvent::ConnectionHandle(void) const
	?ConnectionHandle@TResetFailedContactCounterCompleteEvent@@QBE?AVTHCIConnectionHandle@@XZ @ 564 NONAME ; class THCIConnectionHandle TResetFailedContactCounterCompleteEvent::ConnectionHandle(void) const
	?ConnectionHandle@TRoleDiscoveryCompleteEvent@@QBE?AVTHCIConnectionHandle@@XZ @ 565 NONAME ; class THCIConnectionHandle TRoleDiscoveryCompleteEvent::ConnectionHandle(void) const
	?ConnectionHandle@TSynchronousConnectionChangedEvent@@QBE?AVTHCIConnectionHandle@@XZ @ 566 NONAME ; class THCIConnectionHandle TSynchronousConnectionChangedEvent::ConnectionHandle(void) const
	?ConnectionHandle@TSynchronousConnectionCompleteEvent@@QBE?AVTHCIConnectionHandle@@XZ @ 567 NONAME ; class THCIConnectionHandle TSynchronousConnectionCompleteEvent::ConnectionHandle(void) const
	?ConnectionHandle@TWriteAutomaticFlushTimeoutCompleteEvent@@QBE?AVTHCIConnectionHandle@@XZ @ 568 NONAME ; class THCIConnectionHandle TWriteAutomaticFlushTimeoutCompleteEvent::ConnectionHandle(void) const
	?ConnectionHandle@TWriteLinkPolicySettingsCompleteEvent@@QBE?AVTHCIConnectionHandle@@XZ @ 569 NONAME ; class THCIConnectionHandle TWriteLinkPolicySettingsCompleteEvent::ConnectionHandle(void) const
	?ConnectionHandle@TWriteLinkSupervisionTimeoutCompleteEvent@@QBE?AVTHCIConnectionHandle@@XZ @ 570 NONAME ; class THCIConnectionHandle TWriteLinkSupervisionTimeoutCompleteEvent::ConnectionHandle(void) const
	?ContentFormat@CAcceptSynchronousConnectionRequestCommand@@QBEGXZ @ 571 NONAME ; unsigned short CAcceptSynchronousConnectionRequestCommand::ContentFormat(void) const
	?CreateAndSendEvent@THCIEventBase@@SAHABVTDesC8@@AAVMHCICommandEventObserver@@AAVMHCIDataEventObserver@@PAX@Z @ 572 NONAME ; int THCIEventBase::CreateAndSendEvent(class TDesC8 const &, class MHCICommandEventObserver &, class MHCIDataEventObserver &, void *)
	?CreditsConsumed@CHCICommandBase@@QBEIXZ @ 573 NONAME ; unsigned int CHCICommandBase::CreditsConsumed(void) const
	?CurrentMode@TModeChangeEvent@@QBEEXZ @ 574 NONAME ; unsigned char TModeChangeEvent::CurrentMode(void) const
	?CurrentRole@TRoleDiscoveryCompleteEvent@@QBEEXZ @ 575 NONAME ; unsigned char TRoleDiscoveryCompleteEvent::CurrentRole(void) const
	?DefaultLinkPolicySettings@CWriteDefaultLinkPolicySettingsCommand@@QBEGXZ @ 576 NONAME ; unsigned short CWriteDefaultLinkPolicySettingsCommand::DefaultLinkPolicySettings(void) const
	?DefaultLinkPolicySettings@TReadDefaultLinkPolicySettingsCompleteEvent@@QBEGXZ @ 577 NONAME ; unsigned short TReadDefaultLinkPolicySettingsCompleteEvent::DefaultLinkPolicySettings(void) const
	?DelayVariation@CQOSSetupCommand@@QBEKXZ @ 578 NONAME ; unsigned long CQOSSetupCommand::DelayVariation(void) const
	?DelayVariation@TQOSSetupCompleteEvent@@QBEKXZ @ 579 NONAME ; unsigned long TQOSSetupCompleteEvent::DelayVariation(void) const
	?DeleteAllFlag@CDeleteStoredLinkKeyCommand@@QBEEXZ @ 580 NONAME ; unsigned char CDeleteStoredLinkKeyCommand::DeleteAllFlag(void) const
	?EncryptionEnable@CSetConnectionEncryptionCommand@@QBEEXZ @ 581 NONAME ; unsigned char CSetConnectionEncryptionCommand::EncryptionEnable(void) const
	?EncryptionEnable@TEncryptionChangeEvent@@QBEEXZ @ 582 NONAME ; unsigned char TEncryptionChangeEvent::EncryptionEnable(void) const
	?EncryptionMode@CWriteEncryptionModeCommand@@QBEEXZ @ 583 NONAME ; unsigned char CWriteEncryptionModeCommand::EncryptionMode(void) const
	?EncryptionMode@TConnectionCompleteEvent@@QBEEXZ @ 584 NONAME ; unsigned char TConnectionCompleteEvent::EncryptionMode(void) const
	?EncryptionMode@TReadEncryptionModeCompleteEvent@@QBEEXZ @ 585 NONAME ; unsigned char TReadEncryptionModeCompleteEvent::EncryptionMode(void) const
	?ErrorCode@THCIEventBase@@QBE?AW4THCIErrorCode@@XZ @ 586 NONAME ; enum THCIErrorCode THCIEventBase::ErrorCode(void) const
	?EventCode@THCIEventBase@@QBE?AW4THCIEventCode@@XZ @ 587 NONAME ; enum THCIEventCode THCIEventBase::EventCode(void) const
	?EventMask@CSetEventMaskCommand@@QBE?AVTPtrC8@@XZ @ 588 NONAME ; class TPtrC8 CSetEventMaskCommand::EventMask(void) const
	?ExpectsCommandCompleteEvent@CHCICommandBase@@QBEHXZ @ 589 NONAME ; int CHCICommandBase::ExpectsCommandCompleteEvent(void) const
	?ExpectsCommandStatusEvent@CHCICommandBase@@QBEHXZ @ 590 NONAME ; int CHCICommandBase::ExpectsCommandStatusEvent(void) const
	?ExtendedLMPFeatures@TReadLocalExtendedFeaturesCompleteEvent@@QBE_KXZ @ 591 NONAME ; unsigned long long TReadLocalExtendedFeaturesCompleteEvent::ExtendedLMPFeatures(void) const
	?ExtendedLMPFeatures@TReadRemoteExtendedFeaturesCompleteEvent@@QBE_KXZ @ 592 NONAME ; unsigned long long TReadRemoteExtendedFeaturesCompleteEvent::ExtendedLMPFeatures(void) const
	?FailedContactCounter@TReadFailedContactCounterCompleteEvent@@QBEGXZ @ 593 NONAME ; unsigned short TReadFailedContactCounterCompleteEvent::FailedContactCounter(void) const
	?FilterConditionType@CSetEventFilterCommand@@QBEEXZ @ 594 NONAME ; unsigned char CSetEventFilterCommand::FilterConditionType(void) const
	?FilterType@CSetEventFilterCommand@@QBEEXZ @ 595 NONAME ; unsigned char CSetEventFilterCommand::FilterType(void) const
	?Flags@CFlowSpecificationCommand@@QBEEXZ @ 596 NONAME ; unsigned char CFlowSpecificationCommand::Flags(void) const
	?Flags@CQOSSetupCommand@@QBEEXZ @ 597 NONAME ; unsigned char CQOSSetupCommand::Flags(void) const
	?Flags@TFlowSpecificationCompleteEvent@@QBEEXZ @ 598 NONAME ; unsigned char TFlowSpecificationCompleteEvent::Flags(void) const
	?Flags@TQOSSetupCompleteEvent@@QBEEXZ @ 599 NONAME ; unsigned char TQOSSetupCompleteEvent::Flags(void) const
	?FlowControlEnable@CSetControllerToHostFlowControlCommand@@QBEEXZ @ 600 NONAME ; unsigned char CSetControllerToHostFlowControlCommand::FlowControlEnable(void) const
	?FlowDirection@CFlowSpecificationCommand@@QBEEXZ @ 601 NONAME ; unsigned char CFlowSpecificationCommand::FlowDirection(void) const
	?FlowDirection@TFlowSpecificationCompleteEvent@@QBEEXZ @ 602 NONAME ; unsigned char TFlowSpecificationCompleteEvent::FlowDirection(void) const
	?FlushTimeout@CWriteAutomaticFlushTimeoutCommand@@QBEGXZ @ 603 NONAME ; unsigned short CWriteAutomaticFlushTimeoutCommand::FlushTimeout(void) const
	?FlushTimeout@TReadAutomaticFlushTimeoutCompleteEvent@@QBEGXZ @ 604 NONAME ; unsigned short TReadAutomaticFlushTimeoutCompleteEvent::FlushTimeout(void) const
	?FormatCommand@CHCICommandBase@@QAEXAAVCHctlCommandFrame@@@Z @ 605 NONAME ; void CHCICommandBase::FormatCommand(class CHctlCommandFrame &)
	?HCACLDataPacketLength@TReadBufferSizeCompleteEvent@@QBEGXZ @ 606 NONAME ; unsigned short TReadBufferSizeCompleteEvent::HCACLDataPacketLength(void) const
	?HCICommandPacket@TLoopbackCommandEvent@@QBE?AVTPtrC8@@XZ @ 607 NONAME ; class TPtrC8 TLoopbackCommandEvent::HCICommandPacket(void) const
	?HCNumOfCompletedPackets@TNumberOfCompletedPacketsEvent@@QBE?AVTHCINumOfCompletedPackets@@H@Z @ 608 NONAME ; class THCINumOfCompletedPackets TNumberOfCompletedPacketsEvent::HCNumOfCompletedPackets(int) const
	?HCSynchronousDataPacketLength@TReadBufferSizeCompleteEvent@@QBEEXZ @ 609 NONAME ; unsigned char TReadBufferSizeCompleteEvent::HCSynchronousDataPacketLength(void) const
	?HCTotalNumACLDataPackets@TReadBufferSizeCompleteEvent@@QBEGXZ @ 610 NONAME ; unsigned short TReadBufferSizeCompleteEvent::HCTotalNumACLDataPackets(void) const
	?HCTotalNumSynchronousDataPackets@TReadBufferSizeCompleteEvent@@QBEGXZ @ 611 NONAME ; unsigned short TReadBufferSizeCompleteEvent::HCTotalNumSynchronousDataPackets(void) const
	?HardwareCode@THardwareErrorEvent@@QBEEXZ @ 612 NONAME ; unsigned char THardwareErrorEvent::HardwareCode(void) const
	?HoldModeActivity@CWriteHoldModeActivityCommand@@QBEEXZ @ 613 NONAME ; unsigned char CWriteHoldModeActivityCommand::HoldModeActivity(void) const
	?HoldModeActivity@TReadHoldModeActivityCompleteEvent@@QBEEXZ @ 614 NONAME ; unsigned char TReadHoldModeActivityCompleteEvent::HoldModeActivity(void) const
	?HoldModeMaxInterval@CHoldModeCommand@@QBEGXZ @ 615 NONAME ; unsigned short CHoldModeCommand::HoldModeMaxInterval(void) const
	?HoldModeMinInterval@CHoldModeCommand@@QBEGXZ @ 616 NONAME ; unsigned short CHoldModeCommand::HoldModeMinInterval(void) const
	?HostACLDataPacketLength@CHostBufferSizeCommand@@QBEGXZ @ 617 NONAME ; unsigned short CHostBufferSizeCommand::HostACLDataPacketLength(void) const
	?HostNumOfCompletedPackets@CHostNumberOfCompletedPacketsCommand@@QBE?AVTHCINumOfCompletedPackets@@H@Z @ 618 NONAME ; class THCINumOfCompletedPackets CHostNumberOfCompletedPacketsCommand::HostNumOfCompletedPackets(int) const
	?HostSynchronousDataPacketLength@CHostBufferSizeCommand@@QBEEXZ @ 619 NONAME ; unsigned char CHostBufferSizeCommand::HostSynchronousDataPacketLength(void) const
	?HostTotalNumACLDataPackets@CHostBufferSizeCommand@@QBEGXZ @ 620 NONAME ; unsigned short CHostBufferSizeCommand::HostTotalNumACLDataPackets(void) const
	?HostTotalNumSynchronousDataPackets@CHostBufferSizeCommand@@QBEGXZ @ 621 NONAME ; unsigned short CHostBufferSizeCommand::HostTotalNumSynchronousDataPackets(void) const
	?IACLAP@CWriteCurrentIACLAPCommand@@QBEKH@Z @ 622 NONAME ; unsigned long CWriteCurrentIACLAPCommand::IACLAP(int) const
	?IACLAP@TReadCurrentIACLAPCompleteEvent@@QBEKH@Z @ 623 NONAME ; unsigned long TReadCurrentIACLAPCompleteEvent::IACLAP(int) const
	?InquiryLength@CInquiryCommand@@QBEEXZ @ 624 NONAME ; unsigned char CInquiryCommand::InquiryLength(void) const
	?InquiryLength@CPeriodicInquiryModeCommand@@QBEEXZ @ 625 NONAME ; unsigned char CPeriodicInquiryModeCommand::InquiryLength(void) const
	?InquiryMode@CWriteInquiryModeCommand@@QBEEXZ @ 626 NONAME ; unsigned char CWriteInquiryModeCommand::InquiryMode(void) const
	?InquiryMode@TReadInquiryModeCompleteEvent@@QBEEXZ @ 627 NONAME ; unsigned char TReadInquiryModeCompleteEvent::InquiryMode(void) const
	?InquiryScanInterval@CWriteInquiryScanActivityCommand@@QBEGXZ @ 628 NONAME ; unsigned short CWriteInquiryScanActivityCommand::InquiryScanInterval(void) const
	?InquiryScanInterval@TReadInquiryScanActivityCompleteEvent@@QBEGXZ @ 629 NONAME ; unsigned short TReadInquiryScanActivityCompleteEvent::InquiryScanInterval(void) const
	?InquiryScanType@TReadInquiryScanTypeCompleteEvent@@QBEEXZ @ 630 NONAME ; unsigned char TReadInquiryScanTypeCompleteEvent::InquiryScanType(void) const
	?InquiryScanWindow@CWriteInquiryScanActivityCommand@@QBEGXZ @ 631 NONAME ; unsigned short CWriteInquiryScanActivityCommand::InquiryScanWindow(void) const
	?InquiryScanWindow@TReadInquiryScanActivityCompleteEvent@@QBEGXZ @ 632 NONAME ; unsigned short TReadInquiryScanActivityCompleteEvent::InquiryScanWindow(void) const
	?Interval@TModeChangeEvent@@QBEGXZ @ 633 NONAME ; unsigned short TModeChangeEvent::Interval(void) const
	?KeyFlag@CMasterLinkKeyCommand@@QBEEXZ @ 634 NONAME ; unsigned char CMasterLinkKeyCommand::KeyFlag(void) const
	?KeyFlag@TMasterLinkKeyEvent@@QBEEXZ @ 635 NONAME ; unsigned char TMasterLinkKeyEvent::KeyFlag(void) const
	?KeyType@TLinkKeyNotificationEvent@@QBEEXZ @ 636 NONAME ; unsigned char TLinkKeyNotificationEvent::KeyType(void) const
	?LAP@CInquiryCommand@@QBEKXZ @ 637 NONAME ; unsigned long CInquiryCommand::LAP(void) const
	?LAP@CPeriodicInquiryModeCommand@@QBEKXZ @ 638 NONAME ; unsigned long CPeriodicInquiryModeCommand::LAP(void) const
	?LMPFeatures@TReadLocalSupportedFeaturesCompleteEvent@@QBE_KXZ @ 639 NONAME ; unsigned long long TReadLocalSupportedFeaturesCompleteEvent::LMPFeatures(void) const
	?LMPFeatures@TReadRemSuppFeatCompleteEvent@@QBE_KXZ @ 640 NONAME ; unsigned long long TReadRemSuppFeatCompleteEvent::LMPFeatures(void) const
	?LMPHandle@TReadLMPHandleCompleteEvent@@QBEEXZ @ 641 NONAME ; unsigned char TReadLMPHandleCompleteEvent::LMPHandle(void) const
	?LMPMaxSlots@TMaxSlotsChangeEvent@@QBEEXZ @ 642 NONAME ; unsigned char TMaxSlotsChangeEvent::LMPMaxSlots(void) const
	?LMPSubversion@TReadLocalVersionInfoCompleteEvent@@QBEGXZ @ 643 NONAME ; unsigned short TReadLocalVersionInfoCompleteEvent::LMPSubversion(void) const
	?LMPSubversion@TReadRemVerInfoCompleteEvent@@QBEGXZ @ 644 NONAME ; unsigned short TReadRemVerInfoCompleteEvent::LMPSubversion(void) const
	?LMPVersion@TReadLocalVersionInfoCompleteEvent@@QBEEXZ @ 645 NONAME ; unsigned char TReadLocalVersionInfoCompleteEvent::LMPVersion(void) const
	?LMPVersion@TReadRemVerInfoCompleteEvent@@QBEEXZ @ 646 NONAME ; unsigned char TReadRemVerInfoCompleteEvent::LMPVersion(void) const
	?Latency@CQOSSetupCommand@@QBEKXZ @ 647 NONAME ; unsigned long CQOSSetupCommand::Latency(void) const
	?Latency@TQOSSetupCompleteEvent@@QBEKXZ @ 648 NONAME ; unsigned long TQOSSetupCompleteEvent::Latency(void) const
	?LinkKey@CLinkKeyRequestReplyCommand@@QBE?AV?$TPckgBuf@VTLinkKeyV10@@@@XZ @ 649 NONAME ; class TPckgBuf<class TLinkKeyV10> CLinkKeyRequestReplyCommand::LinkKey(void) const
	?LinkKey@CWriteStoredLinkKeyCommand@@QBE?AV?$TPckgBuf@VTLinkKeyV10@@@@H@Z @ 650 NONAME ; class TPckgBuf<class TLinkKeyV10> CWriteStoredLinkKeyCommand::LinkKey(int) const
	?LinkKey@TLinkKeyNotificationEvent@@QBE?AV?$TPckgBuf@VTLinkKeyV10@@@@XZ @ 651 NONAME ; class TPckgBuf<class TLinkKeyV10> TLinkKeyNotificationEvent::LinkKey(void) const
	?LinkKey@TReturnLinkKeysEvent@@QBE?AV?$TPckgBuf@VTLinkKeyV10@@@@H@Z @ 652 NONAME ; class TPckgBuf<class TLinkKeyV10> TReturnLinkKeysEvent::LinkKey(int) const
	?LinkPolicySettings@CWriteLinkPolicySettingsCommand@@QBEGXZ @ 653 NONAME ; unsigned short CWriteLinkPolicySettingsCommand::LinkPolicySettings(void) const
	?LinkPolicySettings@TReadLinkPolicySettingsCompleteEvent@@QBEGXZ @ 654 NONAME ; unsigned short TReadLinkPolicySettingsCompleteEvent::LinkPolicySettings(void) const
	?LinkQuality@TReadLinkQualityCompleteEvent@@QBEEXZ @ 655 NONAME ; unsigned char TReadLinkQualityCompleteEvent::LinkQuality(void) const
	?LinkSupervisionTimeout@CWriteLinkSupervisionTimeoutCommand@@QBEGXZ @ 656 NONAME ; unsigned short CWriteLinkSupervisionTimeoutCommand::LinkSupervisionTimeout(void) const
	?LinkSupervisionTimeout@TReadLinkSupervisionTimeoutCompleteEvent@@QBEGXZ @ 657 NONAME ; unsigned short TReadLinkSupervisionTimeoutCompleteEvent::LinkSupervisionTimeout(void) const
	?LinkType@TConnectionCompleteEvent@@QBEEXZ @ 658 NONAME ; unsigned char TConnectionCompleteEvent::LinkType(void) const
	?LinkType@TConnectionRequestEvent@@QBEEXZ @ 659 NONAME ; unsigned char TConnectionRequestEvent::LinkType(void) const
	?LinkType@TDataBufferOverflowEvent@@QBEEXZ @ 660 NONAME ; unsigned char TDataBufferOverflowEvent::LinkType(void) const
	?LinkType@TSynchronousConnectionCompleteEvent@@QBEEXZ @ 661 NONAME ; unsigned char TSynchronousConnectionCompleteEvent::LinkType(void) const
	?LocalName@CWriteLocalNameCommand@@QBE?AVTPtrC8@@XZ @ 662 NONAME ; class TPtrC8 CWriteLocalNameCommand::LocalName(void) const
	?LocalName@TReadLocalNameCompleteEvent@@QBE?AVTPtrC8@@XZ @ 663 NONAME ; class TPtrC8 TReadLocalNameCompleteEvent::LocalName(void) const
	?LoopbackMode@CWriteLoopbackModeCommand@@QBEEXZ @ 664 NONAME ; unsigned char CWriteLoopbackModeCommand::LoopbackMode(void) const
	?LoopbackMode@TReadLoopbackModeCompleteEvent@@QBEEXZ @ 665 NONAME ; unsigned char TReadLoopbackModeCompleteEvent::LoopbackMode(void) const
	?ManufacturerName@TReadLocalVersionInfoCompleteEvent@@QBEGXZ @ 666 NONAME ; unsigned short TReadLocalVersionInfoCompleteEvent::ManufacturerName(void) const
	?ManufacturerName@TReadRemVerInfoCompleteEvent@@QBEGXZ @ 667 NONAME ; unsigned short TReadRemVerInfoCompleteEvent::ManufacturerName(void) const
	?MaxLatency@CAcceptSynchronousConnectionRequestCommand@@QBEGXZ @ 668 NONAME ; unsigned short CAcceptSynchronousConnectionRequestCommand::MaxLatency(void) const
	?MaxLatency@CSetupSynchronousConnectionCommand@@QBEGXZ @ 669 NONAME ; unsigned short CSetupSynchronousConnectionCommand::MaxLatency(void) const
	?MaxNumKeys@TReadStoredLinkKeyCompleteEvent@@QBEGXZ @ 670 NONAME ; unsigned short TReadStoredLinkKeyCompleteEvent::MaxNumKeys(void) const
	?MaxPeriodLength@CPeriodicInquiryModeCommand@@QBEGXZ @ 671 NONAME ; unsigned short CPeriodicInquiryModeCommand::MaxPeriodLength(void) const
	?MaximumPageNumber@TReadLocalExtendedFeaturesCompleteEvent@@QBEEXZ @ 672 NONAME ; unsigned char TReadLocalExtendedFeaturesCompleteEvent::MaximumPageNumber(void) const
	?MaximumPageNumber@TReadRemoteExtendedFeaturesCompleteEvent@@QBEEXZ @ 673 NONAME ; unsigned char TReadRemoteExtendedFeaturesCompleteEvent::MaximumPageNumber(void) const
	?MinPeriodLength@CPeriodicInquiryModeCommand@@QBEGXZ @ 674 NONAME ; unsigned short CPeriodicInquiryModeCommand::MinPeriodLength(void) const
	?NewL@CAcceptConnectionRequestCommand@@SAPAV1@ABVTBTDevAddr@@E@Z @ 675 NONAME ; class CAcceptConnectionRequestCommand * CAcceptConnectionRequestCommand::NewL(class TBTDevAddr const &, unsigned char)
	?NewL@CAcceptConnectionRequestCommand@@SAPAV1@XZ @ 676 NONAME ; class CAcceptConnectionRequestCommand * CAcceptConnectionRequestCommand::NewL(void)
	?NewL@CAcceptSynchronousConnectionRequestCommand@@SAPAV1@ABVTBTDevAddr@@KKGGEG@Z @ 677 NONAME ; class CAcceptSynchronousConnectionRequestCommand * CAcceptSynchronousConnectionRequestCommand::NewL(class TBTDevAddr const &, unsigned long, unsigned long, unsigned short, unsigned short, unsigned char, unsigned short)
	?NewL@CAcceptSynchronousConnectionRequestCommand@@SAPAV1@XZ @ 678 NONAME ; class CAcceptSynchronousConnectionRequestCommand * CAcceptSynchronousConnectionRequestCommand::NewL(void)
	?NewL@CAddSCOConnectionCommand@@SAPAV1@VTHCIConnectionHandle@@GABVTBTDevAddr@@@Z @ 679 NONAME ; class CAddSCOConnectionCommand * CAddSCOConnectionCommand::NewL(class THCIConnectionHandle, unsigned short, class TBTDevAddr const &)
	?NewL@CAddSCOConnectionCommand@@SAPAV1@XZ @ 680 NONAME ; class CAddSCOConnectionCommand * CAddSCOConnectionCommand::NewL(void)
	?NewL@CAuthenticationRequestedCommand@@SAPAV1@VTHCIConnectionHandle@@@Z @ 681 NONAME ; class CAuthenticationRequestedCommand * CAuthenticationRequestedCommand::NewL(class THCIConnectionHandle)
	?NewL@CAuthenticationRequestedCommand@@SAPAV1@XZ @ 682 NONAME ; class CAuthenticationRequestedCommand * CAuthenticationRequestedCommand::NewL(void)
	?NewL@CChangeConnectionPacketTypeCommand@@SAPAV1@VTHCIConnectionHandle@@G@Z @ 683 NONAME ; class CChangeConnectionPacketTypeCommand * CChangeConnectionPacketTypeCommand::NewL(class THCIConnectionHandle, unsigned short)
	?NewL@CChangeConnectionPacketTypeCommand@@SAPAV1@XZ @ 684 NONAME ; class CChangeConnectionPacketTypeCommand * CChangeConnectionPacketTypeCommand::NewL(void)
	?NewL@CChangeLinkKeyCommand@@SAPAV1@VTHCIConnectionHandle@@@Z @ 685 NONAME ; class CChangeLinkKeyCommand * CChangeLinkKeyCommand::NewL(class THCIConnectionHandle)
	?NewL@CChangeLinkKeyCommand@@SAPAV1@XZ @ 686 NONAME ; class CChangeLinkKeyCommand * CChangeLinkKeyCommand::NewL(void)
	?NewL@CCreateACLConnectionCommand@@SAPAV1@ABVTBTDevAddr@@GVTHCIPageScanRepetitionMode@@VTHCIReservedOctet@@VTHCIClockOffset@@E@Z @ 687 NONAME ; class CCreateACLConnectionCommand * CCreateACLConnectionCommand::NewL(class TBTDevAddr const &, unsigned short, class THCIPageScanRepetitionMode, class THCIReservedOctet, class THCIClockOffset, unsigned char)
	?NewL@CCreateACLConnectionCommand@@SAPAV1@XZ @ 688 NONAME ; class CCreateACLConnectionCommand * CCreateACLConnectionCommand::NewL(void)
	?NewL@CCreateConnectionCancelCommand@@SAPAV1@ABVTBTDevAddr@@@Z @ 689 NONAME ; class CCreateConnectionCancelCommand * CCreateConnectionCancelCommand::NewL(class TBTDevAddr const &)
	?NewL@CCreateConnectionCancelCommand@@SAPAV1@XZ @ 690 NONAME ; class CCreateConnectionCancelCommand * CCreateConnectionCancelCommand::NewL(void)
	?NewL@CCreateNewUnitKeyCommand@@SAPAV1@XZ @ 691 NONAME ; class CCreateNewUnitKeyCommand * CCreateNewUnitKeyCommand::NewL(void)
	?NewL@CDeleteStoredLinkKeyCommand@@SAPAV1@ABVTBTDevAddr@@E@Z @ 692 NONAME ; class CDeleteStoredLinkKeyCommand * CDeleteStoredLinkKeyCommand::NewL(class TBTDevAddr const &, unsigned char)
	?NewL@CDeleteStoredLinkKeyCommand@@SAPAV1@XZ @ 693 NONAME ; class CDeleteStoredLinkKeyCommand * CDeleteStoredLinkKeyCommand::NewL(void)
	?NewL@CDisconnectCommand@@SAPAV1@VTHCIConnectionHandle@@E@Z @ 694 NONAME ; class CDisconnectCommand * CDisconnectCommand::NewL(class THCIConnectionHandle, unsigned char)
	?NewL@CDisconnectCommand@@SAPAV1@XZ @ 695 NONAME ; class CDisconnectCommand * CDisconnectCommand::NewL(void)
	?NewL@CEnableDeviceUnderTestModeCommand@@SAPAV1@XZ @ 696 NONAME ; class CEnableDeviceUnderTestModeCommand * CEnableDeviceUnderTestModeCommand::NewL(void)
	?NewL@CExitParkModeCommand@@SAPAV1@VTHCIConnectionHandle@@@Z @ 697 NONAME ; class CExitParkModeCommand * CExitParkModeCommand::NewL(class THCIConnectionHandle)
	?NewL@CExitParkModeCommand@@SAPAV1@XZ @ 698 NONAME ; class CExitParkModeCommand * CExitParkModeCommand::NewL(void)
	?NewL@CExitPeriodicInquiryModeCommand@@SAPAV1@XZ @ 699 NONAME ; class CExitPeriodicInquiryModeCommand * CExitPeriodicInquiryModeCommand::NewL(void)
	?NewL@CExitSniffModeCommand@@SAPAV1@VTHCIConnectionHandle@@@Z @ 700 NONAME ; class CExitSniffModeCommand * CExitSniffModeCommand::NewL(class THCIConnectionHandle)
	?NewL@CExitSniffModeCommand@@SAPAV1@XZ @ 701 NONAME ; class CExitSniffModeCommand * CExitSniffModeCommand::NewL(void)
	?NewL@CFlowSpecificationCommand@@SAPAV1@VTHCIConnectionHandle@@EEEKKKK@Z @ 702 NONAME ; class CFlowSpecificationCommand * CFlowSpecificationCommand::NewL(class THCIConnectionHandle, unsigned char, unsigned char, unsigned char, unsigned long, unsigned long, unsigned long, unsigned long)
	?NewL@CFlowSpecificationCommand@@SAPAV1@XZ @ 703 NONAME ; class CFlowSpecificationCommand * CFlowSpecificationCommand::NewL(void)
	?NewL@CFlushCommand@@SAPAV1@VTHCIConnectionHandle@@@Z @ 704 NONAME ; class CFlushCommand * CFlushCommand::NewL(class THCIConnectionHandle)
	?NewL@CFlushCommand@@SAPAV1@XZ @ 705 NONAME ; class CFlushCommand * CFlushCommand::NewL(void)
	?NewL@CHoldModeCommand@@SAPAV1@VTHCIConnectionHandle@@GG@Z @ 706 NONAME ; class CHoldModeCommand * CHoldModeCommand::NewL(class THCIConnectionHandle, unsigned short, unsigned short)
	?NewL@CHoldModeCommand@@SAPAV1@XZ @ 707 NONAME ; class CHoldModeCommand * CHoldModeCommand::NewL(void)
	?NewL@CHostBufferSizeCommand@@SAPAV1@GEGG@Z @ 708 NONAME ; class CHostBufferSizeCommand * CHostBufferSizeCommand::NewL(unsigned short, unsigned char, unsigned short, unsigned short)
	?NewL@CHostBufferSizeCommand@@SAPAV1@XZ @ 709 NONAME ; class CHostBufferSizeCommand * CHostBufferSizeCommand::NewL(void)
	?NewL@CHostNumberOfCompletedPacketsCommand@@SAPAV1@EABV?$RArray@VTHCIConnectionHandle@@@@ABV?$RArray@VTHCINumOfCompletedPackets@@@@@Z @ 710 NONAME ; class CHostNumberOfCompletedPacketsCommand * CHostNumberOfCompletedPacketsCommand::NewL(unsigned char, class RArray<class THCIConnectionHandle> const &, class RArray<class THCINumOfCompletedPackets> const &)
	?NewL@CHostNumberOfCompletedPacketsCommand@@SAPAV1@XZ @ 711 NONAME ; class CHostNumberOfCompletedPacketsCommand * CHostNumberOfCompletedPacketsCommand::NewL(void)
	?NewL@CInquiryCancelCommand@@SAPAV1@XZ @ 712 NONAME ; class CInquiryCancelCommand * CInquiryCancelCommand::NewL(void)
	?NewL@CInquiryCommand@@SAPAV1@KEE@Z @ 713 NONAME ; class CInquiryCommand * CInquiryCommand::NewL(unsigned long, unsigned char, unsigned char)
	?NewL@CInquiryCommand@@SAPAV1@XZ @ 714 NONAME ; class CInquiryCommand * CInquiryCommand::NewL(void)
	?NewL@CLinkKeyRequestReplyCommand@@SAPAV1@ABVTBTDevAddr@@ABV?$TPckgBuf@VTLinkKeyV10@@@@@Z @ 715 NONAME ; class CLinkKeyRequestReplyCommand * CLinkKeyRequestReplyCommand::NewL(class TBTDevAddr const &, class TPckgBuf<class TLinkKeyV10> const &)
	?NewL@CLinkKeyRequestReplyCommand@@SAPAV1@XZ @ 716 NONAME ; class CLinkKeyRequestReplyCommand * CLinkKeyRequestReplyCommand::NewL(void)
	?NewL@CLinkKeyRequestReplyNegativeCommand@@SAPAV1@ABVTBTDevAddr@@@Z @ 717 NONAME ; class CLinkKeyRequestReplyNegativeCommand * CLinkKeyRequestReplyNegativeCommand::NewL(class TBTDevAddr const &)
	?NewL@CLinkKeyRequestReplyNegativeCommand@@SAPAV1@XZ @ 718 NONAME ; class CLinkKeyRequestReplyNegativeCommand * CLinkKeyRequestReplyNegativeCommand::NewL(void)
	?NewL@CMasterLinkKeyCommand@@SAPAV1@E@Z @ 719 NONAME ; class CMasterLinkKeyCommand * CMasterLinkKeyCommand::NewL(unsigned char)
	?NewL@CMasterLinkKeyCommand@@SAPAV1@XZ @ 720 NONAME ; class CMasterLinkKeyCommand * CMasterLinkKeyCommand::NewL(void)
	?NewL@CPINCodeRequestReplyCommand@@SAPAV1@ABVTBTDevAddr@@EABVTDesC8@@@Z @ 721 NONAME ; class CPINCodeRequestReplyCommand * CPINCodeRequestReplyCommand::NewL(class TBTDevAddr const &, unsigned char, class TDesC8 const &)
	?NewL@CPINCodeRequestReplyCommand@@SAPAV1@XZ @ 722 NONAME ; class CPINCodeRequestReplyCommand * CPINCodeRequestReplyCommand::NewL(void)
	?NewL@CPINCodeRequestReplyNegativeCommand@@SAPAV1@ABVTBTDevAddr@@@Z @ 723 NONAME ; class CPINCodeRequestReplyNegativeCommand * CPINCodeRequestReplyNegativeCommand::NewL(class TBTDevAddr const &)
	?NewL@CPINCodeRequestReplyNegativeCommand@@SAPAV1@XZ @ 724 NONAME ; class CPINCodeRequestReplyNegativeCommand * CPINCodeRequestReplyNegativeCommand::NewL(void)
	?NewL@CParkModeCommand@@SAPAV1@VTHCIConnectionHandle@@GG@Z @ 725 NONAME ; class CParkModeCommand * CParkModeCommand::NewL(class THCIConnectionHandle, unsigned short, unsigned short)
	?NewL@CParkModeCommand@@SAPAV1@XZ @ 726 NONAME ; class CParkModeCommand * CParkModeCommand::NewL(void)
	?NewL@CPeriodicInquiryModeCommand@@SAPAV1@GGKEE@Z @ 727 NONAME ; class CPeriodicInquiryModeCommand * CPeriodicInquiryModeCommand::NewL(unsigned short, unsigned short, unsigned long, unsigned char, unsigned char)
	?NewL@CPeriodicInquiryModeCommand@@SAPAV1@XZ @ 728 NONAME ; class CPeriodicInquiryModeCommand * CPeriodicInquiryModeCommand::NewL(void)
	?NewL@CQOSSetupCommand@@SAPAV1@VTHCIConnectionHandle@@EEKKKK@Z @ 729 NONAME ; class CQOSSetupCommand * CQOSSetupCommand::NewL(class THCIConnectionHandle, unsigned char, unsigned char, unsigned long, unsigned long, unsigned long, unsigned long)
	?NewL@CQOSSetupCommand@@SAPAV1@XZ @ 730 NONAME ; class CQOSSetupCommand * CQOSSetupCommand::NewL(void)
	?NewL@CReadAFHChannelAssessmentModeCommand@@SAPAV1@XZ @ 731 NONAME ; class CReadAFHChannelAssessmentModeCommand * CReadAFHChannelAssessmentModeCommand::NewL(void)
	?NewL@CReadAFHChannelMapCommand@@SAPAV1@VTHCIConnectionHandle@@@Z @ 732 NONAME ; class CReadAFHChannelMapCommand * CReadAFHChannelMapCommand::NewL(class THCIConnectionHandle)
	?NewL@CReadAFHChannelMapCommand@@SAPAV1@XZ @ 733 NONAME ; class CReadAFHChannelMapCommand * CReadAFHChannelMapCommand::NewL(void)
	?NewL@CReadAuthenticationEnableCommand@@SAPAV1@XZ @ 734 NONAME ; class CReadAuthenticationEnableCommand * CReadAuthenticationEnableCommand::NewL(void)
	?NewL@CReadAutomaticFlushTimeoutCommand@@SAPAV1@VTHCIConnectionHandle@@@Z @ 735 NONAME ; class CReadAutomaticFlushTimeoutCommand * CReadAutomaticFlushTimeoutCommand::NewL(class THCIConnectionHandle)
	?NewL@CReadAutomaticFlushTimeoutCommand@@SAPAV1@XZ @ 736 NONAME ; class CReadAutomaticFlushTimeoutCommand * CReadAutomaticFlushTimeoutCommand::NewL(void)
	?NewL@CReadBdaddrCommand@@SAPAV1@XZ @ 737 NONAME ; class CReadBdaddrCommand * CReadBdaddrCommand::NewL(void)
	?NewL@CReadBufferSizeCommand@@SAPAV1@XZ @ 738 NONAME ; class CReadBufferSizeCommand * CReadBufferSizeCommand::NewL(void)
	?NewL@CReadClassOfDeviceCommand@@SAPAV1@XZ @ 739 NONAME ; class CReadClassOfDeviceCommand * CReadClassOfDeviceCommand::NewL(void)
	?NewL@CReadClockCommand@@SAPAV1@VTHCIConnectionHandle@@E@Z @ 740 NONAME ; class CReadClockCommand * CReadClockCommand::NewL(class THCIConnectionHandle, unsigned char)
	?NewL@CReadClockCommand@@SAPAV1@XZ @ 741 NONAME ; class CReadClockCommand * CReadClockCommand::NewL(void)
	?NewL@CReadClockOffsetCommand@@SAPAV1@VTHCIConnectionHandle@@@Z @ 742 NONAME ; class CReadClockOffsetCommand * CReadClockOffsetCommand::NewL(class THCIConnectionHandle)
	?NewL@CReadClockOffsetCommand@@SAPAV1@XZ @ 743 NONAME ; class CReadClockOffsetCommand * CReadClockOffsetCommand::NewL(void)
	?NewL@CReadConnectionAcceptTimeoutCommand@@SAPAV1@XZ @ 744 NONAME ; class CReadConnectionAcceptTimeoutCommand * CReadConnectionAcceptTimeoutCommand::NewL(void)
	?NewL@CReadCurrentIACLAPCommand@@SAPAV1@XZ @ 745 NONAME ; class CReadCurrentIACLAPCommand * CReadCurrentIACLAPCommand::NewL(void)
	?NewL@CReadDefaultLinkPolicySettingsCommand@@SAPAV1@XZ @ 746 NONAME ; class CReadDefaultLinkPolicySettingsCommand * CReadDefaultLinkPolicySettingsCommand::NewL(void)
	?NewL@CReadEncryptionModeCommand@@SAPAV1@XZ @ 747 NONAME ; class CReadEncryptionModeCommand * CReadEncryptionModeCommand::NewL(void)
	?NewL@CReadFailedContactCounterCommand@@SAPAV1@VTHCIConnectionHandle@@@Z @ 748 NONAME ; class CReadFailedContactCounterCommand * CReadFailedContactCounterCommand::NewL(class THCIConnectionHandle)
	?NewL@CReadFailedContactCounterCommand@@SAPAV1@XZ @ 749 NONAME ; class CReadFailedContactCounterCommand * CReadFailedContactCounterCommand::NewL(void)
	?NewL@CReadHoldModeActivityCommand@@SAPAV1@XZ @ 750 NONAME ; class CReadHoldModeActivityCommand * CReadHoldModeActivityCommand::NewL(void)
	?NewL@CReadInquiryModeCommand@@SAPAV1@XZ @ 751 NONAME ; class CReadInquiryModeCommand * CReadInquiryModeCommand::NewL(void)
	?NewL@CReadInquiryScanActivityCommand@@SAPAV1@XZ @ 752 NONAME ; class CReadInquiryScanActivityCommand * CReadInquiryScanActivityCommand::NewL(void)
	?NewL@CReadInquiryScanTypeCommand@@SAPAV1@XZ @ 753 NONAME ; class CReadInquiryScanTypeCommand * CReadInquiryScanTypeCommand::NewL(void)
	?NewL@CReadLMPHandleCommand@@SAPAV1@VTHCIConnectionHandle@@@Z @ 754 NONAME ; class CReadLMPHandleCommand * CReadLMPHandleCommand::NewL(class THCIConnectionHandle)
	?NewL@CReadLMPHandleCommand@@SAPAV1@XZ @ 755 NONAME ; class CReadLMPHandleCommand * CReadLMPHandleCommand::NewL(void)
	?NewL@CReadLinkPolicySettingsCommand@@SAPAV1@VTHCIConnectionHandle@@@Z @ 756 NONAME ; class CReadLinkPolicySettingsCommand * CReadLinkPolicySettingsCommand::NewL(class THCIConnectionHandle)
	?NewL@CReadLinkPolicySettingsCommand@@SAPAV1@XZ @ 757 NONAME ; class CReadLinkPolicySettingsCommand * CReadLinkPolicySettingsCommand::NewL(void)
	?NewL@CReadLinkQualityCommand@@SAPAV1@VTHCIConnectionHandle@@@Z @ 758 NONAME ; class CReadLinkQualityCommand * CReadLinkQualityCommand::NewL(class THCIConnectionHandle)
	?NewL@CReadLinkQualityCommand@@SAPAV1@XZ @ 759 NONAME ; class CReadLinkQualityCommand * CReadLinkQualityCommand::NewL(void)
	?NewL@CReadLinkSupervisionTimeoutCommand@@SAPAV1@VTHCIConnectionHandle@@@Z @ 760 NONAME ; class CReadLinkSupervisionTimeoutCommand * CReadLinkSupervisionTimeoutCommand::NewL(class THCIConnectionHandle)
	?NewL@CReadLinkSupervisionTimeoutCommand@@SAPAV1@XZ @ 761 NONAME ; class CReadLinkSupervisionTimeoutCommand * CReadLinkSupervisionTimeoutCommand::NewL(void)
	?NewL@CReadLocalExtendedFeaturesCommand@@SAPAV1@E@Z @ 762 NONAME ; class CReadLocalExtendedFeaturesCommand * CReadLocalExtendedFeaturesCommand::NewL(unsigned char)
	?NewL@CReadLocalExtendedFeaturesCommand@@SAPAV1@XZ @ 763 NONAME ; class CReadLocalExtendedFeaturesCommand * CReadLocalExtendedFeaturesCommand::NewL(void)
	?NewL@CReadLocalNameCommand@@SAPAV1@XZ @ 764 NONAME ; class CReadLocalNameCommand * CReadLocalNameCommand::NewL(void)
	?NewL@CReadLocalSupportedCommandsCommand@@SAPAV1@XZ @ 765 NONAME ; class CReadLocalSupportedCommandsCommand * CReadLocalSupportedCommandsCommand::NewL(void)
	?NewL@CReadLocalSupportedFeaturesCommand@@SAPAV1@XZ @ 766 NONAME ; class CReadLocalSupportedFeaturesCommand * CReadLocalSupportedFeaturesCommand::NewL(void)
	?NewL@CReadLocalVersionInfoCommand@@SAPAV1@XZ @ 767 NONAME ; class CReadLocalVersionInfoCommand * CReadLocalVersionInfoCommand::NewL(void)
	?NewL@CReadLoopbackModeCommand@@SAPAV1@XZ @ 768 NONAME ; class CReadLoopbackModeCommand * CReadLoopbackModeCommand::NewL(void)
	?NewL@CReadNumBroadcastRetransmissionsCommand@@SAPAV1@XZ @ 769 NONAME ; class CReadNumBroadcastRetransmissionsCommand * CReadNumBroadcastRetransmissionsCommand::NewL(void)
	?NewL@CReadNumberOfSupportedIACCommand@@SAPAV1@XZ @ 770 NONAME ; class CReadNumberOfSupportedIACCommand * CReadNumberOfSupportedIACCommand::NewL(void)
	?NewL@CReadPINTypeCommand@@SAPAV1@XZ @ 771 NONAME ; class CReadPINTypeCommand * CReadPINTypeCommand::NewL(void)
	?NewL@CReadPageScanActivityCommand@@SAPAV1@XZ @ 772 NONAME ; class CReadPageScanActivityCommand * CReadPageScanActivityCommand::NewL(void)
	?NewL@CReadPageScanPeriodCommand@@SAPAV1@XZ @ 773 NONAME ; class CReadPageScanPeriodCommand * CReadPageScanPeriodCommand::NewL(void)
	?NewL@CReadPageScanTypeCommand@@SAPAV1@XZ @ 774 NONAME ; class CReadPageScanTypeCommand * CReadPageScanTypeCommand::NewL(void)
	?NewL@CReadPageTimeoutCommand@@SAPAV1@XZ @ 775 NONAME ; class CReadPageTimeoutCommand * CReadPageTimeoutCommand::NewL(void)
	?NewL@CReadRSSICommand@@SAPAV1@VTHCIConnectionHandle@@@Z @ 776 NONAME ; class CReadRSSICommand * CReadRSSICommand::NewL(class THCIConnectionHandle)
	?NewL@CReadRSSICommand@@SAPAV1@XZ @ 777 NONAME ; class CReadRSSICommand * CReadRSSICommand::NewL(void)
	?NewL@CReadRemoteExtendedFeaturesCommand@@SAPAV1@VTHCIConnectionHandle@@E@Z @ 778 NONAME ; class CReadRemoteExtendedFeaturesCommand * CReadRemoteExtendedFeaturesCommand::NewL(class THCIConnectionHandle, unsigned char)
	?NewL@CReadRemoteExtendedFeaturesCommand@@SAPAV1@XZ @ 779 NONAME ; class CReadRemoteExtendedFeaturesCommand * CReadRemoteExtendedFeaturesCommand::NewL(void)
	?NewL@CReadRemoteSupportedFeaturesCommand@@SAPAV1@VTHCIConnectionHandle@@@Z @ 780 NONAME ; class CReadRemoteSupportedFeaturesCommand * CReadRemoteSupportedFeaturesCommand::NewL(class THCIConnectionHandle)
	?NewL@CReadRemoteSupportedFeaturesCommand@@SAPAV1@XZ @ 781 NONAME ; class CReadRemoteSupportedFeaturesCommand * CReadRemoteSupportedFeaturesCommand::NewL(void)
	?NewL@CReadRemoteVersionInfoCommand@@SAPAV1@VTHCIConnectionHandle@@@Z @ 782 NONAME ; class CReadRemoteVersionInfoCommand * CReadRemoteVersionInfoCommand::NewL(class THCIConnectionHandle)
	?NewL@CReadRemoteVersionInfoCommand@@SAPAV1@XZ @ 783 NONAME ; class CReadRemoteVersionInfoCommand * CReadRemoteVersionInfoCommand::NewL(void)
	?NewL@CReadScanEnableCommand@@SAPAV1@XZ @ 784 NONAME ; class CReadScanEnableCommand * CReadScanEnableCommand::NewL(void)
	?NewL@CReadStoredLinkKeyCommand@@SAPAV1@ABVTBTDevAddr@@E@Z @ 785 NONAME ; class CReadStoredLinkKeyCommand * CReadStoredLinkKeyCommand::NewL(class TBTDevAddr const &, unsigned char)
	?NewL@CReadStoredLinkKeyCommand@@SAPAV1@XZ @ 786 NONAME ; class CReadStoredLinkKeyCommand * CReadStoredLinkKeyCommand::NewL(void)
	?NewL@CReadSynchronousFlowControlEnableCommand@@SAPAV1@XZ @ 787 NONAME ; class CReadSynchronousFlowControlEnableCommand * CReadSynchronousFlowControlEnableCommand::NewL(void)
	?NewL@CReadTransmitPowerLevelCommand@@SAPAV1@VTHCIConnectionHandle@@E@Z @ 788 NONAME ; class CReadTransmitPowerLevelCommand * CReadTransmitPowerLevelCommand::NewL(class THCIConnectionHandle, unsigned char)
	?NewL@CReadTransmitPowerLevelCommand@@SAPAV1@XZ @ 789 NONAME ; class CReadTransmitPowerLevelCommand * CReadTransmitPowerLevelCommand::NewL(void)
	?NewL@CReadVoiceSettingCommand@@SAPAV1@XZ @ 790 NONAME ; class CReadVoiceSettingCommand * CReadVoiceSettingCommand::NewL(void)
	?NewL@CRejectConnectionRequestCommand@@SAPAV1@ABVTBTDevAddr@@E@Z @ 791 NONAME ; class CRejectConnectionRequestCommand * CRejectConnectionRequestCommand::NewL(class TBTDevAddr const &, unsigned char)
	?NewL@CRejectConnectionRequestCommand@@SAPAV1@XZ @ 792 NONAME ; class CRejectConnectionRequestCommand * CRejectConnectionRequestCommand::NewL(void)
	?NewL@CRejectSynchronousConnectionRequestCommand@@SAPAV1@ABVTBTDevAddr@@E@Z @ 793 NONAME ; class CRejectSynchronousConnectionRequestCommand * CRejectSynchronousConnectionRequestCommand::NewL(class TBTDevAddr const &, unsigned char)
	?NewL@CRejectSynchronousConnectionRequestCommand@@SAPAV1@XZ @ 794 NONAME ; class CRejectSynchronousConnectionRequestCommand * CRejectSynchronousConnectionRequestCommand::NewL(void)
	?NewL@CRemoteNameRequestCancelCommand@@SAPAV1@ABVTBTDevAddr@@@Z @ 795 NONAME ; class CRemoteNameRequestCancelCommand * CRemoteNameRequestCancelCommand::NewL(class TBTDevAddr const &)
	?NewL@CRemoteNameRequestCancelCommand@@SAPAV1@XZ @ 796 NONAME ; class CRemoteNameRequestCancelCommand * CRemoteNameRequestCancelCommand::NewL(void)
	?NewL@CRemoteNameRequestCommand@@SAPAV1@ABVTBTDevAddr@@VTHCIPageScanRepetitionMode@@VTHCIReservedOctet@@VTHCIClockOffset@@@Z @ 797 NONAME ; class CRemoteNameRequestCommand * CRemoteNameRequestCommand::NewL(class TBTDevAddr const &, class THCIPageScanRepetitionMode, class THCIReservedOctet, class THCIClockOffset)
	?NewL@CRemoteNameRequestCommand@@SAPAV1@XZ @ 798 NONAME ; class CRemoteNameRequestCommand * CRemoteNameRequestCommand::NewL(void)
	?NewL@CResetCommand@@SAPAV1@XZ @ 799 NONAME ; class CResetCommand * CResetCommand::NewL(void)
	?NewL@CResetFailedContactCounterCommand@@SAPAV1@VTHCIConnectionHandle@@@Z @ 800 NONAME ; class CResetFailedContactCounterCommand * CResetFailedContactCounterCommand::NewL(class THCIConnectionHandle)
	?NewL@CResetFailedContactCounterCommand@@SAPAV1@XZ @ 801 NONAME ; class CResetFailedContactCounterCommand * CResetFailedContactCounterCommand::NewL(void)
	?NewL@CRoleDiscoveryCommand@@SAPAV1@VTHCIConnectionHandle@@@Z @ 802 NONAME ; class CRoleDiscoveryCommand * CRoleDiscoveryCommand::NewL(class THCIConnectionHandle)
	?NewL@CRoleDiscoveryCommand@@SAPAV1@XZ @ 803 NONAME ; class CRoleDiscoveryCommand * CRoleDiscoveryCommand::NewL(void)
	?NewL@CSetAFHHostChannelClassificationCommand@@SAPAV1@ABVTDesC8@@@Z @ 804 NONAME ; class CSetAFHHostChannelClassificationCommand * CSetAFHHostChannelClassificationCommand::NewL(class TDesC8 const &)
	?NewL@CSetAFHHostChannelClassificationCommand@@SAPAV1@XZ @ 805 NONAME ; class CSetAFHHostChannelClassificationCommand * CSetAFHHostChannelClassificationCommand::NewL(void)
	?NewL@CSetConnectionEncryptionCommand@@SAPAV1@VTHCIConnectionHandle@@E@Z @ 806 NONAME ; class CSetConnectionEncryptionCommand * CSetConnectionEncryptionCommand::NewL(class THCIConnectionHandle, unsigned char)
	?NewL@CSetConnectionEncryptionCommand@@SAPAV1@XZ @ 807 NONAME ; class CSetConnectionEncryptionCommand * CSetConnectionEncryptionCommand::NewL(void)
	?NewL@CSetControllerToHostFlowControlCommand@@SAPAV1@E@Z @ 808 NONAME ; class CSetControllerToHostFlowControlCommand * CSetControllerToHostFlowControlCommand::NewL(unsigned char)
	?NewL@CSetControllerToHostFlowControlCommand@@SAPAV1@XZ @ 809 NONAME ; class CSetControllerToHostFlowControlCommand * CSetControllerToHostFlowControlCommand::NewL(void)
	?NewL@CSetEventFilterCommand@@SAPAV1@EEABVTDesC8@@@Z @ 810 NONAME ; class CSetEventFilterCommand * CSetEventFilterCommand::NewL(unsigned char, unsigned char, class TDesC8 const &)
	?NewL@CSetEventFilterCommand@@SAPAV1@XZ @ 811 NONAME ; class CSetEventFilterCommand * CSetEventFilterCommand::NewL(void)
	?NewL@CSetEventMaskCommand@@SAPAV1@ABVTDesC8@@@Z @ 812 NONAME ; class CSetEventMaskCommand * CSetEventMaskCommand::NewL(class TDesC8 const &)
	?NewL@CSetEventMaskCommand@@SAPAV1@XZ @ 813 NONAME ; class CSetEventMaskCommand * CSetEventMaskCommand::NewL(void)
	?NewL@CSetupSynchronousConnectionCommand@@SAPAV1@VTHCIConnectionHandle@@KKGGEGABVTBTDevAddr@@@Z @ 814 NONAME ; class CSetupSynchronousConnectionCommand * CSetupSynchronousConnectionCommand::NewL(class THCIConnectionHandle, unsigned long, unsigned long, unsigned short, unsigned short, unsigned char, unsigned short, class TBTDevAddr const &)
	?NewL@CSetupSynchronousConnectionCommand@@SAPAV1@XZ @ 815 NONAME ; class CSetupSynchronousConnectionCommand * CSetupSynchronousConnectionCommand::NewL(void)
	?NewL@CSniffModeCommand@@SAPAV1@VTHCIConnectionHandle@@GGGG@Z @ 816 NONAME ; class CSniffModeCommand * CSniffModeCommand::NewL(class THCIConnectionHandle, unsigned short, unsigned short, unsigned short, unsigned short)
	?NewL@CSniffModeCommand@@SAPAV1@XZ @ 817 NONAME ; class CSniffModeCommand * CSniffModeCommand::NewL(void)
	?NewL@CSwitchRoleCommand@@SAPAV1@ABVTBTDevAddr@@E@Z @ 818 NONAME ; class CSwitchRoleCommand * CSwitchRoleCommand::NewL(class TBTDevAddr const &, unsigned char)
	?NewL@CSwitchRoleCommand@@SAPAV1@XZ @ 819 NONAME ; class CSwitchRoleCommand * CSwitchRoleCommand::NewL(void)
	?NewL@CVendorDebugCommand@@SAPAV1@G@Z @ 820 NONAME ; class CVendorDebugCommand * CVendorDebugCommand::NewL(unsigned short)
	?NewL@CWriteAFHChannelAssessmentModeCommand@@SAPAV1@E@Z @ 821 NONAME ; class CWriteAFHChannelAssessmentModeCommand * CWriteAFHChannelAssessmentModeCommand::NewL(unsigned char)
	?NewL@CWriteAFHChannelAssessmentModeCommand@@SAPAV1@XZ @ 822 NONAME ; class CWriteAFHChannelAssessmentModeCommand * CWriteAFHChannelAssessmentModeCommand::NewL(void)
	?NewL@CWriteAuthenticationEnableCommand@@SAPAV1@E@Z @ 823 NONAME ; class CWriteAuthenticationEnableCommand * CWriteAuthenticationEnableCommand::NewL(unsigned char)
	?NewL@CWriteAuthenticationEnableCommand@@SAPAV1@XZ @ 824 NONAME ; class CWriteAuthenticationEnableCommand * CWriteAuthenticationEnableCommand::NewL(void)
	?NewL@CWriteAutomaticFlushTimeoutCommand@@SAPAV1@VTHCIConnectionHandle@@G@Z @ 825 NONAME ; class CWriteAutomaticFlushTimeoutCommand * CWriteAutomaticFlushTimeoutCommand::NewL(class THCIConnectionHandle, unsigned short)
	?NewL@CWriteAutomaticFlushTimeoutCommand@@SAPAV1@XZ @ 826 NONAME ; class CWriteAutomaticFlushTimeoutCommand * CWriteAutomaticFlushTimeoutCommand::NewL(void)
	?NewL@CWriteClassOfDeviceCommand@@SAPAV1@K@Z @ 827 NONAME ; class CWriteClassOfDeviceCommand * CWriteClassOfDeviceCommand::NewL(unsigned long)
	?NewL@CWriteClassOfDeviceCommand@@SAPAV1@XZ @ 828 NONAME ; class CWriteClassOfDeviceCommand * CWriteClassOfDeviceCommand::NewL(void)
	?NewL@CWriteConnectionAcceptTimeoutCommand@@SAPAV1@G@Z @ 829 NONAME ; class CWriteConnectionAcceptTimeoutCommand * CWriteConnectionAcceptTimeoutCommand::NewL(unsigned short)
	?NewL@CWriteConnectionAcceptTimeoutCommand@@SAPAV1@XZ @ 830 NONAME ; class CWriteConnectionAcceptTimeoutCommand * CWriteConnectionAcceptTimeoutCommand::NewL(void)
	?NewL@CWriteCurrentIACLAPCommand@@SAPAV1@EABV?$RArray@K@@@Z @ 831 NONAME ; class CWriteCurrentIACLAPCommand * CWriteCurrentIACLAPCommand::NewL(unsigned char, class RArray<unsigned long> const &)
	?NewL@CWriteCurrentIACLAPCommand@@SAPAV1@XZ @ 832 NONAME ; class CWriteCurrentIACLAPCommand * CWriteCurrentIACLAPCommand::NewL(void)
	?NewL@CWriteDefaultLinkPolicySettingsCommand@@SAPAV1@G@Z @ 833 NONAME ; class CWriteDefaultLinkPolicySettingsCommand * CWriteDefaultLinkPolicySettingsCommand::NewL(unsigned short)
	?NewL@CWriteDefaultLinkPolicySettingsCommand@@SAPAV1@XZ @ 834 NONAME ; class CWriteDefaultLinkPolicySettingsCommand * CWriteDefaultLinkPolicySettingsCommand::NewL(void)
	?NewL@CWriteEncryptionModeCommand@@SAPAV1@E@Z @ 835 NONAME ; class CWriteEncryptionModeCommand * CWriteEncryptionModeCommand::NewL(unsigned char)
	?NewL@CWriteEncryptionModeCommand@@SAPAV1@XZ @ 836 NONAME ; class CWriteEncryptionModeCommand * CWriteEncryptionModeCommand::NewL(void)
	?NewL@CWriteHoldModeActivityCommand@@SAPAV1@E@Z @ 837 NONAME ; class CWriteHoldModeActivityCommand * CWriteHoldModeActivityCommand::NewL(unsigned char)
	?NewL@CWriteHoldModeActivityCommand@@SAPAV1@XZ @ 838 NONAME ; class CWriteHoldModeActivityCommand * CWriteHoldModeActivityCommand::NewL(void)
	?NewL@CWriteInquiryModeCommand@@SAPAV1@E@Z @ 839 NONAME ; class CWriteInquiryModeCommand * CWriteInquiryModeCommand::NewL(unsigned char)
	?NewL@CWriteInquiryModeCommand@@SAPAV1@XZ @ 840 NONAME ; class CWriteInquiryModeCommand * CWriteInquiryModeCommand::NewL(void)
	?NewL@CWriteInquiryScanActivityCommand@@SAPAV1@GG@Z @ 841 NONAME ; class CWriteInquiryScanActivityCommand * CWriteInquiryScanActivityCommand::NewL(unsigned short, unsigned short)
	?NewL@CWriteInquiryScanActivityCommand@@SAPAV1@XZ @ 842 NONAME ; class CWriteInquiryScanActivityCommand * CWriteInquiryScanActivityCommand::NewL(void)
	?NewL@CWriteInquiryScanTypeCommand@@SAPAV1@E@Z @ 843 NONAME ; class CWriteInquiryScanTypeCommand * CWriteInquiryScanTypeCommand::NewL(unsigned char)
	?NewL@CWriteInquiryScanTypeCommand@@SAPAV1@XZ @ 844 NONAME ; class CWriteInquiryScanTypeCommand * CWriteInquiryScanTypeCommand::NewL(void)
	?NewL@CWriteLinkPolicySettingsCommand@@SAPAV1@VTHCIConnectionHandle@@G@Z @ 845 NONAME ; class CWriteLinkPolicySettingsCommand * CWriteLinkPolicySettingsCommand::NewL(class THCIConnectionHandle, unsigned short)
	?NewL@CWriteLinkPolicySettingsCommand@@SAPAV1@XZ @ 846 NONAME ; class CWriteLinkPolicySettingsCommand * CWriteLinkPolicySettingsCommand::NewL(void)
	?NewL@CWriteLinkSupervisionTimeoutCommand@@SAPAV1@VTHCIConnectionHandle@@G@Z @ 847 NONAME ; class CWriteLinkSupervisionTimeoutCommand * CWriteLinkSupervisionTimeoutCommand::NewL(class THCIConnectionHandle, unsigned short)
	?NewL@CWriteLinkSupervisionTimeoutCommand@@SAPAV1@XZ @ 848 NONAME ; class CWriteLinkSupervisionTimeoutCommand * CWriteLinkSupervisionTimeoutCommand::NewL(void)
	?NewL@CWriteLocalNameCommand@@SAPAV1@ABVTDesC8@@@Z @ 849 NONAME ; class CWriteLocalNameCommand * CWriteLocalNameCommand::NewL(class TDesC8 const &)
	?NewL@CWriteLocalNameCommand@@SAPAV1@XZ @ 850 NONAME ; class CWriteLocalNameCommand * CWriteLocalNameCommand::NewL(void)
	?NewL@CWriteLoopbackModeCommand@@SAPAV1@E@Z @ 851 NONAME ; class CWriteLoopbackModeCommand * CWriteLoopbackModeCommand::NewL(unsigned char)
	?NewL@CWriteLoopbackModeCommand@@SAPAV1@XZ @ 852 NONAME ; class CWriteLoopbackModeCommand * CWriteLoopbackModeCommand::NewL(void)
	?NewL@CWriteNumBroadcastRetransmissionsCommand@@SAPAV1@E@Z @ 853 NONAME ; class CWriteNumBroadcastRetransmissionsCommand * CWriteNumBroadcastRetransmissionsCommand::NewL(unsigned char)
	?NewL@CWriteNumBroadcastRetransmissionsCommand@@SAPAV1@XZ @ 854 NONAME ; class CWriteNumBroadcastRetransmissionsCommand * CWriteNumBroadcastRetransmissionsCommand::NewL(void)
	?NewL@CWritePINTypeCommand@@SAPAV1@E@Z @ 855 NONAME ; class CWritePINTypeCommand * CWritePINTypeCommand::NewL(unsigned char)
	?NewL@CWritePINTypeCommand@@SAPAV1@XZ @ 856 NONAME ; class CWritePINTypeCommand * CWritePINTypeCommand::NewL(void)
	?NewL@CWritePageScanActivityCommand@@SAPAV1@GG@Z @ 857 NONAME ; class CWritePageScanActivityCommand * CWritePageScanActivityCommand::NewL(unsigned short, unsigned short)
	?NewL@CWritePageScanActivityCommand@@SAPAV1@XZ @ 858 NONAME ; class CWritePageScanActivityCommand * CWritePageScanActivityCommand::NewL(void)
	?NewL@CWritePageScanPeriodCommand@@SAPAV1@E@Z @ 859 NONAME ; class CWritePageScanPeriodCommand * CWritePageScanPeriodCommand::NewL(unsigned char)
	?NewL@CWritePageScanPeriodCommand@@SAPAV1@XZ @ 860 NONAME ; class CWritePageScanPeriodCommand * CWritePageScanPeriodCommand::NewL(void)
	?NewL@CWritePageScanTypeCommand@@SAPAV1@E@Z @ 861 NONAME ; class CWritePageScanTypeCommand * CWritePageScanTypeCommand::NewL(unsigned char)
	?NewL@CWritePageScanTypeCommand@@SAPAV1@XZ @ 862 NONAME ; class CWritePageScanTypeCommand * CWritePageScanTypeCommand::NewL(void)
	?NewL@CWritePageTimeoutCommand@@SAPAV1@G@Z @ 863 NONAME ; class CWritePageTimeoutCommand * CWritePageTimeoutCommand::NewL(unsigned short)
	?NewL@CWritePageTimeoutCommand@@SAPAV1@XZ @ 864 NONAME ; class CWritePageTimeoutCommand * CWritePageTimeoutCommand::NewL(void)
	?NewL@CWriteScanEnableCommand@@SAPAV1@E@Z @ 865 NONAME ; class CWriteScanEnableCommand * CWriteScanEnableCommand::NewL(unsigned char)
	?NewL@CWriteScanEnableCommand@@SAPAV1@XZ @ 866 NONAME ; class CWriteScanEnableCommand * CWriteScanEnableCommand::NewL(void)
	?NewL@CWriteStoredLinkKeyCommand@@SAPAV1@EABV?$RArray@VTBTDevAddr@@@@ABV?$RArray@V?$TPckgBuf@VTLinkKeyV10@@@@@@@Z @ 867 NONAME ; class CWriteStoredLinkKeyCommand * CWriteStoredLinkKeyCommand::NewL(unsigned char, class RArray<class TBTDevAddr> const &, class RArray<class TPckgBuf<class TLinkKeyV10> > const &)
	?NewL@CWriteStoredLinkKeyCommand@@SAPAV1@XZ @ 868 NONAME ; class CWriteStoredLinkKeyCommand * CWriteStoredLinkKeyCommand::NewL(void)
	?NewL@CWriteSynchronousFlowControlEnableCommand@@SAPAV1@E@Z @ 869 NONAME ; class CWriteSynchronousFlowControlEnableCommand * CWriteSynchronousFlowControlEnableCommand::NewL(unsigned char)
	?NewL@CWriteSynchronousFlowControlEnableCommand@@SAPAV1@XZ @ 870 NONAME ; class CWriteSynchronousFlowControlEnableCommand * CWriteSynchronousFlowControlEnableCommand::NewL(void)
	?NewL@CWriteVoiceSettingCommand@@SAPAV1@G@Z @ 871 NONAME ; class CWriteVoiceSettingCommand * CWriteVoiceSettingCommand::NewL(unsigned short)
	?NewL@CWriteVoiceSettingCommand@@SAPAV1@XZ @ 872 NONAME ; class CWriteVoiceSettingCommand * CWriteVoiceSettingCommand::NewL(void)
	?Newrole@TRoleChangeEvent@@QBEEXZ @ 873 NONAME ; unsigned char TRoleChangeEvent::Newrole(void) const
	?NumBroadcastRetransmissions@CWriteNumBroadcastRetransmissionsCommand@@QBEEXZ @ 874 NONAME ; unsigned char CWriteNumBroadcastRetransmissionsCommand::NumBroadcastRetransmissions(void) const
	?NumBroadcastRetransmissions@TReadNumBroadcastRetransmissionsCompleteEvent@@QBEEXZ @ 875 NONAME ; unsigned char TReadNumBroadcastRetransmissionsCompleteEvent::NumBroadcastRetransmissions(void) const
	?NumCurrentIAC@CWriteCurrentIACLAPCommand@@QBEEXZ @ 876 NONAME ; unsigned char CWriteCurrentIACLAPCommand::NumCurrentIAC(void) const
	?NumCurrentIAC@TReadCurrentIACLAPCompleteEvent@@QBEEXZ @ 877 NONAME ; unsigned char TReadCurrentIACLAPCompleteEvent::NumCurrentIAC(void) const
	?NumHCICommandPackets@TCommandStatusEvent@@QBEEXZ @ 878 NONAME ; unsigned char TCommandStatusEvent::NumHCICommandPackets(void) const
	?NumHCICommandPackets@THCICommandCompleteEvent@@QBEEXZ @ 879 NONAME ; unsigned char THCICommandCompleteEvent::NumHCICommandPackets(void) const
	?NumKeys@TReturnLinkKeysEvent@@QBEEXZ @ 880 NONAME ; unsigned char TReturnLinkKeysEvent::NumKeys(void) const
	?NumKeysDeleted@TDeleteStoredLinkKeyCompleteEvent@@QBEGXZ @ 881 NONAME ; unsigned short TDeleteStoredLinkKeyCompleteEvent::NumKeysDeleted(void) const
	?NumKeysRead@TReadStoredLinkKeyCompleteEvent@@QBEGXZ @ 882 NONAME ; unsigned short TReadStoredLinkKeyCompleteEvent::NumKeysRead(void) const
	?NumKeysToWrite@CWriteStoredLinkKeyCommand@@QBEEXZ @ 883 NONAME ; unsigned char CWriteStoredLinkKeyCommand::NumKeysToWrite(void) const
	?NumKeysWritten@TWriteStoredLinkKeyCompleteEvent@@QBEEXZ @ 884 NONAME ; unsigned char TWriteStoredLinkKeyCompleteEvent::NumKeysWritten(void) const
	?NumResponses@CInquiryCommand@@QBEEXZ @ 885 NONAME ; unsigned char CInquiryCommand::NumResponses(void) const
	?NumResponses@CPeriodicInquiryModeCommand@@QBEEXZ @ 886 NONAME ; unsigned char CPeriodicInquiryModeCommand::NumResponses(void) const
	?NumResponses@TInquiryResultEvent@@QBEEXZ @ 887 NONAME ; unsigned char TInquiryResultEvent::NumResponses(void) const
	?NumResponses@TInquiryResultwithRSSIEvent@@QBEEXZ @ 888 NONAME ; unsigned char TInquiryResultwithRSSIEvent::NumResponses(void) const
	?NumSupportIAC@TReadNumberOfSupportedIACCompleteEvent@@QBEEXZ @ 889 NONAME ; unsigned char TReadNumberOfSupportedIACCompleteEvent::NumSupportIAC(void) const
	?NumberOfHandles@CHostNumberOfCompletedPacketsCommand@@QBEEXZ @ 890 NONAME ; unsigned char CHostNumberOfCompletedPacketsCommand::NumberOfHandles(void) const
	?NumberofHandles@TNumberOfCompletedPacketsEvent@@QBEEXZ @ 891 NONAME ; unsigned char TNumberOfCompletedPacketsEvent::NumberofHandles(void) const
	?Opcode@CHCICommandBase@@QBEGXZ @ 892 NONAME ; unsigned short CHCICommandBase::Opcode(void) const
	?PINCode@CPINCodeRequestReplyCommand@@QBE?AVTPtrC8@@XZ @ 893 NONAME ; class TPtrC8 CPINCodeRequestReplyCommand::PINCode(void) const
	?PINCodeLength@CPINCodeRequestReplyCommand@@QBEEXZ @ 894 NONAME ; unsigned char CPINCodeRequestReplyCommand::PINCodeLength(void) const
	?PINType@CWritePINTypeCommand@@QBEEXZ @ 895 NONAME ; unsigned char CWritePINTypeCommand::PINType(void) const
	?PINType@TReadPINTypeCompleteEvent@@QBEEXZ @ 896 NONAME ; unsigned char TReadPINTypeCompleteEvent::PINType(void) const
	?PacketType@CAcceptSynchronousConnectionRequestCommand@@QBEGXZ @ 897 NONAME ; unsigned short CAcceptSynchronousConnectionRequestCommand::PacketType(void) const
	?PacketType@CAddSCOConnectionCommand@@QBEGXZ @ 898 NONAME ; unsigned short CAddSCOConnectionCommand::PacketType(void) const
	?PacketType@CChangeConnectionPacketTypeCommand@@QBEGXZ @ 899 NONAME ; unsigned short CChangeConnectionPacketTypeCommand::PacketType(void) const
	?PacketType@CCreateACLConnectionCommand@@QBEGXZ @ 900 NONAME ; unsigned short CCreateACLConnectionCommand::PacketType(void) const
	?PacketType@CSetupSynchronousConnectionCommand@@QBEGXZ @ 901 NONAME ; unsigned short CSetupSynchronousConnectionCommand::PacketType(void) const
	?PacketType@TConnectionPacketTypeChangedEvent@@QBEGXZ @ 902 NONAME ; unsigned short TConnectionPacketTypeChangedEvent::PacketType(void) const
	?PageNumber@CReadLocalExtendedFeaturesCommand@@QBEEXZ @ 903 NONAME ; unsigned char CReadLocalExtendedFeaturesCommand::PageNumber(void) const
	?PageNumber@CReadRemoteExtendedFeaturesCommand@@QBEEXZ @ 904 NONAME ; unsigned char CReadRemoteExtendedFeaturesCommand::PageNumber(void) const
	?PageNumber@TReadLocalExtendedFeaturesCompleteEvent@@QBEEXZ @ 905 NONAME ; unsigned char TReadLocalExtendedFeaturesCompleteEvent::PageNumber(void) const
	?PageNumber@TReadRemoteExtendedFeaturesCompleteEvent@@QBEEXZ @ 906 NONAME ; unsigned char TReadRemoteExtendedFeaturesCompleteEvent::PageNumber(void) const
	?PageScanInterval@CWritePageScanActivityCommand@@QBEGXZ @ 907 NONAME ; unsigned short CWritePageScanActivityCommand::PageScanInterval(void) const
	?PageScanInterval@TReadPageScanActivityCompleteEvent@@QBEGXZ @ 908 NONAME ; unsigned short TReadPageScanActivityCompleteEvent::PageScanInterval(void) const
	?PageScanMode@TPageScanModeChangeEvent@@QBEEXZ @ 909 NONAME ; unsigned char TPageScanModeChangeEvent::PageScanMode(void) const
	?PageScanPeriodMode@CWritePageScanPeriodCommand@@QBEEXZ @ 910 NONAME ; unsigned char CWritePageScanPeriodCommand::PageScanPeriodMode(void) const
	?PageScanPeriodMode@TReadPageScanPeriodCompleteEvent@@QBEEXZ @ 911 NONAME ; unsigned char TReadPageScanPeriodCompleteEvent::PageScanPeriodMode(void) const
	?PageScanRepetitionMode@CCreateACLConnectionCommand@@QBE?AVTHCIPageScanRepetitionMode@@XZ @ 912 NONAME ; class THCIPageScanRepetitionMode CCreateACLConnectionCommand::PageScanRepetitionMode(void) const
	?PageScanRepetitionMode@CRemoteNameRequestCommand@@QBE?AVTHCIPageScanRepetitionMode@@XZ @ 913 NONAME ; class THCIPageScanRepetitionMode CRemoteNameRequestCommand::PageScanRepetitionMode(void) const
	?PageScanRepetitionMode@TInquiryResultEvent@@QBE?AVTHCIPageScanRepetitionMode@@H@Z @ 914 NONAME ; class THCIPageScanRepetitionMode TInquiryResultEvent::PageScanRepetitionMode(int) const
	?PageScanRepetitionMode@TInquiryResultwithRSSIEvent@@QBE?AVTHCIPageScanRepetitionMode@@H@Z @ 915 NONAME ; class THCIPageScanRepetitionMode TInquiryResultwithRSSIEvent::PageScanRepetitionMode(int) const
	?PageScanRepetitionMode@TPageScanRepetitionModeChangeEvent@@QBE?AVTHCIPageScanRepetitionMode@@XZ @ 916 NONAME ; class THCIPageScanRepetitionMode TPageScanRepetitionModeChangeEvent::PageScanRepetitionMode(void) const
	?PageScanType@CWritePageScanTypeCommand@@QBEEXZ @ 917 NONAME ; unsigned char CWritePageScanTypeCommand::PageScanType(void) const
	?PageScanType@TReadPageScanTypeCompleteEvent@@QBEEXZ @ 918 NONAME ; unsigned char TReadPageScanTypeCompleteEvent::PageScanType(void) const
	?PageScanWindow@CWritePageScanActivityCommand@@QBEGXZ @ 919 NONAME ; unsigned short CWritePageScanActivityCommand::PageScanWindow(void) const
	?PageScanwindow@TReadPageScanActivityCompleteEvent@@QBEGXZ @ 920 NONAME ; unsigned short TReadPageScanActivityCompleteEvent::PageScanwindow(void) const
	?PageTimeout@CWritePageTimeoutCommand@@QBEGXZ @ 921 NONAME ; unsigned short CWritePageTimeoutCommand::PageTimeout(void) const
	?PageTimeout@TReadPageTimeoutCompleteEvent@@QBEGXZ @ 922 NONAME ; unsigned short TReadPageTimeoutCompleteEvent::PageTimeout(void) const
	?PeakBandwidth@CFlowSpecificationCommand@@QBEKXZ @ 923 NONAME ; unsigned long CFlowSpecificationCommand::PeakBandwidth(void) const
	?PeakBandwidth@CQOSSetupCommand@@QBEKXZ @ 924 NONAME ; unsigned long CQOSSetupCommand::PeakBandwidth(void) const
	?PeakBandwidth@TFlowSpecificationCompleteEvent@@QBEKXZ @ 925 NONAME ; unsigned long TFlowSpecificationCompleteEvent::PeakBandwidth(void) const
	?PeakBandwidth@TQOSSetupCompleteEvent@@QBEKXZ @ 926 NONAME ; unsigned long TQOSSetupCompleteEvent::PeakBandwidth(void) const
	?RSSI@TInquiryResultwithRSSIEvent@@QBE?AVTHCIRssi@@H@Z @ 927 NONAME ; class THCIRssi TInquiryResultwithRSSIEvent::RSSI(int) const
	?RSSI@TReadRSSICompleteEvent@@QBE?AVTHCIRssi@@XZ @ 928 NONAME ; class THCIRssi TReadRSSICompleteEvent::RSSI(void) const
	?ReadAllFlag@CReadStoredLinkKeyCommand@@QBEEXZ @ 929 NONAME ; unsigned char CReadStoredLinkKeyCommand::ReadAllFlag(void) const
	?Reason@CDisconnectCommand@@QBEEXZ @ 930 NONAME ; unsigned char CDisconnectCommand::Reason(void) const
	?Reason@CRejectConnectionRequestCommand@@QBEEXZ @ 931 NONAME ; unsigned char CRejectConnectionRequestCommand::Reason(void) const
	?Reason@CRejectSynchronousConnectionRequestCommand@@QBEEXZ @ 932 NONAME ; unsigned char CRejectSynchronousConnectionRequestCommand::Reason(void) const
	?Reason@TDisconnectionCompleteEvent@@QBEEXZ @ 933 NONAME ; unsigned char TDisconnectionCompleteEvent::Reason(void) const
	?ReceiveBandwidth@CAcceptSynchronousConnectionRequestCommand@@QBEKXZ @ 934 NONAME ; unsigned long CAcceptSynchronousConnectionRequestCommand::ReceiveBandwidth(void) const
	?ReceiveBandwidth@CSetupSynchronousConnectionCommand@@QBEKXZ @ 935 NONAME ; unsigned long CSetupSynchronousConnectionCommand::ReceiveBandwidth(void) const
	?RemoteName@TRemoteNameReqCompleteEvent@@QBE?AVTPtrC8@@XZ @ 936 NONAME ; class TPtrC8 TRemoteNameReqCompleteEvent::RemoteName(void) const
	?Reserved1@TInquiryResultEvent@@QBE?AVTHCIReservedOctet@@H@Z @ 937 NONAME ; class THCIReservedOctet TInquiryResultEvent::Reserved1(int) const
	?Reserved2@TInquiryResultEvent@@QBE?AVTHCIReservedOctet@@H@Z @ 938 NONAME ; class THCIReservedOctet TInquiryResultEvent::Reserved2(int) const
	?Reserved32@TReadLMPHandleCompleteEvent@@QBEKXZ @ 939 NONAME ; unsigned long TReadLMPHandleCompleteEvent::Reserved32(void) const
	?Reserved@CCreateACLConnectionCommand@@QBE?AVTHCIReservedOctet@@XZ @ 940 NONAME ; class THCIReservedOctet CCreateACLConnectionCommand::Reserved(void) const
	?Reserved@CRemoteNameRequestCommand@@QBE?AVTHCIReservedOctet@@XZ @ 941 NONAME ; class THCIReservedOctet CRemoteNameRequestCommand::Reserved(void) const
	?Reserved@TInquiryResultwithRSSIEvent@@QBE?AVTHCIReservedOctet@@H@Z @ 942 NONAME ; class THCIReservedOctet TInquiryResultwithRSSIEvent::Reserved(int) const
	?Reset@CAcceptConnectionRequestCommand@@QAEXABVTBTDevAddr@@E@Z @ 943 NONAME ; void CAcceptConnectionRequestCommand::Reset(class TBTDevAddr const &, unsigned char)
	?Reset@CAcceptSynchronousConnectionRequestCommand@@QAEXABVTBTDevAddr@@KKGGEG@Z @ 944 NONAME ; void CAcceptSynchronousConnectionRequestCommand::Reset(class TBTDevAddr const &, unsigned long, unsigned long, unsigned short, unsigned short, unsigned char, unsigned short)
	?Reset@CAddSCOConnectionCommand@@QAEXVTHCIConnectionHandle@@GABVTBTDevAddr@@@Z @ 945 NONAME ; void CAddSCOConnectionCommand::Reset(class THCIConnectionHandle, unsigned short, class TBTDevAddr const &)
	?Reset@CAuthenticationRequestedCommand@@QAEXVTHCIConnectionHandle@@@Z @ 946 NONAME ; void CAuthenticationRequestedCommand::Reset(class THCIConnectionHandle)
	?Reset@CChangeConnectionPacketTypeCommand@@QAEXVTHCIConnectionHandle@@G@Z @ 947 NONAME ; void CChangeConnectionPacketTypeCommand::Reset(class THCIConnectionHandle, unsigned short)
	?Reset@CChangeLinkKeyCommand@@QAEXVTHCIConnectionHandle@@@Z @ 948 NONAME ; void CChangeLinkKeyCommand::Reset(class THCIConnectionHandle)
	?Reset@CCreateACLConnectionCommand@@QAEXABVTBTDevAddr@@GVTHCIPageScanRepetitionMode@@VTHCIReservedOctet@@VTHCIClockOffset@@E@Z @ 949 NONAME ; void CCreateACLConnectionCommand::Reset(class TBTDevAddr const &, unsigned short, class THCIPageScanRepetitionMode, class THCIReservedOctet, class THCIClockOffset, unsigned char)
	?Reset@CCreateConnectionCancelCommand@@QAEXABVTBTDevAddr@@@Z @ 950 NONAME ; void CCreateConnectionCancelCommand::Reset(class TBTDevAddr const &)
	?Reset@CCreateNewUnitKeyCommand@@QAEXXZ @ 951 NONAME ; void CCreateNewUnitKeyCommand::Reset(void)
	?Reset@CDeleteStoredLinkKeyCommand@@QAEXABVTBTDevAddr@@E@Z @ 952 NONAME ; void CDeleteStoredLinkKeyCommand::Reset(class TBTDevAddr const &, unsigned char)
	?Reset@CDisconnectCommand@@QAEXVTHCIConnectionHandle@@E@Z @ 953 NONAME ; void CDisconnectCommand::Reset(class THCIConnectionHandle, unsigned char)
	?Reset@CEnableDeviceUnderTestModeCommand@@QAEXXZ @ 954 NONAME ; void CEnableDeviceUnderTestModeCommand::Reset(void)
	?Reset@CExitParkModeCommand@@QAEXVTHCIConnectionHandle@@@Z @ 955 NONAME ; void CExitParkModeCommand::Reset(class THCIConnectionHandle)
	?Reset@CExitPeriodicInquiryModeCommand@@QAEXXZ @ 956 NONAME ; void CExitPeriodicInquiryModeCommand::Reset(void)
	?Reset@CExitSniffModeCommand@@QAEXVTHCIConnectionHandle@@@Z @ 957 NONAME ; void CExitSniffModeCommand::Reset(class THCIConnectionHandle)
	?Reset@CFlowSpecificationCommand@@QAEXVTHCIConnectionHandle@@EEEKKKK@Z @ 958 NONAME ; void CFlowSpecificationCommand::Reset(class THCIConnectionHandle, unsigned char, unsigned char, unsigned char, unsigned long, unsigned long, unsigned long, unsigned long)
	?Reset@CFlushCommand@@QAEXVTHCIConnectionHandle@@@Z @ 959 NONAME ; void CFlushCommand::Reset(class THCIConnectionHandle)
	?Reset@CHoldModeCommand@@QAEXVTHCIConnectionHandle@@GG@Z @ 960 NONAME ; void CHoldModeCommand::Reset(class THCIConnectionHandle, unsigned short, unsigned short)
	?Reset@CHostBufferSizeCommand@@QAEXGEGG@Z @ 961 NONAME ; void CHostBufferSizeCommand::Reset(unsigned short, unsigned char, unsigned short, unsigned short)
	?Reset@CHostNumberOfCompletedPacketsCommand@@QAEXEABV?$RArray@VTHCIConnectionHandle@@@@ABV?$RArray@VTHCINumOfCompletedPackets@@@@@Z @ 962 NONAME ; void CHostNumberOfCompletedPacketsCommand::Reset(unsigned char, class RArray<class THCIConnectionHandle> const &, class RArray<class THCINumOfCompletedPackets> const &)
	?Reset@CInquiryCancelCommand@@QAEXXZ @ 963 NONAME ; void CInquiryCancelCommand::Reset(void)
	?Reset@CInquiryCommand@@QAEXKEE@Z @ 964 NONAME ; void CInquiryCommand::Reset(unsigned long, unsigned char, unsigned char)
	?Reset@CLinkKeyRequestReplyCommand@@QAEXABVTBTDevAddr@@ABV?$TPckgBuf@VTLinkKeyV10@@@@@Z @ 965 NONAME ; void CLinkKeyRequestReplyCommand::Reset(class TBTDevAddr const &, class TPckgBuf<class TLinkKeyV10> const &)
	?Reset@CLinkKeyRequestReplyNegativeCommand@@QAEXABVTBTDevAddr@@@Z @ 966 NONAME ; void CLinkKeyRequestReplyNegativeCommand::Reset(class TBTDevAddr const &)
	?Reset@CMasterLinkKeyCommand@@QAEXE@Z @ 967 NONAME ; void CMasterLinkKeyCommand::Reset(unsigned char)
	?Reset@CPINCodeRequestReplyCommand@@QAEXABVTBTDevAddr@@EABVTDesC8@@@Z @ 968 NONAME ; void CPINCodeRequestReplyCommand::Reset(class TBTDevAddr const &, unsigned char, class TDesC8 const &)
	?Reset@CPINCodeRequestReplyNegativeCommand@@QAEXABVTBTDevAddr@@@Z @ 969 NONAME ; void CPINCodeRequestReplyNegativeCommand::Reset(class TBTDevAddr const &)
	?Reset@CParkModeCommand@@QAEXVTHCIConnectionHandle@@GG@Z @ 970 NONAME ; void CParkModeCommand::Reset(class THCIConnectionHandle, unsigned short, unsigned short)
	?Reset@CPeriodicInquiryModeCommand@@QAEXGGKEE@Z @ 971 NONAME ; void CPeriodicInquiryModeCommand::Reset(unsigned short, unsigned short, unsigned long, unsigned char, unsigned char)
	?Reset@CQOSSetupCommand@@QAEXVTHCIConnectionHandle@@EEKKKK@Z @ 972 NONAME ; void CQOSSetupCommand::Reset(class THCIConnectionHandle, unsigned char, unsigned char, unsigned long, unsigned long, unsigned long, unsigned long)
	?Reset@CReadAFHChannelAssessmentModeCommand@@QAEXXZ @ 973 NONAME ; void CReadAFHChannelAssessmentModeCommand::Reset(void)
	?Reset@CReadAFHChannelMapCommand@@QAEXVTHCIConnectionHandle@@@Z @ 974 NONAME ; void CReadAFHChannelMapCommand::Reset(class THCIConnectionHandle)
	?Reset@CReadAuthenticationEnableCommand@@QAEXXZ @ 975 NONAME ; void CReadAuthenticationEnableCommand::Reset(void)
	?Reset@CReadAutomaticFlushTimeoutCommand@@QAEXVTHCIConnectionHandle@@@Z @ 976 NONAME ; void CReadAutomaticFlushTimeoutCommand::Reset(class THCIConnectionHandle)
	?Reset@CReadBdaddrCommand@@QAEXXZ @ 977 NONAME ; void CReadBdaddrCommand::Reset(void)
	?Reset@CReadBufferSizeCommand@@QAEXXZ @ 978 NONAME ; void CReadBufferSizeCommand::Reset(void)
	?Reset@CReadClassOfDeviceCommand@@QAEXXZ @ 979 NONAME ; void CReadClassOfDeviceCommand::Reset(void)
	?Reset@CReadClockCommand@@QAEXVTHCIConnectionHandle@@E@Z @ 980 NONAME ; void CReadClockCommand::Reset(class THCIConnectionHandle, unsigned char)
	?Reset@CReadClockOffsetCommand@@QAEXVTHCIConnectionHandle@@@Z @ 981 NONAME ; void CReadClockOffsetCommand::Reset(class THCIConnectionHandle)
	?Reset@CReadConnectionAcceptTimeoutCommand@@QAEXXZ @ 982 NONAME ; void CReadConnectionAcceptTimeoutCommand::Reset(void)
	?Reset@CReadCurrentIACLAPCommand@@QAEXXZ @ 983 NONAME ; void CReadCurrentIACLAPCommand::Reset(void)
	?Reset@CReadDefaultLinkPolicySettingsCommand@@QAEXXZ @ 984 NONAME ; void CReadDefaultLinkPolicySettingsCommand::Reset(void)
	?Reset@CReadEncryptionModeCommand@@QAEXXZ @ 985 NONAME ; void CReadEncryptionModeCommand::Reset(void)
	?Reset@CReadFailedContactCounterCommand@@QAEXVTHCIConnectionHandle@@@Z @ 986 NONAME ; void CReadFailedContactCounterCommand::Reset(class THCIConnectionHandle)
	?Reset@CReadHoldModeActivityCommand@@QAEXXZ @ 987 NONAME ; void CReadHoldModeActivityCommand::Reset(void)
	?Reset@CReadInquiryModeCommand@@QAEXXZ @ 988 NONAME ; void CReadInquiryModeCommand::Reset(void)
	?Reset@CReadInquiryScanActivityCommand@@QAEXXZ @ 989 NONAME ; void CReadInquiryScanActivityCommand::Reset(void)
	?Reset@CReadInquiryScanTypeCommand@@QAEXXZ @ 990 NONAME ; void CReadInquiryScanTypeCommand::Reset(void)
	?Reset@CReadLMPHandleCommand@@QAEXVTHCIConnectionHandle@@@Z @ 991 NONAME ; void CReadLMPHandleCommand::Reset(class THCIConnectionHandle)
	?Reset@CReadLinkPolicySettingsCommand@@QAEXVTHCIConnectionHandle@@@Z @ 992 NONAME ; void CReadLinkPolicySettingsCommand::Reset(class THCIConnectionHandle)
	?Reset@CReadLinkQualityCommand@@QAEXVTHCIConnectionHandle@@@Z @ 993 NONAME ; void CReadLinkQualityCommand::Reset(class THCIConnectionHandle)
	?Reset@CReadLinkSupervisionTimeoutCommand@@QAEXVTHCIConnectionHandle@@@Z @ 994 NONAME ; void CReadLinkSupervisionTimeoutCommand::Reset(class THCIConnectionHandle)
	?Reset@CReadLocalExtendedFeaturesCommand@@QAEXE@Z @ 995 NONAME ; void CReadLocalExtendedFeaturesCommand::Reset(unsigned char)
	?Reset@CReadLocalNameCommand@@QAEXXZ @ 996 NONAME ; void CReadLocalNameCommand::Reset(void)
	?Reset@CReadLocalSupportedCommandsCommand@@QAEXXZ @ 997 NONAME ; void CReadLocalSupportedCommandsCommand::Reset(void)
	?Reset@CReadLocalSupportedFeaturesCommand@@QAEXXZ @ 998 NONAME ; void CReadLocalSupportedFeaturesCommand::Reset(void)
	?Reset@CReadLocalVersionInfoCommand@@QAEXXZ @ 999 NONAME ; void CReadLocalVersionInfoCommand::Reset(void)
	?Reset@CReadLoopbackModeCommand@@QAEXXZ @ 1000 NONAME ; void CReadLoopbackModeCommand::Reset(void)
	?Reset@CReadNumBroadcastRetransmissionsCommand@@QAEXXZ @ 1001 NONAME ; void CReadNumBroadcastRetransmissionsCommand::Reset(void)
	?Reset@CReadNumberOfSupportedIACCommand@@QAEXXZ @ 1002 NONAME ; void CReadNumberOfSupportedIACCommand::Reset(void)
	?Reset@CReadPINTypeCommand@@QAEXXZ @ 1003 NONAME ; void CReadPINTypeCommand::Reset(void)
	?Reset@CReadPageScanActivityCommand@@QAEXXZ @ 1004 NONAME ; void CReadPageScanActivityCommand::Reset(void)
	?Reset@CReadPageScanPeriodCommand@@QAEXXZ @ 1005 NONAME ; void CReadPageScanPeriodCommand::Reset(void)
	?Reset@CReadPageScanTypeCommand@@QAEXXZ @ 1006 NONAME ; void CReadPageScanTypeCommand::Reset(void)
	?Reset@CReadPageTimeoutCommand@@QAEXXZ @ 1007 NONAME ; void CReadPageTimeoutCommand::Reset(void)
	?Reset@CReadRSSICommand@@QAEXVTHCIConnectionHandle@@@Z @ 1008 NONAME ; void CReadRSSICommand::Reset(class THCIConnectionHandle)
	?Reset@CReadRemoteExtendedFeaturesCommand@@QAEXVTHCIConnectionHandle@@E@Z @ 1009 NONAME ; void CReadRemoteExtendedFeaturesCommand::Reset(class THCIConnectionHandle, unsigned char)
	?Reset@CReadRemoteSupportedFeaturesCommand@@QAEXVTHCIConnectionHandle@@@Z @ 1010 NONAME ; void CReadRemoteSupportedFeaturesCommand::Reset(class THCIConnectionHandle)
	?Reset@CReadRemoteVersionInfoCommand@@QAEXVTHCIConnectionHandle@@@Z @ 1011 NONAME ; void CReadRemoteVersionInfoCommand::Reset(class THCIConnectionHandle)
	?Reset@CReadScanEnableCommand@@QAEXXZ @ 1012 NONAME ; void CReadScanEnableCommand::Reset(void)
	?Reset@CReadStoredLinkKeyCommand@@QAEXABVTBTDevAddr@@E@Z @ 1013 NONAME ; void CReadStoredLinkKeyCommand::Reset(class TBTDevAddr const &, unsigned char)
	?Reset@CReadSynchronousFlowControlEnableCommand@@QAEXXZ @ 1014 NONAME ; void CReadSynchronousFlowControlEnableCommand::Reset(void)
	?Reset@CReadTransmitPowerLevelCommand@@QAEXVTHCIConnectionHandle@@E@Z @ 1015 NONAME ; void CReadTransmitPowerLevelCommand::Reset(class THCIConnectionHandle, unsigned char)
	?Reset@CReadVoiceSettingCommand@@QAEXXZ @ 1016 NONAME ; void CReadVoiceSettingCommand::Reset(void)
	?Reset@CRejectConnectionRequestCommand@@QAEXABVTBTDevAddr@@E@Z @ 1017 NONAME ; void CRejectConnectionRequestCommand::Reset(class TBTDevAddr const &, unsigned char)
	?Reset@CRejectSynchronousConnectionRequestCommand@@QAEXABVTBTDevAddr@@E@Z @ 1018 NONAME ; void CRejectSynchronousConnectionRequestCommand::Reset(class TBTDevAddr const &, unsigned char)
	?Reset@CRemoteNameRequestCancelCommand@@QAEXABVTBTDevAddr@@@Z @ 1019 NONAME ; void CRemoteNameRequestCancelCommand::Reset(class TBTDevAddr const &)
	?Reset@CRemoteNameRequestCommand@@QAEXABVTBTDevAddr@@VTHCIPageScanRepetitionMode@@VTHCIReservedOctet@@VTHCIClockOffset@@@Z @ 1020 NONAME ; void CRemoteNameRequestCommand::Reset(class TBTDevAddr const &, class THCIPageScanRepetitionMode, class THCIReservedOctet, class THCIClockOffset)
	?Reset@CResetCommand@@QAEXXZ @ 1021 NONAME ; void CResetCommand::Reset(void)
	?Reset@CResetFailedContactCounterCommand@@QAEXVTHCIConnectionHandle@@@Z @ 1022 NONAME ; void CResetFailedContactCounterCommand::Reset(class THCIConnectionHandle)
	?Reset@CRoleDiscoveryCommand@@QAEXVTHCIConnectionHandle@@@Z @ 1023 NONAME ; void CRoleDiscoveryCommand::Reset(class THCIConnectionHandle)
	?Reset@CSetAFHHostChannelClassificationCommand@@QAEXABVTDesC8@@@Z @ 1024 NONAME ; void CSetAFHHostChannelClassificationCommand::Reset(class TDesC8 const &)
	?Reset@CSetConnectionEncryptionCommand@@QAEXVTHCIConnectionHandle@@E@Z @ 1025 NONAME ; void CSetConnectionEncryptionCommand::Reset(class THCIConnectionHandle, unsigned char)
	?Reset@CSetControllerToHostFlowControlCommand@@QAEXE@Z @ 1026 NONAME ; void CSetControllerToHostFlowControlCommand::Reset(unsigned char)
	?Reset@CSetEventFilterCommand@@QAEXEEABVTDesC8@@@Z @ 1027 NONAME ; void CSetEventFilterCommand::Reset(unsigned char, unsigned char, class TDesC8 const &)
	?Reset@CSetEventMaskCommand@@QAEXABVTDesC8@@@Z @ 1028 NONAME ; void CSetEventMaskCommand::Reset(class TDesC8 const &)
	?Reset@CSetupSynchronousConnectionCommand@@QAEXVTHCIConnectionHandle@@KKGGEGABVTBTDevAddr@@@Z @ 1029 NONAME ; void CSetupSynchronousConnectionCommand::Reset(class THCIConnectionHandle, unsigned long, unsigned long, unsigned short, unsigned short, unsigned char, unsigned short, class TBTDevAddr const &)
	?Reset@CSniffModeCommand@@QAEXVTHCIConnectionHandle@@GGGG@Z @ 1030 NONAME ; void CSniffModeCommand::Reset(class THCIConnectionHandle, unsigned short, unsigned short, unsigned short, unsigned short)
	?Reset@CSwitchRoleCommand@@QAEXABVTBTDevAddr@@E@Z @ 1031 NONAME ; void CSwitchRoleCommand::Reset(class TBTDevAddr const &, unsigned char)
	?Reset@CVendorDebugCommand@@QAEXG@Z @ 1032 NONAME ; void CVendorDebugCommand::Reset(unsigned short)
	?Reset@CWriteAFHChannelAssessmentModeCommand@@QAEXE@Z @ 1033 NONAME ; void CWriteAFHChannelAssessmentModeCommand::Reset(unsigned char)
	?Reset@CWriteAuthenticationEnableCommand@@QAEXE@Z @ 1034 NONAME ; void CWriteAuthenticationEnableCommand::Reset(unsigned char)
	?Reset@CWriteAutomaticFlushTimeoutCommand@@QAEXVTHCIConnectionHandle@@G@Z @ 1035 NONAME ; void CWriteAutomaticFlushTimeoutCommand::Reset(class THCIConnectionHandle, unsigned short)
	?Reset@CWriteClassOfDeviceCommand@@QAEXK@Z @ 1036 NONAME ; void CWriteClassOfDeviceCommand::Reset(unsigned long)
	?Reset@CWriteConnectionAcceptTimeoutCommand@@QAEXG@Z @ 1037 NONAME ; void CWriteConnectionAcceptTimeoutCommand::Reset(unsigned short)
	?Reset@CWriteCurrentIACLAPCommand@@QAEXEABV?$RArray@K@@@Z @ 1038 NONAME ; void CWriteCurrentIACLAPCommand::Reset(unsigned char, class RArray<unsigned long> const &)
	?Reset@CWriteDefaultLinkPolicySettingsCommand@@QAEXG@Z @ 1039 NONAME ; void CWriteDefaultLinkPolicySettingsCommand::Reset(unsigned short)
	?Reset@CWriteEncryptionModeCommand@@QAEXE@Z @ 1040 NONAME ; void CWriteEncryptionModeCommand::Reset(unsigned char)
	?Reset@CWriteHoldModeActivityCommand@@QAEXE@Z @ 1041 NONAME ; void CWriteHoldModeActivityCommand::Reset(unsigned char)
	?Reset@CWriteInquiryModeCommand@@QAEXE@Z @ 1042 NONAME ; void CWriteInquiryModeCommand::Reset(unsigned char)
	?Reset@CWriteInquiryScanActivityCommand@@QAEXGG@Z @ 1043 NONAME ; void CWriteInquiryScanActivityCommand::Reset(unsigned short, unsigned short)
	?Reset@CWriteInquiryScanTypeCommand@@QAEXE@Z @ 1044 NONAME ; void CWriteInquiryScanTypeCommand::Reset(unsigned char)
	?Reset@CWriteLinkPolicySettingsCommand@@QAEXVTHCIConnectionHandle@@G@Z @ 1045 NONAME ; void CWriteLinkPolicySettingsCommand::Reset(class THCIConnectionHandle, unsigned short)
	?Reset@CWriteLinkSupervisionTimeoutCommand@@QAEXVTHCIConnectionHandle@@G@Z @ 1046 NONAME ; void CWriteLinkSupervisionTimeoutCommand::Reset(class THCIConnectionHandle, unsigned short)
	?Reset@CWriteLocalNameCommand@@QAEXABVTDesC8@@@Z @ 1047 NONAME ; void CWriteLocalNameCommand::Reset(class TDesC8 const &)
	?Reset@CWriteLoopbackModeCommand@@QAEXE@Z @ 1048 NONAME ; void CWriteLoopbackModeCommand::Reset(unsigned char)
	?Reset@CWriteNumBroadcastRetransmissionsCommand@@QAEXE@Z @ 1049 NONAME ; void CWriteNumBroadcastRetransmissionsCommand::Reset(unsigned char)
	?Reset@CWritePINTypeCommand@@QAEXE@Z @ 1050 NONAME ; void CWritePINTypeCommand::Reset(unsigned char)
	?Reset@CWritePageScanActivityCommand@@QAEXGG@Z @ 1051 NONAME ; void CWritePageScanActivityCommand::Reset(unsigned short, unsigned short)
	?Reset@CWritePageScanPeriodCommand@@QAEXE@Z @ 1052 NONAME ; void CWritePageScanPeriodCommand::Reset(unsigned char)
	?Reset@CWritePageScanTypeCommand@@QAEXE@Z @ 1053 NONAME ; void CWritePageScanTypeCommand::Reset(unsigned char)
	?Reset@CWritePageTimeoutCommand@@QAEXG@Z @ 1054 NONAME ; void CWritePageTimeoutCommand::Reset(unsigned short)
	?Reset@CWriteScanEnableCommand@@QAEXE@Z @ 1055 NONAME ; void CWriteScanEnableCommand::Reset(unsigned char)
	?Reset@CWriteStoredLinkKeyCommand@@QAEXEABV?$RArray@VTBTDevAddr@@@@ABV?$RArray@V?$TPckgBuf@VTLinkKeyV10@@@@@@@Z @ 1056 NONAME ; void CWriteStoredLinkKeyCommand::Reset(unsigned char, class RArray<class TBTDevAddr> const &, class RArray<class TPckgBuf<class TLinkKeyV10> > const &)
	?Reset@CWriteSynchronousFlowControlEnableCommand@@QAEXE@Z @ 1057 NONAME ; void CWriteSynchronousFlowControlEnableCommand::Reset(unsigned char)
	?Reset@CWriteVoiceSettingCommand@@QAEXG@Z @ 1058 NONAME ; void CWriteVoiceSettingCommand::Reset(unsigned short)
	?RetransmissionEffort@CAcceptSynchronousConnectionRequestCommand@@QBEEXZ @ 1059 NONAME ; unsigned char CAcceptSynchronousConnectionRequestCommand::RetransmissionEffort(void) const
	?RetransmissionEffort@CSetupSynchronousConnectionCommand@@QBEEXZ @ 1060 NONAME ; unsigned char CSetupSynchronousConnectionCommand::RetransmissionEffort(void) const
	?RetransmissionWindow@TSynchronousConnectionChangedEvent@@QBEEXZ @ 1061 NONAME ; unsigned char TSynchronousConnectionChangedEvent::RetransmissionWindow(void) const
	?RetransmissionWindow@TSynchronousConnectionCompleteEvent@@QBEEXZ @ 1062 NONAME ; unsigned char TSynchronousConnectionCompleteEvent::RetransmissionWindow(void) const
	?Revision@TReadLocalVersionInfoCompleteEvent@@QBEGXZ @ 1063 NONAME ; unsigned short TReadLocalVersionInfoCompleteEvent::Revision(void) const
	?Role@CAcceptConnectionRequestCommand@@QBEEXZ @ 1064 NONAME ; unsigned char CAcceptConnectionRequestCommand::Role(void) const
	?Role@CSwitchRoleCommand@@QBEEXZ @ 1065 NONAME ; unsigned char CSwitchRoleCommand::Role(void) const
	?RxPacketLength@TSynchronousConnectionChangedEvent@@QBEGXZ @ 1066 NONAME ; unsigned short TSynchronousConnectionChangedEvent::RxPacketLength(void) const
	?RxPacket_Length@TSynchronousConnectionCompleteEvent@@QBEGXZ @ 1067 NONAME ; unsigned short TSynchronousConnectionCompleteEvent::RxPacket_Length(void) const
	?ScanEnable@CWriteScanEnableCommand@@QBEEXZ @ 1068 NONAME ; unsigned char CWriteScanEnableCommand::ScanEnable(void) const
	?ScanEnable@TReadScanEnableCompleteEvent@@QBEEXZ @ 1069 NONAME ; unsigned char TReadScanEnableCompleteEvent::ScanEnable(void) const
	?ScanType@CWriteInquiryScanTypeCommand@@QBEEXZ @ 1070 NONAME ; unsigned char CWriteInquiryScanTypeCommand::ScanType(void) const
	?ServiceType@CFlowSpecificationCommand@@QBEEXZ @ 1071 NONAME ; unsigned char CFlowSpecificationCommand::ServiceType(void) const
	?ServiceType@CQOSSetupCommand@@QBEEXZ @ 1072 NONAME ; unsigned char CQOSSetupCommand::ServiceType(void) const
	?ServiceType@TFlowSpecificationCompleteEvent@@QBEEXZ @ 1073 NONAME ; unsigned char TFlowSpecificationCompleteEvent::ServiceType(void) const
	?ServiceType@TQOSSetupCompleteEvent@@QBEEXZ @ 1074 NONAME ; unsigned char TQOSSetupCompleteEvent::ServiceType(void) const
	?SniffAttempt@CSniffModeCommand@@QBEGXZ @ 1075 NONAME ; unsigned short CSniffModeCommand::SniffAttempt(void) const
	?SniffMaxInterval@CSniffModeCommand@@QBEGXZ @ 1076 NONAME ; unsigned short CSniffModeCommand::SniffMaxInterval(void) const
	?SniffMinInterval@CSniffModeCommand@@QBEGXZ @ 1077 NONAME ; unsigned short CSniffModeCommand::SniffMinInterval(void) const
	?SniffTimeout@CSniffModeCommand@@QBEGXZ @ 1078 NONAME ; unsigned short CSniffModeCommand::SniffTimeout(void) const
	?SupportedCommands@TReadLocalSupportedCommandsCompleteEvent@@QBE?AVTPtrC8@@XZ @ 1079 NONAME ; class TPtrC8 TReadLocalSupportedCommandsCompleteEvent::SupportedCommands(void) const
	?SynchronousFlowControlEnable@CWriteSynchronousFlowControlEnableCommand@@QBEEXZ @ 1080 NONAME ; unsigned char CWriteSynchronousFlowControlEnableCommand::SynchronousFlowControlEnable(void) const
	?SynchronousFlowControlEnable@TReadSynchronousFlowControlEnableCompleteEvent@@QBEEXZ @ 1081 NONAME ; unsigned char TReadSynchronousFlowControlEnableCompleteEvent::SynchronousFlowControlEnable(void) const
	?TokenBucketSize@CFlowSpecificationCommand@@QBEKXZ @ 1082 NONAME ; unsigned long CFlowSpecificationCommand::TokenBucketSize(void) const
	?TokenBucketSize@TFlowSpecificationCompleteEvent@@QBEKXZ @ 1083 NONAME ; unsigned long TFlowSpecificationCompleteEvent::TokenBucketSize(void) const
	?TokenRate@CFlowSpecificationCommand@@QBEKXZ @ 1084 NONAME ; unsigned long CFlowSpecificationCommand::TokenRate(void) const
	?TokenRate@CQOSSetupCommand@@QBEKXZ @ 1085 NONAME ; unsigned long CQOSSetupCommand::TokenRate(void) const
	?TokenRate@TFlowSpecificationCompleteEvent@@QBEKXZ @ 1086 NONAME ; unsigned long TFlowSpecificationCompleteEvent::TokenRate(void) const
	?TokenRate@TQOSSetupCompleteEvent@@QBEKXZ @ 1087 NONAME ; unsigned long TQOSSetupCompleteEvent::TokenRate(void) const
	?TransmissionInterval@TSynchronousConnectionChangedEvent@@QBEEXZ @ 1088 NONAME ; unsigned char TSynchronousConnectionChangedEvent::TransmissionInterval(void) const
	?TransmissionInterval@TSynchronousConnectionCompleteEvent@@QBEEXZ @ 1089 NONAME ; unsigned char TSynchronousConnectionCompleteEvent::TransmissionInterval(void) const
	?TransmitBandwidth@CAcceptSynchronousConnectionRequestCommand@@QBEKXZ @ 1090 NONAME ; unsigned long CAcceptSynchronousConnectionRequestCommand::TransmitBandwidth(void) const
	?TransmitBandwidth@CSetupSynchronousConnectionCommand@@QBEKXZ @ 1091 NONAME ; unsigned long CSetupSynchronousConnectionCommand::TransmitBandwidth(void) const
	?TransmitPowerLevel@TReadTransmitPowerLevelCompleteEvent@@QBEEXZ @ 1092 NONAME ; unsigned char TReadTransmitPowerLevelCompleteEvent::TransmitPowerLevel(void) const
	?TxPacketLength@TSynchronousConnectionChangedEvent@@QBEGXZ @ 1093 NONAME ; unsigned short TSynchronousConnectionChangedEvent::TxPacketLength(void) const
	?TxPacket_Length@TSynchronousConnectionCompleteEvent@@QBEGXZ @ 1094 NONAME ; unsigned short TSynchronousConnectionCompleteEvent::TxPacket_Length(void) const
	?Type@CReadTransmitPowerLevelCommand@@QBEEXZ @ 1095 NONAME ; unsigned char CReadTransmitPowerLevelCommand::Type(void) const
	?VendorDebugData@TVendorDebugCompleteEvent@@QBE?AVTPtrC8@@XZ @ 1096 NONAME ; class TPtrC8 TVendorDebugCompleteEvent::VendorDebugData(void) const
	?VendorDebugData@TVendorDebugEvent@@QBE?AVTPtrC8@@XZ @ 1097 NONAME ; class TPtrC8 TVendorDebugEvent::VendorDebugData(void) const
	?VendorDebugEvent@TVendorDebugEvent@@QBE?AVTPtrC8@@XZ @ 1098 NONAME ; class TPtrC8 TVendorDebugEvent::VendorDebugEvent(void) const
	?Version@TReadLocalVersionInfoCompleteEvent@@QBEEXZ @ 1099 NONAME ; unsigned char TReadLocalVersionInfoCompleteEvent::Version(void) const
	?VoiceSetting@CSetupSynchronousConnectionCommand@@QBEGXZ @ 1100 NONAME ; unsigned short CSetupSynchronousConnectionCommand::VoiceSetting(void) const
	?VoiceSetting@CWriteVoiceSettingCommand@@QBEGXZ @ 1101 NONAME ; unsigned short CWriteVoiceSettingCommand::VoiceSetting(void) const
	?VoiceSetting@TReadVoiceSettingCompleteEvent@@QBEGXZ @ 1102 NONAME ; unsigned short TReadVoiceSettingCompleteEvent::VoiceSetting(void) const
	?WhichClock@CReadClockCommand@@QBEEXZ @ 1103 NONAME ; unsigned char CReadClockCommand::WhichClock(void) const
	??0CVendorDebugCommand@@IAE@G@Z @ 1104 NONAME ; CVendorDebugCommand::CVendorDebugCommand(unsigned short)
	?ConstructL@CVendorDebugCommand@@IAEXXZ @ 1105 NONAME ; void CVendorDebugCommand::ConstructL(void)
	?Extension_@CVendorDebugCommand@@UAEHIAAPAXPAX@Z @ 1106 NONAME ; int CVendorDebugCommand::Extension_(unsigned int, void * &, void *)
	?SetCreditsConsumed@CVendorDebugCommand@@QAEXI@Z @ 1107  NONAME ; void CVendorDebugCommand::SetCreditsConsumed(unsigned int)
	?SetExpectsCommandCompleteEvent@CVendorDebugCommand@@QAEXH@Z @ 1108  NONAME ; void CVendorDebugCommand::SetExpectsCommandCompleteEvent(int)
	?SetExpectsCommandStatusEvent@CVendorDebugCommand@@QAEXH@Z @ 1109  NONAME ; void CVendorDebugCommand::SetExpectsCommandStatusEvent(int)
	?SetExpectsCompletingEvent@CVendorDebugCommand@@QAEHH@Z @ 1110  NONAME ; int CVendorDebugCommand::SetExpectsCompletingEvent(int)
	?VendorDebugEvent@TVendorDebugCompleteEvent@@QBE?AVTPtrC8@@XZ @ 1111 NONAME ; class TPtrC8 TVendorDebugCompleteEvent::VendorDebugEvent(void) const
	?AsNullTerminatedString@THCIEventBase@@IBE?AVTPtrC8@@H@Z @ 1112 NONAME ; class TPtrC8 THCIEventBase::AsNullTerminatedString(int) const
	??0TNopCompleteEvent@@QAE@ABVTDesC8@@@Z @ 1113 NONAME ; TNopCompleteEvent::TNopCompleteEvent(class TDesC8 const &)
	??0TNopCompleteEvent@@QAE@EAAVTDes8@@@Z @ 1114 NONAME ; TNopCompleteEvent::TNopCompleteEvent(unsigned char, class TDes8 &)
	?Cast@TNopCompleteEvent@@SAAAV1@ABVTHCIEventBase@@@Z @ 1115 NONAME ; class TNopCompleteEvent & TNopCompleteEvent::Cast(class THCIEventBase const &)
	??0TEncryptionKeyRefreshCompleteEvent@@QAE@ABVTDesC8@@@Z @ 1116 NONAME ; TEncryptionKeyRefreshCompleteEvent::TEncryptionKeyRefreshCompleteEvent(class TDesC8 const &)
	??0TEncryptionKeyRefreshCompleteEvent@@QAE@W4THCIErrorCode@@VTHCIConnectionHandle@@AAVTDes8@@@Z @ 1117 NONAME ; TEncryptionKeyRefreshCompleteEvent::TEncryptionKeyRefreshCompleteEvent(enum THCIErrorCode, class THCIConnectionHandle, class TDes8 &)
	??0TEnhancedFlushCompleteEvent@@QAE@ABVTDesC8@@@Z @ 1118 NONAME ; TEnhancedFlushCompleteEvent::TEnhancedFlushCompleteEvent(class TDesC8 const &)
	??0TEnhancedFlushCompleteEvent@@QAE@VTHCIConnectionHandle@@AAVTDes8@@@Z @ 1119 NONAME ; TEnhancedFlushCompleteEvent::TEnhancedFlushCompleteEvent(class THCIConnectionHandle, class TDes8 &)
	??0TExtendedInquiryResultEvent@@QAE@ABVTDesC8@@@Z @ 1120 NONAME ; TExtendedInquiryResultEvent::TExtendedInquiryResultEvent(class TDesC8 const &)
	??0TExtendedInquiryResultEvent@@QAE@EABVTBTDevAddr@@VTHCIPageScanRepetitionMode@@VTHCIReservedOctet@@KVTHCIClockOffset@@VTHCIRssi@@ABVTDesC8@@AAVTDes8@@@Z @ 1121 NONAME ; TExtendedInquiryResultEvent::TExtendedInquiryResultEvent(unsigned char, class TBTDevAddr const &, class THCIPageScanRepetitionMode, class THCIReservedOctet, unsigned long, class THCIClockOffset, class THCIRssi, class TDesC8 const &, class TDes8 &)
	??0TIOCapabilityRequestEvent@@QAE@ABVTBTDevAddr@@AAVTDes8@@@Z @ 1122 NONAME ; TIOCapabilityRequestEvent::TIOCapabilityRequestEvent(class TBTDevAddr const &, class TDes8 &)
	??0TIOCapabilityRequestEvent@@QAE@ABVTDesC8@@@Z @ 1123 NONAME ; TIOCapabilityRequestEvent::TIOCapabilityRequestEvent(class TDesC8 const &)
	??0TIOCapabilityRequestNegativeReplyCompleteEvent@@QAE@ABVTDesC8@@@Z @ 1124 NONAME ; TIOCapabilityRequestNegativeReplyCompleteEvent::TIOCapabilityRequestNegativeReplyCompleteEvent(class TDesC8 const &)
	??0TIOCapabilityRequestNegativeReplyCompleteEvent@@QAE@W4THCIErrorCode@@EABVTBTDevAddr@@AAVTDes8@@@Z @ 1125 NONAME ; TIOCapabilityRequestNegativeReplyCompleteEvent::TIOCapabilityRequestNegativeReplyCompleteEvent(enum THCIErrorCode, unsigned char, class TBTDevAddr const &, class TDes8 &)
	??0TIOCapabilityRequestReplyCompleteEvent@@QAE@ABVTDesC8@@@Z @ 1126 NONAME ; TIOCapabilityRequestReplyCompleteEvent::TIOCapabilityRequestReplyCompleteEvent(class TDesC8 const &)
	??0TIOCapabilityRequestReplyCompleteEvent@@QAE@W4THCIErrorCode@@EABVTBTDevAddr@@AAVTDes8@@@Z @ 1127 NONAME ; TIOCapabilityRequestReplyCompleteEvent::TIOCapabilityRequestReplyCompleteEvent(enum THCIErrorCode, unsigned char, class TBTDevAddr const &, class TDes8 &)
	??0TIOCapabilityResponseEvent@@QAE@ABVTBTDevAddr@@EEEAAVTDes8@@@Z @ 1128 NONAME ; TIOCapabilityResponseEvent::TIOCapabilityResponseEvent(class TBTDevAddr const &, unsigned char, unsigned char, unsigned char, class TDes8 &)
	??0TIOCapabilityResponseEvent@@QAE@ABVTDesC8@@@Z @ 1129 NONAME ; TIOCapabilityResponseEvent::TIOCapabilityResponseEvent(class TDesC8 const &)
	??0TKeypressNotificationEvent@@QAE@ABVTBTDevAddr@@EAAVTDes8@@@Z @ 1130 NONAME ; TKeypressNotificationEvent::TKeypressNotificationEvent(class TBTDevAddr const &, unsigned char, class TDes8 &)
	??0TKeypressNotificationEvent@@QAE@ABVTDesC8@@@Z @ 1131 NONAME ; TKeypressNotificationEvent::TKeypressNotificationEvent(class TDesC8 const &)
	??0TLinkSupervisionTimeoutChangedEvent@@QAE@ABVTDesC8@@@Z @ 1132 NONAME ; TLinkSupervisionTimeoutChangedEvent::TLinkSupervisionTimeoutChangedEvent(class TDesC8 const &)
	??0TLinkSupervisionTimeoutChangedEvent@@QAE@VTHCIConnectionHandle@@GAAVTDes8@@@Z @ 1133 NONAME ; TLinkSupervisionTimeoutChangedEvent::TLinkSupervisionTimeoutChangedEvent(class THCIConnectionHandle, unsigned short, class TDes8 &)
	??0TReadDefaultErroneousDataReportingCompleteEvent@@QAE@ABVTDesC8@@@Z @ 1134 NONAME ; TReadDefaultErroneousDataReportingCompleteEvent::TReadDefaultErroneousDataReportingCompleteEvent(class TDesC8 const &)
	??0TReadDefaultErroneousDataReportingCompleteEvent@@QAE@W4THCIErrorCode@@EEAAVTDes8@@@Z @ 1135 NONAME ; TReadDefaultErroneousDataReportingCompleteEvent::TReadDefaultErroneousDataReportingCompleteEvent(enum THCIErrorCode, unsigned char, unsigned char, class TDes8 &)
	??0TReadExtendedInquiryResponseCompleteEvent@@QAE@ABVTDesC8@@@Z @ 1136 NONAME ; TReadExtendedInquiryResponseCompleteEvent::TReadExtendedInquiryResponseCompleteEvent(class TDesC8 const &)
	??0TReadExtendedInquiryResponseCompleteEvent@@QAE@W4THCIErrorCode@@EEABVTDesC8@@AAVTDes8@@@Z @ 1137 NONAME ; TReadExtendedInquiryResponseCompleteEvent::TReadExtendedInquiryResponseCompleteEvent(enum THCIErrorCode, unsigned char, unsigned char, class TDesC8 const &, class TDes8 &)
	??0TReadInquiryResponseTransmitPowerLevelCompleteEvent@@QAE@ABVTDesC8@@@Z @ 1138 NONAME ; TReadInquiryResponseTransmitPowerLevelCompleteEvent::TReadInquiryResponseTransmitPowerLevelCompleteEvent(class TDesC8 const &)
	??0TReadInquiryResponseTransmitPowerLevelCompleteEvent@@QAE@W4THCIErrorCode@@ECAAVTDes8@@@Z @ 1139 NONAME ; TReadInquiryResponseTransmitPowerLevelCompleteEvent::TReadInquiryResponseTransmitPowerLevelCompleteEvent(enum THCIErrorCode, unsigned char, signed char, class TDes8 &)
	??0TReadLocalOOBDataCompleteEvent@@QAE@ABVTDesC8@@@Z @ 1140 NONAME ; TReadLocalOOBDataCompleteEvent::TReadLocalOOBDataCompleteEvent(class TDesC8 const &)
	??0TReadLocalOOBDataCompleteEvent@@QAE@W4THCIErrorCode@@EABV?$TBuf8@$0BA@@@1AAVTDes8@@@Z @ 1141 NONAME ; TReadLocalOOBDataCompleteEvent::TReadLocalOOBDataCompleteEvent(enum THCIErrorCode, unsigned char, class TBuf8<16> const &, class TBuf8<16> const &, class TDes8 &)
	??0TReadSimplePairingModeCompleteEvent@@QAE@ABVTDesC8@@@Z @ 1142 NONAME ; TReadSimplePairingModeCompleteEvent::TReadSimplePairingModeCompleteEvent(class TDesC8 const &)
	??0TReadSimplePairingModeCompleteEvent@@QAE@W4THCIErrorCode@@EEAAVTDes8@@@Z @ 1143 NONAME ; TReadSimplePairingModeCompleteEvent::TReadSimplePairingModeCompleteEvent(enum THCIErrorCode, unsigned char, unsigned char, class TDes8 &)
	??0TRemoteHostSupportedFeaturesNotificationEvent@@QAE@ABVTBTDevAddr@@_KAAVTDes8@@@Z @ 1144 NONAME ; TRemoteHostSupportedFeaturesNotificationEvent::TRemoteHostSupportedFeaturesNotificationEvent(class TBTDevAddr const &, unsigned long long, class TDes8 &)
	??0TRemoteHostSupportedFeaturesNotificationEvent@@QAE@ABVTDesC8@@@Z @ 1145 NONAME ; TRemoteHostSupportedFeaturesNotificationEvent::TRemoteHostSupportedFeaturesNotificationEvent(class TDesC8 const &)
	??0TRemoteOOBDataRequestEvent@@QAE@ABVTBTDevAddr@@AAVTDes8@@@Z @ 1146 NONAME ; TRemoteOOBDataRequestEvent::TRemoteOOBDataRequestEvent(class TBTDevAddr const &, class TDes8 &)
	??0TRemoteOOBDataRequestEvent@@QAE@ABVTDesC8@@@Z @ 1147 NONAME ; TRemoteOOBDataRequestEvent::TRemoteOOBDataRequestEvent(class TDesC8 const &)
	??0TRemoteOOBDataRequestNegativeReplyCompleteEvent@@QAE@ABVTDesC8@@@Z @ 1148 NONAME ; TRemoteOOBDataRequestNegativeReplyCompleteEvent::TRemoteOOBDataRequestNegativeReplyCompleteEvent(class TDesC8 const &)
	??0TRemoteOOBDataRequestNegativeReplyCompleteEvent@@QAE@W4THCIErrorCode@@EABVTBTDevAddr@@AAVTDes8@@@Z @ 1149 NONAME ; TRemoteOOBDataRequestNegativeReplyCompleteEvent::TRemoteOOBDataRequestNegativeReplyCompleteEvent(enum THCIErrorCode, unsigned char, class TBTDevAddr const &, class TDes8 &)
	??0TRemoteOOBDataRequestReplyCompleteEvent@@QAE@ABVTDesC8@@@Z @ 1150 NONAME ; TRemoteOOBDataRequestReplyCompleteEvent::TRemoteOOBDataRequestReplyCompleteEvent(class TDesC8 const &)
	??0TRemoteOOBDataRequestReplyCompleteEvent@@QAE@W4THCIErrorCode@@EABVTBTDevAddr@@AAVTDes8@@@Z @ 1151 NONAME ; TRemoteOOBDataRequestReplyCompleteEvent::TRemoteOOBDataRequestReplyCompleteEvent(enum THCIErrorCode, unsigned char, class TBTDevAddr const &, class TDes8 &)
	??0TSendKeypressNotificationCompleteEvent@@QAE@ABVTDesC8@@@Z @ 1152 NONAME ; TSendKeypressNotificationCompleteEvent::TSendKeypressNotificationCompleteEvent(class TDesC8 const &)
	??0TSendKeypressNotificationCompleteEvent@@QAE@W4THCIErrorCode@@EABVTBTDevAddr@@AAVTDes8@@@Z @ 1153 NONAME ; TSendKeypressNotificationCompleteEvent::TSendKeypressNotificationCompleteEvent(enum THCIErrorCode, unsigned char, class TBTDevAddr const &, class TDes8 &)
	??0TSimplePairingCompleteEvent@@QAE@ABVTDesC8@@@Z @ 1154 NONAME ; TSimplePairingCompleteEvent::TSimplePairingCompleteEvent(class TDesC8 const &)
	??0TSimplePairingCompleteEvent@@QAE@W4THCIErrorCode@@ABVTBTDevAddr@@AAVTDes8@@@Z @ 1155 NONAME ; TSimplePairingCompleteEvent::TSimplePairingCompleteEvent(enum THCIErrorCode, class TBTDevAddr const &, class TDes8 &)
	??0TSniffSubratingCompleteEvent@@QAE@ABVTDesC8@@@Z @ 1156 NONAME ; TSniffSubratingCompleteEvent::TSniffSubratingCompleteEvent(class TDesC8 const &)
	??0TSniffSubratingCompleteEvent@@QAE@W4THCIErrorCode@@EVTHCIConnectionHandle@@AAVTDes8@@@Z @ 1157 NONAME ; TSniffSubratingCompleteEvent::TSniffSubratingCompleteEvent(enum THCIErrorCode, unsigned char, class THCIConnectionHandle, class TDes8 &)
	??0TSniffSubratingEvent@@QAE@ABVTDesC8@@@Z @ 1158 NONAME ; TSniffSubratingEvent::TSniffSubratingEvent(class TDesC8 const &)
	??0TSniffSubratingEvent@@QAE@W4THCIErrorCode@@VTHCIConnectionHandle@@GGGGAAVTDes8@@@Z @ 1159 NONAME ; TSniffSubratingEvent::TSniffSubratingEvent(enum THCIErrorCode, class THCIConnectionHandle, unsigned short, unsigned short, unsigned short, unsigned short, class TDes8 &)
	??0TUserConfirmationRequestEvent@@QAE@ABVTBTDevAddr@@KAAVTDes8@@@Z @ 1160 NONAME ; TUserConfirmationRequestEvent::TUserConfirmationRequestEvent(class TBTDevAddr const &, unsigned long, class TDes8 &)
	??0TUserConfirmationRequestEvent@@QAE@ABVTDesC8@@@Z @ 1161 NONAME ; TUserConfirmationRequestEvent::TUserConfirmationRequestEvent(class TDesC8 const &)
	??0TUserConfirmationRequestNegativeReplyCompleteEvent@@QAE@ABVTDesC8@@@Z @ 1162 NONAME ; TUserConfirmationRequestNegativeReplyCompleteEvent::TUserConfirmationRequestNegativeReplyCompleteEvent(class TDesC8 const &)
	??0TUserConfirmationRequestNegativeReplyCompleteEvent@@QAE@W4THCIErrorCode@@EABVTBTDevAddr@@AAVTDes8@@@Z @ 1163 NONAME ; TUserConfirmationRequestNegativeReplyCompleteEvent::TUserConfirmationRequestNegativeReplyCompleteEvent(enum THCIErrorCode, unsigned char, class TBTDevAddr const &, class TDes8 &)
	??0TUserConfirmationRequestReplyCompleteEvent@@QAE@ABVTDesC8@@@Z @ 1164 NONAME ; TUserConfirmationRequestReplyCompleteEvent::TUserConfirmationRequestReplyCompleteEvent(class TDesC8 const &)
	??0TUserConfirmationRequestReplyCompleteEvent@@QAE@W4THCIErrorCode@@EABVTBTDevAddr@@AAVTDes8@@@Z @ 1165 NONAME ; TUserConfirmationRequestReplyCompleteEvent::TUserConfirmationRequestReplyCompleteEvent(enum THCIErrorCode, unsigned char, class TBTDevAddr const &, class TDes8 &)
	??0TUserPasskeyNotificationEvent@@QAE@ABVTBTDevAddr@@KAAVTDes8@@@Z @ 1166 NONAME ; TUserPasskeyNotificationEvent::TUserPasskeyNotificationEvent(class TBTDevAddr const &, unsigned long, class TDes8 &)
	??0TUserPasskeyNotificationEvent@@QAE@ABVTDesC8@@@Z @ 1167 NONAME ; TUserPasskeyNotificationEvent::TUserPasskeyNotificationEvent(class TDesC8 const &)
	??0TUserPasskeyRequestEvent@@QAE@ABVTBTDevAddr@@AAVTDes8@@@Z @ 1168 NONAME ; TUserPasskeyRequestEvent::TUserPasskeyRequestEvent(class TBTDevAddr const &, class TDes8 &)
	??0TUserPasskeyRequestEvent@@QAE@ABVTDesC8@@@Z @ 1169 NONAME ; TUserPasskeyRequestEvent::TUserPasskeyRequestEvent(class TDesC8 const &)
	??0TUserPasskeyRequestNegativeReplyCompleteEvent@@QAE@ABVTDesC8@@@Z @ 1170 NONAME ; TUserPasskeyRequestNegativeReplyCompleteEvent::TUserPasskeyRequestNegativeReplyCompleteEvent(class TDesC8 const &)
	??0TUserPasskeyRequestNegativeReplyCompleteEvent@@QAE@W4THCIErrorCode@@EABVTBTDevAddr@@AAVTDes8@@@Z @ 1171 NONAME ; TUserPasskeyRequestNegativeReplyCompleteEvent::TUserPasskeyRequestNegativeReplyCompleteEvent(enum THCIErrorCode, unsigned char, class TBTDevAddr const &, class TDes8 &)
	??0TUserPasskeyRequestReplyCompleteEvent@@QAE@ABVTDesC8@@@Z @ 1172 NONAME ; TUserPasskeyRequestReplyCompleteEvent::TUserPasskeyRequestReplyCompleteEvent(class TDesC8 const &)
	??0TUserPasskeyRequestReplyCompleteEvent@@QAE@W4THCIErrorCode@@EABVTBTDevAddr@@AAVTDes8@@@Z @ 1173 NONAME ; TUserPasskeyRequestReplyCompleteEvent::TUserPasskeyRequestReplyCompleteEvent(enum THCIErrorCode, unsigned char, class TBTDevAddr const &, class TDes8 &)
	??0TWriteDefaultErroneousDataReportingCompleteEvent@@QAE@ABVTDesC8@@@Z @ 1174 NONAME ; TWriteDefaultErroneousDataReportingCompleteEvent::TWriteDefaultErroneousDataReportingCompleteEvent(class TDesC8 const &)
	??0TWriteDefaultErroneousDataReportingCompleteEvent@@QAE@W4THCIErrorCode@@EAAVTDes8@@@Z @ 1175 NONAME ; TWriteDefaultErroneousDataReportingCompleteEvent::TWriteDefaultErroneousDataReportingCompleteEvent(enum THCIErrorCode, unsigned char, class TDes8 &)
	??0TWriteExtendedInquiryResponseCompleteEvent@@QAE@ABVTDesC8@@@Z @ 1176 NONAME ; TWriteExtendedInquiryResponseCompleteEvent::TWriteExtendedInquiryResponseCompleteEvent(class TDesC8 const &)
	??0TWriteExtendedInquiryResponseCompleteEvent@@QAE@W4THCIErrorCode@@EAAVTDes8@@@Z @ 1177 NONAME ; TWriteExtendedInquiryResponseCompleteEvent::TWriteExtendedInquiryResponseCompleteEvent(enum THCIErrorCode, unsigned char, class TDes8 &)
	??0TWriteInquiryResponseTransmitPowerLevelCompleteEvent@@QAE@ABVTDesC8@@@Z @ 1178 NONAME ; TWriteInquiryResponseTransmitPowerLevelCompleteEvent::TWriteInquiryResponseTransmitPowerLevelCompleteEvent(class TDesC8 const &)
	??0TWriteInquiryResponseTransmitPowerLevelCompleteEvent@@QAE@W4THCIErrorCode@@EAAVTDes8@@@Z @ 1179 NONAME ; TWriteInquiryResponseTransmitPowerLevelCompleteEvent::TWriteInquiryResponseTransmitPowerLevelCompleteEvent(enum THCIErrorCode, unsigned char, class TDes8 &)
	??0TWriteSimplePairingDebugModeCompleteEvent@@QAE@ABVTDesC8@@@Z @ 1180 NONAME ; TWriteSimplePairingDebugModeCompleteEvent::TWriteSimplePairingDebugModeCompleteEvent(class TDesC8 const &)
	??0TWriteSimplePairingDebugModeCompleteEvent@@QAE@W4THCIErrorCode@@EAAVTDes8@@@Z @ 1181 NONAME ; TWriteSimplePairingDebugModeCompleteEvent::TWriteSimplePairingDebugModeCompleteEvent(enum THCIErrorCode, unsigned char, class TDes8 &)
	??0TWriteSimplePairingModeCompleteEvent@@QAE@ABVTDesC8@@@Z @ 1182 NONAME ; TWriteSimplePairingModeCompleteEvent::TWriteSimplePairingModeCompleteEvent(class TDesC8 const &)
	??0TWriteSimplePairingModeCompleteEvent@@QAE@W4THCIErrorCode@@EAAVTDes8@@@Z @ 1183 NONAME ; TWriteSimplePairingModeCompleteEvent::TWriteSimplePairingModeCompleteEvent(enum THCIErrorCode, unsigned char, class TDes8 &)
	??1TEncryptionKeyRefreshCompleteEvent@@QAE@XZ @ 1184 NONAME ; TEncryptionKeyRefreshCompleteEvent::~TEncryptionKeyRefreshCompleteEvent(void)
	??1TEnhancedFlushCompleteEvent@@QAE@XZ @ 1185 NONAME ; TEnhancedFlushCompleteEvent::~TEnhancedFlushCompleteEvent(void)
	??1TExtendedInquiryResultEvent@@QAE@XZ @ 1186 NONAME ; TExtendedInquiryResultEvent::~TExtendedInquiryResultEvent(void)
	??1TIOCapabilityRequestEvent@@QAE@XZ @ 1187 NONAME ; TIOCapabilityRequestEvent::~TIOCapabilityRequestEvent(void)
	??1TIOCapabilityResponseEvent@@QAE@XZ @ 1188 NONAME ; TIOCapabilityResponseEvent::~TIOCapabilityResponseEvent(void)
	??1TKeypressNotificationEvent@@QAE@XZ @ 1189 NONAME ; TKeypressNotificationEvent::~TKeypressNotificationEvent(void)
	??1TLinkSupervisionTimeoutChangedEvent@@QAE@XZ @ 1190 NONAME ; TLinkSupervisionTimeoutChangedEvent::~TLinkSupervisionTimeoutChangedEvent(void)
	??1TRemoteHostSupportedFeaturesNotificationEvent@@QAE@XZ @ 1191 NONAME ; TRemoteHostSupportedFeaturesNotificationEvent::~TRemoteHostSupportedFeaturesNotificationEvent(void)
	??1TRemoteOOBDataRequestEvent@@QAE@XZ @ 1192 NONAME ; TRemoteOOBDataRequestEvent::~TRemoteOOBDataRequestEvent(void)
	??1TSimplePairingCompleteEvent@@QAE@XZ @ 1193 NONAME ; TSimplePairingCompleteEvent::~TSimplePairingCompleteEvent(void)
	??1TSniffSubratingEvent@@QAE@XZ @ 1194 NONAME ; TSniffSubratingEvent::~TSniffSubratingEvent(void)
	??1TUserConfirmationRequestEvent@@QAE@XZ @ 1195 NONAME ; TUserConfirmationRequestEvent::~TUserConfirmationRequestEvent(void)
	??1TUserPasskeyNotificationEvent@@QAE@XZ @ 1196 NONAME ; TUserPasskeyNotificationEvent::~TUserPasskeyNotificationEvent(void)
	??1TUserPasskeyRequestEvent@@QAE@XZ @ 1197 NONAME ; TUserPasskeyRequestEvent::~TUserPasskeyRequestEvent(void)
	?AsSimplePairingHash@THCIEventBase@@IBE?AV?$TBuf8@$0BA@@@H@Z @ 1198 NONAME ; class TBuf8<16> THCIEventBase::AsSimplePairingHash(int) const
	?AsSimplePairingRandomizer@THCIEventBase@@IBE?AV?$TBuf8@$0BA@@@H@Z @ 1199 NONAME ; class TBuf8<16> THCIEventBase::AsSimplePairingRandomizer(int) const
	?AsTInt8@THCIEventBase@@IBECH@Z @ 1200 NONAME ; signed char THCIEventBase::AsTInt8(int) const
	?AsTInt8@THCIEventBase@@IBECHHH@Z @ 1201 NONAME ; signed char THCIEventBase::AsTInt8(int, int, int) const
	?AuthenticationRequirements@CIOCapabilityRequestReplyCommand@@QBEEXZ @ 1202 NONAME ; unsigned char CIOCapabilityRequestReplyCommand::AuthenticationRequirements(void) const
	?AuthenticationRequirements@TIOCapabilityResponseEvent@@QBEEXZ @ 1203 NONAME ; unsigned char TIOCapabilityResponseEvent::AuthenticationRequirements(void) const
	?BDADDR@CIOCapabilityRequestNegativeReplyCommand@@QBE?AVTBTDevAddr@@XZ @ 1204 NONAME ; class TBTDevAddr CIOCapabilityRequestNegativeReplyCommand::BDADDR(void) const
	?BDADDR@CIOCapabilityRequestReplyCommand@@QBE?AVTBTDevAddr@@XZ @ 1205 NONAME ; class TBTDevAddr CIOCapabilityRequestReplyCommand::BDADDR(void) const
	?BDADDR@CRemoteOOBDataRequestNegativeReplyCommand@@QBE?AVTBTDevAddr@@XZ @ 1206 NONAME ; class TBTDevAddr CRemoteOOBDataRequestNegativeReplyCommand::BDADDR(void) const
	?BDADDR@CRemoteOOBDataRequestReplyCommand@@QBE?AVTBTDevAddr@@XZ @ 1207 NONAME ; class TBTDevAddr CRemoteOOBDataRequestReplyCommand::BDADDR(void) const
	?BDADDR@CSendKeypressNotificationCommand@@QBE?AVTBTDevAddr@@XZ @ 1208 NONAME ; class TBTDevAddr CSendKeypressNotificationCommand::BDADDR(void) const
	?BDADDR@CUserConfirmationRequestNegativeReplyCommand@@QBE?AVTBTDevAddr@@XZ @ 1209 NONAME ; class TBTDevAddr CUserConfirmationRequestNegativeReplyCommand::BDADDR(void) const
	?BDADDR@CUserConfirmationRequestReplyCommand@@QBE?AVTBTDevAddr@@XZ @ 1210 NONAME ; class TBTDevAddr CUserConfirmationRequestReplyCommand::BDADDR(void) const
	?BDADDR@CUserPasskeyRequestNegativeReplyCommand@@QBE?AVTBTDevAddr@@XZ @ 1211 NONAME ; class TBTDevAddr CUserPasskeyRequestNegativeReplyCommand::BDADDR(void) const
	?BDADDR@CUserPasskeyRequestReplyCommand@@QBE?AVTBTDevAddr@@XZ @ 1212 NONAME ; class TBTDevAddr CUserPasskeyRequestReplyCommand::BDADDR(void) const
	?BDADDR@TExtendedInquiryResultEvent@@QBE?AVTBTDevAddr@@XZ @ 1213 NONAME ; class TBTDevAddr TExtendedInquiryResultEvent::BDADDR(void) const
	?BDADDR@TIOCapabilityRequestEvent@@QBE?AVTBTDevAddr@@XZ @ 1214 NONAME ; class TBTDevAddr TIOCapabilityRequestEvent::BDADDR(void) const
	?BDADDR@TIOCapabilityRequestNegativeReplyCompleteEvent@@QBE?AVTBTDevAddr@@XZ @ 1215 NONAME ; class TBTDevAddr TIOCapabilityRequestNegativeReplyCompleteEvent::BDADDR(void) const
	?BDADDR@TIOCapabilityRequestReplyCompleteEvent@@QBE?AVTBTDevAddr@@XZ @ 1216 NONAME ; class TBTDevAddr TIOCapabilityRequestReplyCompleteEvent::BDADDR(void) const
	?BDADDR@TIOCapabilityResponseEvent@@QBE?AVTBTDevAddr@@XZ @ 1217 NONAME ; class TBTDevAddr TIOCapabilityResponseEvent::BDADDR(void) const
	?BDADDR@TKeypressNotificationEvent@@QBE?AVTBTDevAddr@@XZ @ 1218 NONAME ; class TBTDevAddr TKeypressNotificationEvent::BDADDR(void) const
	?BDADDR@TRemoteHostSupportedFeaturesNotificationEvent@@QBE?AVTBTDevAddr@@XZ @ 1219 NONAME ; class TBTDevAddr TRemoteHostSupportedFeaturesNotificationEvent::BDADDR(void) const
	?BDADDR@TRemoteOOBDataRequestEvent@@QBE?AVTBTDevAddr@@XZ @ 1220 NONAME ; class TBTDevAddr TRemoteOOBDataRequestEvent::BDADDR(void) const
	?BDADDR@TRemoteOOBDataRequestNegativeReplyCompleteEvent@@QBE?AVTBTDevAddr@@XZ @ 1221 NONAME ; class TBTDevAddr TRemoteOOBDataRequestNegativeReplyCompleteEvent::BDADDR(void) const
	?BDADDR@TRemoteOOBDataRequestReplyCompleteEvent@@QBE?AVTBTDevAddr@@XZ @ 1222 NONAME ; class TBTDevAddr TRemoteOOBDataRequestReplyCompleteEvent::BDADDR(void) const
	?BDADDR@TSendKeypressNotificationCompleteEvent@@QBE?AVTBTDevAddr@@XZ @ 1223 NONAME ; class TBTDevAddr TSendKeypressNotificationCompleteEvent::BDADDR(void) const
	?BDADDR@TSimplePairingCompleteEvent@@QBE?AVTBTDevAddr@@XZ @ 1224 NONAME ; class TBTDevAddr TSimplePairingCompleteEvent::BDADDR(void) const
	?BDADDR@TUserConfirmationRequestEvent@@QBE?AVTBTDevAddr@@XZ @ 1225 NONAME ; class TBTDevAddr TUserConfirmationRequestEvent::BDADDR(void) const
	?BDADDR@TUserConfirmationRequestNegativeReplyCompleteEvent@@QBE?AVTBTDevAddr@@XZ @ 1226 NONAME ; class TBTDevAddr TUserConfirmationRequestNegativeReplyCompleteEvent::BDADDR(void) const
	?BDADDR@TUserConfirmationRequestReplyCompleteEvent@@QBE?AVTBTDevAddr@@XZ @ 1227 NONAME ; class TBTDevAddr TUserConfirmationRequestReplyCompleteEvent::BDADDR(void) const
	?BDADDR@TUserPasskeyNotificationEvent@@QBE?AVTBTDevAddr@@XZ @ 1228 NONAME ; class TBTDevAddr TUserPasskeyNotificationEvent::BDADDR(void) const
	?BDADDR@TUserPasskeyRequestEvent@@QBE?AVTBTDevAddr@@XZ @ 1229 NONAME ; class TBTDevAddr TUserPasskeyRequestEvent::BDADDR(void) const
	?BDADDR@TUserPasskeyRequestNegativeReplyCompleteEvent@@QBE?AVTBTDevAddr@@XZ @ 1230 NONAME ; class TBTDevAddr TUserPasskeyRequestNegativeReplyCompleteEvent::BDADDR(void) const
	?BDADDR@TUserPasskeyRequestReplyCompleteEvent@@QBE?AVTBTDevAddr@@XZ @ 1231 NONAME ; class TBTDevAddr TUserPasskeyRequestReplyCompleteEvent::BDADDR(void) const
	?Cast@TEncryptionKeyRefreshCompleteEvent@@SAAAV1@ABVTHCIEventBase@@@Z @ 1232 NONAME ; class TEncryptionKeyRefreshCompleteEvent & TEncryptionKeyRefreshCompleteEvent::Cast(class THCIEventBase const &)
	?Cast@TEnhancedFlushCompleteEvent@@SAAAV1@ABVTHCIEventBase@@@Z @ 1233 NONAME ; class TEnhancedFlushCompleteEvent & TEnhancedFlushCompleteEvent::Cast(class THCIEventBase const &)
	?Cast@TExtendedInquiryResultEvent@@SAAAV1@ABVTHCIEventBase@@@Z @ 1234 NONAME ; class TExtendedInquiryResultEvent & TExtendedInquiryResultEvent::Cast(class THCIEventBase const &)
	?Cast@TIOCapabilityRequestEvent@@SAAAV1@ABVTHCIEventBase@@@Z @ 1235 NONAME ; class TIOCapabilityRequestEvent & TIOCapabilityRequestEvent::Cast(class THCIEventBase const &)
	?Cast@TIOCapabilityRequestNegativeReplyCompleteEvent@@SAAAV1@ABVTHCIEventBase@@@Z @ 1236 NONAME ; class TIOCapabilityRequestNegativeReplyCompleteEvent & TIOCapabilityRequestNegativeReplyCompleteEvent::Cast(class THCIEventBase const &)
	?Cast@TIOCapabilityRequestReplyCompleteEvent@@SAAAV1@ABVTHCIEventBase@@@Z @ 1237 NONAME ; class TIOCapabilityRequestReplyCompleteEvent & TIOCapabilityRequestReplyCompleteEvent::Cast(class THCIEventBase const &)
	?Cast@TIOCapabilityResponseEvent@@SAAAV1@ABVTHCIEventBase@@@Z @ 1238 NONAME ; class TIOCapabilityResponseEvent & TIOCapabilityResponseEvent::Cast(class THCIEventBase const &)
	?Cast@TKeypressNotificationEvent@@SAAAV1@ABVTHCIEventBase@@@Z @ 1239 NONAME ; class TKeypressNotificationEvent & TKeypressNotificationEvent::Cast(class THCIEventBase const &)
	?Cast@TLinkSupervisionTimeoutChangedEvent@@SAAAV1@ABVTHCIEventBase@@@Z @ 1240 NONAME ; class TLinkSupervisionTimeoutChangedEvent & TLinkSupervisionTimeoutChangedEvent::Cast(class THCIEventBase const &)
	?Cast@TReadDefaultErroneousDataReportingCompleteEvent@@SAAAV1@ABVTHCIEventBase@@@Z @ 1241 NONAME ; class TReadDefaultErroneousDataReportingCompleteEvent & TReadDefaultErroneousDataReportingCompleteEvent::Cast(class THCIEventBase const &)
	?Cast@TReadExtendedInquiryResponseCompleteEvent@@SAAAV1@ABVTHCIEventBase@@@Z @ 1242 NONAME ; class TReadExtendedInquiryResponseCompleteEvent & TReadExtendedInquiryResponseCompleteEvent::Cast(class THCIEventBase const &)
	?Cast@TReadInquiryResponseTransmitPowerLevelCompleteEvent@@SAAAV1@ABVTHCIEventBase@@@Z @ 1243 NONAME ; class TReadInquiryResponseTransmitPowerLevelCompleteEvent & TReadInquiryResponseTransmitPowerLevelCompleteEvent::Cast(class THCIEventBase const &)
	?Cast@TReadLocalOOBDataCompleteEvent@@SAAAV1@ABVTHCIEventBase@@@Z @ 1244 NONAME ; class TReadLocalOOBDataCompleteEvent & TReadLocalOOBDataCompleteEvent::Cast(class THCIEventBase const &)
	?Cast@TReadSimplePairingModeCompleteEvent@@SAAAV1@ABVTHCIEventBase@@@Z @ 1245 NONAME ; class TReadSimplePairingModeCompleteEvent & TReadSimplePairingModeCompleteEvent::Cast(class THCIEventBase const &)
	?Cast@TRemoteHostSupportedFeaturesNotificationEvent@@SAAAV1@ABVTHCIEventBase@@@Z @ 1246 NONAME ; class TRemoteHostSupportedFeaturesNotificationEvent & TRemoteHostSupportedFeaturesNotificationEvent::Cast(class THCIEventBase const &)
	?Cast@TRemoteOOBDataRequestEvent@@SAAAV1@ABVTHCIEventBase@@@Z @ 1247 NONAME ; class TRemoteOOBDataRequestEvent & TRemoteOOBDataRequestEvent::Cast(class THCIEventBase const &)
	?Cast@TRemoteOOBDataRequestNegativeReplyCompleteEvent@@SAAAV1@ABVTHCIEventBase@@@Z @ 1248 NONAME ; class TRemoteOOBDataRequestNegativeReplyCompleteEvent & TRemoteOOBDataRequestNegativeReplyCompleteEvent::Cast(class THCIEventBase const &)
	?Cast@TRemoteOOBDataRequestReplyCompleteEvent@@SAAAV1@ABVTHCIEventBase@@@Z @ 1249 NONAME ; class TRemoteOOBDataRequestReplyCompleteEvent & TRemoteOOBDataRequestReplyCompleteEvent::Cast(class THCIEventBase const &)
	?Cast@TSendKeypressNotificationCompleteEvent@@SAAAV1@ABVTHCIEventBase@@@Z @ 1250 NONAME ; class TSendKeypressNotificationCompleteEvent & TSendKeypressNotificationCompleteEvent::Cast(class THCIEventBase const &)
	?Cast@TSimplePairingCompleteEvent@@SAAAV1@ABVTHCIEventBase@@@Z @ 1251 NONAME ; class TSimplePairingCompleteEvent & TSimplePairingCompleteEvent::Cast(class THCIEventBase const &)
	?Cast@TSniffSubratingCompleteEvent@@SAAAV1@ABVTHCIEventBase@@@Z @ 1252 NONAME ; class TSniffSubratingCompleteEvent & TSniffSubratingCompleteEvent::Cast(class THCIEventBase const &)
	?Cast@TSniffSubratingEvent@@SAAAV1@ABVTHCIEventBase@@@Z @ 1253 NONAME ; class TSniffSubratingEvent & TSniffSubratingEvent::Cast(class THCIEventBase const &)
	?Cast@TUserConfirmationRequestEvent@@SAAAV1@ABVTHCIEventBase@@@Z @ 1254 NONAME ; class TUserConfirmationRequestEvent & TUserConfirmationRequestEvent::Cast(class THCIEventBase const &)
	?Cast@TUserConfirmationRequestNegativeReplyCompleteEvent@@SAAAV1@ABVTHCIEventBase@@@Z @ 1255 NONAME ; class TUserConfirmationRequestNegativeReplyCompleteEvent & TUserConfirmationRequestNegativeReplyCompleteEvent::Cast(class THCIEventBase const &)
	?Cast@TUserConfirmationRequestReplyCompleteEvent@@SAAAV1@ABVTHCIEventBase@@@Z @ 1256 NONAME ; class TUserConfirmationRequestReplyCompleteEvent & TUserConfirmationRequestReplyCompleteEvent::Cast(class THCIEventBase const &)
	?Cast@TUserPasskeyNotificationEvent@@SAAAV1@ABVTHCIEventBase@@@Z @ 1257 NONAME ; class TUserPasskeyNotificationEvent & TUserPasskeyNotificationEvent::Cast(class THCIEventBase const &)
	?Cast@TUserPasskeyRequestEvent@@SAAAV1@ABVTHCIEventBase@@@Z @ 1258 NONAME ; class TUserPasskeyRequestEvent & TUserPasskeyRequestEvent::Cast(class THCIEventBase const &)
	?Cast@TUserPasskeyRequestNegativeReplyCompleteEvent@@SAAAV1@ABVTHCIEventBase@@@Z @ 1259 NONAME ; class TUserPasskeyRequestNegativeReplyCompleteEvent & TUserPasskeyRequestNegativeReplyCompleteEvent::Cast(class THCIEventBase const &)
	?Cast@TUserPasskeyRequestReplyCompleteEvent@@SAAAV1@ABVTHCIEventBase@@@Z @ 1260 NONAME ; class TUserPasskeyRequestReplyCompleteEvent & TUserPasskeyRequestReplyCompleteEvent::Cast(class THCIEventBase const &)
	?Cast@TWriteDefaultErroneousDataReportingCompleteEvent@@SAAAV1@ABVTHCIEventBase@@@Z @ 1261 NONAME ; class TWriteDefaultErroneousDataReportingCompleteEvent & TWriteDefaultErroneousDataReportingCompleteEvent::Cast(class THCIEventBase const &)
	?Cast@TWriteExtendedInquiryResponseCompleteEvent@@SAAAV1@ABVTHCIEventBase@@@Z @ 1262 NONAME ; class TWriteExtendedInquiryResponseCompleteEvent & TWriteExtendedInquiryResponseCompleteEvent::Cast(class THCIEventBase const &)
	?Cast@TWriteInquiryResponseTransmitPowerLevelCompleteEvent@@SAAAV1@ABVTHCIEventBase@@@Z @ 1263 NONAME ; class TWriteInquiryResponseTransmitPowerLevelCompleteEvent & TWriteInquiryResponseTransmitPowerLevelCompleteEvent::Cast(class THCIEventBase const &)
	?Cast@TWriteSimplePairingDebugModeCompleteEvent@@SAAAV1@ABVTHCIEventBase@@@Z @ 1264 NONAME ; class TWriteSimplePairingDebugModeCompleteEvent & TWriteSimplePairingDebugModeCompleteEvent::Cast(class THCIEventBase const &)
	?Cast@TWriteSimplePairingModeCompleteEvent@@SAAAV1@ABVTHCIEventBase@@@Z @ 1265 NONAME ; class TWriteSimplePairingModeCompleteEvent & TWriteSimplePairingModeCompleteEvent::Cast(class THCIEventBase const &)
	?ClassOfDevice@TExtendedInquiryResultEvent@@QBEKXZ @ 1266 NONAME ; unsigned long TExtendedInquiryResultEvent::ClassOfDevice(void) const
	?ClockOffset@TExtendedInquiryResultEvent@@QBE?AVTHCIClockOffset@@XZ @ 1267 NONAME ; class THCIClockOffset TExtendedInquiryResultEvent::ClockOffset(void) const
	?ConnectionHandle@CEnhancedFlushCommand@@QBE?AVTHCIConnectionHandle@@XZ @ 1268 NONAME ; class THCIConnectionHandle CEnhancedFlushCommand::ConnectionHandle(void) const
	?ConnectionHandle@CRefreshEncryptionKeyCommand@@QBE?AVTHCIConnectionHandle@@XZ @ 1269 NONAME ; class THCIConnectionHandle CRefreshEncryptionKeyCommand::ConnectionHandle(void) const
	?ConnectionHandle@CSniffSubratingCommand@@QBE?AVTHCIConnectionHandle@@XZ @ 1270 NONAME ; class THCIConnectionHandle CSniffSubratingCommand::ConnectionHandle(void) const
	?ConnectionHandle@TEncryptionKeyRefreshCompleteEvent@@QBE?AVTHCIConnectionHandle@@XZ @ 1271 NONAME ; class THCIConnectionHandle TEncryptionKeyRefreshCompleteEvent::ConnectionHandle(void) const
	?ConnectionHandle@TEnhancedFlushCompleteEvent@@QBE?AVTHCIConnectionHandle@@XZ @ 1272 NONAME ; class THCIConnectionHandle TEnhancedFlushCompleteEvent::ConnectionHandle(void) const
	?ConnectionHandle@TLinkSupervisionTimeoutChangedEvent@@QBE?AVTHCIConnectionHandle@@XZ @ 1273 NONAME ; class THCIConnectionHandle TLinkSupervisionTimeoutChangedEvent::ConnectionHandle(void) const
	?ConnectionHandle@TSniffSubratingCompleteEvent@@QBE?AVTHCIConnectionHandle@@XZ @ 1274 NONAME ; class THCIConnectionHandle TSniffSubratingCompleteEvent::ConnectionHandle(void) const
	?ConnectionHandle@TSniffSubratingEvent@@QBE?AVTHCIConnectionHandle@@XZ @ 1275 NONAME ; class THCIConnectionHandle TSniffSubratingEvent::ConnectionHandle(void) const
	?ErroneousDataReporting@CWriteDefaultErroneousDataReportingCommand@@QBEEXZ @ 1276 NONAME ; unsigned char CWriteDefaultErroneousDataReportingCommand::ErroneousDataReporting(void) const
	?ErroneousDataReporting@TReadDefaultErroneousDataReportingCompleteEvent@@QBEEXZ @ 1277 NONAME ; unsigned char TReadDefaultErroneousDataReportingCompleteEvent::ErroneousDataReporting(void) const
	?ExtendedInquiryResponse@CWriteExtendedInquiryResponseCommand@@QBE?AVTDesC8@@XZ @ 1278 NONAME ; class TDesC8 CWriteExtendedInquiryResponseCommand::ExtendedInquiryResponse(void) const
	?ExtendedInquiryResponse@TExtendedInquiryResultEvent@@QBE?AVTPtrC8@@XZ @ 1279 NONAME ; class TPtrC8 TExtendedInquiryResultEvent::ExtendedInquiryResponse(void) const
	?ExtendedInquiryResponse@TReadExtendedInquiryResponseCompleteEvent@@QBE?AVTPtrC8@@XZ @ 1280 NONAME ; class TPtrC8 TReadExtendedInquiryResponseCompleteEvent::ExtendedInquiryResponse(void) const
	?FECRequired@CWriteExtendedInquiryResponseCommand@@QBEEXZ @ 1281 NONAME ; unsigned char CWriteExtendedInquiryResponseCommand::FECRequired(void) const
	?FECRequired@TReadExtendedInquiryResponseCompleteEvent@@QBEEXZ @ 1282 NONAME ; unsigned char TReadExtendedInquiryResponseCompleteEvent::FECRequired(void) const
	?HostSupportedFeatures@TRemoteHostSupportedFeaturesNotificationEvent@@QBE_KXZ @ 1283 NONAME ; unsigned long long TRemoteHostSupportedFeaturesNotificationEvent::HostSupportedFeatures(void) const
	?IOCapability@CIOCapabilityRequestReplyCommand@@QBEEXZ @ 1284 NONAME ; unsigned char CIOCapabilityRequestReplyCommand::IOCapability(void) const
	?IOCapability@TIOCapabilityResponseEvent@@QBEEXZ @ 1285 NONAME ; unsigned char TIOCapabilityResponseEvent::IOCapability(void) const
	?LinkSupervisionTimeout@TLinkSupervisionTimeoutChangedEvent@@QBEGXZ @ 1286 NONAME ; unsigned short TLinkSupervisionTimeoutChangedEvent::LinkSupervisionTimeout(void) const
	?MaximumLatency@CSniffSubratingCommand@@QBEGXZ @ 1287 NONAME ; unsigned short CSniffSubratingCommand::MaximumLatency(void) const
	?MaximumReceiveLatency@TSniffSubratingEvent@@QBEGXZ @ 1288 NONAME ; unsigned short TSniffSubratingEvent::MaximumReceiveLatency(void) const
	?MaximumTransmitLatency@TSniffSubratingEvent@@QBEGXZ @ 1289 NONAME ; unsigned short TSniffSubratingEvent::MaximumTransmitLatency(void) const
	?MinimumLocalTimeout@CSniffSubratingCommand@@QBEGXZ @ 1290 NONAME ; unsigned short CSniffSubratingCommand::MinimumLocalTimeout(void) const
	?MinimumLocalTimeout@TSniffSubratingEvent@@QBEGXZ @ 1291 NONAME ; unsigned short TSniffSubratingEvent::MinimumLocalTimeout(void) const
	?MinimumRemoteTimeout@CSniffSubratingCommand@@QBEGXZ @ 1292 NONAME ; unsigned short CSniffSubratingCommand::MinimumRemoteTimeout(void) const
	?MinimumRemoteTimeout@TSniffSubratingEvent@@QBEGXZ @ 1293 NONAME ; unsigned short TSniffSubratingEvent::MinimumRemoteTimeout(void) const
	?NewL@CEnhancedFlushCommand@@SAPAV1@VTHCIConnectionHandle@@E@Z @ 1294 NONAME ; class CEnhancedFlushCommand * CEnhancedFlushCommand::NewL(class THCIConnectionHandle, unsigned char)
	?NewL@CEnhancedFlushCommand@@SAPAV1@XZ @ 1295 NONAME ; class CEnhancedFlushCommand * CEnhancedFlushCommand::NewL(void)
	?NewL@CIOCapabilityRequestNegativeReplyCommand@@SAPAV1@ABVTBTDevAddr@@E@Z @ 1296 NONAME ; class CIOCapabilityRequestNegativeReplyCommand * CIOCapabilityRequestNegativeReplyCommand::NewL(class TBTDevAddr const &, unsigned char)
	?NewL@CIOCapabilityRequestNegativeReplyCommand@@SAPAV1@XZ @ 1297 NONAME ; class CIOCapabilityRequestNegativeReplyCommand * CIOCapabilityRequestNegativeReplyCommand::NewL(void)
	?NewL@CIOCapabilityRequestReplyCommand@@SAPAV1@ABVTBTDevAddr@@EEE@Z @ 1298 NONAME ; class CIOCapabilityRequestReplyCommand * CIOCapabilityRequestReplyCommand::NewL(class TBTDevAddr const &, unsigned char, unsigned char, unsigned char)
	?NewL@CIOCapabilityRequestReplyCommand@@SAPAV1@XZ @ 1299 NONAME ; class CIOCapabilityRequestReplyCommand * CIOCapabilityRequestReplyCommand::NewL(void)
	?NewL@CReadDefaultErroneousDataReportingCommand@@SAPAV1@XZ @ 1300 NONAME ; class CReadDefaultErroneousDataReportingCommand * CReadDefaultErroneousDataReportingCommand::NewL(void)
	?NewL@CReadExtendedInquiryResponseCommand@@SAPAV1@XZ @ 1301 NONAME ; class CReadExtendedInquiryResponseCommand * CReadExtendedInquiryResponseCommand::NewL(void)
	?NewL@CReadInquiryResponseTransmitPowerLevelCommand@@SAPAV1@XZ @ 1302 NONAME ; class CReadInquiryResponseTransmitPowerLevelCommand * CReadInquiryResponseTransmitPowerLevelCommand::NewL(void)
	?NewL@CReadLocalOOBDataCommand@@SAPAV1@XZ @ 1303 NONAME ; class CReadLocalOOBDataCommand * CReadLocalOOBDataCommand::NewL(void)
	?NewL@CReadSimplePairingModeCommand@@SAPAV1@XZ @ 1304 NONAME ; class CReadSimplePairingModeCommand * CReadSimplePairingModeCommand::NewL(void)
	?NewL@CRefreshEncryptionKeyCommand@@SAPAV1@VTHCIConnectionHandle@@@Z @ 1305 NONAME ; class CRefreshEncryptionKeyCommand * CRefreshEncryptionKeyCommand::NewL(class THCIConnectionHandle)
	?NewL@CRefreshEncryptionKeyCommand@@SAPAV1@XZ @ 1306 NONAME ; class CRefreshEncryptionKeyCommand * CRefreshEncryptionKeyCommand::NewL(void)
	?NewL@CRemoteOOBDataRequestNegativeReplyCommand@@SAPAV1@ABVTBTDevAddr@@@Z @ 1307 NONAME ; class CRemoteOOBDataRequestNegativeReplyCommand * CRemoteOOBDataRequestNegativeReplyCommand::NewL(class TBTDevAddr const &)
	?NewL@CRemoteOOBDataRequestNegativeReplyCommand@@SAPAV1@XZ @ 1308 NONAME ; class CRemoteOOBDataRequestNegativeReplyCommand * CRemoteOOBDataRequestNegativeReplyCommand::NewL(void)
	?NewL@CRemoteOOBDataRequestReplyCommand@@SAPAV1@ABVTBTDevAddr@@ABV?$TBuf8@$0BA@@@1@Z @ 1309 NONAME ; class CRemoteOOBDataRequestReplyCommand * CRemoteOOBDataRequestReplyCommand::NewL(class TBTDevAddr const &, class TBuf8<16> const &, class TBuf8<16> const &)
	?NewL@CRemoteOOBDataRequestReplyCommand@@SAPAV1@XZ @ 1310 NONAME ; class CRemoteOOBDataRequestReplyCommand * CRemoteOOBDataRequestReplyCommand::NewL(void)
	?NewL@CSendKeypressNotificationCommand@@SAPAV1@ABVTBTDevAddr@@E@Z @ 1311 NONAME ; class CSendKeypressNotificationCommand * CSendKeypressNotificationCommand::NewL(class TBTDevAddr const &, unsigned char)
	?NewL@CSendKeypressNotificationCommand@@SAPAV1@XZ @ 1312 NONAME ; class CSendKeypressNotificationCommand * CSendKeypressNotificationCommand::NewL(void)
	?NewL@CSniffSubratingCommand@@SAPAV1@VTHCIConnectionHandle@@GGG@Z @ 1313 NONAME ; class CSniffSubratingCommand * CSniffSubratingCommand::NewL(class THCIConnectionHandle, unsigned short, unsigned short, unsigned short)
	?NewL@CSniffSubratingCommand@@SAPAV1@XZ @ 1314 NONAME ; class CSniffSubratingCommand * CSniffSubratingCommand::NewL(void)
	?NewL@CUserConfirmationRequestNegativeReplyCommand@@SAPAV1@ABVTBTDevAddr@@@Z @ 1315 NONAME ; class CUserConfirmationRequestNegativeReplyCommand * CUserConfirmationRequestNegativeReplyCommand::NewL(class TBTDevAddr const &)
	?NewL@CUserConfirmationRequestNegativeReplyCommand@@SAPAV1@XZ @ 1316 NONAME ; class CUserConfirmationRequestNegativeReplyCommand * CUserConfirmationRequestNegativeReplyCommand::NewL(void)
	?NewL@CUserConfirmationRequestReplyCommand@@SAPAV1@ABVTBTDevAddr@@@Z @ 1317 NONAME ; class CUserConfirmationRequestReplyCommand * CUserConfirmationRequestReplyCommand::NewL(class TBTDevAddr const &)
	?NewL@CUserConfirmationRequestReplyCommand@@SAPAV1@XZ @ 1318 NONAME ; class CUserConfirmationRequestReplyCommand * CUserConfirmationRequestReplyCommand::NewL(void)
	?NewL@CUserPasskeyRequestNegativeReplyCommand@@SAPAV1@ABVTBTDevAddr@@@Z @ 1319 NONAME ; class CUserPasskeyRequestNegativeReplyCommand * CUserPasskeyRequestNegativeReplyCommand::NewL(class TBTDevAddr const &)
	?NewL@CUserPasskeyRequestNegativeReplyCommand@@SAPAV1@XZ @ 1320 NONAME ; class CUserPasskeyRequestNegativeReplyCommand * CUserPasskeyRequestNegativeReplyCommand::NewL(void)
	?NewL@CUserPasskeyRequestReplyCommand@@SAPAV1@ABVTBTDevAddr@@K@Z @ 1321 NONAME ; class CUserPasskeyRequestReplyCommand * CUserPasskeyRequestReplyCommand::NewL(class TBTDevAddr const &, unsigned long)
	?NewL@CUserPasskeyRequestReplyCommand@@SAPAV1@XZ @ 1322 NONAME ; class CUserPasskeyRequestReplyCommand * CUserPasskeyRequestReplyCommand::NewL(void)
	?NewL@CWriteDefaultErroneousDataReportingCommand@@SAPAV1@E@Z @ 1323 NONAME ; class CWriteDefaultErroneousDataReportingCommand * CWriteDefaultErroneousDataReportingCommand::NewL(unsigned char)
	?NewL@CWriteDefaultErroneousDataReportingCommand@@SAPAV1@XZ @ 1324 NONAME ; class CWriteDefaultErroneousDataReportingCommand * CWriteDefaultErroneousDataReportingCommand::NewL(void)
	?NewL@CWriteExtendedInquiryResponseCommand@@SAPAV1@EABVTDesC8@@@Z @ 1325 NONAME ; class CWriteExtendedInquiryResponseCommand * CWriteExtendedInquiryResponseCommand::NewL(unsigned char, class TDesC8 const &)
	?NewL@CWriteExtendedInquiryResponseCommand@@SAPAV1@XZ @ 1326 NONAME ; class CWriteExtendedInquiryResponseCommand * CWriteExtendedInquiryResponseCommand::NewL(void)
	?NewL@CWriteInquiryResponseTransmitPowerLevelCommand@@SAPAV1@C@Z @ 1327 NONAME ; class CWriteInquiryResponseTransmitPowerLevelCommand * CWriteInquiryResponseTransmitPowerLevelCommand::NewL(signed char)
	?NewL@CWriteInquiryResponseTransmitPowerLevelCommand@@SAPAV1@XZ @ 1328 NONAME ; class CWriteInquiryResponseTransmitPowerLevelCommand * CWriteInquiryResponseTransmitPowerLevelCommand::NewL(void)
	?NewL@CWriteSimplePairingDebugModeCommand@@SAPAV1@E@Z @ 1329 NONAME ; class CWriteSimplePairingDebugModeCommand * CWriteSimplePairingDebugModeCommand::NewL(unsigned char)
	?NewL@CWriteSimplePairingDebugModeCommand@@SAPAV1@XZ @ 1330 NONAME ; class CWriteSimplePairingDebugModeCommand * CWriteSimplePairingDebugModeCommand::NewL(void)
	?NewL@CWriteSimplePairingModeCommand@@SAPAV1@E@Z @ 1331 NONAME ; class CWriteSimplePairingModeCommand * CWriteSimplePairingModeCommand::NewL(unsigned char)
	?NewL@CWriteSimplePairingModeCommand@@SAPAV1@XZ @ 1332 NONAME ; class CWriteSimplePairingModeCommand * CWriteSimplePairingModeCommand::NewL(void)
	?NotificationType@CSendKeypressNotificationCommand@@QBEEXZ @ 1333 NONAME ; unsigned char CSendKeypressNotificationCommand::NotificationType(void) const
	?NotificationType@TKeypressNotificationEvent@@QBEEXZ @ 1334 NONAME ; unsigned char TKeypressNotificationEvent::NotificationType(void) const
	?NumResponses@TExtendedInquiryResultEvent@@QBEEXZ @ 1335 NONAME ; unsigned char TExtendedInquiryResultEvent::NumResponses(void) const
	?NumericValue@CUserPasskeyRequestReplyCommand@@QBEKXZ @ 1336 NONAME ; unsigned long CUserPasskeyRequestReplyCommand::NumericValue(void) const
	?NumericValue@TUserConfirmationRequestEvent@@QBEKXZ @ 1337 NONAME ; unsigned long TUserConfirmationRequestEvent::NumericValue(void) const
	?OOBDataC@CRemoteOOBDataRequestReplyCommand@@QBE?AV?$TBuf8@$0BA@@@XZ @ 1338 NONAME ; class TBuf8<16> CRemoteOOBDataRequestReplyCommand::OOBDataC(void) const
	?OOBDataC@TReadLocalOOBDataCompleteEvent@@QBE?AV?$TBuf8@$0BA@@@XZ @ 1339 NONAME ; class TBuf8<16> TReadLocalOOBDataCompleteEvent::OOBDataC(void) const
	?OOBDataPresent@CIOCapabilityRequestReplyCommand@@QBEEXZ @ 1340 NONAME ; unsigned char CIOCapabilityRequestReplyCommand::OOBDataPresent(void) const
	?OOBDataPresent@TIOCapabilityResponseEvent@@QBEEXZ @ 1341 NONAME ; unsigned char TIOCapabilityResponseEvent::OOBDataPresent(void) const
	?OOBDataR@CRemoteOOBDataRequestReplyCommand@@QBE?AV?$TBuf8@$0BA@@@XZ @ 1342 NONAME ; class TBuf8<16> CRemoteOOBDataRequestReplyCommand::OOBDataR(void) const
	?OOBDataR@TReadLocalOOBDataCompleteEvent@@QBE?AV?$TBuf8@$0BA@@@XZ @ 1343 NONAME ; class TBuf8<16> TReadLocalOOBDataCompleteEvent::OOBDataR(void) const
	?PacketType@CEnhancedFlushCommand@@QBEEXZ @ 1344 NONAME ; unsigned char CEnhancedFlushCommand::PacketType(void) const
	?PageScanRepetitionMode@TExtendedInquiryResultEvent@@QBE?AVTHCIPageScanRepetitionMode@@XZ @ 1345 NONAME ; class THCIPageScanRepetitionMode TExtendedInquiryResultEvent::PageScanRepetitionMode(void) const
	?Passkey@TUserPasskeyNotificationEvent@@QBEKXZ @ 1346 NONAME ; unsigned long TUserPasskeyNotificationEvent::Passkey(void) const
	?RSSI@TExtendedInquiryResultEvent@@QBE?AVTHCIRssi@@XZ @ 1347 NONAME ; class THCIRssi TExtendedInquiryResultEvent::RSSI(void) const
	?Reason@CIOCapabilityRequestNegativeReplyCommand@@QBEEXZ @ 1348 NONAME ; unsigned char CIOCapabilityRequestNegativeReplyCommand::Reason(void) const
	?Reserved@TExtendedInquiryResultEvent@@QBE?AVTHCIReservedOctet@@XZ @ 1349 NONAME ; class THCIReservedOctet TExtendedInquiryResultEvent::Reserved(void) const
	?Reset@CEnhancedFlushCommand@@QAEXVTHCIConnectionHandle@@E@Z @ 1350 NONAME ; void CEnhancedFlushCommand::Reset(class THCIConnectionHandle, unsigned char)
	?Reset@CIOCapabilityRequestNegativeReplyCommand@@QAEXABVTBTDevAddr@@E@Z @ 1351 NONAME ; void CIOCapabilityRequestNegativeReplyCommand::Reset(class TBTDevAddr const &, unsigned char)
	?Reset@CIOCapabilityRequestReplyCommand@@QAEXABVTBTDevAddr@@EEE@Z @ 1352 NONAME ; void CIOCapabilityRequestReplyCommand::Reset(class TBTDevAddr const &, unsigned char, unsigned char, unsigned char)
	?Reset@CReadDefaultErroneousDataReportingCommand@@QAEXXZ @ 1353 NONAME ; void CReadDefaultErroneousDataReportingCommand::Reset(void)
	?Reset@CReadExtendedInquiryResponseCommand@@QAEXXZ @ 1354 NONAME ; void CReadExtendedInquiryResponseCommand::Reset(void)
	?Reset@CReadInquiryResponseTransmitPowerLevelCommand@@QAEXXZ @ 1355 NONAME ; void CReadInquiryResponseTransmitPowerLevelCommand::Reset(void)
	?Reset@CReadLocalOOBDataCommand@@QAEXXZ @ 1356 NONAME ; void CReadLocalOOBDataCommand::Reset(void)
	?Reset@CReadSimplePairingModeCommand@@QAEXXZ @ 1357 NONAME ; void CReadSimplePairingModeCommand::Reset(void)
	?Reset@CRefreshEncryptionKeyCommand@@QAEXVTHCIConnectionHandle@@@Z @ 1358 NONAME ; void CRefreshEncryptionKeyCommand::Reset(class THCIConnectionHandle)
	?Reset@CRemoteOOBDataRequestNegativeReplyCommand@@QAEXABVTBTDevAddr@@@Z @ 1359 NONAME ; void CRemoteOOBDataRequestNegativeReplyCommand::Reset(class TBTDevAddr const &)
	?Reset@CRemoteOOBDataRequestReplyCommand@@QAEXABVTBTDevAddr@@ABV?$TBuf8@$0BA@@@1@Z @ 1360 NONAME ; void CRemoteOOBDataRequestReplyCommand::Reset(class TBTDevAddr const &, class TBuf8<16> const &, class TBuf8<16> const &)
	?Reset@CSendKeypressNotificationCommand@@QAEXABVTBTDevAddr@@E@Z @ 1361 NONAME ; void CSendKeypressNotificationCommand::Reset(class TBTDevAddr const &, unsigned char)
	?Reset@CSniffSubratingCommand@@QAEXVTHCIConnectionHandle@@GGG@Z @ 1362 NONAME ; void CSniffSubratingCommand::Reset(class THCIConnectionHandle, unsigned short, unsigned short, unsigned short)
	?Reset@CUserConfirmationRequestNegativeReplyCommand@@QAEXABVTBTDevAddr@@@Z @ 1363 NONAME ; void CUserConfirmationRequestNegativeReplyCommand::Reset(class TBTDevAddr const &)
	?Reset@CUserConfirmationRequestReplyCommand@@QAEXABVTBTDevAddr@@@Z @ 1364 NONAME ; void CUserConfirmationRequestReplyCommand::Reset(class TBTDevAddr const &)
	?Reset@CUserPasskeyRequestNegativeReplyCommand@@QAEXABVTBTDevAddr@@@Z @ 1365 NONAME ; void CUserPasskeyRequestNegativeReplyCommand::Reset(class TBTDevAddr const &)
	?Reset@CUserPasskeyRequestReplyCommand@@QAEXABVTBTDevAddr@@K@Z @ 1366 NONAME ; void CUserPasskeyRequestReplyCommand::Reset(class TBTDevAddr const &, unsigned long)
	?Reset@CWriteDefaultErroneousDataReportingCommand@@QAEXE@Z @ 1367 NONAME ; void CWriteDefaultErroneousDataReportingCommand::Reset(unsigned char)
	?Reset@CWriteExtendedInquiryResponseCommand@@QAEXEABVTDesC8@@@Z @ 1368 NONAME ; void CWriteExtendedInquiryResponseCommand::Reset(unsigned char, class TDesC8 const &)
	?Reset@CWriteInquiryResponseTransmitPowerLevelCommand@@QAEXC@Z @ 1369 NONAME ; void CWriteInquiryResponseTransmitPowerLevelCommand::Reset(signed char)
	?Reset@CWriteSimplePairingDebugModeCommand@@QAEXE@Z @ 1370 NONAME ; void CWriteSimplePairingDebugModeCommand::Reset(unsigned char)
	?Reset@CWriteSimplePairingModeCommand@@QAEXE@Z @ 1371 NONAME ; void CWriteSimplePairingModeCommand::Reset(unsigned char)
	?SimplePairingDebugMode@CWriteSimplePairingDebugModeCommand@@QBEEXZ @ 1372 NONAME ; unsigned char CWriteSimplePairingDebugModeCommand::SimplePairingDebugMode(void) const
	?SimplePairingMode@CWriteSimplePairingModeCommand@@QBEEXZ @ 1373 NONAME ; unsigned char CWriteSimplePairingModeCommand::SimplePairingMode(void) const
	?SimplePairingMode@TReadSimplePairingModeCompleteEvent@@QBEEXZ @ 1374 NONAME ; unsigned char TReadSimplePairingModeCompleteEvent::SimplePairingMode(void) const
	?TxPowerLevel@CWriteInquiryResponseTransmitPowerLevelCommand@@QBECXZ @ 1375 NONAME ; signed char CWriteInquiryResponseTransmitPowerLevelCommand::TxPowerLevel(void) const
	?TxPowerLevel@TReadInquiryResponseTransmitPowerLevelCompleteEvent@@QBECXZ @ 1376 NONAME ; signed char TReadInquiryResponseTransmitPowerLevelCompleteEvent::TxPowerLevel(void) const
	?AsBluetoothDeviceName@THCIEventBase@@IBE?AVTPtrC8@@H@Z @ 1377 NONAME ; class TPtrC8 THCIEventBase::AsBluetoothDeviceName(int) const
	??0THCIEventBase@@IAE@ABVTDesC8@@@Z @ 1378 NONAME
	?SetMatcher@CVendorDebugCommand@@QAEXPAVMVendorDebugCommandMatcher@@@Z @ 1379 NONAME ; void CVendorDebugCommand::SetMatcher(class MVendorDebugCommandMatcher *)

