EXPORTS
	_ZN10CPhCltUssd14SendUssdCancelEv @ 1 NONAME
	_ZN10CPhCltUssd4NewLEi @ 2 NONAME
	_ZN10CPhCltUssd8SendUssdERK6TDesC8 @ 3 NONAME
	_ZN10CPhCltUssd8SendUssdERK6TDesC8h @ 4 NONAME
	_ZN10CPhCltUssd8SendUssdERK7TDesC16 @ 5 NONAME
	_ZN10CPhCltUssdD0Ev @ 6 NONAME
	_ZN10CPhCltUssdD1Ev @ 7 NONAME
	_ZN10CPhCltUssdD2Ev @ 8 NONAME
	_ZN10PhCltUtils11IsValidCharE5TChar @ 9 NONAME
	_ZN10PhCltUtils18RemoveInvalidCharsER6TDes16 @ 10 NONAME
	_ZN10PhCltUtils30RemoveURIPrefixdAndDomainCharsER6TDes16 @ 11 NONAME
	_ZN10RPhCltUssd10CancelSendEv @ 12 NONAME
	_ZN10RPhCltUssd11AppStartingEv @ 13 NONAME
	_ZN10RPhCltUssd14AppTerminatingE23TPhCltUssdAppExitReason @ 14 NONAME
	_ZN10RPhCltUssd15AppToBackgroundEv @ 15 NONAME
	_ZN10RPhCltUssd15AppToForegroundEv @ 16 NONAME
	_ZN10RPhCltUssd4OpenER12RPhCltServer @ 17 NONAME
	_ZN10RPhCltUssd5CloseEv @ 18 NONAME
	_ZN10RPhCltUssd8SendUssdER14TRequestStatusRK6TDesC8S4_ @ 19 NONAME
	_ZN10RPhCltUssdC1Ev @ 20 NONAME
	_ZN10RPhCltUssdC2Ev @ 21 NONAME
	_ZN12RPhCltServer7ConnectEi @ 22 NONAME
	_ZN12RPhCltServer9CreateAllER14TRequestStatus @ 23 NONAME
	_ZN12RPhCltServerC1Ev @ 24 NONAME
	_ZN12RPhCltServerC2Ev @ 25 NONAME
	_ZN16CPhCltCallNotify13RespondClientEi @ 26 NONAME
	_ZN16CPhCltCallNotify17NotifyCallAttemptER14TRequestStatusR22CPhCltExtPhoneDialData @ 27 NONAME
	_ZN16CPhCltCallNotify19NotifyEmergencyCallER14TRequestStatusR7TDesC16 @ 28 NONAME
	_ZN16CPhCltCallNotify24RespondEmergencyToClientEi @ 29 NONAME
	_ZN16CPhCltCallNotify4NewLEv @ 30 NONAME
	_ZN16CPhCltCallNotify4OpenER12RPhCltServer @ 31 NONAME
	_ZN16CPhCltCallNotify5CloseEv @ 32 NONAME
	_ZN16CPhCltCallNotifyD0Ev @ 33 NONAME
	_ZN16CPhCltCallNotifyD1Ev @ 34 NONAME
	_ZN16CPhCltCallNotifyD2Ev @ 35 NONAME
	_ZN18CPhCltExtPhoneBase4NewLEP22MPhCltExtPhoneObserver @ 36 NONAME
	_ZN18RPhCltResourceFile5CloseEv @ 37 NONAME
	_ZN18RPhCltResourceFile5OpenLER7CCoeEnv @ 38 NONAME
	_ZN18RPhCltResourceFileC1Ev @ 39 NONAME
	_ZN18RPhCltResourceFileC2Ev @ 40 NONAME
	_ZN19CPhCltEmergencyCall4NewLEP27MPhCltEmergencyCallObserver @ 41 NONAME
	_ZN19CPhCltUssdSatClient14SendSatMessageERK7TDesC16hR6TDes16RiRh @ 42 NONAME
	_ZN19CPhCltUssdSatClient20SendSatMessageCancelEv @ 43 NONAME
	_ZN19CPhCltUssdSatClient4NewLEi @ 44 NONAME
	_ZN19CPhCltUssdSatClientD0Ev @ 45 NONAME
	_ZN19CPhCltUssdSatClientD1Ev @ 46 NONAME
	_ZN19CPhCltUssdSatClientD2Ev @ 47 NONAME
	_ZN22CPhCltExtPhoneDialData10SetBearerLERK5TBuf8ILi14EE @ 48 NONAME
	_ZN22CPhCltExtPhoneDialData10SetSATCallEi @ 49 NONAME
	_ZN22CPhCltExtPhoneDialData11SetCallTypeE14TPhCltCallType @ 50 NONAME
	_ZN22CPhCltExtPhoneDialData13SetAllowMatchEi @ 51 NONAME
	_ZN22CPhCltExtPhoneDialData13SetShowNumberEi @ 52 NONAME
	_ZN22CPhCltExtPhoneDialData14SetSubAddressLERK4TBufILi21EE @ 53 NONAME
	_ZN22CPhCltExtPhoneDialData14SetWindowGroupEi @ 54 NONAME
	_ZN22CPhCltExtPhoneDialData15SetContactLinkLERK6TDesC8 @ 55 NONAME
	_ZN22CPhCltExtPhoneDialData15SetInitiateCallEi @ 56 NONAME
	_ZN22CPhCltExtPhoneDialData16SetEndOtherCallsEi @ 57 NONAME
	_ZN22CPhCltExtPhoneDialData17SetSendKeyPressedEi @ 58 NONAME
	_ZN22CPhCltExtPhoneDialData18SetTelephoneNumberERK4TBufILi100EE @ 59 NONAME
	_ZN22CPhCltExtPhoneDialData24SetRedialMaximumDurationE20TTimeIntervalSeconds @ 60 NONAME
	_ZN22CPhCltExtPhoneDialData4NewLERK6TDesC8 @ 61 NONAME
	_ZN22CPhCltExtPhoneDialData4NewLEv @ 62 NONAME
	_ZN22CPhCltExtPhoneDialData5NewLCERK6TDesC8 @ 63 NONAME
	_ZN22CPhCltExtPhoneDialData5NewLCEv @ 64 NONAME
	_ZN22CPhCltExtPhoneDialData6PackLCEv @ 65 NONAME
	_ZN22CPhCltExtPhoneDialData8SetNameLERK4TBufILi50EE @ 66 NONAME
	_ZN22CPhCltExtPhoneDialData9SetRedialEi @ 67 NONAME
	_ZN22CPhCltExtPhoneDialDataD0Ev @ 68 NONAME
	_ZN22CPhCltExtPhoneDialDataD1Ev @ 69 NONAME
	_ZN22CPhCltExtPhoneDialDataD2Ev @ 70 NONAME
	_ZN9RPhCltIhf10SetIhfModeEii @ 71 NONAME
	_ZN9RPhCltIhf19SetIhfModeFromPhoneEii @ 72 NONAME
	_ZN9RPhCltIhf4OpenER12RPhCltServeri @ 73 NONAME
	_ZN9RPhCltIhf5CloseEv @ 74 NONAME
	_ZN9RPhCltIhfC1Ev @ 75 NONAME
	_ZN9RPhCltIhfC2Ev @ 76 NONAME
	_ZNK10RPhCltUssd15StartUssdEditorEv @ 77 NONAME
	_ZNK16CPhCltCallNotify23CancelNotifyCallAttemptEv @ 78 NONAME
	_ZNK16CPhCltCallNotify25CancelNotifyEmergencyCallEv @ 79 NONAME
	_ZNK22CPhCltExtPhoneDialData10AllowMatchEv @ 80 NONAME
	_ZNK22CPhCltExtPhoneDialData10ShowNumberEv @ 81 NONAME
	_ZNK22CPhCltExtPhoneDialData10SubAddressEv @ 82 NONAME
	_ZNK22CPhCltExtPhoneDialData11ContactLinkEv @ 83 NONAME
	_ZNK22CPhCltExtPhoneDialData11WindowGroupEv @ 84 NONAME
	_ZNK22CPhCltExtPhoneDialData12InitiateCallEv @ 85 NONAME
	_ZNK22CPhCltExtPhoneDialData13EndOtherCallsEv @ 86 NONAME
	_ZNK22CPhCltExtPhoneDialData14SendKeyPressedEv @ 87 NONAME
	_ZNK22CPhCltExtPhoneDialData15TelephoneNumberEv @ 88 NONAME
	_ZNK22CPhCltExtPhoneDialData20CalculatePackageSizeEv @ 89 NONAME
	_ZNK22CPhCltExtPhoneDialData21RedialMaximumDurationEv @ 90 NONAME
	_ZNK22CPhCltExtPhoneDialData4NameEv @ 91 NONAME
	_ZNK22CPhCltExtPhoneDialData6BearerEv @ 92 NONAME
	_ZNK22CPhCltExtPhoneDialData6RedialEv @ 93 NONAME
	_ZNK22CPhCltExtPhoneDialData7SATCallEv @ 94 NONAME
	_ZNK22CPhCltExtPhoneDialData8CallTypeEv @ 95 NONAME
	_ZTI10CPhCltUssd @ 96 NONAME ; #<TI>#
	_ZTI16CPhCltCallNotify @ 97 NONAME ; #<TI>#
	_ZTI19CPhCltUssdSatClient @ 98 NONAME ; #<TI>#
	_ZTV10CPhCltUssd @ 99 NONAME ; #<VT>#
	_ZTV16CPhCltCallNotify @ 100 NONAME ; #<VT>#
	_ZTV19CPhCltUssdSatClient @ 101 NONAME ; #<VT>#
	_ZN22CPhCltExtPhoneDialData12SetServiceIdEm @ 102 NONAME
	_ZNK22CPhCltExtPhoneDialData9ServiceIdEv @ 103 NONAME
	_ZN22CPhCltExtPhoneDialData7SetUUILERK7TDesC16 @ 104 NONAME
	_ZNK22CPhCltExtPhoneDialData3UUIEv @ 105 NONAME

