EXPORTS
	_ZN7CCamera16CCameraHistogram14HistogramDataLEj @ 1 NONAME
	_ZN7CCamera16CCameraHistogram14HistogramDataLEv @ 2 NONAME
	_ZN7CCamera16CCameraHistogram14StopHistogramLEj @ 3 NONAME
	_ZN7CCamera16CCameraHistogram15StartHistogramLEj @ 4 NONAME
	_ZN7CCamera16CCameraHistogram17DestroyHistogramLEj @ 5 NONAME
	_ZN7CCamera16CCameraHistogram17PrepareHistogramLENS0_14THistogramTypeE @ 6 NONAME
	_ZN7CCamera16CCameraHistogram19SupportedHistogramsEv @ 7 NONAME
	_ZN7CCamera16CCameraHistogram20GetActiveHistogramsLER6RArrayIjE @ 8 NONAME
	_ZN7CCamera16CCameraHistogram20PrepareDSAHistogramLENS0_14THistogramTypeERK6TPointRK5TSizeRK4TRgb @ 9 NONAME
	_ZN7CCamera16CCameraHistogram26GetDSAHistogramPropertiesLEjR6TPointR5TSizeR4TRgb @ 10 NONAME
	_ZN7CCamera16CCameraHistogram29UpdateDSAHistogramPropertiesLEjRK6TPointRK5TSizeRK4TRgb @ 11 NONAME
	_ZN7CCamera16CCameraHistogram4NewLERS_ @ 12 NONAME
	_ZN7CCamera16CCameraHistogramD0Ev @ 13 NONAME
	_ZN7CCamera16CCameraHistogramD1Ev @ 14 NONAME
	_ZN7CCamera16CCameraHistogramD2Ev @ 15 NONAME
	_ZTIN7CCamera16CCameraHistogramE @ 16 NONAME ; #<TI>#
	_ZTVN7CCamera16CCameraHistogramE @ 17 NONAME ; #<VT>#
	_ZN7CCamera18CCameraV2Histogram13StopHistogramEv @ 18 NONAME
	_ZN7CCamera18CCameraV2Histogram14StartHistogramEv @ 19 NONAME
	_ZN7CCamera18CCameraV2Histogram23PrepareClientHistogramLENS0_14THistogramTypeE @ 20 NONAME
	_ZN7CCamera18CCameraV2Histogram23PrepareDirectHistogramLERKNS0_26TDirectHistogramParametersE @ 21 NONAME
	_ZN7CCamera18CCameraV2Histogram26TDirectHistogramParametersC1Ev @ 22 NONAME
	_ZN7CCamera18CCameraV2Histogram26TDirectHistogramParametersC2Ev @ 23 NONAME
	_ZN7CCamera18CCameraV2Histogram32UpdateDirectHistogramPropertiesLERKNS0_26TDirectHistogramParametersE @ 24 NONAME
	_ZN7CCamera18CCameraV2Histogram7CreateLERS_R22MImplementationFactory @ 25 NONAME
	_ZN7CCamera18CCameraV2HistogramD0Ev @ 26 NONAME
	_ZN7CCamera18CCameraV2HistogramD1Ev @ 27 NONAME
	_ZN7CCamera18CCameraV2HistogramD2Ev @ 28 NONAME
	_ZNK7CCamera18CCameraV2Histogram18GetHistogramStateLERi @ 29 NONAME
	_ZNK7CCamera18CCameraV2Histogram23GetSupportedHistogramsLERj @ 30 NONAME
	_ZNK7CCamera18CCameraV2Histogram26TDirectHistogramParameters4SizeEv @ 31 NONAME
	_ZNK7CCamera18CCameraV2Histogram26TDirectHistogramParameters7VersionEv @ 32 NONAME
	_ZNK7CCamera18CCameraV2Histogram29GetDirectHistogramPropertiesLERNS0_26TDirectHistogramParametersE @ 33 NONAME
	_ZNK7CCamera18CCameraV2Histogram30GetDirectHistogramSupportInfoLERi @ 34 NONAME
	_ZTIN7CCamera18CCameraV2HistogramE @ 35 NONAME
	_ZTVN7CCamera18CCameraV2HistogramE @ 36 NONAME

