EXPORTS
	_Z12LTsyFactoryLv @ 1 NONAME
	_ZTI10CATDtmfVts @ 2 NONAME
	_ZTI10CATGetImei @ 3 NONAME
	_ZTI10CATSIMCard @ 4 NONAME
	_ZTI10CAtManager @ 5 NONAME
	_ZTI10CAtSmsNack @ 6 NONAME
	_ZTI10CAtSmsSend @ 7 NONAME
	_ZTI10CTsyConfig @ 8 NONAME
	_ZTI11CATGetModel @ 9 NONAME
	_ZTI11CCommEngine @ 10 NONAME
	_ZTI11CCommReader @ 11 NONAME
	_ZTI11CCommWriter @ 12 NONAME
	_ZTI11CGetPhoneID @ 13 NONAME
	_ZTI12CATDialVoice @ 14 NONAME
	_ZTI12CATGetSignal @ 15 NONAME
	_ZTI12CRequestBase @ 16 NONAME
	_ZTI13CATGetBattery @ 17 NONAME
	_ZTI13CATGprsAttach @ 18 NONAME
	_ZTI13CATGprsDetach @ 19 NONAME
	_ZTI13CAtPhbkEnRead @ 20 NONAME
	_ZTI13CAtSmsReceive @ 21 NONAME
	_ZTI13CGetFdnStatus @ 22 NONAME
	_ZTI13CStringParser @ 23 NONAME
	_ZTI14CATGetCellInfo @ 24 NONAME
	_ZTI14CATGetRevision @ 25 NONAME
	_ZTI14CATNetworkInfo @ 26 NONAME
	_ZTI14CATUnsolicited @ 27 NONAME
	_ZTI14CAtCommandBase @ 28 NONAME
	_ZTI14CLtsyFactoryV1 @ 29 NONAME
	_ZTI15CATGetFdnStatus @ 30 NONAME
	_ZTI15CAtSmsStoreInfo @ 31 NONAME
	_ZTI15CAtSmsStoreRead @ 32 NONAME
	_ZTI15CLtsySatHandler @ 33 NONAME
	_ZTI15CLtsySimHandler @ 34 NONAME
	_ZTI15CLtsySmsHandler @ 35 NONAME
	_ZTI16CATDetectNetwork @ 36 NONAME
	_ZTI16CATGPRSSetConfig @ 37 NONAME
	_ZTI16CATGetFdnSupport @ 38 NONAME
	_ZTI16CATHelperCommand @ 39 NONAME
	_ZTI16CATSelectNetwork @ 40 NONAME
	_ZTI16CAtPhbkEnGetInfo @ 41 NONAME
	_ZTI16CAtPhbkEnReadAll @ 42 NONAME
	_ZTI16CAtPhbkStoreRead @ 43 NONAME
	_ZTI16CAtSmsStoreWrite @ 44 NONAME
	_ZTI16CGetOperatorNmae @ 45 NONAME
	_ZTI16CInitializePhone @ 46 NONAME
	_ZTI17CATGetModemStatus @ 47 NONAME
	_ZTI17CATNotifyCellInfo @ 48 NONAME
	_ZTI17CAtPhbkStoreCache @ 49 NONAME
	_ZTI17CAtPhbkStoreWrite @ 50 NONAME
	_ZTI17CAtSmsStoreDelete @ 51 NONAME
	_ZTI17CLtsyPhoneHandler @ 52 NONAME
	_ZTI17CRespondBufParser @ 53 NONAME
	_ZTI18CATGetManufacturer @ 54 NONAME
	_ZTI18CAtPhbkStoreDelete @ 55 NONAME
	_ZTI18CAtSmsStoreReadAll @ 56 NONAME
	_ZTI19CATGetPhoneCellInfo @ 57 NONAME
	_ZTI19CATSwitchOnLineMode @ 58 NONAME
	_ZTI19CActiveCommandStore @ 59 NONAME
	_ZTI19CAsyncHelperRequest @ 60 NONAME
	_ZTI19CAtMessageStoreInfo @ 61 NONAME
	_ZTI19CGlobalPhonemanager @ 62 NONAME
	_ZTI20CATGprsContextDelete @ 63 NONAME
	_ZTI20CATGprsNtwkRegStatus @ 64 NONAME
	_ZTI20CATGprsSetProfileReq @ 65 NONAME
	_ZTI20CATSelectNetworkMode @ 66 NONAME
	_ZTI20CATSetNotifyCellInfo @ 67 NONAME
	_ZTI20CAtSmsStoreDeleteAll @ 68 NONAME
	_ZTI20CLtsySecurityHandler @ 69 NONAME
	_ZTI21CATCommandControlBase @ 70 NONAME
	_ZTI21CATGPRSGetContextAddr @ 71 NONAME
	_ZTI21CATGprsContextConnect @ 72 NONAME
	_ZTI21CATWaitForCallHandler @ 73 NONAME
	_ZTI21CInitialisePdpContext @ 74 NONAME
	_ZTI21CLtsyPhonebookHandler @ 75 NONAME
	_ZTI22CATGprsContextActivate @ 76 NONAME
	_ZTI22CATNetworkRegistration @ 77 NONAME
	_ZTI22CAtPhbkStoreInitialise @ 78 NONAME
	_ZTI22CGetCurrentNetworkInfo @ 79 NONAME
	_ZTI23CATHangupCommandRecords @ 80 NONAME
	_ZTI23CLtsyCallControlHandler @ 81 NONAME
	_ZTI23CLtsyPhonebookEnHandler @ 82 NONAME
	_ZTI23CLtsyPhonebookOnHandler @ 83 NONAME
	_ZTI23CNotifyBatteryAndSignal @ 84 NONAME
	_ZTI24CATGprsContextDeactivate @ 85 NONAME
	_ZTI24CAtPhbkGetPhoneStoreInfo @ 86 NONAME
	_ZTI24CUnsolicitedEventMonitor @ 87 NONAME
	_ZTI25CATNetworkRegStatusChange @ 88 NONAME
	_ZTI25CActivatContextAndGetAddr @ 89 NONAME
	_ZTI25CLtsyCellBroadcastHandler @ 90 NONAME
	_ZTI26CATGprsNtwkRegStatusChange @ 91 NONAME
	_ZTI26CLtsyPacketServicesHandler @ 92 NONAME
	_ZTI27CLtsyCallInformationManager @ 93 NONAME
	_ZTI33CLtsyCallControlMultipartyHandler @ 94 NONAME
	_ZTI33CLtsySupplementaryServicesHandler @ 95 NONAME
	_ZTI37CUnsolicitedCommandCallControlHandler @ 96 NONAME
	_ZTI7CATChld @ 97 NONAME
	_ZTI7CATClcc @ 98 NONAME
	_ZTI7CATRing @ 99 NONAME
	_ZTI9CATAnswer @ 100 NONAME
	_ZTI9CATHangUp @ 101 NONAME
	_ZTI9CAtSmsAck @ 102 NONAME
	_ZTT15CLtsySimHandler @ 103 NONAME
	_ZTV10CATDtmfVts @ 104 NONAME
	_ZTV10CATGetImei @ 105 NONAME
	_ZTV10CATSIMCard @ 106 NONAME
	_ZTV10CAtManager @ 107 NONAME
	_ZTV10CAtSmsNack @ 108 NONAME
	_ZTV10CAtSmsSend @ 109 NONAME
	_ZTV10CTsyConfig @ 110 NONAME
	_ZTV11CATGetModel @ 111 NONAME
	_ZTV11CCommEngine @ 112 NONAME
	_ZTV11CCommReader @ 113 NONAME
	_ZTV11CCommWriter @ 114 NONAME
	_ZTV11CGetPhoneID @ 115 NONAME
	_ZTV12CATDialVoice @ 116 NONAME
	_ZTV12CATGetSignal @ 117 NONAME
	_ZTV12CRequestBase @ 118 NONAME
	_ZTV13CATGetBattery @ 119 NONAME
	_ZTV13CATGprsAttach @ 120 NONAME
	_ZTV13CATGprsDetach @ 121 NONAME
	_ZTV13CAtPhbkEnRead @ 122 NONAME
	_ZTV13CAtSmsReceive @ 123 NONAME
	_ZTV13CGetFdnStatus @ 124 NONAME
	_ZTV13CStringParser @ 125 NONAME
	_ZTV14CATGetCellInfo @ 126 NONAME
	_ZTV14CATGetRevision @ 127 NONAME
	_ZTV14CATNetworkInfo @ 128 NONAME
	_ZTV14CATUnsolicited @ 129 NONAME
	_ZTV14CAtCommandBase @ 130 NONAME
	_ZTV14CLtsyFactoryV1 @ 131 NONAME
	_ZTV15CATGetFdnStatus @ 132 NONAME
	_ZTV15CAtSmsStoreInfo @ 133 NONAME
	_ZTV15CAtSmsStoreRead @ 134 NONAME
	_ZTV15CLtsySatHandler @ 135 NONAME
	_ZTV15CLtsySimHandler @ 136 NONAME
	_ZTV15CLtsySmsHandler @ 137 NONAME
	_ZTV16CATDetectNetwork @ 138 NONAME
	_ZTV16CATGPRSSetConfig @ 139 NONAME
	_ZTV16CATGetFdnSupport @ 140 NONAME
	_ZTV16CATHelperCommand @ 141 NONAME
	_ZTV16CATSelectNetwork @ 142 NONAME
	_ZTV16CAtPhbkEnGetInfo @ 143 NONAME
	_ZTV16CAtPhbkEnReadAll @ 144 NONAME
	_ZTV16CAtPhbkStoreRead @ 145 NONAME
	_ZTV16CAtSmsStoreWrite @ 146 NONAME
	_ZTV16CGetOperatorNmae @ 147 NONAME
	_ZTV16CInitializePhone @ 148 NONAME
	_ZTV17CATGetModemStatus @ 149 NONAME
	_ZTV17CATNotifyCellInfo @ 150 NONAME
	_ZTV17CAtPhbkStoreCache @ 151 NONAME
	_ZTV17CAtPhbkStoreWrite @ 152 NONAME
	_ZTV17CAtSmsStoreDelete @ 153 NONAME
	_ZTV17CLtsyPhoneHandler @ 154 NONAME
	_ZTV17CRespondBufParser @ 155 NONAME
	_ZTV18CATGetManufacturer @ 156 NONAME
	_ZTV18CAtPhbkStoreDelete @ 157 NONAME
	_ZTV18CAtSmsStoreReadAll @ 158 NONAME
	_ZTV19CATGetPhoneCellInfo @ 159 NONAME
	_ZTV19CATSwitchOnLineMode @ 160 NONAME
	_ZTV19CActiveCommandStore @ 161 NONAME
	_ZTV19CAsyncHelperRequest @ 162 NONAME
	_ZTV19CAtMessageStoreInfo @ 163 NONAME
	_ZTV19CGlobalPhonemanager @ 164 NONAME
	_ZTV20CATGprsContextDelete @ 165 NONAME
	_ZTV20CATGprsNtwkRegStatus @ 166 NONAME
	_ZTV20CATGprsSetProfileReq @ 167 NONAME
	_ZTV20CATSelectNetworkMode @ 168 NONAME
	_ZTV20CATSetNotifyCellInfo @ 169 NONAME
	_ZTV20CAtSmsStoreDeleteAll @ 170 NONAME
	_ZTV20CLtsySecurityHandler @ 171 NONAME
	_ZTV21CATCommandControlBase @ 172 NONAME
	_ZTV21CATGPRSGetContextAddr @ 173 NONAME
	_ZTV21CATGprsContextConnect @ 174 NONAME
	_ZTV21CATWaitForCallHandler @ 175 NONAME
	_ZTV21CInitialisePdpContext @ 176 NONAME
	_ZTV21CLtsyPhonebookHandler @ 177 NONAME
	_ZTV22CATGprsContextActivate @ 178 NONAME
	_ZTV22CATNetworkRegistration @ 179 NONAME
	_ZTV22CAtPhbkStoreInitialise @ 180 NONAME
	_ZTV22CGetCurrentNetworkInfo @ 181 NONAME
	_ZTV23CATHangupCommandRecords @ 182 NONAME
	_ZTV23CLtsyCallControlHandler @ 183 NONAME
	_ZTV23CLtsyPhonebookEnHandler @ 184 NONAME
	_ZTV23CLtsyPhonebookOnHandler @ 185 NONAME
	_ZTV23CNotifyBatteryAndSignal @ 186 NONAME
	_ZTV24CATGprsContextDeactivate @ 187 NONAME
	_ZTV24CAtPhbkGetPhoneStoreInfo @ 188 NONAME
	_ZTV24CUnsolicitedEventMonitor @ 189 NONAME
	_ZTV25CATNetworkRegStatusChange @ 190 NONAME
	_ZTV25CActivatContextAndGetAddr @ 191 NONAME
	_ZTV25CLtsyCellBroadcastHandler @ 192 NONAME
	_ZTV26CATGprsNtwkRegStatusChange @ 193 NONAME
	_ZTV26CLtsyPacketServicesHandler @ 194 NONAME
	_ZTV27CLtsyCallInformationManager @ 195 NONAME
	_ZTV33CLtsyCallControlMultipartyHandler @ 196 NONAME
	_ZTV33CLtsySupplementaryServicesHandler @ 197 NONAME
	_ZTV37CUnsolicitedCommandCallControlHandler @ 198 NONAME
	_ZTV7CATChld @ 199 NONAME
	_ZTV7CATClcc @ 200 NONAME
	_ZTV7CATRing @ 201 NONAME
	_ZTV9CATAnswer @ 202 NONAME
	_ZTV9CATHangUp @ 203 NONAME
	_ZTV9CAtSmsAck @ 204 NONAME

