EXPORTS
	_Z12NewTestSuitev @ 1 NONAME
	_ZTI12CInitGlobals @ 2 NONAME ; #<TI>#
	_ZTI13CGprsTestStep @ 3 NONAME ; #<TI>#
	_ZTI14CGprsTestSuite @ 4 NONAME ; #<TI>#
	_ZTI15CTestGprsAttach @ 5 NONAME ; #<TI>#
	_ZTI15CTestGprsCancel @ 6 NONAME ; #<TI>#
	_ZTI16CTestGprsMsClass @ 7 NONAME ; #<TI>#
	_ZTI18CTestGetStaticCaps @ 8 NONAME ; #<TI>#
	_ZTI18CTestGprsfaxCancel @ 9 NONAME ; #<TI>#
	_ZTI20CTestGprsUnSupported @ 10 NONAME ; #<TI>#
	_ZTI21CTestGprsNotification @ 11 NONAME ; #<TI>#
	_ZTI21CTestNetworkRegStatus @ 12 NONAME ; #<TI>#
	_ZTI22CTestGprsContextAttach @ 13 NONAME ; #<TI>#
	_ZTI22CTestGprsContextConfig @ 14 NONAME ; #<TI>#
	_ZTI22CTestGprsContextDelete @ 15 NONAME ; #<TI>#
	_ZTI22CTestOpenContextByName @ 16 NONAME ; #<TI>#
	_ZTI24CTestGprsDownloadWebPage @ 17 NONAME ; #<TI>#
	_ZTI24CTestOpenExistingContext @ 18 NONAME ; #<TI>#
	_ZTI24CTestOpenGprsMaxContexts @ 19 NONAME ; #<TI>#
	_ZTI27CTestGprsContextLoanComport @ 20 NONAME ; #<TI>#
	_ZTI27CTestGprsContextUnSupported @ 21 NONAME ; #<TI>#
	_ZTI29CTestGprsDefaultContextParams @ 22 NONAME ; #<TI>#
	_ZTI35CTestGprsContextConfigNotifications @ 23 NONAME ; #<TI>#
	_ZTV12CInitGlobals @ 24 NONAME ; #<VT>#
	_ZTV13CGprsTestStep @ 25 NONAME ; #<VT>#
	_ZTV14CGprsTestSuite @ 26 NONAME ; #<VT>#
	_ZTV15CTestGprsAttach @ 27 NONAME ; #<VT>#
	_ZTV15CTestGprsCancel @ 28 NONAME ; #<VT>#
	_ZTV16CTestGprsMsClass @ 29 NONAME ; #<VT>#
	_ZTV18CTestGetStaticCaps @ 30 NONAME ; #<VT>#
	_ZTV18CTestGprsfaxCancel @ 31 NONAME ; #<VT>#
	_ZTV20CTestGprsUnSupported @ 32 NONAME ; #<VT>#
	_ZTV21CTestGprsNotification @ 33 NONAME ; #<VT>#
	_ZTV21CTestNetworkRegStatus @ 34 NONAME ; #<VT>#
	_ZTV22CTestGprsContextAttach @ 35 NONAME ; #<VT>#
	_ZTV22CTestGprsContextConfig @ 36 NONAME ; #<VT>#
	_ZTV22CTestGprsContextDelete @ 37 NONAME ; #<VT>#
	_ZTV22CTestOpenContextByName @ 38 NONAME ; #<VT>#
	_ZTV24CTestGprsDownloadWebPage @ 39 NONAME ; #<VT>#
	_ZTV24CTestOpenExistingContext @ 40 NONAME ; #<VT>#
	_ZTV24CTestOpenGprsMaxContexts @ 41 NONAME ; #<VT>#
	_ZTV27CTestGprsContextLoanComport @ 42 NONAME ; #<VT>#
	_ZTV27CTestGprsContextUnSupported @ 43 NONAME ; #<VT>#
	_ZTV29CTestGprsDefaultContextParams @ 44 NONAME ; #<VT>#
	_ZTV35CTestGprsContextConfigNotifications @ 45 NONAME ; #<VT>#
	_ZTI20CTest2GprsConnection @ 46 NONAME ; #<TI>#
	_ZTV20CTest2GprsConnection @ 47 NONAME ; #<VT>#

