EXPORTS
	_Z19NewNetworkTestSuitev @ 1 NONAME
	_ZTI11CServerInfo @ 2 NONAME ; #<TI>#
	_ZTI12CGetNITZInfo @ 3 NONAME ; #<TI>#
	_ZTI15CGetCurrentMode @ 4 NONAME ; #<TI>#
	_ZTI15CGetHomeNetwork @ 5 NONAME ; #<TI>#
	_ZTI15CGetNetworkCaps @ 6 NONAME ; #<TI>#
	_ZTI16CNetworkTestStep @ 7 NONAME ; #<TI>#
	_ZTI17CNetworkTestSuite @ 8 NONAME ; #<TI>#
	_ZTI17CNotifyModeChange @ 9 NONAME ; #<TI>#
	_ZTI18CGetCurrentNetwork @ 10 NONAME ; #<TI>#
	_ZTI20CDetectedNetworkTest @ 11 NONAME ; #<TI>#
	_ZTI21CGetHomeNetworkCancel @ 12 NONAME ; #<TI>#
	_ZTI21CNotifyNITZInfoChange @ 13 NONAME ; #<TI>#
	_ZTI23CNotifyModeChangeCancel @ 14 NONAME ; #<TI>#
	_ZTI24CDisconnectedNetworkTest @ 15 NONAME ; #<TI>#
	_ZTI24CGetCurrentNetworkCancel @ 16 NONAME ; #<TI>#
	_ZTI27CGetNetworkSelectionSetting @ 17 NONAME ; #<TI>#
	_ZTI27CNotifyCurrentNetworkChange @ 18 NONAME ; #<TI>#
	_ZTI27CNotifyNITZInfoChangeCancel @ 19 NONAME ; #<TI>#
	_ZTI27CSetNetworkSelectionSetting @ 20 NONAME ; #<TI>#
	_ZTI29CGetNetworkRegistrationStatus @ 21 NONAME ; #<TI>#
	_ZTI33CNotifyCurrentNetworkChangeCancel @ 22 NONAME ; #<TI>#
	_ZTI33CSetNetworkSelectionSettingCancel @ 23 NONAME ; #<TI>#
	_ZTI35CGetNetworkRegistrationStatusCancel @ 24 NONAME ; #<TI>#
	_ZTI36CNotifyNetworkSelectionSettingChange @ 25 NONAME ; #<TI>#
	_ZTI38CNotifyNetworkRegistrationStatusChange @ 26 NONAME ; #<TI>#
	_ZTI42CNotifyNetworkSelectionSettingChangeCancel @ 27 NONAME ; #<TI>#
	_ZTI44CNotifyNetworkRegistrationStatusChangeCancel @ 28 NONAME ; #<TI>#
	_ZTIN20CDetectedNetworkTest20CGetDetectedNetworksE @ 29 NONAME ; #<TI>#
	_ZTV11CServerInfo @ 30 NONAME ; #<VT>#
	_ZTV12CGetNITZInfo @ 31 NONAME ; #<VT>#
	_ZTV15CGetCurrentMode @ 32 NONAME ; #<VT>#
	_ZTV15CGetHomeNetwork @ 33 NONAME ; #<VT>#
	_ZTV15CGetNetworkCaps @ 34 NONAME ; #<VT>#
	_ZTV16CNetworkTestStep @ 35 NONAME ; #<VT>#
	_ZTV17CNetworkTestSuite @ 36 NONAME ; #<VT>#
	_ZTV17CNotifyModeChange @ 37 NONAME ; #<VT>#
	_ZTV18CGetCurrentNetwork @ 38 NONAME ; #<VT>#
	_ZTV20CDetectedNetworkTest @ 39 NONAME ; #<VT>#
	_ZTV21CGetHomeNetworkCancel @ 40 NONAME ; #<VT>#
	_ZTV21CNotifyNITZInfoChange @ 41 NONAME ; #<VT>#
	_ZTV23CNotifyModeChangeCancel @ 42 NONAME ; #<VT>#
	_ZTV24CDisconnectedNetworkTest @ 43 NONAME ; #<VT>#
	_ZTV24CGetCurrentNetworkCancel @ 44 NONAME ; #<VT>#
	_ZTV27CGetNetworkSelectionSetting @ 45 NONAME ; #<VT>#
	_ZTV27CNotifyCurrentNetworkChange @ 46 NONAME ; #<VT>#
	_ZTV27CNotifyNITZInfoChangeCancel @ 47 NONAME ; #<VT>#
	_ZTV27CSetNetworkSelectionSetting @ 48 NONAME ; #<VT>#
	_ZTV29CGetNetworkRegistrationStatus @ 49 NONAME ; #<VT>#
	_ZTV33CNotifyCurrentNetworkChangeCancel @ 50 NONAME ; #<VT>#
	_ZTV33CSetNetworkSelectionSettingCancel @ 51 NONAME ; #<VT>#
	_ZTV35CGetNetworkRegistrationStatusCancel @ 52 NONAME ; #<VT>#
	_ZTV36CNotifyNetworkSelectionSettingChange @ 53 NONAME ; #<VT>#
	_ZTV38CNotifyNetworkRegistrationStatusChange @ 54 NONAME ; #<VT>#
	_ZTV42CNotifyNetworkSelectionSettingChangeCancel @ 55 NONAME ; #<VT>#
	_ZTV44CNotifyNetworkRegistrationStatusChangeCancel @ 56 NONAME ; #<VT>#
	_ZTVN20CDetectedNetworkTest20CGetDetectedNetworksE @ 57 NONAME ; #<VT>#

