EXPORTS
	_Z12NewTestSuitev @ 1 NONAME
	_ZTI11CTestDelete @ 2 NONAME ; #<TI>#
	_ZTI14CTestPhBkSuite @ 3 NONAME ; #<TI>#
	_ZTI14CTestPhoneInfo @ 4 NONAME ; #<TI>#
	_ZTI15CTestInvalidOps @ 5 NONAME ; #<TI>#
	_ZTI17CTestAdvancedPhBk @ 6 NONAME ; #<TI>#
	_ZTI17CTestReadAndWrite @ 7 NONAME ; #<TI>#
	_ZTI18CTestNotifications @ 8 NONAME ; #<TI>#
	_ZTI19CTestGetCapsAndInfo @ 9 NONAME ; #<TI>#
	_ZTI26CRetrievalOfWholePhoneBook @ 10 NONAME ; #<TI>#
	_ZTI34CRetrievalOfHalfOfPhoneBookEntries @ 11 NONAME ; #<TI>#
	_ZTI35CRetrievalOfBatchOfPhoneBookEntries @ 12 NONAME ; #<TI>#
	_ZTV11CTestDelete @ 13 NONAME ; #<VT>#
	_ZTV14CTestPhBkSuite @ 14 NONAME ; #<VT>#
	_ZTV14CTestPhoneInfo @ 15 NONAME ; #<VT>#
	_ZTV15CTestInvalidOps @ 16 NONAME ; #<VT>#
	_ZTV17CTestAdvancedPhBk @ 17 NONAME ; #<VT>#
	_ZTV17CTestReadAndWrite @ 18 NONAME ; #<VT>#
	_ZTV18CTestNotifications @ 19 NONAME ; #<VT>#
	_ZTV19CTestGetCapsAndInfo @ 20 NONAME ; #<VT>#
	_ZTV26CRetrievalOfWholePhoneBook @ 21 NONAME ; #<VT>#
	_ZTV34CRetrievalOfHalfOfPhoneBookEntries @ 22 NONAME ; #<VT>#
	_ZTV35CRetrievalOfBatchOfPhoneBookEntries @ 23 NONAME ; #<VT>#

