EXPORTS
	_Z12NewTestSuitev @ 1 NONAME
	_ZTI12CSmsTestStep @ 2 NONAME ; #<TI>#
	_ZTI12CTestGetCaps @ 3 NONAME ; #<TI>#
	_ZTI12CTestSendSms @ 4 NONAME ; #<TI>#
	_ZTI13CSmsTestSuite @ 5 NONAME ; #<TI>#
	_ZTI13CTestSmspList @ 6 NONAME ; #<TI>#
	_ZTI16CTestGetSmspList @ 7 NONAME ; #<TI>#
	_ZTI17CTestAckSmsStored @ 8 NONAME ; #<TI>#
	_ZTI18CTestNackSmsStored @ 9 NONAME ; #<TI>#
	_ZTI19CTestNotifySmsEvent @ 10 NONAME ; #<TI>#
	_ZTI20CTestMessageStoreOps @ 11 NONAME ; #<TI>#
	_ZTI21CTestMessageStoreInfo @ 12 NONAME ; #<TI>#
	_ZTI21CTestReceiveStoredSms @ 13 NONAME ; #<TI>#
	_ZTI21CTestSendSmsAndCancel @ 14 NONAME ; #<TI>#
	_ZTI23CTestAckSmsStoredCancel @ 15 NONAME ; #<TI>#
	_ZTI23CTestReceiveUnstoredSms @ 16 NONAME ; #<TI>#
	_ZTI23CTestResumeSmsReception @ 17 NONAME ; #<TI>#
	_ZTI24CTestNackSmsStoredCancel @ 18 NONAME ; #<TI>#
	_ZTI25CTestNotifySmsEventCancel @ 19 NONAME ; #<TI>#
	_ZTI29CTestAckSmsStoredWithResponse @ 20 NONAME ; #<TI>#
	_ZTI30CTestNackSmsStoredWithResponse @ 21 NONAME ; #<TI>#
	_ZTI30CTestReceiveStoredSmsAndCancel @ 22 NONAME ; #<TI>#
	_ZTI35CTestAckSmsStoredWithResponseCancel @ 23 NONAME ; #<TI>#
	_ZTI36CTestNackSmsStoredWithResponseCancel @ 24 NONAME ; #<TI>#
	_ZTV12CSmsTestStep @ 25 NONAME ; #<VT>#
	_ZTV12CTestGetCaps @ 26 NONAME ; #<VT>#
	_ZTV12CTestSendSms @ 27 NONAME ; #<VT>#
	_ZTV13CSmsTestSuite @ 28 NONAME ; #<VT>#
	_ZTV13CTestSmspList @ 29 NONAME ; #<VT>#
	_ZTV16CTestGetSmspList @ 30 NONAME ; #<VT>#
	_ZTV17CTestAckSmsStored @ 31 NONAME ; #<VT>#
	_ZTV18CTestNackSmsStored @ 32 NONAME ; #<VT>#
	_ZTV19CTestNotifySmsEvent @ 33 NONAME ; #<VT>#
	_ZTV20CTestMessageStoreOps @ 34 NONAME ; #<VT>#
	_ZTV21CTestMessageStoreInfo @ 35 NONAME ; #<VT>#
	_ZTV21CTestReceiveStoredSms @ 36 NONAME ; #<VT>#
	_ZTV21CTestSendSmsAndCancel @ 37 NONAME ; #<VT>#
	_ZTV23CTestAckSmsStoredCancel @ 38 NONAME ; #<VT>#
	_ZTV23CTestReceiveUnstoredSms @ 39 NONAME ; #<VT>#
	_ZTV23CTestResumeSmsReception @ 40 NONAME ; #<VT>#
	_ZTV24CTestNackSmsStoredCancel @ 41 NONAME ; #<VT>#
	_ZTV25CTestNotifySmsEventCancel @ 42 NONAME ; #<VT>#
	_ZTV29CTestAckSmsStoredWithResponse @ 43 NONAME ; #<VT>#
	_ZTV30CTestNackSmsStoredWithResponse @ 44 NONAME ; #<VT>#
	_ZTV30CTestReceiveStoredSmsAndCancel @ 45 NONAME ; #<VT>#
	_ZTV35CTestAckSmsStoredWithResponseCancel @ 46 NONAME ; #<VT>#
	_ZTV36CTestNackSmsStoredWithResponseCancel @ 47 NONAME ; #<VT>#

