EXPORTS
	LibEntry @ 1 NONAME
	_ZTI11CCommReader @ 2 NONAME ; #<TI>#
	_ZTI11CCommWriter @ 3 NONAME ; #<TI>#
	_ZTI12CCommBreaker @ 4 NONAME ; #<TI>#
	_ZTI14CHWPortFactory @ 5 NONAME ; #<TI>#
	_ZTI15CCommNotifyBase @ 6 NONAME ; #<TI>#
	_ZTI18CCommReadWriteBase @ 7 NONAME ; #<TI>#
	_ZTI19CCommSignalNotifier @ 8 NONAME ; #<TI>#
	_ZTI25CCommConfigChangeNotifier @ 9 NONAME ; #<TI>#
	_ZTI26CCommAvailableDataNotifier @ 10 NONAME ; #<TI>#
	_ZTI30CCommFlowControlChangeNotifier @ 11 NONAME ; #<TI>#
	_ZTI7CHWPort @ 12 NONAME ; #<TI>#
	_ZTV11CCommReader @ 13 NONAME ; #<VT>#
	_ZTV11CCommWriter @ 14 NONAME ; #<VT>#
	_ZTV12CCommBreaker @ 15 NONAME ; #<VT>#
	_ZTV14CHWPortFactory @ 16 NONAME ; #<VT>#
	_ZTV15CCommNotifyBase @ 17 NONAME ; #<VT>#
	_ZTV18CCommReadWriteBase @ 18 NONAME ; #<VT>#
	_ZTV19CCommSignalNotifier @ 19 NONAME ; #<VT>#
	_ZTV25CCommConfigChangeNotifier @ 20 NONAME ; #<VT>#
	_ZTV26CCommAvailableDataNotifier @ 21 NONAME ; #<VT>#
	_ZTV30CCommFlowControlChangeNotifier @ 22 NONAME ; #<VT>#
	_ZTV7CHWPort @ 23 NONAME ; #<VT>#


