EXPORTS
	_ZN13UpsActivities16upsActivitiesCpr4SelfEv @ 1 NONAME
	_ZN13UpsActivities17upsActivitiesSCpr4SelfEv @ 2 NONAME
	_ZN16UpsCprActivities31CDeferredCtrlClientJoinActivity19TStoreControlClient12GetVTablePtrER6TDesC8Pv @ 3 NONAME
	_ZN16UpsCprActivities31CDeferredCtrlClientJoinActivity19TStoreControlClient3DoLEv @ 4 NONAME
	_ZN16UpsCprActivities31CDeferredCtrlClientJoinActivity36TAddControlClientAndSendJoinComplete12GetVTablePtrER6TDesC8Pv @ 5 NONAME
	_ZN16UpsCprActivities31CDeferredCtrlClientJoinActivity36TAddControlClientAndSendJoinComplete3DoLEv @ 6 NONAME
	_ZN16UpsCprActivities31CDeferredCtrlClientJoinActivity4NewLERKN11MeshMachine13TNodeActivityERNS1_11AMMNodeBaseE @ 7 NONAME
	_ZN16UpsCprActivities31CDeferredCtrlClientJoinActivityC1ERKN11MeshMachine13TNodeActivityERNS1_11AMMNodeBaseEj @ 8 NONAME
	_ZN16UpsCprActivities31CDeferredCtrlClientJoinActivityC2ERKN11MeshMachine13TNodeActivityERNS1_11AMMNodeBaseEj @ 9 NONAME
	_ZN16UpsCprActivities31CDeferredCtrlClientJoinActivityD0Ev @ 10 NONAME
	_ZN16UpsCprActivities31CDeferredCtrlClientJoinActivityD1Ev @ 11 NONAME
	_ZN16UpsCprActivities31CDeferredCtrlClientJoinActivityD2Ev @ 12 NONAME
	_ZN17UpsMCprActivities29CUpsAuthorisationActivityBase13TNoTagOrError12GetVTablePtrER6TDesC8Pv @ 13 NONAME
	_ZN17UpsMCprActivities29CUpsAuthorisationActivityBase13TNoTagOrError13TransitionTagEv @ 14 NONAME
	_ZN17UpsMCprActivities29CUpsAuthorisationActivityBase21TIssueRequestToNetUps12GetVTablePtrER6TDesC8Pv @ 15 NONAME
	_ZN17UpsMCprActivities29CUpsAuthorisationActivityBase26ProcessPolicyCheckResponseEN6NetUps15TNetUpsDecisionERKN8Messages7TNodeIdE @ 16 NONAME
	_ZN17UpsMCprActivities29CUpsAuthorisationActivityBase26ProcessPolicyCheckResponseEiRKN8Messages7TNodeIdE @ 17 NONAME
	_ZN17UpsMCprActivities29CUpsAuthorisationActivityBase36TAwaitingPolicyCheckResponseOrCancel12GetVTablePtrER6TDesC8Pv @ 18 NONAME
	_ZN17UpsMCprActivities29CUpsAuthorisationActivityBase40TForwardPolicyCheckResponseToOriginators12GetVTablePtrER6TDesC8Pv @ 19 NONAME
	_ZN17UpsMCprActivities29CUpsAuthorisationActivityBaseC2ERKN11MeshMachine13TNodeActivityERNS1_11AMMNodeBaseEj @ 20 NONAME
	_ZN17UpsMCprActivities29CUpsAuthorisationActivityBaseD0Ev @ 21 NONAME
	_ZN17UpsMCprActivities29CUpsAuthorisationActivityBaseD1Ev @ 22 NONAME
	_ZN17UpsMCprActivities29CUpsAuthorisationActivityBaseD2Ev @ 23 NONAME
	_ZN9UpsStates22TPostToControlProvider12GetVTablePtrER6TDesC8Pv @ 24 NONAME
	_ZN9UpsStates22TPostToControlProvider3DoLEv @ 25 NONAME
	_ZN9UpsStates27TAwaitingPolicyCheckRequest12GetVTablePtrER6TDesC8Pv @ 26 NONAME
	_ZN9UpsStates28TAwaitingPolicyCheckResponse12GetVTablePtrER6TDesC8Pv @ 27 NONAME
	_ZNK17UpsMCprActivities29CUpsAuthorisationActivityBase12GetServiceIdERKN5ESock18CCommsProviderBaseERl @ 28 NONAME
	_ZTIN16UpsCprActivities31CDeferredCtrlClientJoinActivity19TStoreControlClientE @ 29 NONAME
	_ZTIN16UpsCprActivities31CDeferredCtrlClientJoinActivity36TAddControlClientAndSendJoinCompleteE @ 30 NONAME
	_ZTIN16UpsCprActivities31CDeferredCtrlClientJoinActivityE @ 31 NONAME
	_ZTIN17UpsMCprActivities29CUpsAuthorisationActivityBase13TNoTagOrErrorE @ 32 NONAME
	_ZTIN17UpsMCprActivities29CUpsAuthorisationActivityBase21TIssueRequestToNetUpsE @ 33 NONAME
	_ZTIN17UpsMCprActivities29CUpsAuthorisationActivityBase36TAwaitingPolicyCheckResponseOrCancelE @ 34 NONAME
	_ZTIN17UpsMCprActivities29CUpsAuthorisationActivityBase40TForwardPolicyCheckResponseToOriginatorsE @ 35 NONAME
	_ZTIN17UpsMCprActivities29CUpsAuthorisationActivityBaseE @ 36 NONAME
	_ZTIN9UpsStates22TPostToControlProviderE @ 37 NONAME
	_ZTIN9UpsStates27TAwaitingPolicyCheckRequestE @ 38 NONAME
	_ZTIN9UpsStates28TAwaitingPolicyCheckResponseE @ 39 NONAME
	_ZTVN16UpsCprActivities31CDeferredCtrlClientJoinActivity19TStoreControlClientE @ 40 NONAME
	_ZTVN16UpsCprActivities31CDeferredCtrlClientJoinActivity36TAddControlClientAndSendJoinCompleteE @ 41 NONAME
	_ZTVN16UpsCprActivities31CDeferredCtrlClientJoinActivityE @ 42 NONAME
	_ZTVN17UpsMCprActivities29CUpsAuthorisationActivityBase13TNoTagOrErrorE @ 43 NONAME
	_ZTVN17UpsMCprActivities29CUpsAuthorisationActivityBase21TIssueRequestToNetUpsE @ 44 NONAME
	_ZTVN17UpsMCprActivities29CUpsAuthorisationActivityBase36TAwaitingPolicyCheckResponseOrCancelE @ 45 NONAME
	_ZTVN17UpsMCprActivities29CUpsAuthorisationActivityBase40TForwardPolicyCheckResponseToOriginatorsE @ 46 NONAME
	_ZTVN17UpsMCprActivities29CUpsAuthorisationActivityBaseE @ 47 NONAME
	_ZTVN9UpsStates22TPostToControlProviderE @ 48 NONAME
	_ZTVN9UpsStates27TAwaitingPolicyCheckRequestE @ 49 NONAME
	_ZTVN9UpsStates28TAwaitingPolicyCheckResponseE @ 50 NONAME
	_ZThn80_N17UpsMCprActivities29CUpsAuthorisationActivityBase26ProcessPolicyCheckResponseEN6NetUps15TNetUpsDecisionERKN8Messages7TNodeIdE @ 51 NONAME
	_ZThn80_N17UpsMCprActivities29CUpsAuthorisationActivityBase26ProcessPolicyCheckResponseEiRKN8Messages7TNodeIdE @ 52 NONAME
	_ZN9UpsStates27TAwaitingPolicyCheckRequest6AcceptEv @ 53 NONAME
	_ZN9UpsStates28TAwaitingPolicyCheckResponse6AcceptEv @ 54 NONAME
	_ZN17UpsMCprActivities29CUpsAuthorisationActivityBase18TNoTagOrCompletion12GetVTablePtrER6TDesC8Pv @ 55 NONAME
	_ZN17UpsMCprActivities29CUpsAuthorisationActivityBase18TNoTagOrCompletion13TransitionTagEv @ 56 NONAME
	_ZN17UpsMCprActivities29CUpsAuthorisationActivityBase50TForwardCompletionPolicyCheckResponseToOriginators12GetVTablePtrER6TDesC8Pv @ 57 NONAME
	_ZN9UpsStates22TPostToServiceProvider12GetVTablePtrER6TDesC8Pv @ 58 NONAME
	_ZN9UpsStates22TPostToServiceProvider3DoLEv @ 59 NONAME
	_ZN9UpsStates30TControlOrDataClientOriginator12GetVTablePtrER6TDesC8Pv @ 60 NONAME
	_ZTIN17UpsMCprActivities29CUpsAuthorisationActivityBase18TNoTagOrCompletionE @ 61 NONAME
	_ZTIN17UpsMCprActivities29CUpsAuthorisationActivityBase50TForwardCompletionPolicyCheckResponseToOriginatorsE @ 62 NONAME
	_ZTIN9UpsStates22TPostToServiceProviderE @ 63 NONAME
	_ZTIN9UpsStates30TControlOrDataClientOriginatorE @ 64 NONAME
	_ZTVN17UpsMCprActivities29CUpsAuthorisationActivityBase18TNoTagOrCompletionE @ 65 NONAME
	_ZTVN17UpsMCprActivities29CUpsAuthorisationActivityBase50TForwardCompletionPolicyCheckResponseToOriginatorsE @ 66 NONAME
	_ZTVN9UpsStates22TPostToServiceProviderE @ 67 NONAME
	_ZTVN9UpsStates30TControlOrDataClientOriginatorE @ 68 NONAME
	_ZN17UpsMCprActivities29CUpsAuthorisationActivityBase33PerformPolicyCheckRequestActionsLERKN8Messages7TNodeIdE @ 69 NONAME
	_ZN17UpsMCprActivities29CUpsAuthorisationActivityBase33PerformPolicyCheckResponseActionsEN6NetUps15TNetUpsDecisionERKN8Messages7TNodeIdE @ 70 NONAME


