EXPORTS
	_ZN12CSuplMessage4NewLERK19CSuplMessageContent @ 1 NONAME
	_ZN12CSuplMessage4NewLEv @ 2 NONAME
	_ZN12CSuplMessage5NewLCERK19CSuplMessageContent @ 3 NONAME
	_ZN12CSuplMessage5NewLCEv @ 4 NONAME
	_ZN12CSuplMessage7DecodeLER6TDesC8 @ 5 NONAME
	_ZN12CSuplMessage7EncodeLER5RBuf8 @ 6 NONAME
	_ZN12CSuplMessageD0Ev @ 7 NONAME
	_ZN12CSuplMessageD1Ev @ 8 NONAME
	_ZN12CSuplMessageD2Ev @ 9 NONAME
	_ZN15CSuplEndContent4NewLEv @ 10 NONAME
	_ZN15CSuplEndContent5NewLCEv @ 11 NONAME
	_ZN15CSuplEndContentD0Ev @ 12 NONAME
	_ZN15CSuplEndContentD1Ev @ 13 NONAME
	_ZN15CSuplEndContentD2Ev @ 14 NONAME
	_ZN15CSuplPosContent4NewLEv @ 15 NONAME
	_ZN15CSuplPosContent5NewLCEv @ 16 NONAME
	_ZN15CSuplPosContentD0Ev @ 17 NONAME
	_ZN15CSuplPosContentD1Ev @ 18 NONAME
	_ZN15CSuplPosContentD2Ev @ 19 NONAME
	_ZN17CSuplSetIdContent4NewLEv @ 20 NONAME
	_ZN17CSuplSetIdContent5NewLCEv @ 21 NONAME
	_ZN17CSuplSetIdContentD0Ev @ 22 NONAME
	_ZN17CSuplSetIdContentD1Ev @ 23 NONAME
	_ZN17CSuplSetIdContentD2Ev @ 24 NONAME
	_ZN17CSuplStartContent4NewLEv @ 25 NONAME
	_ZN17CSuplStartContent5NewLCEv @ 26 NONAME
	_ZN17CSuplStartContentD0Ev @ 27 NONAME
	_ZN17CSuplStartContentD1Ev @ 28 NONAME
	_ZN17CSuplStartContentD2Ev @ 29 NONAME
	_ZN19CSuplMessageContent4NewLEv @ 30 NONAME
	_ZN19CSuplMessageContent5NewLCEv @ 31 NONAME
	_ZN19CSuplMessageContentD0Ev @ 32 NONAME
	_ZN19CSuplMessageContentD1Ev @ 33 NONAME
	_ZN19CSuplMessageContentD2Ev @ 34 NONAME
	_ZN19CSuplPosInitContent4NewLEv @ 35 NONAME
	_ZN19CSuplPosInitContent5NewLCEv @ 36 NONAME
	_ZN19CSuplPosInitContentD0Ev @ 37 NONAME
	_ZN19CSuplPosInitContentD1Ev @ 38 NONAME
	_ZN19CSuplPosInitContentD2Ev @ 39 NONAME
	_ZN19CSuplVersionContent4NewLEv @ 40 NONAME
	_ZN19CSuplVersionContent5NewLCEv @ 41 NONAME
	_ZN19CSuplVersionContentD0Ev @ 42 NONAME
	_ZN19CSuplVersionContentD1Ev @ 43 NONAME
	_ZN19CSuplVersionContentD2Ev @ 44 NONAME
	_ZN20CSuplCellInfoContent4NewLEv @ 45 NONAME
	_ZN20CSuplCellInfoContent5NewLCEv @ 46 NONAME
	_ZN20CSuplCellInfoContentD0Ev @ 47 NONAME
	_ZN20CSuplCellInfoContentD1Ev @ 48 NONAME
	_ZN20CSuplCellInfoContentD2Ev @ 49 NONAME
	_ZN20CSuplResponseContent4NewLEv @ 50 NONAME
	_ZN20CSuplResponseContent5NewLCEv @ 51 NONAME
	_ZN20CSuplResponseContentD0Ev @ 52 NONAME
	_ZN20CSuplResponseContentD1Ev @ 53 NONAME
	_ZN20CSuplResponseContentD2Ev @ 54 NONAME
	_ZN21CSuplIpAddressContent4NewLEv @ 55 NONAME
	_ZN21CSuplIpAddressContent5NewLCEv @ 56 NONAME
	_ZN21CSuplIpAddressContentD0Ev @ 57 NONAME
	_ZN21CSuplIpAddressContentD1Ev @ 58 NONAME
	_ZN21CSuplIpAddressContentD2Ev @ 59 NONAME
	_ZN21CSuplSessionIdContent4NewLEv @ 60 NONAME
	_ZN21CSuplSessionIdContent5NewLCEv @ 61 NONAME
	_ZN21CSuplSessionIdContentD0Ev @ 62 NONAME
	_ZN21CSuplSessionIdContentD1Ev @ 63 NONAME
	_ZN21CSuplSessionIdContentD2Ev @ 64 NONAME
	_ZN22CSuplLocationIdContent4NewLEv @ 65 NONAME
	_ZN22CSuplLocationIdContent5NewLCEv @ 66 NONAME
	_ZN22CSuplLocationIdContentD0Ev @ 67 NONAME
	_ZN22CSuplLocationIdContentD1Ev @ 68 NONAME
	_ZN22CSuplLocationIdContentD2Ev @ 69 NONAME
	_ZN22CSuplPosPayloadContent4NewLEv @ 70 NONAME
	_ZN22CSuplPosPayloadContent5NewLCEv @ 71 NONAME
	_ZN22CSuplPosPayloadContentD0Ev @ 72 NONAME
	_ZN22CSuplPosPayloadContentD1Ev @ 73 NONAME
	_ZN22CSuplPosPayloadContentD2Ev @ 74 NONAME
	_ZN22CSuplSlpAddressContent4NewLEv @ 75 NONAME
	_ZN22CSuplSlpAddressContent5NewLCEv @ 76 NONAME
	_ZN22CSuplSlpAddressContentD0Ev @ 77 NONAME
	_ZN22CSuplSlpAddressContentD1Ev @ 78 NONAME
	_ZN22CSuplSlpAddressContentD2Ev @ 79 NONAME
	_ZN23CSuplPosProtocolContent4NewLEv @ 80 NONAME
	_ZN23CSuplPosProtocolContent5NewLCEv @ 81 NONAME
	_ZN23CSuplPosProtocolContentD0Ev @ 82 NONAME
	_ZN23CSuplPosProtocolContentD1Ev @ 83 NONAME
	_ZN23CSuplPosProtocolContentD2Ev @ 84 NONAME
	_ZN24CSuplSetSessionIdContent4NewLEv @ 85 NONAME
	_ZN24CSuplSetSessionIdContent5NewLCEv @ 86 NONAME
	_ZN24CSuplSetSessionIdContentD0Ev @ 87 NONAME
	_ZN24CSuplSetSessionIdContentD1Ev @ 88 NONAME
	_ZN24CSuplSetSessionIdContentD2Ev @ 89 NONAME
	_ZN24CSuplSlpSessionIdContent4NewLEv @ 90 NONAME
	_ZN24CSuplSlpSessionIdContent5NewLCEv @ 91 NONAME
	_ZN24CSuplSlpSessionIdContentD0Ev @ 92 NONAME
	_ZN24CSuplSlpSessionIdContentD1Ev @ 93 NONAME
	_ZN24CSuplSlpSessionIdContentD2Ev @ 94 NONAME
	_ZN25CSuplPosTechnologyContent4NewLEv @ 95 NONAME
	_ZN25CSuplPosTechnologyContent5NewLCEv @ 96 NONAME
	_ZN25CSuplPosTechnologyContentD0Ev @ 97 NONAME
	_ZN25CSuplPosTechnologyContentD1Ev @ 98 NONAME
	_ZN25CSuplPosTechnologyContentD2Ev @ 99 NONAME
	_ZN27CSuplSetCapabilitiesContent4NewLEv @ 100 NONAME
	_ZN27CSuplSetCapabilitiesContent5NewLCEv @ 101 NONAME
	_ZN27CSuplSetCapabilitiesContentD0Ev @ 102 NONAME
	_ZN27CSuplSetCapabilitiesContentD1Ev @ 103 NONAME
	_ZN27CSuplSetCapabilitiesContentD2Ev @ 104 NONAME
	_ZN28CAssistanceDataDeliveryR3IEs4NewLEP28RLbsAssistanceDataBuilderSet @ 105 NONAME
	_ZN28CAssistanceDataDeliveryR3IEs5NewLCEP28RLbsAssistanceDataBuilderSet @ 106 NONAME
	_ZN28CAssistanceDataDeliveryR3IEs7DecodeLERK6TDesC8i @ 107 NONAME
	_ZN28CAssistanceDataDeliveryR3IEs7EncodeLER5RBuf8 @ 108 NONAME
	_ZN28CAssistanceDataDeliveryR3IEsD0Ev @ 109 NONAME
	_ZN28CAssistanceDataDeliveryR3IEsD1Ev @ 110 NONAME
	_ZN28CAssistanceDataDeliveryR3IEsD2Ev @ 111 NONAME
	_ZN30CSuplGsmCellInformationContent4NewLEv @ 112 NONAME
	_ZN30CSuplGsmCellInformationContent5NewLCEv @ 113 NONAME
	_ZN30CSuplGsmCellInformationContentD0Ev @ 114 NONAME
	_ZN30CSuplGsmCellInformationContentD1Ev @ 115 NONAME
	_ZN30CSuplGsmCellInformationContentD2Ev @ 116 NONAME
	_ZN31CSuplCdmaCellInformationContent4NewLEv @ 117 NONAME
	_ZN31CSuplCdmaCellInformationContent5NewLCEv @ 118 NONAME
	_ZN31CSuplCdmaCellInformationContentD0Ev @ 119 NONAME
	_ZN31CSuplCdmaCellInformationContentD1Ev @ 120 NONAME
	_ZN31CSuplCdmaCellInformationContentD2Ev @ 121 NONAME
	_ZN31CSuplRequestedAssistDataContent4NewLEv @ 122 NONAME
	_ZN31CSuplRequestedAssistDataContent5NewLCEv @ 123 NONAME
	_ZN31CSuplRequestedAssistDataContentD0Ev @ 124 NONAME
	_ZN31CSuplRequestedAssistDataContentD1Ev @ 125 NONAME
	_ZN31CSuplRequestedAssistDataContentD2Ev @ 126 NONAME
	_ZN32CSuplWcdmaCellInformationContent4NewLEv @ 127 NONAME
	_ZN32CSuplWcdmaCellInformationContent5NewLCEv @ 128 NONAME
	_ZN32CSuplWcdmaCellInformationContentD0Ev @ 129 NONAME
	_ZN32CSuplWcdmaCellInformationContentD1Ev @ 130 NONAME
	_ZN32CSuplWcdmaCellInformationContentD2Ev @ 131 NONAME
	_ZNK19CSuplMessageContenteqERKS_ @ 132 NONAME
	_ZTI10CSuplSetId @ 133 NONAME ; #<TI>#
	_ZTI10CSuplStart @ 134 NONAME ; #<TI>#
	_ZTI11CRrcSf1Revd @ 135 NONAME ; #<TI>#
	_ZTI12CSuplMessage @ 136 NONAME ; #<TI>#
	_ZTI12CSuplPosInit @ 137 NONAME ; #<TI>#
	_ZTI12CSuplVersion @ 138 NONAME ; #<TI>#
	_ZTI13CSuplCellInfo @ 139 NONAME ; #<TI>#
	_ZTI13CSuplResponse @ 140 NONAME ; #<TI>#
	_ZTI14CRrcGpsAlmanac @ 141 NONAME ; #<TI>#
	_ZTI14CSuplIpAddress @ 142 NONAME ; #<TI>#
	_ZTI14CSuplSessionId @ 143 NONAME ; #<TI>#
	_ZTI15CRrcGpsUTCModel @ 144 NONAME ; #<TI>#
	_ZTI15CSuplEndContent @ 145 NONAME ; #<TI>#
	_ZTI15CSuplLocationId @ 146 NONAME ; #<TI>#
	_ZTI15CSuplPosContent @ 147 NONAME ; #<TI>#
	_ZTI15CSuplPosPayload @ 148 NONAME ; #<TI>#
	_ZTI15CSuplSlpAddress @ 149 NONAME ; #<TI>#
	_ZTI16CAsn1PerEncoding @ 150 NONAME ; #<TI>#
	_ZTI16CRrcGpsTowAssist @ 151 NONAME ; #<TI>#
	_ZTI16CSuplPosProtocol @ 152 NONAME ; #<TI>#
	_ZTI17CRrcGpsBadSatList @ 153 NONAME ; #<TI>#
	_ZTI17CSuplSetIdContent @ 154 NONAME ; #<TI>#
	_ZTI17CSuplSetSessionId @ 155 NONAME ; #<TI>#
	_ZTI17CSuplSlpSessionId @ 156 NONAME ; #<TI>#
	_ZTI17CSuplStartContent @ 157 NONAME ; #<TI>#
	_ZTI18CRrcAlmanacSatInfo @ 158 NONAME ; #<TI>#
	_ZTI18CRrcSf1RevdContent @ 159 NONAME ; #<TI>#
	_ZTI18CSuplPosTechnology @ 160 NONAME ; #<TI>#
	_ZTI19CSuplMessageContent @ 161 NONAME ; #<TI>#
	_ZTI19CSuplPosInitContent @ 162 NONAME ; #<TI>#
	_ZTI19CSuplVersionContent @ 163 NONAME ; #<TI>#
	_ZTI20CRrcExtraDopplerInfo @ 164 NONAME ; #<TI>#
	_ZTI20CRrcGpsReferenceTime @ 165 NONAME ; #<TI>#
	_ZTI20CRrcGpsTowAssistList @ 166 NONAME ; #<TI>#
	_ZTI20CRrcModeSpecificInfo @ 167 NONAME ; #<TI>#
	_ZTI20CSuplCellInfoContent @ 168 NONAME ; #<TI>#
	_ZTI20CSuplResponseContent @ 169 NONAME ; #<TI>#
	_ZTI20CSuplSetCapabilities @ 170 NONAME ; #<TI>#
	_ZTI21CRrcGpsAlmanacContent @ 171 NONAME ; #<TI>#
	_ZTI21CRrcGpsAssistanceData @ 172 NONAME ; #<TI>#
	_ZTI21CRrcReferenceLocation @ 173 NONAME ; #<TI>#
	_ZTI21CSuplIpAddressContent @ 174 NONAME ; #<TI>#
	_ZTI21CSuplSessionIdContent @ 175 NONAME ; #<TI>#
	_ZTI22CAsn1PerEncodingBuffer @ 176 NONAME ; #<TI>#
	_ZTI22CRrcAcquisitionSatInfo @ 177 NONAME ; #<TI>#
	_ZTI22CRrcAlmanacSatInfoList @ 178 NONAME ; #<TI>#
	_ZTI22CRrcEphemerisParameter @ 179 NONAME ; #<TI>#
	_ZTI22CRrcGpsNavigationModel @ 180 NONAME ; #<TI>#
	_ZTI22CRrcGpsUTCModelContent @ 181 NONAME ; #<TI>#
	_ZTI22CSuplLocationIdContent @ 182 NONAME ; #<TI>#
	_ZTI22CSuplPosPayloadContent @ 183 NONAME ; #<TI>#
	_ZTI22CSuplSlpAddressContent @ 184 NONAME ; #<TI>#
	_ZTI23CRrcAzimuthAndElevation @ 185 NONAME ; #<TI>#
	_ZTI23CRrcFddModeSpecificInfo @ 186 NONAME ; #<TI>#
	_ZTI23CRrcGpsIonosphericModel @ 187 NONAME ; #<TI>#
	_ZTI23CRrcGpsTowAssistContent @ 188 NONAME ; #<TI>#
	_ZTI23CRrcTddModeSpecificInfo @ 189 NONAME ; #<TI>#
	_ZTI23CSuplGsmCellInformation @ 190 NONAME ; #<TI>#
	_ZTI23CSuplPosProtocolContent @ 191 NONAME ; #<TI>#
	_ZTI24CAsn1PerEncodingFragment @ 192 NONAME ; #<TI>#
	_ZTI24CRrcGpsBadSatListContent @ 193 NONAME ; #<TI>#
	_ZTI24CRrcUtranGpsTimingOfCell @ 194 NONAME ; #<TI>#
	_ZTI24CSuplCdmaCellInformation @ 195 NONAME ; #<TI>#
	_ZTI24CSuplRequestedAssistData @ 196 NONAME ; #<TI>#
	_ZTI24CSuplSetSessionIdContent @ 197 NONAME ; #<TI>#
	_ZTI24CSuplSlpSessionIdContent @ 198 NONAME ; #<TI>#
	_ZTI25CRrcAlmanacSatInfoContent @ 199 NONAME ; #<TI>#
	_ZTI25CRrcUtranGpsReferenceTime @ 200 NONAME ; #<TI>#
	_ZTI25CSuplPosTechnologyContent @ 201 NONAME ; #<TI>#
	_ZTI25CSuplWcdmaCellInformation @ 202 NONAME ; #<TI>#
	_ZTI26CRrcAcquisitionSatInfoList @ 203 NONAME ; #<TI>#
	_ZTI26CRrcNavigationModelSatInfo @ 204 NONAME ; #<TI>#
	_ZTI27CRrcExtraDopplerInfoContent @ 205 NONAME ; #<TI>#
	_ZTI27CRrcGpsReferenceTimeContent @ 206 NONAME ; #<TI>#
	_ZTI27CRrcGpsTowAssistListContent @ 207 NONAME ; #<TI>#
	_ZTI27CRrcModeSpecificInfoContent @ 208 NONAME ; #<TI>#
	_ZTI27CSuplSetCapabilitiesContent @ 209 NONAME ; #<TI>#
	_ZTI28CAssistanceDataDeliveryR3IEs @ 210 NONAME ; #<TI>#
	_ZTI28CRrcGpsAcquisitionAssistance @ 211 NONAME ; #<TI>#
	_ZTI28CRrcGpsAssistanceDataContent @ 212 NONAME ; #<TI>#
	_ZTI28CRrcReferenceLocationContent @ 213 NONAME ; #<TI>#
	_ZTI29CRrcAcquisitionSatInfoContent @ 214 NONAME ; #<TI>#
	_ZTI29CRrcAlmanacSatInfoListContent @ 215 NONAME ; #<TI>#
	_ZTI29CRrcEphemerisParameterContent @ 216 NONAME ; #<TI>#
	_ZTI29CRrcGpsNavigationModelContent @ 217 NONAME ; #<TI>#
	_ZTI30CRrcAzimuthAndElevationContent @ 218 NONAME ; #<TI>#
	_ZTI30CRrcFddModeSpecificInfoContent @ 219 NONAME ; #<TI>#
	_ZTI30CRrcGpsIonosphericModelContent @ 220 NONAME ; #<TI>#
	_ZTI30CRrcNavigationModelSatInfoList @ 221 NONAME ; #<TI>#
	_ZTI30CRrcTddModeSpecificInfoContent @ 222 NONAME ; #<TI>#
	_ZTI30CSuplGsmCellInformationContent @ 223 NONAME ; #<TI>#
	_ZTI31CRrcUtranGpsTimingOfCellContent @ 224 NONAME ; #<TI>#
	_ZTI31CSuplCdmaCellInformationContent @ 225 NONAME ; #<TI>#
	_ZTI31CSuplRequestedAssistDataContent @ 226 NONAME ; #<TI>#
	_ZTI32CRrcUtranGpsReferenceTimeContent @ 227 NONAME ; #<TI>#
	_ZTI32CSuplWcdmaCellInformationContent @ 228 NONAME ; #<TI>#
	_ZTI33CRrcAcquisitionSatInfoListContent @ 229 NONAME ; #<TI>#
	_ZTI33CRrcNavigationModelSatInfoContent @ 230 NONAME ; #<TI>#
	_ZTI35CAssistanceDataDeliveryR3IEsContent @ 231 NONAME ; #<TI>#
	_ZTI35CRrcGpsAcquisitionAssistanceContent @ 232 NONAME ; #<TI>#
	_ZTI36CRrcEllipsoidPointAltitudeEllipsoide @ 233 NONAME ; #<TI>#
	_ZTI37CRrcNavigationModelSatInfoListContent @ 234 NONAME ; #<TI>#
	_ZTI43CRrcEllipsoidPointAltitudeEllipsoideContent @ 235 NONAME ; #<TI>#
	_ZTI8CSuplEnd @ 236 NONAME ; #<TI>#
	_ZTI8CSuplPos @ 237 NONAME ; #<TI>#
	_ZTV10CSuplSetId @ 238 NONAME ; #<VT>#
	_ZTV10CSuplStart @ 239 NONAME ; #<VT>#
	_ZTV11CRrcSf1Revd @ 240 NONAME ; #<VT>#
	_ZTV12CSuplMessage @ 241 NONAME ; #<VT>#
	_ZTV12CSuplPosInit @ 242 NONAME ; #<VT>#
	_ZTV12CSuplVersion @ 243 NONAME ; #<VT>#
	_ZTV13CSuplCellInfo @ 244 NONAME ; #<VT>#
	_ZTV13CSuplResponse @ 245 NONAME ; #<VT>#
	_ZTV14CRrcGpsAlmanac @ 246 NONAME ; #<VT>#
	_ZTV14CSuplIpAddress @ 247 NONAME ; #<VT>#
	_ZTV14CSuplSessionId @ 248 NONAME ; #<VT>#
	_ZTV15CRrcGpsUTCModel @ 249 NONAME ; #<VT>#
	_ZTV15CSuplEndContent @ 250 NONAME ; #<VT>#
	_ZTV15CSuplLocationId @ 251 NONAME ; #<VT>#
	_ZTV15CSuplPosContent @ 252 NONAME ; #<VT>#
	_ZTV15CSuplPosPayload @ 253 NONAME ; #<VT>#
	_ZTV15CSuplSlpAddress @ 254 NONAME ; #<VT>#
	_ZTV16CAsn1PerEncoding @ 255 NONAME ; #<VT>#
	_ZTV16CRrcGpsTowAssist @ 256 NONAME ; #<VT>#
	_ZTV16CSuplPosProtocol @ 257 NONAME ; #<VT>#
	_ZTV17CRrcGpsBadSatList @ 258 NONAME ; #<VT>#
	_ZTV17CSuplSetIdContent @ 259 NONAME ; #<VT>#
	_ZTV17CSuplSetSessionId @ 260 NONAME ; #<VT>#
	_ZTV17CSuplSlpSessionId @ 261 NONAME ; #<VT>#
	_ZTV17CSuplStartContent @ 262 NONAME ; #<VT>#
	_ZTV18CRrcAlmanacSatInfo @ 263 NONAME ; #<VT>#
	_ZTV18CRrcSf1RevdContent @ 264 NONAME ; #<VT>#
	_ZTV18CSuplPosTechnology @ 265 NONAME ; #<VT>#
	_ZTV19CSuplMessageContent @ 266 NONAME ; #<VT>#
	_ZTV19CSuplPosInitContent @ 267 NONAME ; #<VT>#
	_ZTV19CSuplVersionContent @ 268 NONAME ; #<VT>#
	_ZTV20CRrcExtraDopplerInfo @ 269 NONAME ; #<VT>#
	_ZTV20CRrcGpsReferenceTime @ 270 NONAME ; #<VT>#
	_ZTV20CRrcGpsTowAssistList @ 271 NONAME ; #<VT>#
	_ZTV20CRrcModeSpecificInfo @ 272 NONAME ; #<VT>#
	_ZTV20CSuplCellInfoContent @ 273 NONAME ; #<VT>#
	_ZTV20CSuplResponseContent @ 274 NONAME ; #<VT>#
	_ZTV20CSuplSetCapabilities @ 275 NONAME ; #<VT>#
	_ZTV21CRrcGpsAlmanacContent @ 276 NONAME ; #<VT>#
	_ZTV21CRrcGpsAssistanceData @ 277 NONAME ; #<VT>#
	_ZTV21CRrcReferenceLocation @ 278 NONAME ; #<VT>#
	_ZTV21CSuplIpAddressContent @ 279 NONAME ; #<VT>#
	_ZTV21CSuplSessionIdContent @ 280 NONAME ; #<VT>#
	_ZTV22CAsn1PerEncodingBuffer @ 281 NONAME ; #<VT>#
	_ZTV22CRrcAcquisitionSatInfo @ 282 NONAME ; #<VT>#
	_ZTV22CRrcAlmanacSatInfoList @ 283 NONAME ; #<VT>#
	_ZTV22CRrcEphemerisParameter @ 284 NONAME ; #<VT>#
	_ZTV22CRrcGpsNavigationModel @ 285 NONAME ; #<VT>#
	_ZTV22CRrcGpsUTCModelContent @ 286 NONAME ; #<VT>#
	_ZTV22CSuplLocationIdContent @ 287 NONAME ; #<VT>#
	_ZTV22CSuplPosPayloadContent @ 288 NONAME ; #<VT>#
	_ZTV22CSuplSlpAddressContent @ 289 NONAME ; #<VT>#
	_ZTV23CRrcAzimuthAndElevation @ 290 NONAME ; #<VT>#
	_ZTV23CRrcFddModeSpecificInfo @ 291 NONAME ; #<VT>#
	_ZTV23CRrcGpsIonosphericModel @ 292 NONAME ; #<VT>#
	_ZTV23CRrcGpsTowAssistContent @ 293 NONAME ; #<VT>#
	_ZTV23CRrcTddModeSpecificInfo @ 294 NONAME ; #<VT>#
	_ZTV23CSuplGsmCellInformation @ 295 NONAME ; #<VT>#
	_ZTV23CSuplPosProtocolContent @ 296 NONAME ; #<VT>#
	_ZTV24CAsn1PerEncodingFragment @ 297 NONAME ; #<VT>#
	_ZTV24CRrcGpsBadSatListContent @ 298 NONAME ; #<VT>#
	_ZTV24CRrcUtranGpsTimingOfCell @ 299 NONAME ; #<VT>#
	_ZTV24CSuplCdmaCellInformation @ 300 NONAME ; #<VT>#
	_ZTV24CSuplRequestedAssistData @ 301 NONAME ; #<VT>#
	_ZTV24CSuplSetSessionIdContent @ 302 NONAME ; #<VT>#
	_ZTV24CSuplSlpSessionIdContent @ 303 NONAME ; #<VT>#
	_ZTV25CRrcAlmanacSatInfoContent @ 304 NONAME ; #<VT>#
	_ZTV25CRrcUtranGpsReferenceTime @ 305 NONAME ; #<VT>#
	_ZTV25CSuplPosTechnologyContent @ 306 NONAME ; #<VT>#
	_ZTV25CSuplWcdmaCellInformation @ 307 NONAME ; #<VT>#
	_ZTV26CRrcAcquisitionSatInfoList @ 308 NONAME ; #<VT>#
	_ZTV26CRrcNavigationModelSatInfo @ 309 NONAME ; #<VT>#
	_ZTV27CRrcExtraDopplerInfoContent @ 310 NONAME ; #<VT>#
	_ZTV27CRrcGpsReferenceTimeContent @ 311 NONAME ; #<VT>#
	_ZTV27CRrcGpsTowAssistListContent @ 312 NONAME ; #<VT>#
	_ZTV27CRrcModeSpecificInfoContent @ 313 NONAME ; #<VT>#
	_ZTV27CSuplSetCapabilitiesContent @ 314 NONAME ; #<VT>#
	_ZTV28CAssistanceDataDeliveryR3IEs @ 315 NONAME ; #<VT>#
	_ZTV28CRrcGpsAcquisitionAssistance @ 316 NONAME ; #<VT>#
	_ZTV28CRrcGpsAssistanceDataContent @ 317 NONAME ; #<VT>#
	_ZTV28CRrcReferenceLocationContent @ 318 NONAME ; #<VT>#
	_ZTV29CRrcAcquisitionSatInfoContent @ 319 NONAME ; #<VT>#
	_ZTV29CRrcAlmanacSatInfoListContent @ 320 NONAME ; #<VT>#
	_ZTV29CRrcEphemerisParameterContent @ 321 NONAME ; #<VT>#
	_ZTV29CRrcGpsNavigationModelContent @ 322 NONAME ; #<VT>#
	_ZTV30CRrcAzimuthAndElevationContent @ 323 NONAME ; #<VT>#
	_ZTV30CRrcFddModeSpecificInfoContent @ 324 NONAME ; #<VT>#
	_ZTV30CRrcGpsIonosphericModelContent @ 325 NONAME ; #<VT>#
	_ZTV30CRrcNavigationModelSatInfoList @ 326 NONAME ; #<VT>#
	_ZTV30CRrcTddModeSpecificInfoContent @ 327 NONAME ; #<VT>#
	_ZTV30CSuplGsmCellInformationContent @ 328 NONAME ; #<VT>#
	_ZTV31CRrcUtranGpsTimingOfCellContent @ 329 NONAME ; #<VT>#
	_ZTV31CSuplCdmaCellInformationContent @ 330 NONAME ; #<VT>#
	_ZTV31CSuplRequestedAssistDataContent @ 331 NONAME ; #<VT>#
	_ZTV32CRrcUtranGpsReferenceTimeContent @ 332 NONAME ; #<VT>#
	_ZTV32CSuplWcdmaCellInformationContent @ 333 NONAME ; #<VT>#
	_ZTV33CRrcAcquisitionSatInfoListContent @ 334 NONAME ; #<VT>#
	_ZTV33CRrcNavigationModelSatInfoContent @ 335 NONAME ; #<VT>#
	_ZTV35CAssistanceDataDeliveryR3IEsContent @ 336 NONAME ; #<VT>#
	_ZTV35CRrcGpsAcquisitionAssistanceContent @ 337 NONAME ; #<VT>#
	_ZTV36CRrcEllipsoidPointAltitudeEllipsoide @ 338 NONAME ; #<VT>#
	_ZTV37CRrcNavigationModelSatInfoListContent @ 339 NONAME ; #<VT>#
	_ZTV43CRrcEllipsoidPointAltitudeEllipsoideContent @ 340 NONAME ; #<VT>#
	_ZTV8CSuplEnd @ 341 NONAME ; #<VT>#
	_ZTV8CSuplPos @ 342 NONAME ; #<VT>#
	_ZN20CSuplPositionContent4NewLEv @ 343 NONAME
	_ZN20CSuplPositionContent5NewLCEv @ 344 NONAME
	_ZN20CSuplPositionContentD0Ev @ 345 NONAME
	_ZN20CSuplPositionContentD1Ev @ 346 NONAME
	_ZN20CSuplPositionContentD2Ev @ 347 NONAME
	_ZN21CSuplPositionEstimate4NewLEP28CSuplPositionEstimateContent @ 348 NONAME
	_ZN21CSuplPositionEstimate5NewLCEP28CSuplPositionEstimateContent @ 349 NONAME
	_ZN21CSuplPositionEstimateD1Ev @ 350 NONAME
	_ZN21CSuplPositionEstimateD2Ev @ 351 NONAME
	_ZN28CSuplPositionEstimateContent4NewLEv @ 352 NONAME
	_ZN28CSuplPositionEstimateContent5NewLCEv @ 353 NONAME
	_ZN28CSuplPositionEstimateContentD1Ev @ 354 NONAME
	_ZN28CSuplPositionEstimateContentD2Ev @ 355 NONAME
	_ZTI13CSuplPosition @ 356 NONAME ; #<TI>#
	_ZTI20CSuplPositionContent @ 357 NONAME ; #<TI>#
	_ZTV13CSuplPosition @ 358 NONAME ; #<VT>#
	_ZTV20CSuplPositionContent @ 359 NONAME ; #<VT>#
	_ZN15CSuplQoPContent4NewLEv @ 360 NONAME
	_ZN15CSuplQoPContent5NewLCEv @ 361 NONAME
	_ZN15CSuplQoPContentD0Ev @ 362 NONAME
	_ZN15CSuplQoPContentD1Ev @ 363 NONAME
	_ZN15CSuplQoPContentD2Ev @ 364 NONAME
	_ZTI15CSuplQoPContent @ 365 NONAME ; #<TI>#
	_ZTI8CSuplQoP @ 366 NONAME ; #<TI>#
	_ZTV15CSuplQoPContent @ 367 NONAME ; #<VT>#
	_ZTV8CSuplQoP @ 368 NONAME ; #<VT>#

