EXPORTS
	LibEntry @ 1 NONAME
	_ZTI10CFaxDstdNc @ 2 NONAME ; #<TI>#
	_ZTI11CCallDstdNc @ 3 NONAME ; #<TI>#
	_ZTI11CLineDstdNc @ 4 NONAME ; #<TI>#
	_ZTI12CPhoneDstdNc @ 5 NONAME ; #<TI>#
	_ZTI13CAcquireEntry @ 6 NONAME ; #<TI>#
	_ZTI13CFaxDummyBase @ 7 NONAME ; #<TI>#
	_ZTI14CCallDummyBase @ 8 NONAME ; #<TI>#
	_ZTI14CLineDummyBase @ 9 NONAME ; #<TI>#
	_ZTI15CPhoneDummyBase @ 10 NONAME ; #<TI>#
	_ZTI17CAcquireOwnerList @ 11 NONAME ; #<TI>#
	_ZTI19CPhoneFactoryDstdNc @ 12 NONAME ; #<TI>#
	_ZTI22CPhoneFactoryDummyBase @ 13 NONAME ; #<TI>#
	_ZTI23CSubSessionExtDummyBase @ 14 NONAME ; #<TI>#
	_ZTV10CFaxDstdNc @ 15 NONAME ; #<VT>#
	_ZTV11CCallDstdNc @ 16 NONAME ; #<VT>#
	_ZTV11CLineDstdNc @ 17 NONAME ; #<VT>#
	_ZTV12CPhoneDstdNc @ 18 NONAME ; #<VT>#
	_ZTV13CAcquireEntry @ 19 NONAME ; #<VT>#
	_ZTV13CFaxDummyBase @ 20 NONAME ; #<VT>#
	_ZTV14CCallDummyBase @ 21 NONAME ; #<VT>#
	_ZTV14CLineDummyBase @ 22 NONAME ; #<VT>#
	_ZTV15CPhoneDummyBase @ 23 NONAME ; #<VT>#
	_ZTV17CAcquireOwnerList @ 24 NONAME ; #<VT>#
	_ZTV19CPhoneFactoryDstdNc @ 25 NONAME ; #<VT>#
	_ZTV22CPhoneFactoryDummyBase @ 26 NONAME ; #<VT>#
	_ZTV23CSubSessionExtDummyBase @ 27 NONAME ; #<VT>#

