EXPORTS
	LibEntry @ 1 NONAME
	_ZTI10CFaxFcIden @ 2 NONAME ; #<TI>#
	_ZTI10CFaxPmIden @ 3 NONAME ; #<TI>#
	_ZTI11CCallFcIden @ 4 NONAME ; #<TI>#
	_ZTI11CCallPmIden @ 5 NONAME ; #<TI>#
	_ZTI11CLineFcIden @ 6 NONAME ; #<TI>#
	_ZTI11CLinePmIden @ 7 NONAME ; #<TI>#
	_ZTI12CFaxDstdIden @ 8 NONAME ; #<TI>#
	_ZTI12CPhoneFcIden @ 9 NONAME ; #<TI>#
	_ZTI12CPhonePmIden @ 10 NONAME ; #<TI>#
	_ZTI13CAcquireEntry @ 11 NONAME ; #<TI>#
	_ZTI13CCallDstdIden @ 12 NONAME ; #<TI>#
	_ZTI13CFaxDummyBase @ 13 NONAME ; #<TI>#
	_ZTI13CLineDstdIden @ 14 NONAME ; #<TI>#
	_ZTI14CCallDummyBase @ 15 NONAME ; #<TI>#
	_ZTI14CLineDummyBase @ 16 NONAME ; #<TI>#
	_ZTI14CPhoneDstdIden @ 17 NONAME ; #<TI>#
	_ZTI15CPhoneDummyBase @ 18 NONAME ; #<TI>#
	_ZTI17CAcquireOwnerList @ 19 NONAME ; #<TI>#
	_ZTI21CPhoneFactoryDstdIden @ 20 NONAME ; #<TI>#
	_ZTI22CPhoneFactoryDummyBase @ 21 NONAME ; #<TI>#
	_ZTI23CSubSessionExtDummyBase @ 22 NONAME ; #<TI>#
	_ZTV10CFaxFcIden @ 23 NONAME ; #<VT>#
	_ZTV10CFaxPmIden @ 24 NONAME ; #<VT>#
	_ZTV11CCallFcIden @ 25 NONAME ; #<VT>#
	_ZTV11CCallPmIden @ 26 NONAME ; #<VT>#
	_ZTV11CLineFcIden @ 27 NONAME ; #<VT>#
	_ZTV11CLinePmIden @ 28 NONAME ; #<VT>#
	_ZTV12CFaxDstdIden @ 29 NONAME ; #<VT>#
	_ZTV12CPhoneFcIden @ 30 NONAME ; #<VT>#
	_ZTV12CPhonePmIden @ 31 NONAME ; #<VT>#
	_ZTV13CAcquireEntry @ 32 NONAME ; #<VT>#
	_ZTV13CCallDstdIden @ 33 NONAME ; #<VT>#
	_ZTV13CFaxDummyBase @ 34 NONAME ; #<VT>#
	_ZTV13CLineDstdIden @ 35 NONAME ; #<VT>#
	_ZTV14CCallDummyBase @ 36 NONAME ; #<VT>#
	_ZTV14CLineDummyBase @ 37 NONAME ; #<VT>#
	_ZTV14CPhoneDstdIden @ 38 NONAME ; #<VT>#
	_ZTV15CPhoneDummyBase @ 39 NONAME ; #<VT>#
	_ZTV17CAcquireOwnerList @ 40 NONAME ; #<VT>#
	_ZTV21CPhoneFactoryDstdIden @ 41 NONAME ; #<VT>#
	_ZTV22CPhoneFactoryDummyBase @ 42 NONAME ; #<VT>#
	_ZTV23CSubSessionExtDummyBase @ 43 NONAME ; #<VT>#

