EXPORTS
	??0CESockIniData@@IAE@XZ @ 1 NONAME ; CESockIniData::CESockIniData(void)
	??0CSubConExtensionParameterSet@@IAE@XZ @ 2 NONAME ; CSubConExtensionParameterSet::CSubConExtensionParameterSet(void)
	??0CSubConGenericParameterSet@@IAE@XZ @ 3 NONAME ; CSubConGenericParameterSet::CSubConGenericParameterSet(void)
	??0RConnection@@QAE@XZ @ 4 NONAME ; RConnection::RConnection(void)
	??0RSocket@@QAE@XZ @ 5 NONAME ; RSocket::RSocket(void)
	??0RSocketServ@@QAE@XZ @ 6 NONAME ; RSocketServ::RSocketServ(void)
	??0RSubConParameterBundle@@QAE@XZ @ 7 NONAME ; RSubConParameterBundle::RSubConParameterBundle(void)
	??0RSubConnection@@QAE@XZ @ 8 NONAME ; RSubConnection::RSubConnection(void)
	??0TConnPref@@QAE@H@Z @ 9 NONAME ; TConnPref::TConnPref(int)
	??0TConnPref@@QAE@XZ @ 10 NONAME ; TConnPref::TConnPref(void)
	??0TNotificationEventBuf@@QAE@XZ @ 11 NONAME ; TNotificationEventBuf::TNotificationEventBuf(void)
	??0TSockAddr@@QAE@I@Z @ 12 NONAME ; TSockAddr::TSockAddr(unsigned int)
	??0TSockAddr@@QAE@XZ @ 13 NONAME ; TSockAddr::TSockAddr(void)
	??1CESockIniData@@UAE@XZ @ 14 NONAME ; CESockIniData::~CESockIniData(void)
	??1CSubConExtensionParameterSet@@UAE@XZ @ 15 NONAME ; CSubConExtensionParameterSet::~CSubConExtensionParameterSet(void)
	??1CSubConGenericParameterSet@@UAE@XZ @ 16 NONAME ; CSubConGenericParameterSet::~CSubConGenericParameterSet(void)
	??1CSubConParameterBundle@@UAE@XZ @ 17 NONAME ; CSubConParameterBundle::~CSubConParameterBundle(void)
	??1CSubConParameterFamily@@UAE@XZ @ 18 NONAME ; CSubConParameterFamily::~CSubConParameterFamily(void)
	??1RConnection@@UAE@XZ @ 19 NONAME ; RConnection::~RConnection(void)
	??1TNotificationEventBuf@@QAE@XZ @ 20 NONAME ; TNotificationEventBuf::~TNotificationEventBuf(void)
	?Accept@RSocket@@QAEXAAV1@AAVTDes8@@AAVTRequestStatus@@@Z @ 21 NONAME ; void RSocket::Accept(class RSocket &, class TDes8 &, class TRequestStatus &)
	?Accept@RSocket@@QAEXAAV1@AAVTRequestStatus@@@Z @ 22 NONAME ; void RSocket::Accept(class RSocket &, class TRequestStatus &)
	?Add@RNetDatabase@@QAEHABVTDesC8@@@Z @ 23 NONAME ; int RNetDatabase::Add(class TDesC8 const &)
	?Add@RNetDatabase@@QAEXABVTDesC8@@AAVTRequestStatus@@@Z @ 24 NONAME ; void RNetDatabase::Add(class TDesC8 const &, class TRequestStatus &)
	?Add@RSubConnection@@QAEXAAVRSocket@@AAVTRequestStatus@@@Z @ 25 NONAME ; void RSubConnection::Add(class RSocket &, class TRequestStatus &)
	?AddExtensionSetL@CSubConParameterFamily@@QAEXAAVCSubConExtensionParameterSet@@W4TParameterSetType@1@@Z @ 26 NONAME ; void CSubConParameterFamily::AddExtensionSetL(class CSubConExtensionParameterSet &, enum CSubConParameterFamily::TParameterSetType)
	?AddFamilyL@CSubConParameterBundle@@QAEXPAVCSubConParameterFamily@@@Z @ 27 NONAME ; void CSubConParameterBundle::AddFamilyL(class CSubConParameterFamily *)
	?AddFamilyL@RSubConParameterBundle@@QAEXPAVCSubConParameterFamily@@@Z @ 28 NONAME ; void RSubConParameterBundle::AddFamilyL(class CSubConParameterFamily *)
	?AllInterfaceNotification@RConnection@@QAEXAAVTDes8@@AAVTRequestStatus@@@Z @ 29 NONAME ; void RConnection::AllInterfaceNotification(class TDes8 &, class TRequestStatus &)
	?AllSubConnectionNotification@RConnection@@QAEXAAV?$TBuf8@$0CAA@@@AAVTRequestStatus@@@Z @ 30 NONAME ; void RConnection::AllSubConnectionNotification(class TBuf8<512> &, class TRequestStatus &)
	?Attach@RConnection@@QAEHABVTDesC8@@W4TConnAttachType@1@@Z @ 31 NONAME ; int RConnection::Attach(class TDesC8 const &, enum RConnection::TConnAttachType)
	?Bind@RSocket@@QAEHAAVTSockAddr@@@Z @ 32 NONAME ; int RSocket::Bind(class TSockAddr &)
	?Cancel@RHostResolver@@QAEXXZ @ 33 NONAME ; void RHostResolver::Cancel(void)
	?Cancel@RNetDatabase@@QAEXXZ @ 34 NONAME ; void RNetDatabase::Cancel(void)
	?Cancel@RServiceResolver@@QAEXXZ @ 35 NONAME ; void RServiceResolver::Cancel(void)
	?CancelAccept@RSocket@@QAEXXZ @ 36 NONAME ; void RSocket::CancelAccept(void)
	?CancelAll@RSocket@@QAEXXZ @ 37 NONAME ; void RSocket::CancelAll(void)
	?CancelAllInterfaceNotification@RConnection@@QAEXXZ @ 38 NONAME ; void RConnection::CancelAllInterfaceNotification(void)
	?CancelAllSubConnectionNotification@RConnection@@QAEXXZ @ 39 NONAME ; void RConnection::CancelAllSubConnectionNotification(void)
	?CancelConnect@RSocket@@QAEXXZ @ 40 NONAME ; void RSocket::CancelConnect(void)
	?CancelEventNotification@RSubConnection@@QAEXXZ @ 41 NONAME ; void RSubConnection::CancelEventNotification(void)
	?CancelIoctl@RConnection@@QAEXXZ @ 42 NONAME ; void RConnection::CancelIoctl(void)
	?CancelIoctl@RSocket@@QAEXXZ @ 43 NONAME ; void RSocket::CancelIoctl(void)
	?CancelProgressNotification@RConnection@@QAEXI@Z @ 44 NONAME ; void RConnection::CancelProgressNotification(unsigned int)
	?CancelProgressNotification@RConnection@@QAEXXZ @ 45 NONAME ; void RConnection::CancelProgressNotification(void)
	?CancelRead@RSocket@@QAEXXZ @ 46 NONAME ; void RSocket::CancelRead(void)
	?CancelRecv@RSocket@@QAEXXZ @ 47 NONAME ; void RSocket::CancelRecv(void)
	?CancelSend@RSocket@@QAEXXZ @ 48 NONAME ; void RSocket::CancelSend(void)
	?CancelServiceChangeNotification@RConnection@@QAEXXZ @ 49 NONAME ; void RConnection::CancelServiceChangeNotification(void)
	?CancelWrite@RSocket@@QAEXXZ @ 50 NONAME ; void RSocket::CancelWrite(void)
	?ClearAllParameters@CSubConParameterBundle@@QAEXW4TParameterSetType@CSubConParameterFamily@@@Z @ 51 NONAME ; void CSubConParameterBundle::ClearAllParameters(enum CSubConParameterFamily::TParameterSetType)
	?ClearAllParameters@CSubConParameterFamily@@QAEXW4TParameterSetType@1@@Z @ 52 NONAME ; void CSubConParameterFamily::ClearAllParameters(enum CSubConParameterFamily::TParameterSetType)
	?ClearAllParameters@RSubConParameterBundle@@QAEXW4TParameterSetType@CSubConParameterFamily@@@Z @ 53 NONAME ; void RSubConParameterBundle::ClearAllParameters(enum CSubConParameterFamily::TParameterSetType)
	?ClearExclusiveMode@RSocketServ@@QAEXXZ @ 54 NONAME ; void RSocketServ::ClearExclusiveMode(void)
	?Close@RConnection@@QAEXXZ @ 55 NONAME ; void RConnection::Close(void)
	?Close@RHostResolver@@QAEXXZ @ 56 NONAME ; void RHostResolver::Close(void)
	?Close@RNetDatabase@@QAEXXZ @ 57 NONAME ; void RNetDatabase::Close(void)
	?Close@RServiceResolver@@QAEXXZ @ 58 NONAME ; void RServiceResolver::Close(void)
	?Close@RSocket@@QAEXXZ @ 59 NONAME ; void RSocket::Close(void)
	?Close@RSubConParameterBundle@@QAEXXZ @ 60 NONAME ; void RSubConParameterBundle::Close(void)
	?Close@RSubConnection@@QAEXXZ @ 61 NONAME ; void RSubConnection::Close(void)
	?CmpPort@TSockAddr@@QBEHABV1@@Z @ 62 NONAME ; int TSockAddr::CmpPort(class TSockAddr const &) const
	?CommitL@CESockIniData@@QAEXXZ @ 63 NONAME ; void CESockIniData::CommitL(void)
	?Connect@RSocket@@QAEXAAVTSockAddr@@AAVTRequestStatus@@@Z @ 64 NONAME ; void RSocket::Connect(class TSockAddr &, class TRequestStatus &)
	?Connect@RSocket@@QAEXAAVTSockAddr@@ABVTDesC8@@AAVTDes8@@AAVTRequestStatus@@@Z @ 65 NONAME ; void RSocket::Connect(class TSockAddr &, class TDesC8 const &, class TDes8 &, class TRequestStatus &)
	?Connect@RSocketServ@@QAEHI@Z @ 66 NONAME ; int RSocketServ::Connect(unsigned int)
	?ConstructL@CESockIniData@@IAEXABVTDesC16@@@Z @ 67 NONAME ; void CESockIniData::ConstructL(class TDesC16 const &)
	?Control@RConnection@@QAEHIIAAVTDes8@@@Z @ 68 NONAME ; int RConnection::Control(unsigned int, unsigned int, class TDes8 &)
	?Control@RSubConnection@@QAEHIIAAVTDes8@@@Z @ 69 NONAME ; int RSubConnection::Control(unsigned int, unsigned int, class TDes8 &)
	?DataReceivedNotificationCancel@RConnection@@QAEXI@Z @ 70 NONAME ; void RConnection::DataReceivedNotificationCancel(unsigned int)
	?DataReceivedNotificationCancel@RConnection@@QAEXXZ @ 71 NONAME ; void RConnection::DataReceivedNotificationCancel(void)
	?DataReceivedNotificationRequest@RConnection@@QAEXIAAV?$TPckg@I@@AAVTRequestStatus@@@Z @ 72 NONAME ; void RConnection::DataReceivedNotificationRequest(unsigned int, class TPckg<unsigned int> &, class TRequestStatus &)
	?DataReceivedNotificationRequest@RConnection@@QAEXIIAAV?$TPckg@I@@AAVTRequestStatus@@@Z @ 73 NONAME ; void RConnection::DataReceivedNotificationRequest(unsigned int, unsigned int, class TPckg<unsigned int> &, class TRequestStatus &)
	?DataSentNotificationCancel@RConnection@@QAEXI@Z @ 74 NONAME ; void RConnection::DataSentNotificationCancel(unsigned int)
	?DataSentNotificationCancel@RConnection@@QAEXXZ @ 75 NONAME ; void RConnection::DataSentNotificationCancel(void)
	?DataSentNotificationRequest@RConnection@@QAEXIAAV?$TPckg@I@@AAVTRequestStatus@@@Z @ 76 NONAME ; void RConnection::DataSentNotificationRequest(unsigned int, class TPckg<unsigned int> &, class TRequestStatus &)
	?DataSentNotificationRequest@RConnection@@QAEXIIAAV?$TPckg@I@@AAVTRequestStatus@@@Z @ 77 NONAME ; void RConnection::DataSentNotificationRequest(unsigned int, unsigned int, class TPckg<unsigned int> &, class TRequestStatus &)
	?DataTransferredCancel@RConnection@@QAEXI@Z @ 78 NONAME ; void RConnection::DataTransferredCancel(unsigned int)
	?DataTransferredCancel@RConnection@@QAEXXZ @ 79 NONAME ; void RConnection::DataTransferredCancel(void)
	?DataTransferredRequest@RConnection@@QAEXAAV?$TPckg@I@@0AAVTRequestStatus@@@Z @ 80 NONAME ; void RConnection::DataTransferredRequest(class TPckg<unsigned int> &, class TPckg<unsigned int> &, class TRequestStatus &)
	?DataTransferredRequest@RConnection@@QAEXIAAV?$TPckg@I@@0AAVTRequestStatus@@@Z @ 81 NONAME ; void RConnection::DataTransferredRequest(unsigned int, class TPckg<unsigned int> &, class TPckg<unsigned int> &, class TRequestStatus &)
	?EnumerateConnections@RConnection@@QAEHAAI@Z @ 82 NONAME ; int RConnection::EnumerateConnections(unsigned int &)
	?EnumerateSubConnections@RConnection@@QAEHAAI@Z @ 83 NONAME ; int RConnection::EnumerateSubConnections(unsigned int &)
	?EventNotification@RSubConnection@@QAEXAAVTNotificationEventBuf@@HAAVTRequestStatus@@@Z @ 84 NONAME ; void RSubConnection::EventNotification(class TNotificationEventBuf &, int, class TRequestStatus &)
	?EventNotification@RSubConnection@@QAEXAAVTNotificationEventBuf@@QAUTEventFilter@1@IAAVTRequestStatus@@@Z @ 85 NONAME ; void RSubConnection::EventNotification(class TNotificationEventBuf &, struct RSubConnection::TEventFilter * const, unsigned int, class TRequestStatus &)
	?ExtensionId@TConnPref@@QBEHXZ @ 86 NONAME ; int TConnPref::ExtensionId(void) const
	?Family@TSockAddr@@QBEIXZ @ 87 NONAME ; unsigned int TSockAddr::Family(void) const
	?FindExtensionSet@CSubConParameterFamily@@QAEPAVCSubConExtensionParameterSet@@VTUid@@W4TParameterSetType@1@@Z @ 88 NONAME ; class CSubConExtensionParameterSet * CSubConParameterFamily::FindExtensionSet(class TUid, enum CSubConParameterFamily::TParameterSetType)
	?FindFamily@CSubConParameterBundle@@QAEPAVCSubConParameterFamily@@K@Z @ 89 NONAME ; class CSubConParameterFamily * CSubConParameterBundle::FindFamily(unsigned long)
	?FindFamily@RSubConParameterBundle@@QAEPAVCSubConParameterFamily@@K@Z @ 90 NONAME ; class CSubConParameterFamily * RSubConParameterBundle::FindFamily(unsigned long)
	?FindProtocol@RSocketServ@@QAEHABV?$TBuf@$0CA@@@AAUTProtocolDesc@@@Z @ 91 NONAME ; int RSocketServ::FindProtocol(class TBuf<32> const &, struct TProtocolDesc &)
	?FindVar@CESockIniData@@QBEHABVTDesC16@@0AAH@Z @ 92 NONAME ; int CESockIniData::FindVar(class TDesC16 const &, class TDesC16 const &, int &) const
	?FindVar@CESockIniData@@QBEHABVTDesC16@@0AAVTPtrC16@@@Z @ 93 NONAME ; int CESockIniData::FindVar(class TDesC16 const &, class TDesC16 const &, class TPtrC16 &) const
	?FindVar@CESockIniData@@QBEHABVTDesC16@@AAH@Z @ 94 NONAME ; int CESockIniData::FindVar(class TDesC16 const &, int &) const
	?FindVar@CESockIniData@@QBEHABVTDesC16@@AAVTPtrC16@@@Z @ 95 NONAME ; int CESockIniData::FindVar(class TDesC16 const &, class TPtrC16 &) const
	?Get16@BigEndian@@SAGPBE@Z @ 96 NONAME ; unsigned short BigEndian::Get16(unsigned char const *)
	?Get16@LittleEndian@@SAGPBE@Z @ 97 NONAME ; unsigned short LittleEndian::Get16(unsigned char const *)
	?Get32@BigEndian@@SAKPBE@Z @ 98 NONAME ; unsigned long BigEndian::Get32(unsigned char const *)
	?Get32@LittleEndian@@SAKPBE@Z @ 99 NONAME ; unsigned long LittleEndian::Get32(unsigned char const *)
	?GetBoolSetting@RConnection@@QAEHABVTDesC16@@AAH@Z @ 100 NONAME ; int RConnection::GetBoolSetting(class TDesC16 const &, int &)
	?GetByAddress@RHostResolver@@QAEHABVTSockAddr@@AAV?$TPckgBuf@VTNameRecord@@@@@Z @ 101 NONAME ; int RHostResolver::GetByAddress(class TSockAddr const &, class TPckgBuf<class TNameRecord> &)
	?GetByAddress@RHostResolver@@QAEXABVTSockAddr@@AAV?$TPckgBuf@VTNameRecord@@@@AAVTRequestStatus@@@Z @ 102 NONAME ; void RHostResolver::GetByAddress(class TSockAddr const &, class TPckgBuf<class TNameRecord> &, class TRequestStatus &)
	?GetByName@RHostResolver@@QAEHABVTDesC16@@AAV?$TPckgBuf@VTNameRecord@@@@@Z @ 103 NONAME ; int RHostResolver::GetByName(class TDesC16 const &, class TPckgBuf<class TNameRecord> &)
	?GetByName@RHostResolver@@QAEXABVTDesC16@@AAV?$TPckgBuf@VTNameRecord@@@@AAVTRequestStatus@@@Z @ 104 NONAME ; void RHostResolver::GetByName(class TDesC16 const &, class TPckgBuf<class TNameRecord> &, class TRequestStatus &)
	?GetByName@RServiceResolver@@QAEHABVTDesC16@@AAV?$TPckgBuf@H@@@Z @ 105 NONAME ; int RServiceResolver::GetByName(class TDesC16 const &, class TPckgBuf<int> &)
	?GetByName@RServiceResolver@@QAEXABVTDesC16@@AAV?$TPckgBuf@H@@AAVTRequestStatus@@@Z @ 106 NONAME ; void RServiceResolver::GetByName(class TDesC16 const &, class TPckgBuf<int> &, class TRequestStatus &)
	?GetByNumber@RServiceResolver@@QAEHIAAVTDes16@@@Z @ 107 NONAME ; int RServiceResolver::GetByNumber(unsigned int, class TDes16 &)
	?GetByNumber@RServiceResolver@@QAEXIAAVTDes16@@AAVTRequestStatus@@@Z @ 108 NONAME ; void RServiceResolver::GetByNumber(unsigned int, class TDes16 &, class TRequestStatus &)
	?GetConnectionInfo@RConnection@@QAEHIAAVTDes8@@@Z @ 109 NONAME ; int RConnection::GetConnectionInfo(unsigned int, class TDes8 &)
	?GetDesSetting@RConnection@@QAEHABVTDesC16@@AAVTDes16@@@Z @ 110 NONAME ; int RConnection::GetDesSetting(class TDesC16 const &, class TDes16 &)
	?GetDesSetting@RConnection@@QAEHABVTDesC16@@AAVTDes8@@@Z @ 111 NONAME ; int RConnection::GetDesSetting(class TDesC16 const &, class TDes8 &)
	?GetDisconnectData@RSocket@@QAEHAAVTDes8@@@Z @ 112 NONAME ; int RSocket::GetDisconnectData(class TDes8 &)
	?GetGenericSet@CSubConParameterFamily@@QAEPAVCSubConGenericParameterSet@@W4TParameterSetType@1@@Z @ 113 NONAME ; class CSubConGenericParameterSet * CSubConParameterFamily::GetGenericSet(enum CSubConParameterFamily::TParameterSetType)
	?GetHostName@RHostResolver@@QAEHAAVTDes16@@@Z @ 114 NONAME ; int RHostResolver::GetHostName(class TDes16 &)
	?GetHostName@RHostResolver@@QAEXAAVTDes16@@AAVTRequestStatus@@@Z @ 115 NONAME ; void RHostResolver::GetHostName(class TDes16 &, class TRequestStatus &)
	?GetIntSetting@RConnection@@QAEHABVTDesC16@@AAK@Z @ 116 NONAME ; int RConnection::GetIntSetting(class TDesC16 const &, unsigned long &)
	?GetLongDesSetting@RConnection@@QAEHABVTDesC16@@AAVTDes16@@@Z @ 117 NONAME ; int RConnection::GetLongDesSetting(class TDesC16 const &, class TDes16 &)
	?GetOpt@RConnection@@QAEHIIAAH@Z @ 118 NONAME ; int RConnection::GetOpt(unsigned int, unsigned int, int &)
	?GetOpt@RSocket@@QAEHIIAAH@Z @ 119 NONAME ; int RSocket::GetOpt(unsigned int, unsigned int, int &)
	?GetOpt@RSocket@@QAEHIIAAVTDes8@@@Z @ 120 NONAME ; int RSocket::GetOpt(unsigned int, unsigned int, class TDes8 &)
	?GetParameters@RSubConnection@@QAEHAAVRSubConParameterBundle@@@Z @ 121 NONAME ; int RSubConnection::GetParameters(class RSubConParameterBundle &)
	?GetProtocolInfo@RSocketServ@@QAEHIAAUTProtocolDesc@@@Z @ 122 NONAME ; int RSocketServ::GetProtocolInfo(unsigned int, struct TProtocolDesc &)
	?GetSubConnectionInfo@RConnection@@QAEHAAVTDes8@@@Z @ 123 NONAME ; int RConnection::GetSubConnectionInfo(class TDes8 &)
	?GetSubConnectionInfo@RConnection@@QAEHIAAVTDes8@@@Z @ 124 NONAME ; int RConnection::GetSubConnectionInfo(unsigned int, class TDes8 &)
	?GetUserLen@TConnPref@@QAEHXZ @ 125 NONAME ; int TConnPref::GetUserLen(void)
	?GetUserLen@TSockAddr@@QAEHXZ @ 126 NONAME ; int TSockAddr::GetUserLen(void)
	?GroupId@CSubConNotificationEvent@@QBEJXZ @ 127 NONAME ; long CSubConNotificationEvent::GroupId(void) const
	?GroupId@TNotificationEventBuf@@QBEJXZ @ 128 NONAME ; long TNotificationEventBuf::GroupId(void) const
	?Id@CSubConNotificationEvent@@QBEKXZ @ 129 NONAME ; unsigned long CSubConNotificationEvent::Id(void) const
	?Id@TNotificationEventBuf@@QBEKXZ @ 130 NONAME ; unsigned long TNotificationEventBuf::Id(void) const
	?Info@RSocket@@QAEHAAUTProtocolDesc@@@Z @ 131 NONAME ; int RSocket::Info(struct TProtocolDesc &)
	?InstallExtension@RSocketServ@@QAEHABVTDesC16@@0@Z @ 132 NONAME ; int RSocketServ::InstallExtension(class TDesC16 const &, class TDesC16 const &)
	?Ioctl@RConnection@@QAEXIIAAVTRequestStatus@@@Z @ 133 NONAME ; void RConnection::Ioctl(unsigned int, unsigned int, class TRequestStatus &)
	?Ioctl@RConnection@@QAEXIIAAVTRequestStatus@@PAVTDes8@@@Z @ 134 NONAME ; void RConnection::Ioctl(unsigned int, unsigned int, class TRequestStatus &, class TDes8 *)
	?Ioctl@RSocket@@QAEXIAAVTRequestStatus@@PAVTDes8@@I@Z @ 135 NONAME ; void RSocket::Ioctl(unsigned int, class TRequestStatus &, class TDes8 *, unsigned int)
	?IsConnectionActiveCancel@RConnection@@QAEXXZ @ 136 NONAME ; void RConnection::IsConnectionActiveCancel(void)
	?IsConnectionActiveRequest@RConnection@@QAEXIAAV?$TPckg@H@@AAVTRequestStatus@@@Z @ 137 NONAME ; void RConnection::IsConnectionActiveRequest(unsigned int, class TPckg<int> &, class TRequestStatus &)
	?IsGeneric@CSubConNotificationEvent@@QBEHXZ @ 138 NONAME ; int CSubConNotificationEvent::IsGeneric(void) const
	?IsGeneric@TNotificationEventBuf@@QBEHXZ @ 139 NONAME ; int TNotificationEventBuf::IsGeneric(void) const
	?IsSubConnectionActiveCancel@RConnection@@QAEXI@Z @ 140 NONAME ; void RConnection::IsSubConnectionActiveCancel(unsigned int)
	?IsSubConnectionActiveRequest@RConnection@@QAEXIIAAV?$TPckg@H@@AAVTRequestStatus@@@Z @ 141 NONAME ; void RConnection::IsSubConnectionActiveRequest(unsigned int, unsigned int, class TPckg<int> &, class TRequestStatus &)
	?LastProgressError@RConnection@@QAEHAAVTNifProgress@@@Z @ 142 NONAME ; int RConnection::LastProgressError(class TNifProgress &)
	?Length@CSubConParameterBundle@@QBEIXZ @ 143 NONAME ; unsigned int CSubConParameterBundle::Length(void) const
	?Length@CSubConParameterFamily@@QBEIXZ @ 144 NONAME ; unsigned int CSubConParameterFamily::Length(void) const
	?Length@RSubConParameterBundle@@QBEIXZ @ 145 NONAME ; unsigned int RSubConParameterBundle::Length(void) const
	?Listen@RSocket@@QAEHI@Z @ 146 NONAME ; int RSocket::Listen(unsigned int)
	?Listen@RSocket@@QAEHIABVTDesC8@@@Z @ 147 NONAME ; int RSocket::Listen(unsigned int, class TDesC8 const &)
	?Load@CSubConParameterBundle@@QAEHABVTDesC8@@@Z @ 148 NONAME ; int CSubConParameterBundle::Load(class TDesC8 const &)
	?Load@CSubConParameterFamily@@QAEHAAVTPtrC8@@@Z @ 149 NONAME ; int CSubConParameterFamily::Load(class TPtrC8 &)
	?Load@RSubConParameterBundle@@QAEHABVTDesC8@@@Z @ 150 NONAME ; int RSubConParameterBundle::Load(class TDesC8 const &)
	?LoadL@CSubConParameterBundle@@SAPAV1@AAVTDesC8@@@Z @ 151 NONAME ; class CSubConParameterBundle * CSubConParameterBundle::LoadL(class TDesC8 &)
	?LoadL@CSubConParameterFamily@@SAPAV1@AAVCSubConParameterBundle@@AAVTPtrC8@@@Z @ 152 NONAME ; class CSubConParameterFamily * CSubConParameterFamily::LoadL(class CSubConParameterBundle &, class TPtrC8 &)
	?LoadL@CSubConParameterFamily@@SAPAV1@AAVRSubConParameterBundle@@AAVTPtrC8@@@Z @ 153 NONAME ; class CSubConParameterFamily * CSubConParameterFamily::LoadL(class RSubConParameterBundle &, class TPtrC8 &)
	?LocalName@RSocket@@QAEXAAVTSockAddr@@@Z @ 154 NONAME ; void RSocket::LocalName(class TSockAddr &)
	?LocalPort@RSocket@@QAEIXZ @ 155 NONAME ; unsigned int RSocket::LocalPort(void)
	?Name@RConnection@@QAEHAAV?$TBuf@$0IA@@@@Z @ 156 NONAME ; int RConnection::Name(class TBuf<128> &)
	?Name@RSocket@@QAEHAAV?$TBuf@$0IA@@@@Z @ 157 NONAME ; int RSocket::Name(class TBuf<128> &)
	?NewL@CESockIniData@@SAPAV1@ABVTDesC16@@@Z @ 158 NONAME ; class CESockIniData * CESockIniData::NewL(class TDesC16 const &)
	?NewL@CSubConNotificationEvent@@SAPAV1@ABUSTypeId@Meta@@@Z @ 159 NONAME ; class CSubConNotificationEvent * CSubConNotificationEvent::NewL(struct Meta::STypeId const &)
	?NewL@CSubConNotificationEvent@@SAPAV1@ABVTNotificationEventBuf@@@Z @ 160 NONAME ; class CSubConNotificationEvent * CSubConNotificationEvent::NewL(class TNotificationEventBuf const &)
	?NewL@CSubConParameterBundle@@SAPAV1@XZ @ 161 NONAME ; class CSubConParameterBundle * CSubConParameterBundle::NewL(void)
	?NewL@CSubConParameterFamily@@SAPAV1@AAVCSubConParameterBundle@@K@Z @ 162 NONAME ; class CSubConParameterFamily * CSubConParameterFamily::NewL(class CSubConParameterBundle &, unsigned long)
	?NewL@CSubConParameterFamily@@SAPAV1@AAVRSubConParameterBundle@@K@Z @ 163 NONAME ; class CSubConParameterFamily * CSubConParameterFamily::NewL(class RSubConParameterBundle &, unsigned long)
	?NewL@CSubConParameterSet@@SAPAV1@ABUSTypeId@Meta@@@Z @ 164 NONAME ; class CSubConParameterSet * CSubConParameterSet::NewL(struct Meta::STypeId const &)
	?Next@RHostResolver@@QAEHAAV?$TPckgBuf@VTNameRecord@@@@@Z @ 165 NONAME ; int RHostResolver::Next(class TPckgBuf<class TNameRecord> &)
	?Next@RHostResolver@@QAEXAAV?$TPckgBuf@VTNameRecord@@@@AAVTRequestStatus@@@Z @ 166 NONAME ; void RHostResolver::Next(class TPckgBuf<class TNameRecord> &, class TRequestStatus &)
	?NumProtocols@RSocketServ@@QAEHAAI@Z @ 167 NONAME ; int RSocketServ::NumProtocols(unsigned int &)
	?Open@RConnection@@QAEHAAVRSocketServ@@AAV?$TBuf@$0IA@@@@Z @ 168 NONAME ; int RConnection::Open(class RSocketServ &, class TBuf<128> &)
	?Open@RConnection@@QAEHAAVRSocketServ@@I@Z @ 169 NONAME ; int RConnection::Open(class RSocketServ &, unsigned int)
	?Open@RHostResolver@@QAEHAAVRSocketServ@@II@Z @ 170 NONAME ; int RHostResolver::Open(class RSocketServ &, unsigned int, unsigned int)
	?Open@RHostResolver@@QAEHAAVRSocketServ@@IIAAVRConnection@@@Z @ 171 NONAME ; int RHostResolver::Open(class RSocketServ &, unsigned int, unsigned int, class RConnection &)
	?Open@RNetDatabase@@QAEHAAVRSocketServ@@II@Z @ 172 NONAME ; int RNetDatabase::Open(class RSocketServ &, unsigned int, unsigned int)
	?Open@RServiceResolver@@QAEHAAVRSocketServ@@III@Z @ 173 NONAME ; int RServiceResolver::Open(class RSocketServ &, unsigned int, unsigned int, unsigned int)
	?Open@RSocket@@QAEHAAVRSocketServ@@@Z @ 174 NONAME ; int RSocket::Open(class RSocketServ &)
	?Open@RSocket@@QAEHAAVRSocketServ@@ABVTDesC16@@@Z @ 175 NONAME ; int RSocket::Open(class RSocketServ &, class TDesC16 const &)
	?Open@RSocket@@QAEHAAVRSocketServ@@III@Z @ 176 NONAME ; int RSocket::Open(class RSocketServ &, unsigned int, unsigned int, unsigned int)
	?Open@RSocket@@QAEHAAVRSocketServ@@IIIAAVRConnection@@@Z @ 177 NONAME ; int RSocket::Open(class RSocketServ &, unsigned int, unsigned int, unsigned int, class RConnection &)
	?Open@RSocket@@QAEHAAVRSocketServ@@IIIAAVRSubConnection@@@Z @ 178 NONAME ; int RSocket::Open(class RSocketServ &, unsigned int, unsigned int, unsigned int, class RSubConnection &)
	?Open@RSubConnection@@QAEHAAVRSocketServ@@W4TSubConnType@1@AAVRConnection@@@Z @ 179 NONAME ; int RSubConnection::Open(class RSocketServ &, enum RSubConnection::TSubConnType, class RConnection &)
	?Port@TSockAddr@@QBEIXZ @ 180 NONAME ; unsigned int TSockAddr::Port(void) const
	?Progress@RConnection@@QAEHAAVTNifProgress@@@Z @ 181 NONAME ; int RConnection::Progress(class TNifProgress &)
	?Progress@RConnection@@QAEHIAAVTNifProgress@@@Z @ 182 NONAME ; int RConnection::Progress(unsigned int, class TNifProgress &)
	?ProgressNotification@RConnection@@QAEXAAV?$TPckgBuf@VTNifProgress@@@@AAVTRequestStatus@@I@Z @ 183 NONAME ; void RConnection::ProgressNotification(class TPckgBuf<class TNifProgress> &, class TRequestStatus &, unsigned int)
	?ProgressNotification@RConnection@@QAEXIAAV?$TPckgBuf@VTNifProgress@@@@AAVTRequestStatus@@I@Z @ 184 NONAME ; void RConnection::ProgressNotification(unsigned int, class TPckgBuf<class TNifProgress> &, class TRequestStatus &, unsigned int)
	?Put16@BigEndian@@SAXPAEG@Z @ 185 NONAME ; void BigEndian::Put16(unsigned char *, unsigned short)
	?Put16@LittleEndian@@SAXPAEG@Z @ 186 NONAME ; void LittleEndian::Put16(unsigned char *, unsigned short)
	?Put32@BigEndian@@SAXPAEK@Z @ 187 NONAME ; void BigEndian::Put32(unsigned char *, unsigned long)
	?Put32@LittleEndian@@SAXPAEK@Z @ 188 NONAME ; void LittleEndian::Put32(unsigned char *, unsigned long)
	?Query@RHostResolver@@QAEHABVTDesC8@@AAVTDes8@@@Z @ 189 NONAME ; int RHostResolver::Query(class TDesC8 const &, class TDes8 &)
	?Query@RHostResolver@@QAEXABVTDesC8@@AAVTDes8@@AAVTRequestStatus@@@Z @ 190 NONAME ; void RHostResolver::Query(class TDesC8 const &, class TDes8 &, class TRequestStatus &)
	?Query@RNetDatabase@@QAEHABVTDesC8@@AAVTDes8@@@Z @ 191 NONAME ; int RNetDatabase::Query(class TDesC8 const &, class TDes8 &)
	?Query@RNetDatabase@@QAEXABVTDesC8@@AAVTDes8@@AAVTRequestStatus@@@Z @ 192 NONAME ; void RNetDatabase::Query(class TDesC8 const &, class TDes8 &, class TRequestStatus &)
	?QueryGetNext@RHostResolver@@QAEHAAVTDes8@@@Z @ 193 NONAME ; int RHostResolver::QueryGetNext(class TDes8 &)
	?QueryGetNext@RHostResolver@@QAEXAAVTDes8@@AAVTRequestStatus@@@Z @ 194 NONAME ; void RHostResolver::QueryGetNext(class TDes8 &, class TRequestStatus &)
	?Read@RSocket@@QAEXAAVTDes8@@AAVTRequestStatus@@@Z @ 195 NONAME ; void RSocket::Read(class TDes8 &, class TRequestStatus &)
	?Recv@RSocket@@QAEXAAVTDes8@@IAAVTRequestStatus@@@Z @ 196 NONAME ; void RSocket::Recv(class TDes8 &, unsigned int, class TRequestStatus &)
	?Recv@RSocket@@QAEXAAVTDes8@@IAAVTRequestStatus@@AAV?$TPckgBuf@H@@@Z @ 197 NONAME ; void RSocket::Recv(class TDes8 &, unsigned int, class TRequestStatus &, class TPckgBuf<int> &)
	?RecvFrom@RSocket@@QAEXAAVTDes8@@AAVTSockAddr@@IAAVTRequestStatus@@@Z @ 198 NONAME ; void RSocket::RecvFrom(class TDes8 &, class TSockAddr &, unsigned int, class TRequestStatus &)
	?RecvFrom@RSocket@@QAEXAAVTDes8@@AAVTSockAddr@@IAAVTRequestStatus@@AAV?$TPckgBuf@H@@@Z @ 199 NONAME ; void RSocket::RecvFrom(class TDes8 &, class TSockAddr &, unsigned int, class TRequestStatus &, class TPckgBuf<int> &)
	?RecvOneOrMore@RSocket@@QAEXAAVTDes8@@IAAVTRequestStatus@@AAV?$TPckgBuf@H@@@Z @ 200 NONAME ; void RSocket::RecvOneOrMore(class TDes8 &, unsigned int, class TRequestStatus &, class TPckgBuf<int> &)
	?RegisterService@RServiceResolver@@QAEHABVTDesC16@@ABI@Z @ 201 NONAME ; int RServiceResolver::RegisterService(class TDesC16 const &, unsigned int const &)
	?RegisterService@RServiceResolver@@QAEXABVTDesC16@@ABIAAVTRequestStatus@@@Z @ 202 NONAME ; void RServiceResolver::RegisterService(class TDesC16 const &, unsigned int const &, class TRequestStatus &)
	?RemoteName@RSocket@@QAEXAAVTSockAddr@@@Z @ 203 NONAME ; void RSocket::RemoteName(class TSockAddr &)
	?Remove@RNetDatabase@@QAEHABVTDesC8@@@Z @ 204 NONAME ; int RNetDatabase::Remove(class TDesC8 const &)
	?Remove@RNetDatabase@@QAEXABVTDesC8@@AAVTRequestStatus@@@Z @ 205 NONAME ; void RNetDatabase::Remove(class TDesC8 const &, class TRequestStatus &)
	?Remove@RSubConnection@@QAEXAAVRSocket@@AAVTRequestStatus@@@Z @ 206 NONAME ; void RSubConnection::Remove(class RSocket &, class TRequestStatus &)
	?RemoveService@RServiceResolver@@QAEHABVTDesC16@@ABI@Z @ 207 NONAME ; int RServiceResolver::RemoveService(class TDesC16 const &, unsigned int const &)
	?RemoveService@RServiceResolver@@QAEXABVTDesC16@@ABIAAVTRequestStatus@@@Z @ 208 NONAME ; void RServiceResolver::RemoveService(class TDesC16 const &, unsigned int const &, class TRequestStatus &)
	?Send@RSocket@@QAEXABVTDesC8@@IAAVTRequestStatus@@@Z @ 209 NONAME ; void RSocket::Send(class TDesC8 const &, unsigned int, class TRequestStatus &)
	?Send@RSocket@@QAEXABVTDesC8@@IAAVTRequestStatus@@AAV?$TPckgBuf@H@@@Z @ 210 NONAME ; void RSocket::Send(class TDesC8 const &, unsigned int, class TRequestStatus &, class TPckgBuf<int> &)
	?SendTo@RSocket@@QAEXABVTDesC8@@AAVTSockAddr@@IAAVTRequestStatus@@@Z @ 211 NONAME ; void RSocket::SendTo(class TDesC8 const &, class TSockAddr &, unsigned int, class TRequestStatus &)
	?SendTo@RSocket@@QAEXABVTDesC8@@AAVTSockAddr@@IAAVTRequestStatus@@AAV?$TPckgBuf@H@@@Z @ 212 NONAME ; void RSocket::SendTo(class TDesC8 const &, class TSockAddr &, unsigned int, class TRequestStatus &, class TPckgBuf<int> &)
	?ServiceChangeNotification@RConnection@@QAEXAAKAAVTDes16@@AAVTRequestStatus@@@Z @ 213 NONAME ; void RConnection::ServiceChangeNotification(unsigned long &, class TDes16 &, class TRequestStatus &)
	?SetExclusiveMode@RSocketServ@@QAEXAAVTRequestStatus@@@Z @ 214 NONAME ; void RSocketServ::SetExclusiveMode(class TRequestStatus &)
	?SetExtensionId@TConnPref@@IAEXH@Z @ 215 NONAME ; void TConnPref::SetExtensionId(int)
	?SetFamily@TSockAddr@@QAEXI@Z @ 216 NONAME ; void TSockAddr::SetFamily(unsigned int)
	?SetGenericSetL@CSubConParameterFamily@@QAEXAAVCSubConGenericParameterSet@@W4TParameterSetType@1@@Z @ 217 NONAME ; void CSubConParameterFamily::SetGenericSetL(class CSubConGenericParameterSet &, enum CSubConParameterFamily::TParameterSetType)
	?SetHostName@RHostResolver@@QAEHABVTDesC16@@@Z @ 218 NONAME ; int RHostResolver::SetHostName(class TDesC16 const &)
	?SetLocalPort@RSocket@@QAEHH@Z @ 219 NONAME ; int RSocket::SetLocalPort(int)
	?SetOpt@RConnection@@QAEHIIH@Z @ 220 NONAME ; int RConnection::SetOpt(unsigned int, unsigned int, int)
	?SetOpt@RSocket@@QAEHIIABVTDesC8@@@Z @ 221 NONAME ; int RSocket::SetOpt(unsigned int, unsigned int, class TDesC8 const &)
	?SetOpt@RSocket@@QAEHIIH@Z @ 222 NONAME ; int RSocket::SetOpt(unsigned int, unsigned int, int)
	?SetParameters@RSubConnection@@QAEHABVRSubConParameterBundle@@@Z @ 223 NONAME ; int RSubConnection::SetParameters(class RSubConParameterBundle const &)
	?SetPort@TSockAddr@@QAEXI@Z @ 224 NONAME ; void TSockAddr::SetPort(unsigned int)
	?SetUserLen@TConnPref@@IAEXH@Z @ 225 NONAME ; void TConnPref::SetUserLen(int)
	?SetUserLen@TSockAddr@@IAEXH@Z @ 226 NONAME ; void TSockAddr::SetUserLen(int)
	?Shutdown@RSocket@@QAEXW4TShutdown@1@AAVTRequestStatus@@@Z @ 227 NONAME ; void RSocket::Shutdown(enum RSocket::TShutdown, class TRequestStatus &)
	?Shutdown@RSocket@@QAEXW4TShutdown@1@ABVTDesC8@@AAVTDes8@@AAVTRequestStatus@@@Z @ 228 NONAME ; void RSocket::Shutdown(enum RSocket::TShutdown, class TDesC8 const &, class TDes8 &, class TRequestStatus &)
	?Start@RConnection@@QAEHAAVTConnPref@@@Z @ 229 NONAME ; int RConnection::Start(class TConnPref &)
	?Start@RConnection@@QAEHXZ @ 230 NONAME ; int RConnection::Start(void)
	?Start@RConnection@@QAEXAAVTConnPref@@AAVTRequestStatus@@@Z @ 231 NONAME ; void RConnection::Start(class TConnPref &, class TRequestStatus &)
	?Start@RConnection@@QAEXAAVTRequestStatus@@@Z @ 232 NONAME ; void RConnection::Start(class TRequestStatus &)
	?StartProtocol@RSocketServ@@QAEXIIIAAVTRequestStatus@@@Z @ 233 NONAME ; void RSocketServ::StartProtocol(unsigned int, unsigned int, unsigned int, class TRequestStatus &)
	?Stop@RConnection@@QAEHI@Z @ 234 NONAME ; int RConnection::Stop(unsigned int)
	?Stop@RConnection@@QAEHIW4TConnStopType@1@@Z @ 235 NONAME ; int RConnection::Stop(unsigned int, enum RConnection::TConnStopType)
	?Stop@RConnection@@QAEHW4TConnStopType@1@@Z @ 236 NONAME ; int RConnection::Stop(enum RConnection::TConnStopType)
	?Stop@RConnection@@QAEHXZ @ 237 NONAME ; int RConnection::Stop(void)
	?StopProtocol@RSocketServ@@QAEXIIIAAVTRequestStatus@@@Z @ 238 NONAME ; void RSocketServ::StopProtocol(unsigned int, unsigned int, unsigned int, class TRequestStatus &)
	?Store@CSubConParameterBundle@@QBEHAAVTDes8@@@Z @ 239 NONAME ; int CSubConParameterBundle::Store(class TDes8 &) const
	?Store@CSubConParameterFamily@@QBEHAAVTDes8@@@Z @ 240 NONAME ; int CSubConParameterFamily::Store(class TDes8 &) const
	?Store@RSubConParameterBundle@@QBEHAAVTDes8@@@Z @ 241 NONAME ; int RSubConParameterBundle::Store(class TDes8 &) const
	?Swap16@ByteOrder@@SAGG@Z @ 242 NONAME ; unsigned short ByteOrder::Swap16(unsigned short)
	?Swap32@ByteOrder@@SAKK@Z @ 243 NONAME ; unsigned long ByteOrder::Swap32(unsigned long)
	?Transfer@RSocket@@QAEHAAVRSocketServ@@ABVTDesC16@@@Z @ 244 NONAME ; int RSocket::Transfer(class RSocketServ &, class TDesC16 const &)
	?Version@RSocketServ@@QBE?AVTVersion@@XZ @ 245 NONAME ; class TVersion RSocketServ::Version(void) const
	?Write@RSocket@@QAEXABVTDesC8@@AAVTRequestStatus@@@Z @ 246 NONAME ; void RSocket::Write(class TDesC8 const &, class TRequestStatus &)
	?WriteVar@CESockIniData@@QAEHABVTDesC16@@00@Z @ 247 NONAME ; int CESockIniData::WriteVar(class TDesC16 const &, class TDesC16 const &, class TDesC16 const &)
	?WriteVar@CESockIniData@@QAEHABVTDesC16@@0H@Z @ 248 NONAME ; int CESockIniData::WriteVar(class TDesC16 const &, class TDesC16 const &, int)
	?__DbgCheckHeap@RSocketServ@@QAEHH@Z @ 249 NONAME ; int RSocketServ::__DbgCheckHeap(int)
	?__DbgCheckMbuf@RSocketServ@@QAEHH@Z @ 250 NONAME ; int RSocketServ::__DbgCheckMbuf(int)
	?__DbgFailNext@RSocketServ@@QAEHH@Z @ 251 NONAME ; int RSocketServ::__DbgFailNext(int)
	?__DbgFailNextMbuf@RSocketServ@@QAEHH@Z @ 252 NONAME ; int RSocketServ::__DbgFailNextMbuf(int)
	?__DbgMarkEnd@RSocketServ@@QAEHH@Z @ 253 NONAME ; int RSocketServ::__DbgMarkEnd(int)
	?__DbgMarkHeap@RSocketServ@@QAEHXZ @ 254 NONAME ; int RSocketServ::__DbgMarkHeap(void)
	?__DbgMbufFreeSpace@RSocketServ@@QAEHXZ @ 255 NONAME ; int RSocketServ::__DbgMbufFreeSpace(void)
	?__DbgMbufTotalSpace@RSocketServ@@QAEHXZ @ 256 NONAME ; int RSocketServ::__DbgMbufTotalSpace(void)
	?__DbgSetMbufPoolLimit@RSocketServ@@QAEHH@Z @ 257 NONAME ; int RSocketServ::__DbgSetMbufPoolLimit(int)
	??0CESockIniData@@IAE@PBVCOwnEntryList@CommsFW@@@Z @ 258 NONAME ; CESockIniData::CESockIniData(class CommsFW::COwnEntryList const *)
	?Connect@RSocketServ@@QAEHABVTSessionPref@@I@Z @ 259 NONAME ; int RSocketServ::Connect(class TSessionPref const &, unsigned int)
	?NewL@CESockIniData@@SAPAV1@PBVCOwnEntryList@CommsFW@@@Z @ 260 NONAME ; class CESockIniData * CESockIniData::NewL(class CommsFW::COwnEntryList const *)
	??0TSessionPref@@QAE@XZ @ 261 NONAME ; TSessionPref::TSessionPref(void)
	??0TConnIdList@@QAE@XZ @ 262 NONAME ; TConnIdList::TConnIdList(void)
	??0TConnSnapPref@@QAE@K@Z @ 263 NONAME ; TConnSnapPref::TConnSnapPref(void)
	??ATConnIdList@@QAEAAHH@Z @ 264 NONAME ; int & TConnIdList::operator[](int)
	?Append@TConnIdList@@QAEXH@Z @ 265 NONAME ; void TConnIdList::Append(int)
	?Count@TConnIdList@@QBEHXZ @ 266 NONAME ; int TConnIdList::Count(void) const
	?Get@TConnIdList@@QBEHH@Z @ 267 NONAME ; int TConnIdList::Get(int) const
	??0TConnSnapPref@@QAE@XZ @ 268 NONAME ; unsigned long TConnSnapPref::Snap(void) const
	?MaxCount@TConnIdList@@SAHXZ @ 269 NONAME ; int TConnIdList::MaxCount(void)
	?SetSnap@TConnSnapPref@@QAEXK@Z @ 270 NONAME ; void TConnSnapPref::SetSnap(unsigned long)
	?Snap@TConnSnapPref@@QBEKXZ @ 271 NONAME ; TConnSnapPref::TConnSnapPref(unsigned long)

	??0RCommsApiExtensionBase@@IAE@XZ @ 272 NONAME ; RCommsApiExtensionBase::RCommsApiExtensionBase(void)
	??0RCommsMobilityApiExt@@QAE@XZ @ 273 NONAME ; RCommsMobilityApiExt::RCommsMobilityApiExt(void)
	??1CActiveCommsMobilityApiExt@@UAE@XZ @ 274 NONAME ; CActiveCommsMobilityApiExt::~CActiveCommsMobilityApiExt(void)
	?CancelMobilityNotification@RCommsMobilityApiExt@@QAEXXZ @ 275 NONAME ; void RCommsMobilityApiExt::CancelMobilityNotification(void)
	?Close@RCommsApiExtensionBase@@IAEXXZ @ 276 NONAME ; void RCommsApiExtensionBase::Close(void)
	?Close@RCommsMobilityApiExt@@QAEXXZ @ 277 NONAME ; void RCommsMobilityApiExt::Close(void)
	?IgnorePreferredCarrier@CActiveCommsMobilityApiExt@@QAEXXZ @ 278 NONAME ; void CActiveCommsMobilityApiExt::IgnorePreferredCarrier(void)
	?IgnorePreferredCarrier@RCommsMobilityApiExt@@QAEXXZ @ 279 NONAME ; void RCommsMobilityApiExt::IgnorePreferredCarrier(void)
	?MigrateToPreferredCarrier@CActiveCommsMobilityApiExt@@QAEXXZ @ 280 NONAME ; void CActiveCommsMobilityApiExt::MigrateToPreferredCarrier(void)
	?MigrateToPreferredCarrier@RCommsMobilityApiExt@@QAEXXZ @ 281 NONAME ; void RCommsMobilityApiExt::MigrateToPreferredCarrier(void)
	?NewCarrierAccepted@CActiveCommsMobilityApiExt@@QAEXXZ @ 282 NONAME ; void CActiveCommsMobilityApiExt::NewCarrierAccepted(void)
	?NewCarrierAccepted@RCommsMobilityApiExt@@QAEXXZ @ 283 NONAME ; void RCommsMobilityApiExt::NewCarrierAccepted(void)
	?NewCarrierRejected@CActiveCommsMobilityApiExt@@QAEXXZ @ 284 NONAME ; void CActiveCommsMobilityApiExt::NewCarrierRejected(void)
	?NewCarrierRejected@RCommsMobilityApiExt@@QAEXXZ @ 285 NONAME ; void RCommsMobilityApiExt::NewCarrierRejected(void)
	?NewL@CActiveCommsMobilityApiExt@@SAPAV1@AAVRCommsSubSession@@AAVMMobilityProtocolResp@@@Z @ 286 NONAME ; class CActiveCommsMobilityApiExt * CActiveCommsMobilityApiExt::NewL(class RCommsSubSession &, class MMobilityProtocolResp &)
	?NewL@CCommsApiExtensionMsg@@SAPAV1@ABUSTypeId@Meta@@@Z @ 287 NONAME ABSENT ; class CCommsApiExtensionMsg * CCommsApiExtensionMsg::NewL(struct Meta::STypeId const &)
	?NewL@CCommsApiExtensionMsg@@SAPAV1@ABVTDesC8@@@Z @ 288 NONAME ABSENT ; class CCommsApiExtensionMsg * CCommsApiExtensionMsg::NewL(class TDesC8 const &)
	?Open@RCommsApiExtensionBase@@IAEHAAVRCommsSubSession@@H@Z @ 289 NONAME ; int RCommsApiExtensionBase::Open(class RCommsSubSession &, int)
	?RegisterForMobilityNotification@RCommsMobilityApiExt@@QAEXAAVTDes8@@AAVTRequestStatus@@@Z @ 290 NONAME ; void RCommsMobilityApiExt::RegisterForMobilityNotification(class TDes8 &, class TRequestStatus &)
	?SendMessage@RCommsApiExtensionBase@@IAEXAAVCCommsApiExtReqMsg@@@Z @ 291 NONAME ABSENT ; void RCommsApiExtensionBase::SendMessage(class CCommsApiExtReqMsg &)
	?SendRequest@RCommsApiExtensionBase@@IAEXAAVCCommsApiExtReqMsg@@AAVTDes8@@AAVTRequestStatus@@@Z @ 292 NONAME ABSENT ; void RCommsApiExtensionBase::SendRequest(class CCommsApiExtReqMsg &, class TDes8 &, class TRequestStatus &)
	?Open@RSubConnection@@AAEHAAVRSocketServ@@W4TSubConnType@TSubConnOpen@@AAVRConnection@@@Z @ 293 NONAME ; int RSubConnection::Open(class RSocketServ &, enum TSubConnOpen::TSubConnType, class RConnection &)
	?Start@RSubConnection@@QAEHXZ @ 294 NONAME ; int RSubConnection::Start(void)
	?Start@RSubConnection@@QAEXAAVTRequestStatus@@@Z @ 295 NONAME ; void RSubConnection::Start(class TRequestStatus &)
	?Stop@RSubConnection@@QAEHXZ @ 296 NONAME ; int RSubConnection::Stop(void)
	?CancelWaitForIncoming@RConnection@@QAEXXZ @ 297 NONAME ; void RConnection::CancelWaitForIncoming(void)
	?WaitForIncoming@RConnection@@QAEHAAVRSubConnection@@@Z @ 298 NONAME ; int RConnection::WaitForIncoming(class RSubConnection &)
	?WaitForIncoming@RConnection@@QAEXAAVRSubConnection@@AAVTRequestStatus@@@Z @ 299 NONAME ; void RConnection::WaitForIncoming(class RSubConnection &, class TRequestStatus &)
	?FindExtensionSet@CSubConParameterFamily@@QAEPAVCSubConExtensionParameterSet@@USTypeId@Meta@@W4TParameterSetType@1@@Z @ 300 NONAME ; class CSubConExtensionParameterSet * CSubConParameterFamily::FindExtensionSet(struct Meta::STypeId, enum CSubConParameterFamily::TParameterSetType)
	??0CCommsDataObjectBase@ESock@@IAE@PAVXCommsDataObject@1@@Z @ 301 NONAME ; ESock::CCommsDataObjectBase::CCommsDataObjectBase(class ESock::XCommsDataObject *)
	??1CCommsDataObjectBase@ESock@@UAE@XZ @ 302 NONAME ; ESock::CCommsDataObjectBase::~CCommsDataObjectBase(void)
	?Copy@CCommsDataObjectBase@ESock@@UAEXPBX@Z @ 303 NONAME ; void ESock::CCommsDataObjectBase::Copy(void const *)
	?GetAttribPtr@XCommsDataObject@ESock@@MBEPAEH@Z @ 304 NONAME ; unsigned char * ESock::XCommsDataObject::GetAttribPtr(int) const
	?GetParameters@RConnection@@QAEHAAVCCommsDataObjectBase@ESock@@@Z @ 305 NONAME ; int RConnection::GetParameters(class ESock::CCommsDataObjectBase &)
	?GetVDataTable@XCommsDataObject@ESock@@MBEPBUSVDataTableEntry@Meta@@XZ @ 306 NONAME ; struct Meta::SVDataTableEntry const * ESock::XCommsDataObject::GetVDataTable(void) const
	?GetVDataTableStatic@XCommsDataObject@ESock@@KAPBUSVDataTableEntry@Meta@@XZ @ 307 NONAME ; struct Meta::SVDataTableEntry const * ESock::XCommsDataObject::GetVDataTableStatic(void)
	?Length@CCommsDataObjectBase@ESock@@UBEHXZ @ 308 NONAME ; int ESock::CCommsDataObjectBase::Length(void) const
	?Load@CCommsDataObjectBase@ESock@@UAEHAAVTPtrC8@@@Z @ 309 NONAME ; int ESock::CCommsDataObjectBase::Load(class TPtrC8 &)
	?LoadL@CCommsDataObjectBase@ESock@@SAPAV12@AAVTPtrC8@@@Z @ 310 NONAME ; class ESock::CCommsDataObjectBase * ESock::CCommsDataObjectBase::LoadL(class TPtrC8 &)
	?NewL@CCommsDataObjectBase@ESock@@SAPAV12@PAVXCommsDataObject@2@@Z @ 311 NONAME ; class ESock::CCommsDataObjectBase * ESock::CCommsDataObjectBase::NewL(class ESock::XCommsDataObject *)
	?Store@CCommsDataObjectBase@ESock@@UBEHAAVTDes8@@@Z @ 312 NONAME ; int ESock::CCommsDataObjectBase::Store(class TDes8 &) const
	?SetParameters@RConnection@@QAEHAAVCCommsDataObjectBase@ESock@@@Z @ 313 NONAME ; int RConnection::SetParameters(class ESock::CCommsDataObjectBase &)
	??0RCommsDataMonitoringApiExt@@QAE@XZ @ 314 NONAME ; RCommsDataMonitoringApiExt::RCommsDataMonitoringApiExt(void)
	??0RConnectionServ@ConnectionServ@@QAE@XZ @ 315 NONAME ; ConnectionServ::RConnectionServ::RConnectionServ(void)
	??1CParameterBundleBase@@UAE@XZ @ 316 NONAME ; CParameterBundleBase::~CParameterBundleBase(void)
	??1CParameterSetContainer@@UAE@XZ @ 317 NONAME ; CParameterSetContainer::~CParameterSetContainer(void)
	??1XParameterSet@@UAE@XZ @ 318 NONAME ; XParameterSet::~XParameterSet(void)
	?AccessPointNotification@RConnectionServ@ConnectionServ@@QAEXABVCConnectionServParameterBundle@2@AAVMAccessPointNotificationObserver@2@@Z @ 319 NONAME ; void ConnectionServ::RConnectionServ::AccessPointNotification(class ConnectionServ::CConnectionServParameterBundle const &, class ConnectionServ::MAccessPointNotificationObserver &)
	?AccessPointStatusQuery@RConnectionServ@ConnectionServ@@QAEXABVCConnectionServParameterBundle@2@AAV32@AAVTRequestStatus@@@Z @ 320 NONAME ; void ConnectionServ::RConnectionServ::AccessPointStatusQuery(class ConnectionServ::CConnectionServParameterBundle const &, class ConnectionServ::CConnectionServParameterBundle &, class TRequestStatus &)
	?AddMatchConditionL@CConnectionServParameterBundle@ConnectionServ@@QAEXABUTAccessPointInfo@@@Z @ 321 NONAME ABSENT ; void ConnectionServ::CConnectionServParameterBundle::AddMatchConditionL(struct TAccessPointInfo const &)
	?AddMatchConditionL@CConnectionServParameterBundle@ConnectionServ@@QAEXABUTAccessPointStatusFilter@2@@Z @ 322 NONAME ; void ConnectionServ::CConnectionServParameterBundle::AddMatchConditionL(struct ConnectionServ::TAccessPointStatusFilter const &)
	?AddParamSetContainerL@CParameterBundleBase@@QAEXAAVCParameterSetContainer@@@Z @ 323 NONAME ; void CParameterBundleBase::AddParamSetContainerL(class CParameterSetContainer &)
	?AddParameterSetL@CParameterSetContainer@@QAEXPAVXParameterSet@@@Z @ 324 NONAME ABSENT ; void CParameterSetContainer::AddParameterSetL(class XParameterSet *)
	?AddParameterSetToReturnL@CConnectionServParameterBundle@ConnectionServ@@QAEXABUSTypeId@Meta@@@Z @ 325 NONAME ; void ConnectionServ::CConnectionServParameterBundle::AddParameterSetToReturnL(struct Meta::STypeId const &)
	?CancelAccessPointNotification@RConnectionServ@ConnectionServ@@QAEXXZ @ 326 NONAME ; void ConnectionServ::RConnectionServ::CancelAccessPointNotification(void)
	?CancelAccessPointStatusQuery@RConnectionServ@ConnectionServ@@QAEXXZ @ 327 NONAME ; void ConnectionServ::RConnectionServ::CancelAccessPointStatusQuery(void)
	?CancelDataReceivedNotificationRequest@RCommsDataMonitoringApiExt@@QAEXXZ @ 328 NONAME ; void RCommsDataMonitoringApiExt::CancelDataReceivedNotificationRequest(void)
	?CancelDataSentNotificationRequest@RCommsDataMonitoringApiExt@@QAEXXZ @ 329 NONAME ; void RCommsDataMonitoringApiExt::CancelDataSentNotificationRequest(void)
	?CancelDataTransferredRequest@RCommsDataMonitoringApiExt@@QAEXXZ @ 330 NONAME ; void RCommsDataMonitoringApiExt::CancelDataTransferredRequest(void)
	?Close@RCommsDataMonitoringApiExt@@QAEXXZ @ 331 NONAME ; void RCommsDataMonitoringApiExt::Close(void)
	?Close@RConnectionServ@ConnectionServ@@QAEXXZ @ 332 NONAME ; void ConnectionServ::RConnectionServ::Close(void)
	?Connect@RConnectionServ@ConnectionServ@@QAEHI@Z @ 333 NONAME ; int ConnectionServ::RConnectionServ::Connect(unsigned int)
	?ConstructL@CParameterSetContainer@@IAEXAAVCParameterBundleBase@@@Z @ 334 NONAME ; void CParameterSetContainer::ConstructL(class CParameterBundleBase &)
	?CopyFieldsRequiredByQueryFromL@XParameterSet@@UAEXABVCParameterBundleBase@@ABV1@@Z @ 335 NONAME ABSENT ; void XParameterSet::CopyFieldsRequiredByQueryFromL(class CParameterBundleBase const &, class XParameterSet const &)
	?DeleteParameterSetL@CParameterSetContainer@@QAEXH@Z @ 336 NONAME ; void CParameterSetContainer::DeleteParameterSetL(int)
	?FindGenericQuery@CConnectionServParameterBundle@ConnectionServ@@QBEPBVXAccessPointGenericQuery@2@XZ @ 337 NONAME ; class ConnectionServ::XAccessPointGenericQuery const * ConnectionServ::CConnectionServParameterBundle::FindGenericQuery(void) const
	?FindOrCreateGenericQueryL@CConnectionServParameterBundle@ConnectionServ@@QAEPAVXAccessPointGenericQuery@2@XZ @ 338 NONAME ; class ConnectionServ::XAccessPointGenericQuery * ConnectionServ::CConnectionServParameterBundle::FindOrCreateGenericQueryL(void)
	?FindParamSetContainer@CParameterBundleBase@@QAEPAVCParameterSetContainer@@K@Z @ 339 NONAME ; class CParameterSetContainer * CParameterBundleBase::FindParamSetContainer(unsigned long)
	?FindParameterSet@CParameterBundleBase@@QAEPAVXParameterSet@@ABUSTypeId@Meta@@@Z @ 340 NONAME ABSENT ; class XParameterSet * CParameterBundleBase::FindParameterSet(struct Meta::STypeId const &)
	?FindParameterSet@CParameterSetContainer@@QAEHABVXParameterSet@@@Z @ 341 NONAME ABSENT ; int CParameterSetContainer::FindParameterSet(class XParameterSet const &)
	?FindParameterSet@CParameterSetContainer@@QAEPAVXParameterSet@@ABUSTypeId@Meta@@@Z @ 342 NONAME ABSENT ; class XParameterSet * CParameterSetContainer::FindParameterSet(struct Meta::STypeId const &)
	?GetParamSetContainer@CParameterBundleBase@@QAEPAVCParameterSetContainer@@H@Z @ 343 NONAME ; class CParameterSetContainer * CParameterBundleBase::GetParamSetContainer(int)
	?GetParameterSet@CParameterSetContainer@@QAEPAVXParameterSet@@H@Z @ 344 NONAME ABSENT ; class XParameterSet * CParameterSetContainer::GetParameterSet(int)
	?GetParameterSetsToReturnL@CConnectionServParameterBundle@ConnectionServ@@QBEABV?$RArray@USTypeId@Meta@@@@XZ @ 345 NONAME ; class RArray<struct Meta::STypeId> const & ConnectionServ::CConnectionServParameterBundle::GetParameterSetsToReturnL(void) const
	?Length@CParameterBundleBase@@QBEIXZ @ 346 NONAME ; unsigned int CParameterBundleBase::Length(void) const
	?Length@CParameterSetContainer@@UBEHXZ @ 347 NONAME ; int CParameterSetContainer::Length(void) const
	?Load@CParameterSetContainer@@UAEHAAVTPtrC8@@@Z @ 348 NONAME ; int CParameterSetContainer::Load(class TPtrC8 &)
	?LoadL@CParameterSetContainer@@SAPAV1@AAVCParameterBundleBase@@AAVTPtrC8@@@Z @ 349 NONAME ; class CParameterSetContainer * CParameterSetContainer::LoadL(class CParameterBundleBase &, class TPtrC8 &)
	?LoadL@CParameterSetContainer@@SAPAV1@AAVTPtrC8@@@Z @ 350 NONAME ; class CParameterSetContainer * CParameterSetContainer::LoadL(class TPtrC8 &)
	?NewL@CParameterSetContainer@@SAPAV1@AAVCParameterBundleBase@@K@Z @ 351 NONAME ; class CParameterSetContainer * CParameterSetContainer::NewL(class CParameterBundleBase &, unsigned long)
	?NewL@CParameterSetContainer@@SAPAV1@K@Z @ 352 NONAME ; class CParameterSetContainer * CParameterSetContainer::NewL(unsigned long)
	?ReplaceParamSetContainerL@CParameterBundleBase@@QAEXPAVCParameterSetContainer@@0@Z @ 353  NONAME ; void CParameterBundleBase::ReplaceParamSetContainerL(class CParameterSetContainer *, class CParameterSetContainer *)
	?ReplaceParameterSetL@CParameterSetContainer@@QAEXHPAVXParameterSet@@@Z @ 354 NONAME ABSENT ; void CParameterSetContainer::ReplaceParameterSetL(int, class XParameterSet *)
	?RequestDataReceivedNotification@RCommsDataMonitoringApiExt@@QAEXKKAAVTDes8@@AAVTRequestStatus@@@Z @ 355 NONAME ; void RCommsDataMonitoringApiExt::RequestDataReceivedNotification(unsigned long, unsigned long, class TDes8 &, class TRequestStatus &)
	?RequestDataSentNotification@RCommsDataMonitoringApiExt@@QAEXKKAAVTDes8@@AAVTRequestStatus@@@Z @ 356 NONAME ; void RCommsDataMonitoringApiExt::RequestDataSentNotification(unsigned long, unsigned long, class TDes8 &, class TRequestStatus &)
	?RequestDataTransferred@RCommsDataMonitoringApiExt@@QAEXAAVTDes8@@AAVTRequestStatus@@@Z @ 357 NONAME ; void RCommsDataMonitoringApiExt::RequestDataTransferred(class TDes8 &, class TRequestStatus &)
	?SendMessage@RCommsApiExtensionBase@@IAEXAAVTCommsApiExtReqMsg@@@Z @ 358 NONAME ; void RCommsApiExtensionBase::SendMessage(class TCommsApiExtReqMsg &)
	?SendRequest@RCommsApiExtensionBase@@IAEXAAVTCommsApiExtReqMsg@@AAVTDes8@@AAVTRequestStatus@@@Z @ 359 NONAME ; void RCommsApiExtensionBase::SendRequest(class TCommsApiExtReqMsg &, class TDes8 &, class TRequestStatus &)
	?Store@CParameterBundleBase@@QBEHAAVTDes8@@@Z @ 360 NONAME ; int CParameterBundleBase::Store(class TDes8 &) const
	?Store@CParameterSetContainer@@UBEHAAVTDes8@@@Z @ 361 NONAME ; int CParameterSetContainer::Store(class TDes8 &) const
	?UpdateWith@XParameterSet@@UAEXABV1@@Z @ 362 NONAME ABSENT ; void XParameterSet::UpdateWith(class XParameterSet const &)
	?__DbgCheckFailNext@RSocketServ@@QBEHXZ @ 363 NONAME ; int RSocketServ::__DbgCheckFailNext(void) const
	?__DbgControl@RSocketServ@@QAEHABVTControlMsg@ESockDebug@@@Z @ 364 NONAME ; int RSocketServ::__DbgControl(class ESockDebug::TControlMsg const &)
	?Open@RCommsApiExtensionBase@@IAEHAAVRCommsSession@@H@Z @ 365 NONAME ; int RCommsApiExtensionBase::Open(class RCommsSession &, int)
	?AddMatchConditionL@CConnectionServParameterBundle@ConnectionServ@@QAEXABVTAccessPointInfo@@@Z @ 366 NONAME ; void ConnectionServ::CConnectionServParameterBundle::AddMatchConditionL(class TAccessPointInfo const &)
	?FindFamily@CSubConParameterBundle@@QBEPAVCSubConParameterFamily@@K@Z @ 367 NONAME ; class CSubConParameterFamily * CSubConParameterBundle::FindFamily(unsigned long) const
	??0TConnPrefList@@QAE@XZ @ 368 NONAME ; TConnPrefList::TConnPrefList(void)
	??1TConnPrefList@@QAE@XZ @ 369 NONAME ; TConnPrefList::~TConnPrefList(void)
	??ATConnPrefList@@QAEPAUSMetaData@Meta@@H@Z @ 370 NONAME ; struct Meta::SMetaData * TConnPrefList::operator[](int)
	?AppendL@TConnPrefList@@QAEXPAUSMetaDataECom@Meta@@@Z @ 371 NONAME ; void TConnPrefList::AppendL(struct Meta::SMetaDataECom *)
	?Count@TConnPrefList@@QAEHXZ @ 372 NONAME ; int TConnPrefList::Count(void)
	?Length@TConnPrefList@@QAEHXZ @ 373 NONAME ; int TConnPrefList::Length(void)
	?Load@TConnPrefList@@QAEHAAVTDesC8@@@Z @ 374 NONAME ; int TConnPrefList::Load(class TDesC8 &)
	?LoadL@TConnPrefList@@SAPAV1@AAVTDesC8@@@Z @ 375 NONAME ; class TConnPrefList * TConnPrefList::LoadL(class TDesC8 &)
	?NewL@TConnPrefList@@SAPAV1@XZ @ 376 NONAME ; class TConnPrefList * TConnPrefList::NewL(void)
	?Remove@TConnPrefList@@QAEXH@Z @ 377 NONAME ; void TConnPrefList::Remove(int)
	?Store@TConnPrefList@@QAEHAAVTDes8@@@Z @ 378 NONAME ; int TConnPrefList::Store(class TDes8 &)
	??0CSubConParameterBundle@@IAE@XZ @ 379 NONAME ; CSubConParameterBundle::CSubConParameterBundle(void)
	??0CSubConParameterFamily@@IAE@K@Z @ 380 NONAME ; CSubConParameterFamily::CSubConParameterFamily(unsigned long)
	?ConstructL@CSubConParameterFamily@@IAEXAAVCSubConParameterBundle@@@Z @ 381 NONAME ; void CSubConParameterFamily::ConstructL(class CSubConParameterBundle &)
	?ConstructL@CSubConParameterFamily@@IAEXAAVRSubConParameterBundle@@@Z @ 382 NONAME ; void CSubConParameterFamily::ConstructL(class RSubConParameterBundle &)
	?ExtractFamilyAndCreateBufferL@CSubConParameterFamily@@KAJAAVTPtrC8@@0@Z @ 383 NONAME ; long CSubConParameterFamily::ExtractFamilyAndCreateBufferL(class TPtrC8 &, class TPtrC8 &)
	??1XConnectionServParameterSet@ConnectionServ@@UAE@XZ @ 384 NONAME ; ConnectionServ::XConnectionServParameterSet::~XConnectionServParameterSet(void)
	?AddParameterSetL@CParameterSetContainer@@QAEXPAVXParameterSetBase@@@Z @ 385 NONAME ; void CParameterSetContainer::AddParameterSetL(class XParameterSetBase *)
	?AddParameterSetL@RParameterFamily@@QAEXPAVXParameterSetBase@@W4TParameterSetType@1@@Z @ 386 NONAME ; void RParameterFamily::AddParameterSetL(class XParameterSetBase *, enum RParameterFamily::TParameterSetType)
	?AppendPrintableTo@XParameterSet@@UBEHAAVTDes16@@@Z @ 387 NONAME ; int XParameterSet::AppendPrintableTo(class TDes16 &) const
	?ClearAllParameters@RParameterFamily@@QAEXW4TParameterSetType@1@@Z @ 388 NONAME ; void RParameterFamily::ClearAllParameters(enum RParameterFamily::TParameterSetType)
	?ClearAllParameters@RParameterFamilyBundle@@QAEXW4TParameterSetType@RParameterFamily@@@Z @ 389 NONAME ; void RParameterFamilyBundle::ClearAllParameters(enum RParameterFamily::TParameterSetType)
	?CopyFieldsRequiredByQueryFromL@XConnectionServParameterSet@ConnectionServ@@UAEXABVCParameterBundleBase@@ABV12@@Z @ 390 NONAME ; void ConnectionServ::XConnectionServParameterSet::CopyFieldsRequiredByQueryFromL(class CParameterBundleBase const &, class ConnectionServ::XConnectionServParameterSet const &)
	?CopyFromFamilyBundleL@RSubConParameterBundle@@QAEXAAVRParameterFamilyBundle@@@Z @ 391 NONAME ; void RSubConParameterBundle::CopyFromFamilyBundleL(class RParameterFamilyBundle &)
	?CopyToFamilyBundleL@RSubConParameterBundle@@QBEXAAVRParameterFamilyBundle@@@Z @ 392 NONAME ; void RSubConParameterBundle::CopyToFamilyBundleL(class RParameterFamilyBundle &) const
	?CountParameterSets@RParameterFamily@@QAEHW4TParameterSetType@1@@Z @ 393 NONAME ; int RParameterFamily::CountParameterSets(enum RParameterFamily::TParameterSetType)
	?CreateFamilyL@RParameterFamilyBundle@@QAE?AVRParameterFamily@@K@Z @ 394 NONAME ; class RParameterFamily RParameterFamilyBundle::CreateFamilyL(unsigned long)
	?CreateL@RParameterFamily@@QAEXAAVRParameterFamilyBundle@@K@Z @ 395 NONAME ; void RParameterFamily::CreateL(class RParameterFamilyBundle &, unsigned long)
	?Destroy@RParameterFamily@@QAEXXZ @ 396 NONAME ; void RParameterFamily::Destroy(void)
	?FindFamily@RParameterFamilyBundle@@QAE?AVRParameterFamily@@K@Z @ 397 NONAME ; class RParameterFamily RParameterFamilyBundle::FindFamily(unsigned long)
	?FindParameterSet@CParameterBundleBase@@QAEPAVXParameterSetBase@@ABUSTypeId@Meta@@@Z @ 398 NONAME ; class XParameterSetBase * CParameterBundleBase::FindParameterSet(struct Meta::STypeId const &)
	?FindParameterSet@CParameterSetContainer@@QAEHABVXParameterSetBase@@@Z @ 399 NONAME ; int CParameterSetContainer::FindParameterSet(class XParameterSetBase const &)
	?FindParameterSet@CParameterSetContainer@@QAEPAVXParameterSetBase@@ABUSTypeId@Meta@@@Z @ 400 NONAME ; class XParameterSetBase * CParameterSetContainer::FindParameterSet(struct Meta::STypeId const &)
	?FindParameterSet@RParameterFamily@@QAEPAVXParameterSetBase@@USTypeId@Meta@@W4TParameterSetType@1@@Z @ 401 NONAME ; class XParameterSetBase * RParameterFamily::FindParameterSet(struct Meta::STypeId, enum RParameterFamily::TParameterSetType)
	?GetFamilyAtIndex@RParameterFamilyBundle@@QAE?AVRParameterFamily@@I@Z @ 402 NONAME ; class RParameterFamily RParameterFamilyBundle::GetFamilyAtIndex(unsigned int)
	?GetParameterSet@CParameterSetContainer@@QAEPAVXParameterSetBase@@H@Z @ 403 NONAME ; class XParameterSetBase * CParameterSetContainer::GetParameterSet(int)
	?GetParameterSetAtIndex@RParameterFamily@@QAEPAVXParameterSetBase@@IW4TParameterSetType@1@@Z @ 404 NONAME ; class XParameterSetBase * RParameterFamily::GetParameterSetAtIndex(unsigned int, enum RParameterFamily::TParameterSetType)
	?GetParameters@RSubConnection@@QAEHAAVRParameterFamilyBundle@@@Z @ 405 NONAME ; int RSubConnection::GetParameters(class RParameterFamilyBundle &)
	?GetVDataTableStatic@XConnectionServParameterSet@ConnectionServ@@SAPBUSVDataTableEntry@Meta@@XZ @ 406 NONAME ; struct Meta::SVDataTableEntry const * ConnectionServ::XConnectionServParameterSet::GetVDataTableStatic(void)
	?GetVDataTableStatic@XParameterSet@@KAPBUSVDataTableEntry@Meta@@XZ @ 407 NONAME ; struct Meta::SVDataTableEntry const * XParameterSet::GetVDataTableStatic(void)
	?GrowToFitL@CParameterSetContainer@@QAEXH@Z @ 408 NONAME ; void CParameterSetContainer::GrowToFitL(int)
	?Length@RParameterFamily@@QBEIXZ @ 409 NONAME ; unsigned int RParameterFamily::Length(void) const
	?LoadL@RParameterFamily@@QAEXAAVRParameterFamilyBundle@@AAVTPtrC8@@@Z @ 410 NONAME ; void RParameterFamily::LoadL(class RParameterFamilyBundle &, class TPtrC8 &)
	?RemoveParameterSetL@RParameterFamily@@QAEXPAVXParameterSetBase@@W4TParameterSetType@1@@Z @ 411 NONAME ABSENT ; void RParameterFamily::RemoveParameterSetL(class XParameterSetBase *, enum RParameterFamily::TParameterSetType)
	?ReplaceParameterSetL@CParameterSetContainer@@QAEXHPAVXParameterSetBase@@@Z @ 412 NONAME ; void CParameterSetContainer::ReplaceParameterSetL(int, class XParameterSetBase *)
	?SetParameters@RSubConnection@@QAEHABVRParameterFamilyBundle@@@Z @ 413 NONAME ; int RSubConnection::SetParameters(class RParameterFamilyBundle const &)
	?Store@RParameterFamily@@QBEHAAVTDes8@@@Z @ 414 NONAME ; int RParameterFamily::Store(class TDes8 &) const
	?UpdateWithL@XParameterSet@@UAEXABV1@@Z @ 415 NONAME ; void XParameterSet::UpdateWithL(class XParameterSet const &)
	?_extension@XParameterSet@@UAEHVTUid@@AAPAX@Z @ 416 NONAME ; int XParameterSet::_extension(class TUid, void * &)
	?CreateL@RParameterFamilyBundleC@@QAEXXZ @ 417  NONAME ; void RParameterFamilyBundleC::CreateL(void)
	?Destroy@RParameterFamilyBundleC@@QAEXXZ @ 418  NONAME ; void RParameterFamilyBundleC::Destroy(void)
	?FindFamily@RParameterFamilyBundleC@@QBE?BVRParameterFamily@@K@Z @ 419  NONAME ; class RParameterFamily const RParameterFamilyBundleC::FindFamily(unsigned long) const
	?GetFamilyAtIndex@RParameterFamilyBundleC@@QBE?BVRParameterFamily@@I@Z @ 420  NONAME ; class RParameterFamily const RParameterFamilyBundleC::GetFamilyAtIndex(unsigned int) const
	?Length@RParameterFamilyBundleC@@QBEIXZ @ 421  NONAME ; unsigned int RParameterFamilyBundleC::Length(void) const
	?Load@RParameterFamilyBundleC@@QAEHABVTDesC8@@@Z @ 422  NONAME ; int RParameterFamilyBundleC::Load(class TDesC8 const &)
	?LoadL@RParameterFamilyBundleC@@QAEXAAVTDesC8@@@Z @ 423  NONAME ; void RParameterFamilyBundleC::LoadL(class TDesC8 &)
	?Store@RParameterFamilyBundleC@@QBEHAAVTDes8@@@Z @ 424  NONAME ; int RParameterFamilyBundleC::Store(class TDes8 &) const
	?Id@RParameterFamily@@QBEKXZ @ 425 NONAME ; unsigned long RParameterFamily::Id(void) const
	?CountParameterSets@RParameterFamily@@QAEHXZ @ 426 NONAME ; int RParameterFamily::CountParameterSets(void)
	?DeleteParameterSetL@RParameterFamily@@QAEXH@Z @ 427  NONAME ; void RParameterFamily::DeleteParameterSetL(int)
	?RemoveParamSetContainer@CParameterBundleBase@@QAEPAVCParameterSetContainer@@H@Z @ 428  NONAME ; class CParameterSetContainer * CParameterBundleBase::RemoveParamSetContainer(int)
	?RemoveFamilyAtIndex@RParameterFamilyBundle@@QAEXH@Z @ 429 NONAME ; void RParameterFamilyBundle::RemoveFamilyAtIndex(int)
	?DeleteFamilyAtIndex@RParameterFamilyBundle@@QAEHH@Z @ 430 NONAME ; int RParameterFamilyBundle::DeleteFamilyAtIndex(int)
	?ClearParameterSetPointer@RParameterFamily@@QAEHHW4TParameterSetType@1@@Z @ 431 NONAME ; int RParameterFamily::ClearParameterSetPointer(int, enum RParameterFamily::TParameterSetType)
	?CountParameterFamilies@RParameterFamilyBundle@@QBEHXZ @ 432 NONAME ; int RParameterFamilyBundle::CountParameterFamilies(void) const
	??1XPlaneEvent@ESock@@UAE@XZ @ 433 NONAME ; ESock::XPlaneEvent::~XPlaneEvent(void)
	?GetVDataTableStatic@XPlaneEvent@ESock@@CAPBUSVDataTableEntry@Meta@@XZ @ 434 NONAME ; struct Meta::SVDataTableEntry const * ESock::XPlaneEvent::GetVDataTableStatic(void)
	?NewL@XPlaneEvent@ESock@@SAPAV12@USTypeId@Meta@@@Z @ 435 NONAME ; class ESock::XPlaneEvent * ESock::XPlaneEvent::NewL(struct Meta::STypeId)
	?SetOpt@RHostResolver@@QAEHIIABVTDesC8@@@Z @ 436 NONAME ; int RHostResolver::SetOpt(unsigned int, unsigned int, class TDesC8 const &)
	?RemoveAndDestroyParameterSet@RParameterFamily@@QAEHPAVXParameterSetBase@@W4TParameterSetType@1@@Z @ 437  NONAME ; int RParameterFamily::RemoveAndDestroyParameterSet(class XParameterSetBase *, enum RParameterFamily::TParameterSetType)
	?RemoveParameterSet@RParameterFamily@@QAEHPAVXParameterSetBase@@W4TParameterSetType@1@@Z @ 438  NONAME ; int RParameterFamily::RemoveParameterSet(class XParameterSetBase *, enum RParameterFamily::TParameterSetType)
	?ReplaceParamSetContainer@CParameterBundleBase@@QAEHPAVCParameterSetContainer@@0@Z @ 439  NONAME ; int CParameterBundleBase::ReplaceParamSetContainer(class CParameterSetContainer *, class CParameterSetContainer *)
	?DeleteParameterSet@CParameterSetContainer@@QAEHH@Z @ 440  NONAME ; int CParameterSetContainer::DeleteParameterSet(int)
	?RemoveParameterSet@CParameterSetContainer@@QAEPAVXParameterSetBase@@H@Z @ 441  NONAME ; class XParameterSetBase * CParameterSetContainer::RemoveParameterSet(int)
	?GrowToFit@CParameterSetContainer@@QAEHH@Z @ 442  NONAME ; int CParameterSetContainer::GrowToFit(int)
	?AddParameterSet@RParameterFamily@@QAEHPAVXParameterSetBase@@W4TParameterSetType@1@@Z @ 443  NONAME ; int RParameterFamily::AddParameterSet(class XParameterSetBase *, enum RParameterFamily::TParameterSetType)
	?ReplaceParameterSet@CParameterSetContainer@@QAEHHPAVXParameterSetBase@@@Z @ 444  NONAME ; int CParameterSetContainer::ReplaceParameterSet(int, class XParameterSetBase *)
	?DeleteParameterSet@RParameterFamily@@QAEHH@Z @ 445  NONAME ; int RParameterFamily::DeleteParameterSet(int)
	?AddParameterSet@CParameterSetContainer@@QAEHPAVXParameterSetBase@@@Z @ 446 NONAME ; int CParameterSetContainer::AddParameterSet(class XParameterSetBase *)
	?AddParamSetContainer@CParameterBundleBase@@QAEHAAVCParameterSetContainer@@@Z @ 447  NONAME ; int CParameterBundleBase::AddParamSetContainer(class CParameterSetContainer &)
	?RecvOneOrMore@RSocket@@QAEXAAVTDes8@@IAAVTRequestStatus@@@Z @ 448 NONAME ; void RSocket::RecvOneOrMore(class TDes8 &, unsigned int, class TRequestStatus &)

