EXPORTS
	_ZN17MLbsAdminObserver7VersionEv @ 1 NONAME
	_ZN9CLbsAdmin14ResetToDefaultEv @ 2 NONAME
	_ZN9CLbsAdmin20SetNotificationMaskLERKy @ 3 NONAME
	_ZN9CLbsAdmin21ClearNotificationMaskEv @ 4 NONAME
	_ZN9CLbsAdmin4NewLER17MLbsAdminObserverRKy @ 5 NONAME
	_ZN9CLbsAdmin4NewLEv @ 6 NONAME
	_ZN9CLbsAdmin5DoSetERKyRK4TUid @ 7 NONAME
	_ZN9CLbsAdmin5DoSetERKyRKNS_12TClockAdjustE @ 8 NONAME
	_ZN9CLbsAdmin5DoSetERKyRKNS_15TPrivacyHandlerE @ 9 NONAME
	_ZN9CLbsAdmin5DoSetERKyRKNS_18TSelfLocateServiceE @ 10 NONAME
	_ZN9CLbsAdmin5DoSetERKyRKNS_19TLbsSystemStartModeE @ 11 NONAME
	_ZN9CLbsAdmin5DoSetERKyRKNS_21TPrivacyTimeoutActionE @ 12 NONAME
	_ZN9CLbsAdmin5DoSetERKyRKNS_22TExternalLocateServiceE @ 13 NONAME
	_ZN9CLbsAdmin5DoSetERKyRKNS_22TTransmitLocateServiceE @ 14 NONAME
	_ZN9CLbsAdmin5DoSetERKyRKNS_8TGpsModeE @ 15 NONAME
	_ZN9CLbsAdmin5DoSetERKyRKj @ 16 NONAME
	_ZN9CLbsAdmin5DoSetERKyRKm @ 17 NONAME
	_ZNK9CLbsAdmin5DoGetERKyR4TUid @ 18 NONAME
	_ZNK9CLbsAdmin5DoGetERKyRNS_12TClockAdjustE @ 19 NONAME
	_ZNK9CLbsAdmin5DoGetERKyRNS_15TPrivacyHandlerE @ 20 NONAME
	_ZNK9CLbsAdmin5DoGetERKyRNS_18TSelfLocateServiceE @ 21 NONAME
	_ZNK9CLbsAdmin5DoGetERKyRNS_19TLbsSystemStartModeE @ 22 NONAME
	_ZNK9CLbsAdmin5DoGetERKyRNS_21TPrivacyTimeoutActionE @ 23 NONAME
	_ZNK9CLbsAdmin5DoGetERKyRNS_22TExternalLocateServiceE @ 24 NONAME
	_ZNK9CLbsAdmin5DoGetERKyRNS_22TTransmitLocateServiceE @ 25 NONAME
	_ZNK9CLbsAdmin5DoGetERKyRNS_8TGpsModeE @ 26 NONAME
	_ZNK9CLbsAdmin5DoGetERKyRj @ 27 NONAME
	_ZNK9CLbsAdmin5DoGetERKyRm @ 28 NONAME
	_ZTI17MLbsAdminObserver @ 29 NONAME ; #<TI>#
	_ZTI9CLbsAdmin @ 30 NONAME ; #<TI>#
	_ZTV17MLbsAdminObserver @ 31 NONAME ; #<VT>#
	_ZTV9CLbsAdmin @ 32 NONAME ; #<VT>#
	_ZN9CLbsAdmin5DoSetERKyRKNS_17TLbsBehaviourModeE @ 33 NONAME
	_ZNK9CLbsAdmin5DoGetERKyRNS_17TLbsBehaviourModeE @ 34 NONAME
	_ZN9CLbsAdmin5DoSetERKyRKNS_7TLoggerE @ 35 NONAME
	_ZNK9CLbsAdmin5DoGetERKyRNS_7TLoggerE @ 36 NONAME
	_ZNK9CLbsAdmin5DoGetERKyRNS_15TSpecialFeatureE @ 37 NONAME
	_ZN9CLbsAdmin5DoSetERKyRK17TLbsAdminInfoBase @ 38 NONAME
	_ZNK9CLbsAdmin5DoGetERKyR17TLbsAdminInfoBase @ 39 NONAME
	_ZN17TLbsAdminInfoBaseC1Ev @ 40 NONAME
	_ZN17TLbsAdminInfoBaseC2Ev @ 41 NONAME
	_ZN22TLbsAdminExtLocService11SetModuleIdE4TUid @ 42 NONAME
	_ZN22TLbsAdminExtLocService16SetModuleServiceEm @ 43 NONAME
	_ZN22TLbsAdminExtLocServiceC1Ev @ 44 NONAME
	_ZN22TLbsAdminExtLocServiceC2Ev @ 45 NONAME
	_ZN27TLbsAdminExtLocServicesInfo17SetDefaultServiceERKm @ 46 NONAME
	_ZN27TLbsAdminExtLocServicesInfo17SetModuleServicesERA10_K22TLbsAdminExtLocServicei @ 47 NONAME
	_ZN27TLbsAdminExtLocServicesInfoC1Ev @ 48 NONAME
	_ZN27TLbsAdminExtLocServicesInfoC2Ev @ 49 NONAME
	_ZN28TLbsAdminProtocolModulesInfo12SetModuleIdsERA10_K4TUidi @ 50 NONAME
	_ZN28TLbsAdminProtocolModulesInfoC1Ev @ 51 NONAME
	_ZN28TLbsAdminProtocolModulesInfoC2Ev @ 52 NONAME
	_ZN34TLbsAdminProtocolModuleLoadingInfo18SetLoadingStrategyEm @ 53 NONAME
	_ZN34TLbsAdminProtocolModuleLoadingInfoC1Ev @ 54 NONAME
	_ZN34TLbsAdminProtocolModuleLoadingInfoC2Ev @ 55 NONAME
	_ZNK17TLbsAdminInfoBase9ClassSizeEv @ 56 NONAME
	_ZNK17TLbsAdminInfoBase9ClassTypeEv @ 57 NONAME
	_ZNK22TLbsAdminExtLocService13ModuleServiceEv @ 58 NONAME
	_ZNK22TLbsAdminExtLocService8ModuleIdEv @ 59 NONAME
	_ZNK27TLbsAdminExtLocServicesInfo14DefaultServiceEv @ 60 NONAME
	_ZNK27TLbsAdminExtLocServicesInfo16GetModuleServiceERK4TUidRm @ 61 NONAME
	_ZNK27TLbsAdminExtLocServicesInfo17GetModuleServicesERA10_22TLbsAdminExtLocServiceRi @ 62 NONAME
	_ZNK28TLbsAdminProtocolModulesInfo12GetModuleIdsERA10_4TUidRi @ 63 NONAME
	_ZNK28TLbsAdminProtocolModulesInfo15DefaultModuleIdEv @ 64 NONAME
	_ZNK34TLbsAdminProtocolModuleLoadingInfo15LoadingStrategyEv @ 65 NONAME

