EXPORTS
	LibEntry @ 1 NONAME
	_ZTI10CATDialFax @ 2 NONAME ABSENT
	_ZTI10CATSetCBST @ 3 NONAME ; #<TI>#
	_ZTI10CCallEntry @ 4 NONAME ; #<TI>#
	_ZTI10CCallHayes @ 5 NONAME ; #<TI>#
	_ZTI10CLineHayes @ 6 NONAME ; #<TI>#
	_ZTI10CTsyConfig @ 7 NONAME ; #<TI>#
	_ZTI11CATCommands @ 8 NONAME ; #<TI>#
	_ZTI11CATDialData @ 9 NONAME ; #<TI>#
	_ZTI11CCallMobile @ 10 NONAME ; #<TI>#
	_ZTI11CCommReader @ 11 NONAME ; #<TI>#
	_ZTI11CCommWriter @ 12 NONAME ; #<TI>#
	_ZTI11CLineMobile @ 13 NONAME ; #<TI>#
	_ZTI11CNotifyBase @ 14 NONAME ; #<TI>#
	_ZTI11CPhoneHayes @ 15 NONAME ; #<TI>#
	_ZTI12CATAnswerFax @ 16 NONAME ABSENT
	_ZTI12CATDialVoice @ 17 NONAME ; #<TI>#
	_ZTI12CATGetSignal @ 18 NONAME ; #<TI>#
	_ZTI12CATGprsClass @ 19 NONAME ; #<TI>#
	_ZTI12CATHangUpFax @ 20 NONAME ABSENT
	_ZTI12CATQuickInit @ 21 NONAME ; #<TI>#
	_ZTI12CCommChatter @ 22 NONAME ; #<TI>#
	_ZTI12CGprsContext @ 23 NONAME ; #<TI>#
	_ZTI12CPhoneMobile @ 24 NONAME ; #<TI>#
	_ZTI13CATAnswerData @ 25 NONAME ; #<TI>#
	_ZTI13CATConnectFax @ 26 NONAME ABSENT
	_ZTI13CATGetBattery @ 27 NONAME ; #<TI>#
	_ZTI13CATGprsAttach @ 28 NONAME ; #<TI>#
	_ZTI13CATGprsDetach @ 29 NONAME ; #<TI>#
	_ZTI13CATHangUpData @ 30 NONAME ; #<TI>#
	_ZTI13CATOwnNumbers @ 31 NONAME ; #<TI>#
	_ZTI13CATSmsReadPDU @ 32 NONAME ; #<TI>#
	_ZTI13CAcquireEntry @ 33 NONAME ; #<TI>#
	_ZTI13CGprsQoSEntry @ 34 NONAME ; #<TI>#
	_ZTI13CPhoneGlobals @ 35 NONAME ; #<TI>#
	_ZTI14CATAnswerVoice @ 36 NONAME ; #<TI>#
	_ZTI14CATConnectData @ 37 NONAME ; #<TI>#
	_ZTI14CATHangUpVoice @ 38 NONAME ; #<TI>#
	_ZTI14CATNetworkInfo @ 39 NONAME ; #<TI>#
	_ZTI14CATSmsCommands @ 40 NONAME ; #<TI>#
	_ZTI14CATWaitForCall @ 41 NONAME ; #<TI>#
	_ZTI14CCallMobileFax @ 42 NONAME ABSENT
	_ZTI14CFaxCompletion @ 43 NONAME ABSENT
	_ZTI14CLineMobileFax @ 44 NONAME ABSENT
	_ZTI14CMobileONStore @ 45 NONAME ; #<TI>#
	_ZTI14CNotifications @ 46 NONAME ; #<TI>#
	_ZTI14CSetLineToIdle @ 47 NONAME ; #<TI>#
	_ZTI15CATErrorHandler @ 48 NONAME ; #<TI>#
	_ZTI15CATSubscriberId @ 49 NONAME ; #<TI>#
	_ZTI15CCallMobileData @ 50 NONAME ; #<TI>#
	_ZTI15CCommChatString @ 51 NONAME ; #<TI>#
	_ZTI15CLineMobileData @ 52 NONAME ; #<TI>#
	_ZTI15CMobileSmsStore @ 53 NONAME ; #<TI>#
	_ZTI15CNotifyCallCaps @ 54 NONAME ; #<TI>#
	_ZTI16CATDetectNetwork @ 55 NONAME ; #<TI>#
	_ZTI16CATGPRSGetConfig @ 56 NONAME ; #<TI>#
	_ZTI16CATGPRSSetConfig @ 57 NONAME ; #<TI>#
	_ZTI16CATPhoneBookInfo @ 58 NONAME ; #<TI>#
	_ZTI16CATPhoneBookRead @ 59 NONAME ; #<TI>#
	_ZTI16CCallMobileVoice @ 60 NONAME ; #<TI>#
	_ZTI16CCompletionEntry @ 61 NONAME ; #<TI>#
	_ZTI16CHeartbeatRunner @ 62 NONAME ; #<TI>#
	_ZTI16CLineMobileVoice @ 63 NONAME ; #<TI>#
	_ZTI16CReceiveSmsQueue @ 64 NONAME ; #<TI>#
	_ZTI17CATGprsGetProfile @ 65 NONAME ; #<TI>#
	_ZTI17CATGprsSetProfile @ 66 NONAME ; #<TI>#
	_ZTI17CATParamListEntry @ 67 NONAME ; #<TI>#
	_ZTI17CATPhoneBookWrite @ 68 NONAME ; #<TI>#
	_ZTI17CAcquireOwnerList @ 69 NONAME ; #<TI>#
	_ZTI17CGprsContextEntry @ 70 NONAME ; #<TI>#
	_ZTI17CGprsStatusNotify @ 71 NONAME ; #<TI>#
	_ZTI18CATPhoneBookDelete @ 72 NONAME ; #<TI>#
	_ZTI18CATSmsGetSCAddress @ 73 NONAME ; #<TI>#
	_ZTI18CATSmsSetSCAddress @ 74 NONAME ; #<TI>#
	_ZTI18CPhoneFactoryHayes @ 75 NONAME ; #<TI>#
	_ZTI19CATSmsMemoryStorage @ 76 NONAME ; #<TI>#
	_ZTI19CATSmsMessagingRead @ 77 NONAME ; #<TI>#
	_ZTI19CATSmsMessagingSend @ 78 NONAME ; #<TI>#
	_ZTI19CATSmsStorageDelete @ 79 NONAME ; #<TI>#
	_ZTI19CATWaitForNoCarrier @ 80 NONAME ; #<TI>#
	_ZTI19CCompleteRelinquish @ 81 NONAME ; #<TI>#
	_ZTI19CListReadAllAttempt @ 82 NONAME ; #<TI>#
	_ZTI19CMobileSmsMessaging @ 83 NONAME ; #<TI>#
	_ZTI19CNotifyFaxEndOfPage @ 84 NONAME ; #<TI>#
	_ZTI19CNotifyIncomingCall @ 85 NONAME ; #<TI>#
	_ZTI20CATCallAlterCommands @ 86 NONAME ; #<TI>#
	_ZTI20CATGprsContextDelete @ 87 NONAME ; #<TI>#
	_ZTI20CATGprsNtwkRegStatus @ 88 NONAME ; #<TI>#
	_ZTI20CATPhoneBookCommands @ 89 NONAME ; #<TI>#
	_ZTI20CATSetPhoneToCMTMode @ 90 NONAME ; #<TI>#
	_ZTI20CATSmsMessagingWrite @ 91 NONAME ; #<TI>#
	_ZTI20CNotifyModemDetected @ 92 NONAME ; #<TI>#
	_ZTI21CATSetPhoneToCMTIMode @ 93 NONAME ; #<TI>#
	_ZTI21CGprsQoSProfileNotify @ 94 NONAME ; #<TI>#
	_ZTI21CMobilePhonebookStore @ 95 NONAME ; #<TI>#
	_ZTI21CNotifyCallHookChange @ 96 NONAME ; #<TI>#
	_ZTI21CNotifyFaxReadOrWrite @ 97 NONAME ; #<TI>#
	_ZTI21CNotifyLineHookChange @ 98 NONAME ; #<TI>#
	_ZTI21CNotifyMobileCallCaps @ 99 NONAME ; #<TI>#
	_ZTI22CATCallConnectCommands @ 100 NONAME ; #<TI>#
	_ZTI22CATGprsContextActivate @ 101 NONAME ; #<TI>#
	_ZTI22CATSetToOnlineDataMode @ 102 NONAME ; #<TI>#
	_ZTI23CGprsContextAddedNotify @ 103 NONAME ; #<TI>#
	_ZTI23CNotifyCallStatusChange @ 104 NONAME ; #<TI>#
	_ZTI23CNotifyLineNewCallAdded @ 105 NONAME ; #<TI>#
	_ZTI23CNotifyLineStatusChange @ 106 NONAME ; #<TI>#
	_ZTI24CATGprsContextDeactivate @ 107 NONAME ; #<TI>#
	_ZTI24CGprsContextConfigNotify @ 108 NONAME ; #<TI>#
	_ZTI24CGprsContextStatusNotify @ 109 NONAME ; #<TI>#
	_ZTI25CATFaxCallConnectCommands @ 110 NONAME ; #<TI>#
	_ZTI25CATSetToOnlineCommandMode @ 111 NONAME ; #<TI>#
	_ZTI25CNotifyCallDurationChange @ 112 NONAME ; #<TI>#
	_ZTI26CATDataCallConnectCommands @ 113 NONAME ; #<TI>#
	_ZTI26CATGprsNtwkRegStatusChange @ 114 NONAME ; #<TI>#
	_ZTI27CATVoiceCallConnectCommands @ 115 NONAME ; #<TI>#
	_ZTI27CNotifyCurrentNetworkChange @ 116 NONAME ; #<TI>#
	_ZTI29CNotifyMobileCallStatusChange @ 117 NONAME ; #<TI>#
	_ZTI29CNotifyMobileLineStatusChange @ 118 NONAME ; #<TI>#
	_ZTI30CGprsNtwkRegStatusChangeNotify @ 119 NONAME ; #<TI>#
	_ZTI32CATSmsWaitForAndHandleCMTIStored @ 120 NONAME ; #<TI>#
	_ZTI33CATSmsWaitForAndHandleCMTUnstored @ 121 NONAME ; #<TI>#
	_ZTI38CNotifyNetworkRegistrationStatusChange @ 122 NONAME ; #<TI>#
	_ZTI5CATIO @ 123 NONAME ; #<TI>#
	_ZTI5CGprs @ 124 NONAME ; #<TI>#
	_ZTI5MComm @ 125 NONAME ; #<TI>#
	_ZTI7CATBase @ 126 NONAME ; #<TI>#
	_ZTI7CATInit @ 127 NONAME ; #<TI>#
	_ZTI8CGprsQoS @ 128 NONAME ; #<TI>#
	_ZTI9CFaxHayes @ 129 NONAME ABSENT
	_ZTV10CATDialFax @ 130 NONAME ABSENT
	_ZTV10CATSetCBST @ 131 NONAME ; #<VT>#
	_ZTV10CCallEntry @ 132 NONAME ; #<VT>#
	_ZTV10CCallHayes @ 133 NONAME ; #<VT>#
	_ZTV10CLineHayes @ 134 NONAME ; #<VT>#
	_ZTV10CTsyConfig @ 135 NONAME ; #<VT>#
	_ZTV11CATCommands @ 136 NONAME ; #<VT>#
	_ZTV11CATDialData @ 137 NONAME ; #<VT>#
	_ZTV11CCallMobile @ 138 NONAME ; #<VT>#
	_ZTV11CCommReader @ 139 NONAME ; #<VT>#
	_ZTV11CCommWriter @ 140 NONAME ; #<VT>#
	_ZTV11CLineMobile @ 141 NONAME ; #<VT>#
	_ZTV11CNotifyBase @ 142 NONAME ; #<VT>#
	_ZTV11CPhoneHayes @ 143 NONAME ; #<VT>#
	_ZTV12CATAnswerFax @ 144 NONAME ABSENT
	_ZTV12CATDialVoice @ 145 NONAME ; #<VT>#
	_ZTV12CATGetSignal @ 146 NONAME ; #<VT>#
	_ZTV12CATGprsClass @ 147 NONAME ; #<VT>#
	_ZTV12CATHangUpFax @ 148 NONAME ABSENT
	_ZTV12CATQuickInit @ 149 NONAME ; #<VT>#
	_ZTV12CCommChatter @ 150 NONAME ; #<VT>#
	_ZTV12CGprsContext @ 151 NONAME ; #<VT>#
	_ZTV12CPhoneMobile @ 152 NONAME ; #<VT>#
	_ZTV13CATAnswerData @ 153 NONAME ; #<VT>#
	_ZTV13CATConnectFax @ 154 NONAME ABSENT
	_ZTV13CATGetBattery @ 155 NONAME ; #<VT>#
	_ZTV13CATGprsAttach @ 156 NONAME ; #<VT>#
	_ZTV13CATGprsDetach @ 157 NONAME ; #<VT>#
	_ZTV13CATHangUpData @ 158 NONAME ; #<VT>#
	_ZTV13CATOwnNumbers @ 159 NONAME ; #<VT>#
	_ZTV13CATSmsReadPDU @ 160 NONAME ; #<VT>#
	_ZTV13CAcquireEntry @ 161 NONAME ; #<VT>#
	_ZTV13CGprsQoSEntry @ 162 NONAME ; #<VT>#
	_ZTV13CPhoneGlobals @ 163 NONAME ; #<VT>#
	_ZTV14CATAnswerVoice @ 164 NONAME ; #<VT>#
	_ZTV14CATConnectData @ 165 NONAME ; #<VT>#
	_ZTV14CATHangUpVoice @ 166 NONAME ; #<VT>#
	_ZTV14CATNetworkInfo @ 167 NONAME ; #<VT>#
	_ZTV14CATSmsCommands @ 168 NONAME ; #<VT>#
	_ZTV14CATWaitForCall @ 169 NONAME ; #<VT>#
	_ZTV14CCallMobileFax @ 170 NONAME ABSENT
	_ZTV14CFaxCompletion @ 171 NONAME ABSENT
	_ZTV14CLineMobileFax @ 172 NONAME ABSENT
	_ZTV14CMobileONStore @ 173 NONAME ; #<VT>#
	_ZTV14CNotifications @ 174 NONAME ; #<VT>#
	_ZTV14CSetLineToIdle @ 175 NONAME ; #<VT>#
	_ZTV15CATErrorHandler @ 176 NONAME ; #<VT>#
	_ZTV15CATSubscriberId @ 177 NONAME ; #<VT>#
	_ZTV15CCallMobileData @ 178 NONAME ; #<VT>#
	_ZTV15CCommChatString @ 179 NONAME ; #<VT>#
	_ZTV15CLineMobileData @ 180 NONAME ; #<VT>#
	_ZTV15CMobileSmsStore @ 181 NONAME ; #<VT>#
	_ZTV15CNotifyCallCaps @ 182 NONAME ; #<VT>#
	_ZTV16CATDetectNetwork @ 183 NONAME ; #<VT>#
	_ZTV16CATGPRSGetConfig @ 184 NONAME ; #<VT>#
	_ZTV16CATGPRSSetConfig @ 185 NONAME ; #<VT>#
	_ZTV16CATPhoneBookInfo @ 186 NONAME ; #<VT>#
	_ZTV16CATPhoneBookRead @ 187 NONAME ; #<VT>#
	_ZTV16CCallMobileVoice @ 188 NONAME ; #<VT>#
	_ZTV16CCompletionEntry @ 189 NONAME ; #<VT>#
	_ZTV16CHeartbeatRunner @ 190 NONAME ; #<VT>#
	_ZTV16CLineMobileVoice @ 191 NONAME ; #<VT>#
	_ZTV16CReceiveSmsQueue @ 192 NONAME ; #<VT>#
	_ZTV17CATGprsGetProfile @ 193 NONAME ; #<VT>#
	_ZTV17CATGprsSetProfile @ 194 NONAME ; #<VT>#
	_ZTV17CATParamListEntry @ 195 NONAME ; #<VT>#
	_ZTV17CATPhoneBookWrite @ 196 NONAME ; #<VT>#
	_ZTV17CAcquireOwnerList @ 197 NONAME ; #<VT>#
	_ZTV17CGprsContextEntry @ 198 NONAME ; #<VT>#
	_ZTV17CGprsStatusNotify @ 199 NONAME ; #<VT>#
	_ZTV18CATPhoneBookDelete @ 200 NONAME ; #<VT>#
	_ZTV18CATSmsGetSCAddress @ 201 NONAME ; #<VT>#
	_ZTV18CATSmsSetSCAddress @ 202 NONAME ; #<VT>#
	_ZTV18CPhoneFactoryHayes @ 203 NONAME ; #<VT>#
	_ZTV19CATSmsMemoryStorage @ 204 NONAME ; #<VT>#
	_ZTV19CATSmsMessagingRead @ 205 NONAME ; #<VT>#
	_ZTV19CATSmsMessagingSend @ 206 NONAME ; #<VT>#
	_ZTV19CATSmsStorageDelete @ 207 NONAME ; #<VT>#
	_ZTV19CATWaitForNoCarrier @ 208 NONAME ; #<VT>#
	_ZTV19CCompleteRelinquish @ 209 NONAME ; #<VT>#
	_ZTV19CListReadAllAttempt @ 210 NONAME ; #<VT>#
	_ZTV19CMobileSmsMessaging @ 211 NONAME ; #<VT>#
	_ZTV19CNotifyFaxEndOfPage @ 212 NONAME ; #<VT>#
	_ZTV19CNotifyIncomingCall @ 213 NONAME ; #<VT>#
	_ZTV20CATCallAlterCommands @ 214 NONAME ; #<VT>#
	_ZTV20CATGprsContextDelete @ 215 NONAME ; #<VT>#
	_ZTV20CATGprsNtwkRegStatus @ 216 NONAME ; #<VT>#
	_ZTV20CATPhoneBookCommands @ 217 NONAME ; #<VT>#
	_ZTV20CATSetPhoneToCMTMode @ 218 NONAME ; #<VT>#
	_ZTV20CATSmsMessagingWrite @ 219 NONAME ; #<VT>#
	_ZTV20CNotifyModemDetected @ 220 NONAME ; #<VT>#
	_ZTV21CATSetPhoneToCMTIMode @ 221 NONAME ; #<VT>#
	_ZTV21CGprsQoSProfileNotify @ 222 NONAME ; #<VT>#
	_ZTV21CMobilePhonebookStore @ 223 NONAME ; #<VT>#
	_ZTV21CNotifyCallHookChange @ 224 NONAME ; #<VT>#
	_ZTV21CNotifyFaxReadOrWrite @ 225 NONAME ; #<VT>#
	_ZTV21CNotifyLineHookChange @ 226 NONAME ; #<VT>#
	_ZTV21CNotifyMobileCallCaps @ 227 NONAME ; #<VT>#
	_ZTV22CATCallConnectCommands @ 228 NONAME ; #<VT>#
	_ZTV22CATGprsContextActivate @ 229 NONAME ; #<VT>#
	_ZTV22CATSetToOnlineDataMode @ 230 NONAME ; #<VT>#
	_ZTV23CGprsContextAddedNotify @ 231 NONAME ; #<VT>#
	_ZTV23CNotifyCallStatusChange @ 232 NONAME ; #<VT>#
	_ZTV23CNotifyLineNewCallAdded @ 233 NONAME ; #<VT>#
	_ZTV23CNotifyLineStatusChange @ 234 NONAME ; #<VT>#
	_ZTV24CATGprsContextDeactivate @ 235 NONAME ; #<VT>#
	_ZTV24CGprsContextConfigNotify @ 236 NONAME ; #<VT>#
	_ZTV24CGprsContextStatusNotify @ 237 NONAME ; #<VT>#
	_ZTV25CATFaxCallConnectCommands @ 238 NONAME ; #<VT>#
	_ZTV25CATSetToOnlineCommandMode @ 239 NONAME ; #<VT>#
	_ZTV25CNotifyCallDurationChange @ 240 NONAME ; #<VT>#
	_ZTV26CATDataCallConnectCommands @ 241 NONAME ; #<VT>#
	_ZTV26CATGprsNtwkRegStatusChange @ 242 NONAME ; #<VT>#
	_ZTV27CATVoiceCallConnectCommands @ 243 NONAME ; #<VT>#
	_ZTV27CNotifyCurrentNetworkChange @ 244 NONAME ; #<VT>#
	_ZTV29CNotifyMobileCallStatusChange @ 245 NONAME ; #<VT>#
	_ZTV29CNotifyMobileLineStatusChange @ 246 NONAME ; #<VT>#
	_ZTV30CGprsNtwkRegStatusChangeNotify @ 247 NONAME ; #<VT>#
	_ZTV32CATSmsWaitForAndHandleCMTIStored @ 248 NONAME ; #<VT>#
	_ZTV33CATSmsWaitForAndHandleCMTUnstored @ 249 NONAME ; #<VT>#
	_ZTV38CNotifyNetworkRegistrationStatusChange @ 250 NONAME ; #<VT>#
	_ZTV5CATIO @ 251 NONAME ; #<VT>#
	_ZTV5CGprs @ 252 NONAME ; #<VT>#
	_ZTV5MComm @ 253 NONAME ; #<VT>#
	_ZTV7CATBase @ 254 NONAME ; #<VT>#
	_ZTV7CATInit @ 255 NONAME ; #<VT>#
	_ZTV8CGprsQoS @ 256 NONAME ; #<VT>#
	_ZTV9CFaxHayes @ 257 NONAME ABSENT

