EXPORTS
	_Z10InstallSMSv @ 1 NONAME
	_ZTI11CSmsPDURead @ 2 NONAME ; #<TI>#
	_ZTI11CSmsSendTry @ 3 NONAME ABSENT ; #<TI>#
	_ZTI12CSmsProtocol @ 4 NONAME ; #<TI>#
	_ZTI12CSmsProvider @ 5 NONAME ; #<TI>#
	_ZTI13CSmsPDUDelete @ 6 NONAME ; #<TI>#
	_ZTI13CSmsStoreRead @ 7 NONAME ; #<TI>#
	_ZTI14CSmsPDUProcess @ 8 NONAME ABSENT ; #<TI>#
	_ZTI14CSmsParamsBase @ 9 NONAME ; #<TI>#
	_ZTI14CSmsReadParams @ 10 NONAME ; #<TI>#
	_ZTI14CSmspSendQueue @ 11 NONAME ; #<TI>#
	_ZTI14CSmspSetBearer @ 12 NONAME ; #<TI>#
	_ZTI15CSmsMessageSend @ 13 NONAME ; #<TI>#
	_ZTI15CSmsWriteParams @ 14 NONAME ; #<TI>#
	_ZTI15CSmspWriteQueue @ 15 NONAME ; #<TI>#
	_ZTI15TKeySmsObserver @ 16 NONAME ; #<TI>#
	_ZTI16CQueuedPDUDelete @ 17 NONAME ; #<TI>#
	_ZTI16CSmsMessageWrite @ 18 NONAME ; #<TI>#
	_ZTI16CSmsPduReadTimer @ 19 NONAME ABSENT ; #<TI>#
	_ZTI16CSmspCommDbEvent @ 20 NONAME ; #<TI>#
	_ZTI16CSmspDeleteQueue @ 21 NONAME ; #<TI>#
	_ZTI16CSmspReceiveMode @ 22 NONAME ; #<TI>#
	_ZTI17CQueuedSmsMessage @ 23 NONAME ; #<TI>#
	_ZTI17CSmsPDUReadLogger @ 24 NONAME ; #<TI>#
	_ZTI17CSmspMessageQueue @ 25 NONAME ; #<TI>#
	_ZTI18CSmsProtocolFamily @ 26 NONAME ; #<TI>#
	_ZTI19CSmsReassemblyStore @ 27 NONAME ; #<TI>#
	_ZTI20CSmsMonitorDiskSpace @ 28 NONAME ; #<TI>#
	_ZTI20CSmsPhoneEnumeration @ 29 NONAME ; #<TI>#
	_ZTI21CSmsModemNotification @ 30 NONAME ; #<TI>#
	_ZTI21CSmsProtocolBootTimer @ 31 NONAME ; #<TI>#
	_ZTI21CSmsSegmentationStore @ 32 NONAME ; #<TI>#
	_ZTI23CSmsPhoneInitialization @ 33 NONAME ; #<TI>#
	_ZTV11CSmsPDURead @ 34 NONAME ; #<VT>#
	_ZTV11CSmsSendTry @ 35 NONAME ABSENT ; #<VT>#
	_ZTV12CSmsProtocol @ 36 NONAME ; #<VT>#
	_ZTV12CSmsProvider @ 37 NONAME ; #<VT>#
	_ZTV13CSmsPDUDelete @ 38 NONAME ; #<VT>#
	_ZTV13CSmsStoreRead @ 39 NONAME ; #<VT>#
	_ZTV14CSmsPDUProcess @ 40 NONAME ABSENT ; #<VT>#
	_ZTV14CSmsParamsBase @ 41 NONAME ; #<VT>#
	_ZTV14CSmsReadParams @ 42 NONAME ; #<VT>#
	_ZTV14CSmspSendQueue @ 43 NONAME ; #<VT>#
	_ZTV14CSmspSetBearer @ 44 NONAME ; #<VT>#
	_ZTV15CSmsMessageSend @ 45 NONAME ; #<VT>#
	_ZTV15CSmsWriteParams @ 46 NONAME ; #<VT>#
	_ZTV15CSmspWriteQueue @ 47 NONAME ; #<VT>#
	_ZTV15TKeySmsObserver @ 48 NONAME ; #<VT>#
	_ZTV16CQueuedPDUDelete @ 49 NONAME ; #<VT>#
	_ZTV16CSmsMessageWrite @ 50 NONAME ; #<VT>#
	_ZTV16CSmsPduReadTimer @ 51 NONAME ABSENT ; #<VT>#
	_ZTV16CSmspCommDbEvent @ 52 NONAME ; #<VT>#
	_ZTV16CSmspDeleteQueue @ 53 NONAME ; #<VT>#
	_ZTV16CSmspReceiveMode @ 54 NONAME ; #<VT>#
	_ZTV17CQueuedSmsMessage @ 55 NONAME ; #<VT>#
	_ZTV17CSmsPDUReadLogger @ 56 NONAME ; #<VT>#
	_ZTV17CSmspMessageQueue @ 57 NONAME ; #<VT>#
	_ZTV18CSmsProtocolFamily @ 58 NONAME ; #<VT>#
	_ZTV19CSmsReassemblyStore @ 59 NONAME ; #<VT>#
	_ZTV20CSmsMonitorDiskSpace @ 60 NONAME ; #<VT>#
	_ZTV20CSmsPhoneEnumeration @ 61 NONAME ; #<VT>#
	_ZTV21CSmsModemNotification @ 62 NONAME ; #<VT>#
	_ZTV21CSmsProtocolBootTimer @ 63 NONAME ; #<VT>#
	_ZTV21CSmsSegmentationStore @ 64 NONAME ; #<VT>#
	_ZTV23CSmsPhoneInitialization @ 65 NONAME ; #<VT>#
	_ZTI16CReassemblyStore @ 66 NONAME
	_ZTI17CPreallocatedFile @ 67 NONAME
	_ZTI22CSmsPermanentFileStore @ 68 NONAME
	_ZTI25CClass0SmsReassemblyStore @ 69 NONAME
	_ZTI25CFacadeSmsReassemblyStore @ 70 NONAME
	_ZTV16CReassemblyStore @ 71 NONAME
	_ZTV17CPreallocatedFile @ 72 NONAME
	_ZTV22CSmsPermanentFileStore @ 73 NONAME
	_ZTV25CClass0SmsReassemblyStore @ 74 NONAME
	_ZTV25CFacadeSmsReassemblyStore @ 75 NONAME
	_ZTI11CGuardTimer @ 76 NONAME
	_ZTV11CGuardTimer @ 77 NONAME

