EXPORTS
	??0CRequestorBase@@IAE@XZ @ 1 NONAME ; CRequestorBase::CRequestorBase(void)
	??0RPositionServer@@QAE@XZ @ 2 NONAME ; RPositionServer::RPositionServer(void)
	??0RPositioner@@QAE@XZ @ 3 NONAME ; RPositioner::RPositioner(void)
	??0RPositionerSubSessionBase@@IAE@XZ @ 4 NONAME ; RPositionerSubSessionBase::RPositionerSubSessionBase(void)
	??0TCoordinate@@QAE@ABN0@Z @ 5 NONAME ; TCoordinate::TCoordinate(double const &, double const &)
	??0TCoordinate@@QAE@ABN0M@Z @ 6 NONAME ; TCoordinate::TCoordinate(double const &, double const &, float)
	??0TCoordinate@@QAE@XZ @ 7 NONAME ; TCoordinate::TCoordinate(void)
	??0TCourse@@QAE@XZ @ 8 NONAME ; TCourse::TCourse(void)
	??0TLocality@@QAE@ABVTCoordinate@@M@Z @ 9 NONAME ; TLocality::TLocality(class TCoordinate const &, float)
	??0TLocality@@QAE@ABVTCoordinate@@MM@Z @ 10 NONAME ; TLocality::TLocality(class TCoordinate const &, float, float)
	??0TLocality@@QAE@XZ @ 11 NONAME ; TLocality::TLocality(void)
	??0TPosition@@QAE@ABVTLocality@@VTTime@@@Z @ 12 NONAME ; TPosition::TPosition(class TLocality const &, class TTime)
	??0TPosition@@QAE@XZ @ 13 NONAME ; TPosition::TPosition(void)
	??0TPositionCourseInfo@@QAE@XZ @ 14 NONAME ; TPositionCourseInfo::TPositionCourseInfo(void)
	??0TPositionCriteria@@QAE@K@Z @ 15 NONAME ; TPositionCriteria::TPositionCriteria(unsigned long)
	??0TPositionCriteria@@QAE@XZ @ 16 NONAME ; TPositionCriteria::TPositionCriteria(void)
	??0TPositionCriteriaBase@@IAE@K@Z @ 17 NONAME ; TPositionCriteriaBase::TPositionCriteriaBase(unsigned long)
	??0TPositionCriteriaBase@@IAE@XZ @ 18 NONAME ; TPositionCriteriaBase::TPositionCriteriaBase(void)
	??0TPositionInfo@@QAE@XZ @ 19 NONAME ; TPositionInfo::TPositionInfo(void)
	??0TPositionInfoBase@@IAE@XZ @ 20 NONAME ; TPositionInfoBase::TPositionInfoBase(void)
	??0TPositionModuleInfo@@QAE@XZ @ 21 NONAME ; TPositionModuleInfo::TPositionModuleInfo(void)
	??0TPositionModuleInfoBase@@IAE@XZ @ 22 NONAME ; TPositionModuleInfoBase::TPositionModuleInfoBase(void)
	??0TPositionModuleStatus@@QAE@XZ @ 23 NONAME ; TPositionModuleStatus::TPositionModuleStatus(void)
	??0TPositionModuleStatusBase@@IAE@XZ @ 24 NONAME ; TPositionModuleStatusBase::TPositionModuleStatusBase(void)
	??0TPositionModuleStatusEvent@@QAE@K@Z @ 25 NONAME ; TPositionModuleStatusEvent::TPositionModuleStatusEvent(unsigned long)
	??0TPositionModuleStatusEvent@@QAE@XZ @ 26 NONAME ; TPositionModuleStatusEvent::TPositionModuleStatusEvent(void)
	??0TPositionModuleStatusEventBase@@IAE@K@Z @ 27 NONAME ; TPositionModuleStatusEventBase::TPositionModuleStatusEventBase(unsigned long)
	??0TPositionModuleStatusEventBase@@IAE@XZ @ 28 NONAME ; TPositionModuleStatusEventBase::TPositionModuleStatusEventBase(void)
	??0TPositionQuality@@QAE@XZ @ 29 NONAME ; TPositionQuality::TPositionQuality(void)
	??0TPositionQualityBase@@IAE@XZ @ 30 NONAME ; TPositionQualityBase::TPositionQualityBase(void)
	??0TPositionSatelliteInfo@@QAE@XZ @ 31 NONAME ; TPositionSatelliteInfo::TPositionSatelliteInfo(void)
	??0TPositionSelectionOrder@@QAE@XZ @ 32 NONAME ; TPositionSelectionOrder::TPositionSelectionOrder(void)
	??0TPositionUpdateOptions@@QAE@VTTimeIntervalMicroSeconds@@00H@Z @ 33 NONAME ; TPositionUpdateOptions::TPositionUpdateOptions(class TTimeIntervalMicroSeconds, class TTimeIntervalMicroSeconds, class TTimeIntervalMicroSeconds, int)
	??0TPositionUpdateOptions@@QAE@XZ @ 34 NONAME ; TPositionUpdateOptions::TPositionUpdateOptions(void)
	??0TPositionUpdateOptionsBase@@IAE@VTTimeIntervalMicroSeconds@@00@Z @ 35 NONAME ; TPositionUpdateOptionsBase::TPositionUpdateOptionsBase(class TTimeIntervalMicroSeconds, class TTimeIntervalMicroSeconds, class TTimeIntervalMicroSeconds)
	??0TPositionUpdateOptionsBase@@IAE@XZ @ 36 NONAME ; TPositionUpdateOptionsBase::TPositionUpdateOptionsBase(void)
	??0TSatelliteData@@QAE@XZ @ 37 NONAME ; TSatelliteData::TSatelliteData(void)
	??1CPositioningPtrHolder@@UAE@XZ @ 38 NONAME ; CPositioningPtrHolder::~CPositioningPtrHolder(void)
	??1CRequestorBase@@UAE@XZ @ 39 NONAME ; CRequestorBase::~CRequestorBase(void)
	?AcceptPartialUpdates@TPositionUpdateOptions@@QBEHXZ @ 40 NONAME ; int TPositionUpdateOptions::AcceptPartialUpdates(void) const
	?AddRequiredCapabilities@TPositionCriteriaBase@@QAEXK@Z @ 41 NONAME ; void TPositionCriteriaBase::AddRequiredCapabilities(unsigned long)
	?Altitude@TCoordinate@@QBEMXZ @ 42 NONAME ; float TCoordinate::Altitude(void) const
	?AppendSatelliteData@TPositionSatelliteInfo@@QAEHABVTSatelliteData@@@Z @ 43 NONAME ; int TPositionSatelliteInfo::AppendSatelliteData(class TSatelliteData const &)
	?Azimuth@TSatelliteData@@QBEMXZ @ 44 NONAME ; float TSatelliteData::Azimuth(void) const
	?BearingTo@TCoordinate@@QBEHABV1@AAM@Z @ 45 NONAME ; int TCoordinate::BearingTo(class TCoordinate const &, float &) const
	?BearingTo@TLocality@@QBEHABV1@AAM1@Z @ 46 NONAME ; int TLocality::BearingTo(class TLocality const &, float &, float &) const
	?BearingTo@TLocality@@QBEHABVTCoordinate@@AAM@Z @ 47 NONAME ; int TLocality::BearingTo(class TCoordinate const &, float &) const
	?BufferSize@HPositionGenericInfo@@QBEHXZ @ 48 NONAME ; int HPositionGenericInfo::BufferSize(void) const
	?CancelRequest@RPositionServer@@QAEHH@Z @ 49 NONAME ; int RPositionServer::CancelRequest(int)
	?CancelRequest@RPositionerSubSessionBase@@QAEHH@Z @ 50 NONAME ; int RPositionerSubSessionBase::CancelRequest(int)
	?Capabilities@TPositionModuleInfo@@QBEKXZ @ 51 NONAME ; unsigned long TPositionModuleInfo::Capabilities(void) const
	?ClassesSupported@TPositionModuleInfo@@QBEKW4TPositionClassFamily@@@Z @ 52 NONAME ; unsigned long TPositionModuleInfo::ClassesSupported(enum TPositionClassFamily) const
	?ClearCriteria@TPositionCriteriaBase@@QAEXXZ @ 53 NONAME ; void TPositionCriteriaBase::ClearCriteria(void)
	?ClearPositionData@HPositionGenericInfo@@QAEXXZ @ 54 NONAME ; void HPositionGenericInfo::ClearPositionData(void)
	?ClearRequestedFields@HPositionGenericInfo@@QAEXXZ @ 55 NONAME ; void HPositionGenericInfo::ClearRequestedFields(void)
	?ClearRequiredCapabilities@TPositionCriteriaBase@@QAEXXZ @ 56 NONAME ; void TPositionCriteriaBase::ClearRequiredCapabilities(void)
	?ClearSatellitesInView@TPositionSatelliteInfo@@QAEXXZ @ 57 NONAME ; void TPositionSatelliteInfo::ClearSatellitesInView(void)
	?ClearSelectionOrder@TPositionSelectionOrder@@QAEXXZ @ 58 NONAME ; void TPositionSelectionOrder::ClearSelectionOrder(void)
	?Close@RPositionServer@@QAEXXZ @ 59 NONAME ; void RPositionServer::Close(void)
	?Close@RPositioner@@QAEXXZ @ 60 NONAME ; void RPositioner::Close(void)
	?Compare@TPositionQualityBase@@QBEHABV1@HAAW4TResult@TPositionQualityItem@@@Z @ 61 NONAME ; int TPositionQualityBase::Compare(class TPositionQualityBase const &, int, enum TPositionQualityItem::TResult &) const
	?Connect@RPositionServer@@QAEHXZ @ 62 NONAME ; int RPositionServer::Connect(void)
	?ConstructL@CPositioningPtrHolder@@IAEXHH@Z @ 63 NONAME ; void CPositioningPtrHolder::ConstructL(int, int)
	?ConstructL@CRequestorBase@@IAEXHHABVTDesC16@@@Z @ 64 NONAME ; void CRequestorBase::ConstructL(int, int, class TDesC16 const &)
	?ConstructL@RPositioner@@MAEXXZ @ 65 NONAME ; void RPositioner::ConstructL(void)
	?CostIndicator@TPositionQuality@@QBE?AW4TCostIndicator@1@XZ @ 66 NONAME ; enum TPositionQuality::TCostIndicator TPositionQuality::CostIndicator(void) const
	?DataQualityStatus@TPositionModuleStatus@@QBEHXZ @ 67 NONAME ; int TPositionModuleStatus::DataQualityStatus(void) const
	?Datum@TCoordinate@@QBE?AVTUid@@XZ @ 68 NONAME ; class TUid TCoordinate::Datum(void) const
	?Destruct@RPositioner@@MAEXXZ @ 69 NONAME ; void RPositioner::Destruct(void)
	?DeviceLocation@TPositionModuleInfo@@QBEKXZ @ 70 NONAME ; unsigned long TPositionModuleInfo::DeviceLocation(void) const
	?DeviceStatus@TPositionModuleStatus@@QBEHXZ @ 71 NONAME ; int TPositionModuleStatus::DeviceStatus(void) const
	?Distance@TCoordinate@@QBEHABV1@AAM@Z @ 72 NONAME ; int TCoordinate::Distance(class TCoordinate const &, float &) const
	?Distance@TLocality@@QBEHABV1@AAM1@Z @ 73 NONAME ; int TLocality::Distance(class TLocality const &, float &, float &) const
	?Distance@TLocality@@QBEHABVTCoordinate@@AAM@Z @ 74 NONAME ; int TLocality::Distance(class TCoordinate const &, float &) const
	?DoGetElement@TPositionQualityBase@@ABEHHW4TDataType@TPositionQualityItem@@PAXI@Z @ 75 NONAME ; int TPositionQualityBase::DoGetElement(int, enum TPositionQualityItem::TDataType, void *, unsigned int) const
	?DoReset@TPositionModuleStatusEvent@@MAEXH@Z @ 76 NONAME ; void TPositionModuleStatusEvent::DoReset(int)
	?DoReset@TPositionModuleStatusEventBase@@MAEXH@Z @ 77 NONAME ; void TPositionModuleStatusEventBase::DoReset(int)
	?DoSetElement@TPositionQualityBase@@AAEXHW4TDataType@TPositionQualityItem@@W4TValuePreference@3@PBXI@Z @ 78 NONAME ; void TPositionQualityBase::DoSetElement(int, enum TPositionQualityItem::TDataType, enum TPositionQualityItem::TValuePreference, void const *, unsigned int)
	?Elevation@TSatelliteData@@QBEMXZ @ 79 NONAME ; float TSatelliteData::Elevation(void) const
	?ExtendedInterface@CRequestorBase@@MAEPAXHPAX0@Z @ 80 NONAME ; void * CRequestorBase::ExtendedInterface(int, void *, void *)
	?ExtendedInterface@RPositioner@@MAEPAXHPAX0@Z @ 81 NONAME ; void * RPositioner::ExtendedInterface(int, void *, void *)
	?ExtendedInterface@RPositionerSubSessionBase@@MAEPAXHPAX0@Z @ 82 NONAME ; void * RPositionerSubSessionBase::ExtendedInterface(int, void *, void *)
	?ExternalizeL@CRequestorBase@@UBEXAAVRWriteStream@@@Z @ 83 NONAME ; void CRequestorBase::ExternalizeL(class RWriteStream &) const
	?ExternalizeL@RRequestorStack@@QBEXAAVRWriteStream@@@Z @ 84 NONAME ; void RRequestorStack::ExternalizeL(class RWriteStream &) const
	?FirstRequestedFieldId@HPositionGenericInfo@@QBEGXZ @ 85 NONAME ; unsigned short HPositionGenericInfo::FirstRequestedFieldId(void) const
	?GetCourse@TPositionCourseInfo@@QBEXAAVTCourse@@@Z @ 86 NONAME ; void TPositionCourseInfo::GetCourse(class TCourse &) const
	?GetDefaultModuleId@RPositionServer@@QBEHAAVTUid@@@Z @ 87 NONAME ; int RPositionServer::GetDefaultModuleId(class TUid &) const
	?GetLastKnownPosition@RPositioner@@QBEXAAVTPositionInfoBase@@AAVTRequestStatus@@@Z @ 88 NONAME ; void RPositioner::GetLastKnownPosition(class TPositionInfoBase &, class TRequestStatus &) const
	?GetModuleInfoById@RPositionServer@@QBEHVTUid@@AAVTPositionModuleInfoBase@@@Z @ 89 NONAME ; int RPositionServer::GetModuleInfoById(class TUid, class TPositionModuleInfoBase &) const
	?GetModuleInfoByIndex@RPositionServer@@QBEHHAAVTPositionModuleInfoBase@@@Z @ 90 NONAME ; int RPositionServer::GetModuleInfoByIndex(int, class TPositionModuleInfoBase &) const
	?GetModuleName@TPositionModuleInfo@@QBEXAAVTDes16@@@Z @ 91 NONAME ; void TPositionModuleInfo::GetModuleName(class TDes16 &) const
	?GetModuleStatus@RPositionServer@@QBEHAAVTPositionModuleStatusBase@@VTUid@@@Z @ 92 NONAME ; int RPositionServer::GetModuleStatus(class TPositionModuleStatusBase &, class TUid) const
	?GetModuleStatus@TPositionModuleStatusEvent@@QBEXAAVTPositionModuleStatus@@@Z @ 93 NONAME ; void TPositionModuleStatusEvent::GetModuleStatus(class TPositionModuleStatus &) const
	?GetNumModules@RPositionServer@@QBEHAAI@Z @ 94 NONAME ; int RPositionServer::GetNumModules(unsigned int &) const
	?GetPosition@TPositionInfo@@QBEXAAVTPosition@@@Z @ 95 NONAME ; void TPositionInfo::GetPosition(class TPosition &) const
	?GetPositionQuality@TPositionModuleInfo@@QBEXAAVTPositionQuality@@@Z @ 96 NONAME ; void TPositionModuleInfo::GetPositionQuality(class TPositionQuality &) const
	?GetRequestor@CRequestorBase@@QBEXAAH0AAVTPtrC16@@@Z @ 97 NONAME ; void CRequestorBase::GetRequestor(int &, int &, class TPtrC16 &) const
	?GetRequiredQuality@TPositionCriteriaBase@@QBEXAAVTPositionQuality@@@Z @ 98 NONAME ; void TPositionCriteriaBase::GetRequiredQuality(class TPositionQuality &) const
	?GetSatelliteData@TPositionSatelliteInfo@@QBEHIAAVTSatelliteData@@@Z @ 99 NONAME ; int TPositionSatelliteInfo::GetSatelliteData(unsigned int, class TSatelliteData &) const
	?GetSelectionItem@TPositionSelectionOrder@@QBEHIAAW4TField@1@AAW4TOrder@1@@Z @ 100 NONAME ; int TPositionSelectionOrder::GetSelectionItem(unsigned int, enum TPositionSelectionOrder::TField &, enum TPositionSelectionOrder::TOrder &) const
	?GetSelectionOrder@TPositionCriteriaBase@@QBEXAAVTPositionSelectionOrder@@@Z @ 101 NONAME ; void TPositionCriteriaBase::GetSelectionOrder(class TPositionSelectionOrder &) const
	?GetUpdateOptions@RPositioner@@QBEHAAVTPositionUpdateOptionsBase@@@Z @ 102 NONAME ; int RPositioner::GetUpdateOptions(class TPositionUpdateOptionsBase &) const
	?GetValue@PositionFieldManager@@CAHGAACABVHPositionGenericInfo@@@Z @ 103 NONAME ; int PositionFieldManager::GetValue(unsigned short, signed char &, class HPositionGenericInfo const &)
	?GetValue@PositionFieldManager@@CAHGAAEABVHPositionGenericInfo@@@Z @ 104 NONAME ; int PositionFieldManager::GetValue(unsigned short, unsigned char &, class HPositionGenericInfo const &)
	?GetValue@PositionFieldManager@@CAHGAAFABVHPositionGenericInfo@@@Z @ 105 NONAME ; int PositionFieldManager::GetValue(unsigned short, short &, class HPositionGenericInfo const &)
	?GetValue@PositionFieldManager@@CAHGAAGABVHPositionGenericInfo@@@Z @ 106 NONAME ; int PositionFieldManager::GetValue(unsigned short, unsigned short &, class HPositionGenericInfo const &)
	?GetValue@PositionFieldManager@@CAHGAAJABVHPositionGenericInfo@@@Z @ 107 NONAME ; int PositionFieldManager::GetValue(unsigned short, long &, class HPositionGenericInfo const &)
	?GetValue@PositionFieldManager@@CAHGAAKABVHPositionGenericInfo@@@Z @ 108 NONAME ; int PositionFieldManager::GetValue(unsigned short, unsigned long &, class HPositionGenericInfo const &)
	?GetValue@PositionFieldManager@@CAHGAAMABVHPositionGenericInfo@@@Z @ 109 NONAME ; int PositionFieldManager::GetValue(unsigned short, float &, class HPositionGenericInfo const &)
	?GetValue@PositionFieldManager@@CAHGAANABVHPositionGenericInfo@@@Z @ 110 NONAME ; int PositionFieldManager::GetValue(unsigned short, double &, class HPositionGenericInfo const &)
	?GetValue@PositionFieldManager@@CAHGAAVTDes16@@ABVHPositionGenericInfo@@@Z @ 111 NONAME ; int PositionFieldManager::GetValue(unsigned short, class TDes16 &, class HPositionGenericInfo const &)
	?GetValue@PositionFieldManager@@CAHGAAVTDes8@@ABVHPositionGenericInfo@@@Z @ 112 NONAME ; int PositionFieldManager::GetValue(unsigned short, class TDes8 &, class HPositionGenericInfo const &)
	?GetValue@PositionFieldManager@@CAHGAAVTPtrC16@@ABVHPositionGenericInfo@@@Z @ 113 NONAME ; int PositionFieldManager::GetValue(unsigned short, class TPtrC16 &, class HPositionGenericInfo const &)
	?GetValue@PositionFieldManager@@CAHGAAVTPtrC8@@ABVHPositionGenericInfo@@@Z @ 114 NONAME ; int PositionFieldManager::GetValue(unsigned short, class TPtrC8 &, class HPositionGenericInfo const &)
	?GetValue@PositionFieldManager@@CAHGAAVTTime@@ABVHPositionGenericInfo@@@Z @ 115 NONAME ; int PositionFieldManager::GetValue(unsigned short, class TTime &, class HPositionGenericInfo const &)
	?GetValue@PositionFieldManager@@CAHGAAVTTimeIntervalMicroSeconds@@ABVHPositionGenericInfo@@@Z @ 116 NONAME ; int PositionFieldManager::GetValue(unsigned short, class TTimeIntervalMicroSeconds &, class HPositionGenericInfo const &)
	?GetValue@PositionFieldManager@@CAHGAA_JABVHPositionGenericInfo@@@Z @ 117 NONAME ; int PositionFieldManager::GetValue(unsigned short, long long &, class HPositionGenericInfo const &)
	?Heading@TCourse@@QBEMXZ @ 118 NONAME ; float TCourse::Heading(void) const
	?HeadingAccuracy@TCourse@@QBEMXZ @ 119 NONAME ; float TCourse::HeadingAccuracy(void) const
	?HighWaterMark@TPositionQualityBase@@QBEHXZ @ 120 NONAME ; int TPositionQualityBase::HighWaterMark(void) const
	?HorizontalAccuracy@TLocality@@QBEMXZ @ 121 NONAME ; float TLocality::HorizontalAccuracy(void) const
	?HorizontalAccuracy@TPositionQuality@@QBEMXZ @ 122 NONAME ; float TPositionQuality::HorizontalAccuracy(void) const
	?HorizontalDoP@TPositionSatelliteInfo@@QBEMXZ @ 123 NONAME ; float TPositionSatelliteInfo::HorizontalDoP(void) const
	?InternalizeL@CRequestorBase@@UAEXAAVRReadStream@@@Z @ 124 NONAME ; void CRequestorBase::InternalizeL(class RReadStream &)
	?InternalizeL@RRequestorStack@@QAEXAAVRReadStream@@@Z @ 125 NONAME ; void RRequestorStack::InternalizeL(class RReadStream &)
	?IsAvailable@TPositionModuleInfo@@QBEHXZ @ 126 NONAME ; int TPositionModuleInfo::IsAvailable(void) const
	?IsDefined@TPositionQualityBase@@QBEHH@Z @ 127 NONAME ; int TPositionQualityBase::IsDefined(int) const
	?IsFieldAvailable@HPositionGenericInfo@@QBEHG@Z @ 128 NONAME ; int HPositionGenericInfo::IsFieldAvailable(unsigned short) const
	?IsRequestedField@HPositionGenericInfo@@QBEHG@Z @ 129 NONAME ; int HPositionGenericInfo::IsRequestedField(unsigned short) const
	?IsUsed@TSatelliteData@@QBEHXZ @ 130 NONAME ; int TSatelliteData::IsUsed(void) const
	?Latitude@TCoordinate@@QBENXZ @ 131 NONAME ; double TCoordinate::Latitude(void) const
	?Longitude@TCoordinate@@QBENXZ @ 132 NONAME ; double TCoordinate::Longitude(void) const
	?MaxFields@HPositionGenericInfo@@QBEHXZ @ 133 NONAME ; int HPositionGenericInfo::MaxFields(void) const
	?MaxUpdateAge@TPositionUpdateOptionsBase@@QBE?AVTTimeIntervalMicroSeconds@@XZ @ 134 NONAME ; class TTimeIntervalMicroSeconds TPositionUpdateOptionsBase::MaxUpdateAge(void) const
	?ModuleId@TPositionInfoBase@@QBE?AVTUid@@XZ @ 135 NONAME ; class TUid TPositionInfoBase::ModuleId(void) const
	?ModuleId@TPositionModuleInfo@@QBE?AVTUid@@XZ @ 136 NONAME ; class TUid TPositionModuleInfo::ModuleId(void) const
	?ModuleId@TPositionModuleStatusEventBase@@QBE?AVTUid@@XZ @ 137 NONAME ; class TUid TPositionModuleStatusEventBase::ModuleId(void) const
	?Move@TCoordinate@@QAEHMM@Z @ 138 NONAME ; int TCoordinate::Move(float, float)
	?New@CRequestor@@SAPAV1@HHABVTDesC16@@@Z @ 139 NONAME ; class CRequestor * CRequestor::New(int, int, class TDesC16 const &)
	?New@HPositionGenericInfo@@SAPAV1@HH@Z @ 140 NONAME ; class HPositionGenericInfo * HPositionGenericInfo::New(int, int)
	?NewL@CPositioningPtrHolder@@SAPAV1@HH@Z @ 141 NONAME ; class CPositioningPtrHolder * CPositioningPtrHolder::NewL(int, int)
	?NewL@CRequestor@@SAPAV1@AAVRReadStream@@@Z @ 142 NONAME ; class CRequestor * CRequestor::NewL(class RReadStream &)
	?NewL@CRequestor@@SAPAV1@HHABVTDesC16@@@Z @ 143 NONAME ; class CRequestor * CRequestor::NewL(int, int, class TDesC16 const &)
	?NewL@CServerPositioningPtrHolder@@SAPAV1@HH@Z @ 144 NONAME ; class CServerPositioningPtrHolder * CServerPositioningPtrHolder::NewL(int, int)
	?NewL@HPositionGenericInfo@@SAPAV1@HH@Z @ 145 NONAME ; class HPositionGenericInfo * HPositionGenericInfo::NewL(int, int)
	?NewLC@CRequestor@@SAPAV1@HHABVTDesC16@@@Z @ 146 NONAME ; class CRequestor * CRequestor::NewLC(int, int, class TDesC16 const &)
	?NewLC@HPositionGenericInfo@@SAPAV1@HH@Z @ 147 NONAME ; class HPositionGenericInfo * HPositionGenericInfo::NewLC(int, int)
	?NextRequestedFieldId@HPositionGenericInfo@@QBEGG@Z @ 148 NONAME ; unsigned short HPositionGenericInfo::NextRequestedFieldId(unsigned short) const
	?NotifyModuleStatusEvent@RPositionServer@@QBEXAAVTPositionModuleStatusEventBase@@AAVTRequestStatus@@VTUid@@@Z @ 149 NONAME ; void RPositionServer::NotifyModuleStatusEvent(class TPositionModuleStatusEventBase &, class TRequestStatus &, class TUid) const
	?NotifyPositionUpdate@RPositioner@@QBEXAAVTPositionInfoBase@@AAVTRequestStatus@@@Z @ 150 NONAME ; void RPositioner::NotifyPositionUpdate(class TPositionInfoBase &, class TRequestStatus &) const
	?NumSatellitesInView@TPositionSatelliteInfo@@QBEHXZ @ 151 NONAME ; int TPositionSatelliteInfo::NumSatellitesInView(void) const
	?NumSatellitesUsed@TPositionSatelliteInfo@@QBEHXZ @ 152 NONAME ; int TPositionSatelliteInfo::NumSatellitesUsed(void) const
	?NumSelectionItems@TPositionSelectionOrder@@QBEIXZ @ 153 NONAME ; unsigned int TPositionSelectionOrder::NumSelectionItems(void) const
	?OccurredEvents@TPositionModuleStatusEventBase@@QBEKXZ @ 154 NONAME ; unsigned long TPositionModuleStatusEventBase::OccurredEvents(void) const
	?Open@RPositioner@@QAEHAAVRPositionServer@@@Z @ 155 NONAME ; int RPositioner::Open(class RPositionServer &)
	?Open@RPositioner@@QAEHAAVRPositionServer@@ABVTPositionCriteriaBase@@@Z @ 156 NONAME ; int RPositioner::Open(class RPositionServer &, class TPositionCriteriaBase const &)
	?Open@RPositioner@@QAEHAAVRPositionServer@@VTUid@@@Z @ 157 NONAME ; int RPositioner::Open(class RPositionServer &, class TUid)
	?PositionClassSize@TPositionClassTypeBase@@QBEIXZ @ 158 NONAME ; unsigned int TPositionClassTypeBase::PositionClassSize(void) const
	?PositionClassType@TPositionClassTypeBase@@QBEKXZ @ 159 NONAME ; unsigned long TPositionClassTypeBase::PositionClassType(void) const
	?PowerConsumption@TPositionQuality@@QBE?AW4TPowerConsumption@1@XZ @ 160 NONAME ; enum TPositionQuality::TPowerConsumption TPositionQuality::PowerConsumption(void) const
	?Ptr@CPositioningPtrHolder@@QAEAAVTPtr8@@H@Z @ 161 NONAME ; class TPtr8 & CPositioningPtrHolder::Ptr(int)
	?PtrC@CPositioningPtrHolder@@QAEAAVTPtrC8@@H@Z @ 162 NONAME ; class TPtrC8 & CPositioningPtrHolder::PtrC(int)
	?RequestedEvents@TPositionModuleStatusEventBase@@QBEKXZ @ 163 NONAME ; unsigned long TPositionModuleStatusEventBase::RequestedEvents(void) const
	?RequestorData@CRequestorBase@@QBEAAVTDesC16@@XZ @ 164 NONAME ; class TDesC16 & CRequestorBase::RequestorData(void) const
	?RequestorFormat@CRequestorBase@@QBEHXZ @ 165 NONAME ; int CRequestorBase::RequestorFormat(void) const
	?RequestorType@CRequestorBase@@QBEHXZ @ 166 NONAME ; int CRequestorBase::RequestorType(void) const
	?RequiredCapabilities@TPositionCriteriaBase@@QBEKXZ @ 167 NONAME ; unsigned long TPositionCriteriaBase::RequiredCapabilities(void) const
	?ResetCriteria@TPositionCriteriaBase@@QAEXXZ @ 168 NONAME ; void TPositionCriteriaBase::ResetCriteria(void)
	?ResetElement@TPositionQualityBase@@IAEXH@Z @ 169 NONAME ; void TPositionQualityBase::ResetElement(int)
	?ResetSelectionOrder@TPositionSelectionOrder@@QAEXXZ @ 170 NONAME ; void TPositionSelectionOrder::ResetSelectionOrder(void)
	?SatelliteId@TSatelliteData@@QBEHXZ @ 171 NONAME ; int TSatelliteData::SatelliteId(void) const
	?SatelliteTime@TPositionSatelliteInfo@@QBE?AVTTime@@XZ @ 172 NONAME ; class TTime TPositionSatelliteInfo::SatelliteTime(void) const
	?SetAcceptPartialUpdates@TPositionUpdateOptions@@QAEXH@Z @ 173 NONAME ; void TPositionUpdateOptions::SetAcceptPartialUpdates(int)
	?SetAccuracy@TLocality@@QAEXMM@Z @ 174 NONAME ; void TLocality::SetAccuracy(float, float)
	?SetAzimuth@TSatelliteData@@QAEXM@Z @ 175 NONAME ; void TSatelliteData::SetAzimuth(float)
	?SetCapabilities@TPositionModuleInfo@@QAEXK@Z @ 176 NONAME ; void TPositionModuleInfo::SetCapabilities(unsigned long)
	?SetClassesSupported@TPositionModuleInfo@@QAEXW4TPositionClassFamily@@K@Z @ 177 NONAME ; void TPositionModuleInfo::SetClassesSupported(enum TPositionClassFamily, unsigned long)
	?SetCoordinate@TCoordinate@@QAEXABN0@Z @ 178 NONAME ; void TCoordinate::SetCoordinate(double const &, double const &)
	?SetCoordinate@TCoordinate@@QAEXABN0M@Z @ 179 NONAME ; void TCoordinate::SetCoordinate(double const &, double const &, float)
	?SetCostIndicator@TPositionQuality@@QAEXW4TCostIndicator@1@@Z @ 180 NONAME ; void TPositionQuality::SetCostIndicator(enum TPositionQuality::TCostIndicator)
	?SetCourse@TPositionCourseInfo@@QAEXABVTCourse@@@Z @ 181 NONAME ; void TPositionCourseInfo::SetCourse(class TCourse const &)
	?SetCurrentTime@TPosition@@QAEXXZ @ 182 NONAME ; void TPosition::SetCurrentTime(void)
	?SetDataQualityStatus@TPositionModuleStatus@@QAEXH@Z @ 183 NONAME ; void TPositionModuleStatus::SetDataQualityStatus(int)
	?SetDatum@TCoordinate@@QAEXVTUid@@@Z @ 184 NONAME ; void TCoordinate::SetDatum(class TUid)
	?SetDeviceLocation@TPositionModuleInfo@@QAEXK@Z @ 185 NONAME ; void TPositionModuleInfo::SetDeviceLocation(unsigned long)
	?SetDeviceStatus@TPositionModuleStatus@@QAEXH@Z @ 186 NONAME ; void TPositionModuleStatus::SetDeviceStatus(int)
	?SetElevation@TSatelliteData@@QAEXM@Z @ 187 NONAME ; void TSatelliteData::SetElevation(float)
	?SetHeading@TCourse@@QAEXM@Z @ 188 NONAME ; void TCourse::SetHeading(float)
	?SetHeadingAccuracy@TCourse@@QAEXM@Z @ 189 NONAME ; void TCourse::SetHeadingAccuracy(float)
	?SetHorizontalAccuracy@TLocality@@QAEXM@Z @ 190 NONAME ; void TLocality::SetHorizontalAccuracy(float)
	?SetHorizontalAccuracy@TPositionQuality@@QAEXM@Z @ 191 NONAME ; void TPositionQuality::SetHorizontalAccuracy(float)
	?SetHorizontalDoP@TPositionSatelliteInfo@@QAEXM@Z @ 192 NONAME ; void TPositionSatelliteInfo::SetHorizontalDoP(float)
	?SetIsAvailable@TPositionModuleInfo@@QAEXH@Z @ 193 NONAME ; void TPositionModuleInfo::SetIsAvailable(int)
	?SetIsUsed@TSatelliteData@@QAEXH@Z @ 194 NONAME ; void TSatelliteData::SetIsUsed(int)
	?SetMaxUpdateAge@TPositionUpdateOptionsBase@@QAEXVTTimeIntervalMicroSeconds@@@Z @ 195 NONAME ; void TPositionUpdateOptionsBase::SetMaxUpdateAge(class TTimeIntervalMicroSeconds)
	?SetModuleId@TPositionInfoBase@@QAEXVTUid@@@Z @ 196 NONAME ; void TPositionInfoBase::SetModuleId(class TUid)
	?SetModuleId@TPositionModuleInfo@@QAEXVTUid@@@Z @ 197 NONAME ; void TPositionModuleInfo::SetModuleId(class TUid)
	?SetModuleId@TPositionModuleStatusEventBase@@QAEXVTUid@@@Z @ 198 NONAME ; void TPositionModuleStatusEventBase::SetModuleId(class TUid)
	?SetModuleName@TPositionModuleInfo@@QAEXABVTDesC16@@@Z @ 199 NONAME ; void TPositionModuleInfo::SetModuleName(class TDesC16 const &)
	?SetModuleStatus@TPositionModuleStatusEvent@@QAEXABVTPositionModuleStatus@@@Z @ 200 NONAME ; void TPositionModuleStatusEvent::SetModuleStatus(class TPositionModuleStatus const &)
	?SetOccurredEvents@TPositionModuleStatusEventBase@@QAEXK@Z @ 201 NONAME ; void TPositionModuleStatusEventBase::SetOccurredEvents(unsigned long)
	?SetOrderCostIndicator@TPositionSelectionOrder@@QAEHW4TOrder@1@@Z @ 202 NONAME ; int TPositionSelectionOrder::SetOrderCostIndicator(enum TPositionSelectionOrder::TOrder)
	?SetOrderHorizontalAccuracy@TPositionSelectionOrder@@QAEHW4TOrder@1@@Z @ 203 NONAME ; int TPositionSelectionOrder::SetOrderHorizontalAccuracy(enum TPositionSelectionOrder::TOrder)
	?SetOrderPowerConsumption@TPositionSelectionOrder@@QAEHW4TOrder@1@@Z @ 204 NONAME ; int TPositionSelectionOrder::SetOrderPowerConsumption(enum TPositionSelectionOrder::TOrder)
	?SetOrderTimeToFirstFix@TPositionSelectionOrder@@QAEHW4TOrder@1@@Z @ 205 NONAME ; int TPositionSelectionOrder::SetOrderTimeToFirstFix(enum TPositionSelectionOrder::TOrder)
	?SetOrderTimeToNextFix@TPositionSelectionOrder@@QAEHW4TOrder@1@@Z @ 206 NONAME ; int TPositionSelectionOrder::SetOrderTimeToNextFix(enum TPositionSelectionOrder::TOrder)
	?SetOrderVerticalAccuracy@TPositionSelectionOrder@@QAEHW4TOrder@1@@Z @ 207 NONAME ; int TPositionSelectionOrder::SetOrderVerticalAccuracy(enum TPositionSelectionOrder::TOrder)
	?SetPosition@TPositionInfo@@QAEXABVTPosition@@@Z @ 208 NONAME ; void TPositionInfo::SetPosition(class TPosition const &)
	?SetPositionQuality@TPositionModuleInfo@@QAEXABVTPositionQuality@@@Z @ 209 NONAME ; void TPositionModuleInfo::SetPositionQuality(class TPositionQuality const &)
	?SetPowerConsumption@TPositionQuality@@QAEXW4TPowerConsumption@1@@Z @ 210 NONAME ; void TPositionQuality::SetPowerConsumption(enum TPositionQuality::TPowerConsumption)
	?SetRequestedEvents@TPositionModuleStatusEventBase@@QAEXK@Z @ 211 NONAME ; void TPositionModuleStatusEventBase::SetRequestedEvents(unsigned long)
	?SetRequestedField@HPositionGenericInfo@@QAEHG@Z @ 212 NONAME ; int HPositionGenericInfo::SetRequestedField(unsigned short)
	?SetRequestedFields@HPositionGenericInfo@@QAEHQBG@Z @ 213 NONAME ; int HPositionGenericInfo::SetRequestedFields(unsigned short const * const)
	?SetRequestor@RPositioner@@QAEHABVRRequestorStack@@@Z @ 214 NONAME ; int RPositioner::SetRequestor(class RRequestorStack const &)
	?SetRequestor@RPositioner@@QAEHHHABVTDesC16@@@Z @ 215 NONAME ; int RPositioner::SetRequestor(int, int, class TDesC16 const &)
	?SetRequestorL@CRequestorBase@@QAEXHHABVTDesC16@@@Z @ 216 NONAME ; void CRequestorBase::SetRequestorL(int, int, class TDesC16 const &)
	?SetRequiredQuality@TPositionCriteriaBase@@QAEXABVTPositionQuality@@@Z @ 217 NONAME ; void TPositionCriteriaBase::SetRequiredQuality(class TPositionQuality const &)
	?SetSatelliteId@TSatelliteData@@QAEXH@Z @ 218 NONAME ; void TSatelliteData::SetSatelliteId(int)
	?SetSatelliteTime@TPositionSatelliteInfo@@QAEXVTTime@@@Z @ 219 NONAME ; void TPositionSatelliteInfo::SetSatelliteTime(class TTime)
	?SetSelectionOrder@TPositionCriteriaBase@@QAEXABVTPositionSelectionOrder@@@Z @ 220 NONAME ; void TPositionCriteriaBase::SetSelectionOrder(class TPositionSelectionOrder const &)
	?SetSignalStrength@TSatelliteData@@QAEXH@Z @ 221 NONAME ; void TSatelliteData::SetSignalStrength(int)
	?SetSpeed@TCourse@@QAEXM@Z @ 222 NONAME ; void TCourse::SetSpeed(float)
	?SetSpeedAccuracy@TCourse@@QAEXM@Z @ 223 NONAME ; void TCourse::SetSpeedAccuracy(float)
	?SetSystemModuleEvent@TPositionModuleStatusEventBase@@QAEXK@Z @ 224 NONAME ; void TPositionModuleStatusEventBase::SetSystemModuleEvent(unsigned long)
	?SetTechnologyType@TPositionModuleInfo@@QAEXK@Z @ 225 NONAME ; void TPositionModuleInfo::SetTechnologyType(unsigned long)
	?SetTime@TPosition@@QAEXVTTime@@@Z @ 226 NONAME ; void TPosition::SetTime(class TTime)
	?SetTimeDoP@TPositionSatelliteInfo@@QAEXM@Z @ 227 NONAME ; void TPositionSatelliteInfo::SetTimeDoP(float)
	?SetTimeToFirstFix@TPositionQuality@@QAEXVTTimeIntervalMicroSeconds@@@Z @ 228 NONAME ; void TPositionQuality::SetTimeToFirstFix(class TTimeIntervalMicroSeconds)
	?SetTimeToNextFix@TPositionQuality@@QAEXVTTimeIntervalMicroSeconds@@@Z @ 229 NONAME ; void TPositionQuality::SetTimeToNextFix(class TTimeIntervalMicroSeconds)
	?SetUpdateInterval@TPositionUpdateOptionsBase@@QAEXVTTimeIntervalMicroSeconds@@@Z @ 230 NONAME ; void TPositionUpdateOptionsBase::SetUpdateInterval(class TTimeIntervalMicroSeconds)
	?SetUpdateOptions@RPositioner@@QAEHABVTPositionUpdateOptionsBase@@@Z @ 231 NONAME ; int RPositioner::SetUpdateOptions(class TPositionUpdateOptionsBase const &)
	?SetUpdateTimeOut@TPositionUpdateOptionsBase@@QAEXVTTimeIntervalMicroSeconds@@@Z @ 232 NONAME ; void TPositionUpdateOptionsBase::SetUpdateTimeOut(class TTimeIntervalMicroSeconds)
	?SetUpdateType@TPositionInfoBase@@QAEXK@Z @ 233 NONAME ; void TPositionInfoBase::SetUpdateType(unsigned long)
	?SetValue@PositionFieldManager@@CAHGABNAAVHPositionGenericInfo@@@Z @ 234 NONAME ; int PositionFieldManager::SetValue(unsigned short, double const &, class HPositionGenericInfo &)
	?SetValue@PositionFieldManager@@CAHGABVTDesC16@@AAVHPositionGenericInfo@@@Z @ 235 NONAME ; int PositionFieldManager::SetValue(unsigned short, class TDesC16 const &, class HPositionGenericInfo &)
	?SetValue@PositionFieldManager@@CAHGABVTDesC8@@AAVHPositionGenericInfo@@@Z @ 236 NONAME ; int PositionFieldManager::SetValue(unsigned short, class TDesC8 const &, class HPositionGenericInfo &)
	?SetValue@PositionFieldManager@@CAHGABVTTime@@AAVHPositionGenericInfo@@@Z @ 237 NONAME ; int PositionFieldManager::SetValue(unsigned short, class TTime const &, class HPositionGenericInfo &)
	?SetValue@PositionFieldManager@@CAHGABVTTimeIntervalMicroSeconds@@AAVHPositionGenericInfo@@@Z @ 238 NONAME ; int PositionFieldManager::SetValue(unsigned short, class TTimeIntervalMicroSeconds const &, class HPositionGenericInfo &)
	?SetValue@PositionFieldManager@@CAHGAB_JAAVHPositionGenericInfo@@@Z @ 239 NONAME ; int PositionFieldManager::SetValue(unsigned short, long long const &, class HPositionGenericInfo &)
	?SetValue@PositionFieldManager@@CAHGCAAVHPositionGenericInfo@@@Z @ 240 NONAME ; int PositionFieldManager::SetValue(unsigned short, signed char, class HPositionGenericInfo &)
	?SetValue@PositionFieldManager@@CAHGEAAVHPositionGenericInfo@@@Z @ 241 NONAME ; int PositionFieldManager::SetValue(unsigned short, unsigned char, class HPositionGenericInfo &)
	?SetValue@PositionFieldManager@@CAHGFAAVHPositionGenericInfo@@@Z @ 242 NONAME ; int PositionFieldManager::SetValue(unsigned short, short, class HPositionGenericInfo &)
	?SetValue@PositionFieldManager@@CAHGGAAVHPositionGenericInfo@@@Z @ 243 NONAME ; int PositionFieldManager::SetValue(unsigned short, unsigned short, class HPositionGenericInfo &)
	?SetValue@PositionFieldManager@@CAHGJAAVHPositionGenericInfo@@@Z @ 244 NONAME ; int PositionFieldManager::SetValue(unsigned short, long, class HPositionGenericInfo &)
	?SetValue@PositionFieldManager@@CAHGKAAVHPositionGenericInfo@@@Z @ 245 NONAME ; int PositionFieldManager::SetValue(unsigned short, unsigned long, class HPositionGenericInfo &)
	?SetValue@PositionFieldManager@@CAHGMAAVHPositionGenericInfo@@@Z @ 246 NONAME ; int PositionFieldManager::SetValue(unsigned short, float, class HPositionGenericInfo &)
	?SetVersion@TPositionModuleInfo@@QAEXVTVersion@@@Z @ 247 NONAME ; void TPositionModuleInfo::SetVersion(class TVersion)
	?SetVerticalAccuracy@TLocality@@QAEXM@Z @ 248 NONAME ; void TLocality::SetVerticalAccuracy(float)
	?SetVerticalAccuracy@TPositionQuality@@QAEXM@Z @ 249 NONAME ; void TPositionQuality::SetVerticalAccuracy(float)
	?SetVerticalDoP@TPositionSatelliteInfo@@QAEXM@Z @ 250 NONAME ; void TPositionSatelliteInfo::SetVerticalDoP(float)
	?SignalStrength@TSatelliteData@@QBEHXZ @ 251 NONAME ; int TSatelliteData::SignalStrength(void) const
	?Speed@TCourse@@QBEMXZ @ 252 NONAME ; float TCourse::Speed(void) const
	?Speed@TPosition@@QBEHABV1@AAM1@Z @ 253 NONAME ; int TPosition::Speed(class TPosition const &, float &, float &) const
	?Speed@TPosition@@QBEHABV1@AAM@Z @ 254 NONAME ; int TPosition::Speed(class TPosition const &, float &) const
	?SpeedAccuracy@TCourse@@QBEMXZ @ 255 NONAME ; float TCourse::SpeedAccuracy(void) const
	?SystemModuleEvent@TPositionModuleStatusEventBase@@QBEKXZ @ 256 NONAME ; unsigned long TPositionModuleStatusEventBase::SystemModuleEvent(void) const
	?TechnologyType@TPositionModuleInfo@@QBEKXZ @ 257 NONAME ; unsigned long TPositionModuleInfo::TechnologyType(void) const
	?Time@TPosition@@QBE?AVTTime@@XZ @ 258 NONAME ; class TTime TPosition::Time(void) const
	?TimeDoP@TPositionSatelliteInfo@@QBEMXZ @ 259 NONAME ; float TPositionSatelliteInfo::TimeDoP(void) const
	?TimeToFirstFix@TPositionQuality@@QBE?AVTTimeIntervalMicroSeconds@@XZ @ 260 NONAME ; class TTimeIntervalMicroSeconds TPositionQuality::TimeToFirstFix(void) const
	?TimeToNextFix@TPositionQuality@@QBE?AVTTimeIntervalMicroSeconds@@XZ @ 261 NONAME ; class TTimeIntervalMicroSeconds TPositionQuality::TimeToNextFix(void) const
	?UpdateInterval@TPositionUpdateOptionsBase@@QBE?AVTTimeIntervalMicroSeconds@@XZ @ 262 NONAME ; class TTimeIntervalMicroSeconds TPositionUpdateOptionsBase::UpdateInterval(void) const
	?UpdateTimeOut@TPositionUpdateOptionsBase@@QBE?AVTTimeIntervalMicroSeconds@@XZ @ 263 NONAME ; class TTimeIntervalMicroSeconds TPositionUpdateOptionsBase::UpdateTimeOut(void) const
	?UpdateType@TPositionInfoBase@@QBEKXZ @ 264 NONAME ; unsigned long TPositionInfoBase::UpdateType(void) const
	?Version@RPositionServer@@QBE?AVTVersion@@XZ @ 265 NONAME ; class TVersion RPositionServer::Version(void) const
	?Version@TPositionModuleInfo@@QBE?AVTVersion@@XZ @ 266 NONAME ; class TVersion TPositionModuleInfo::Version(void) const
	?VerticalAccuracy@TLocality@@QBEMXZ @ 267 NONAME ; float TLocality::VerticalAccuracy(void) const
	?VerticalAccuracy@TPositionQuality@@QBEMXZ @ 268 NONAME ; float TPositionQuality::VerticalAccuracy(void) const
	?VerticalDoP@TPositionSatelliteInfo@@QBEMXZ @ 269 NONAME ; float TPositionSatelliteInfo::VerticalDoP(void) const
	?Course@TCourse@@QBEMXZ @ 270 NONAME ; float TCourse::Course(void) const
	?CourseAccuracy@TCourse@@QBEMXZ @ 271 NONAME ; float TCourse::CourseAccuracy(void) const
	?SetCourse@TCourse@@QAEXM@Z @ 272 NONAME ; void TCourse::SetCourse(float)
	?SetCourseAccuracy@TCourse@@QAEXM@Z @ 273 NONAME ; void TCourse::SetCourseAccuracy(float)
	?PositionMode@TPositionInfoBase@@QBEKXZ @ 274 NONAME ; unsigned long TPositionInfoBase::PositionMode(void) const
	?PositionModeReason@TPositionInfoBase@@QBEKXZ @ 275 NONAME ; unsigned long TPositionInfoBase::PositionModeReason(void) const
	?SetPositionMode@TPositionInfoBase@@QAEXK@Z @ 276 NONAME ; void TPositionInfoBase::SetPositionMode(unsigned long)
	?SetPositionModeReason@TPositionInfoBase@@QAEXK@Z @ 277 NONAME ; void TPositionInfoBase::SetPositionModeReason(unsigned long)
	?CompleteRequest@RPositionerSubSessionBase@@QAEHH@Z @ 278 NONAME ; int RPositionerSubSessionBase::CompleteRequest(int)
	??0TPositionGpsMeasurementData@@QAE@XZ @ 279 NONAME ; TPositionGpsMeasurementData::TPositionGpsMeasurementData(void)
	??0TPositionGpsMeasurementInfo@@QAE@XZ @ 280 NONAME ; TPositionGpsMeasurementInfo::TPositionGpsMeasurementInfo(void)
	?AppendMeasurementData@TPositionGpsMeasurementInfo@@QAEHABVTPositionGpsMeasurementData@@@Z @ 281 NONAME ; int TPositionGpsMeasurementInfo::AppendMeasurementData(class TPositionGpsMeasurementData const &)
	?CarrierNoiseRatio@TPositionGpsMeasurementData@@QBEHXZ @ 282 NONAME ; int TPositionGpsMeasurementData::CarrierNoiseRatio(void) const
	?ClearMeasurementData@TPositionGpsMeasurementInfo@@QAEXXZ @ 283 NONAME ; void TPositionGpsMeasurementInfo::ClearMeasurementData(void)
	?Doppler@TPositionGpsMeasurementData@@QBEHXZ @ 284 NONAME ; int TPositionGpsMeasurementData::Doppler(void) const
	?FractionalGpsChips@TPositionGpsMeasurementData@@QBEHXZ @ 285 NONAME ; int TPositionGpsMeasurementData::FractionalGpsChips(void) const
	?GetMeasurementData@TPositionGpsMeasurementInfo@@QBEHIAAVTPositionGpsMeasurementData@@@Z @ 286 NONAME ; int TPositionGpsMeasurementInfo::GetMeasurementData(unsigned int, class TPositionGpsMeasurementData &) const
	?GpsTimeOfWeek@TPositionGpsMeasurementInfo@@QBEHXZ @ 287 NONAME ; int TPositionGpsMeasurementInfo::GpsTimeOfWeek(void) const
	?MultiPathIndicator@TPositionGpsMeasurementData@@QBE?AW4TMultiPathIndicator@1@XZ @ 288 NONAME ; enum TPositionGpsMeasurementData::TMultiPathIndicator TPositionGpsMeasurementData::MultiPathIndicator(void) const
	?NumMeasurements@TPositionGpsMeasurementInfo@@QBEHXZ @ 289 NONAME ; int TPositionGpsMeasurementInfo::NumMeasurements(void) const
	?PseudoRangeRmsError@TPositionGpsMeasurementData@@QBEIXZ @ 290 NONAME ; unsigned int TPositionGpsMeasurementData::PseudoRangeRmsError(void) const
	?SatelliteId@TPositionGpsMeasurementData@@QBEHXZ @ 291 NONAME ; int TPositionGpsMeasurementData::SatelliteId(void) const
	?SetCarrierNoiseRatio@TPositionGpsMeasurementData@@QAEXH@Z @ 292 NONAME ; void TPositionGpsMeasurementData::SetCarrierNoiseRatio(int)
	?SetDoppler@TPositionGpsMeasurementData@@QAEXH@Z @ 293 NONAME ; void TPositionGpsMeasurementData::SetDoppler(int)
	?SetFractionalGpsChips@TPositionGpsMeasurementData@@QAEXH@Z @ 294 NONAME ; void TPositionGpsMeasurementData::SetFractionalGpsChips(int)
	?SetGpsTimeOfWeek@TPositionGpsMeasurementInfo@@QAEXH@Z @ 295 NONAME ; void TPositionGpsMeasurementInfo::SetGpsTimeOfWeek(int)
	?SetMultiPathIndicator@TPositionGpsMeasurementData@@QAEXW4TMultiPathIndicator@1@@Z @ 296 NONAME ; void TPositionGpsMeasurementData::SetMultiPathIndicator(enum TPositionGpsMeasurementData::TMultiPathIndicator)
	?SetPseudoRangeRmsError@TPositionGpsMeasurementData@@QAEXI@Z @ 297 NONAME ; void TPositionGpsMeasurementData::SetPseudoRangeRmsError(unsigned int)
	?SetSatelliteId@TPositionGpsMeasurementData@@QAEXH@Z @ 298 NONAME ; void TPositionGpsMeasurementData::SetSatelliteId(int)
	?SetWholeGpsChips@TPositionGpsMeasurementData@@QAEXH@Z @ 299 NONAME ; void TPositionGpsMeasurementData::SetWholeGpsChips(int)
	?WholeGpsChips@TPositionGpsMeasurementData@@QBEHXZ @ 300 NONAME ; int TPositionGpsMeasurementData::WholeGpsChips(void) const
	?GetLastKnownPositionArea@RPositioner@@QBEXAAVTPositionInfoBase@@AAVTPositionAreaInfoBase@@AAVTRequestStatus@@@Z @ 301 NONAME ; void RPositioner::GetLastKnownPositionArea(class TPositionInfoBase &, class TPositionAreaInfoBase &, class TRequestStatus &) const
	?SetLocationAreaCodeMatch@TPositionAreaExtendedInfo@@QAEXH@Z @ 302 NONAME ; void TPositionAreaExtendedInfo::SetLocationAreaCodeMatch(int)
	??0TPositionAreaInfoBase@@IAE@XZ @ 303 NONAME ; TPositionAreaInfoBase::TPositionAreaInfoBase(void)
	?SetMobileNetworkCodeMatch@TPositionAreaExtendedInfo@@QAEXH@Z @ 304 NONAME ; void TPositionAreaExtendedInfo::SetMobileNetworkCodeMatch(int)
	?CellIdMatch@TPositionAreaExtendedInfo@@QBEHXZ @ 305 NONAME ; int TPositionAreaExtendedInfo::CellIdMatch(void) const
	?LocationAreaCodeMatch@TPositionAreaExtendedInfo@@QBEHXZ @ 306 NONAME ; int TPositionAreaExtendedInfo::LocationAreaCodeMatch(void) const
	??0TPositionAreaInfo@@QAE@K@Z @ 307 NONAME ; TPositionAreaInfo::TPositionAreaInfo(unsigned long)
	?SetCellIdMatch@TPositionAreaExtendedInfo@@QAEXH@Z @ 308 NONAME ; void TPositionAreaExtendedInfo::SetCellIdMatch(int)
	?MobileNetworkCodeMatch@TPositionAreaExtendedInfo@@QBEHXZ @ 309 NONAME ; int TPositionAreaExtendedInfo::MobileNetworkCodeMatch(void) const
	?EmptyLastKnownPositionStore@RPositionServer@@QAEXAAVTRequestStatus@@@Z @ 310 NONAME ; void RPositionServer::EmptyLastKnownPositionStore(class TRequestStatus &)
	??0TPositionAreaExtendedInfo@@QAE@XZ @ 311 NONAME ; TPositionAreaExtendedInfo::TPositionAreaExtendedInfo(void)
	?SetArea@TPositionAreaInfo@@QAEXK@Z @ 312 NONAME ; void TPositionAreaInfo::SetArea(unsigned long)
	??0TPositionAreaInfo@@QAE@XZ @ 313 NONAME ; TPositionAreaInfo::TPositionAreaInfo(void)
	?Area@TPositionAreaInfo@@QBEKXZ @ 314 NONAME ; unsigned long TPositionAreaInfo::Area(void) const
	?MobileCountryCodeMatch@TPositionAreaExtendedInfo@@QBEHXZ @ 315 NONAME ; int TPositionAreaExtendedInfo::MobileCountryCodeMatch(void) const
	?SetMobileCountryCodeMatch@TPositionAreaExtendedInfo@@QAEXH@Z @ 316 NONAME ; void TPositionAreaExtendedInfo::SetMobileCountryCodeMatch(int)
	?RmsValOfStanDeviOfRange@TDetailedErrorReport@@QBEMXZ @ 317 NONAME ; float TDetailedErrorReport::RmsValOfStanDeviOfRange(void) const
	??0TDetailedErrorReport@@QAE@XZ @ 318 NONAME ; TDetailedErrorReport::TDetailedErrorReport(void)
	?GetDetailedErrorReport@TPositionExtendedSatelliteInfo@@QBEXAAVTDetailedErrorReport@@@Z @ 319 NONAME ; void TPositionExtendedSatelliteInfo::GetDetailedErrorReport(class TDetailedErrorReport &) const
	?SetDeltaTow@TGpsTimingMeasurementData@@QAEXH@Z @ 320 NONAME ; void TGpsTimingMeasurementData::SetDeltaTow(int)
	?DeltaTow@TGpsTimingMeasurementData@@QBEHXZ @ 321 NONAME ; int TGpsTimingMeasurementData::DeltaTow(void) const
	?Sfn@TGpsTimingMeasurementData@@QBEHXZ @ 322 NONAME ; int TGpsTimingMeasurementData::Sfn(void) const
	?AltitudeMeanSeaLevel@TPositionExtendedSatelliteInfo@@QBEMXZ @ 323 NONAME ABSENT ; float TPositionExtendedSatelliteInfo::AltitudeMeanSeaLevel(void) const
	?SetReferenceFrameMsb@TGpsTimingMeasurementData@@QAEXH@Z @ 324 NONAME ; void TGpsTimingMeasurementData::SetReferenceFrameMsb(int)
	?ReferenceFrameMsb@TGpsTimingMeasurementData@@QBEHXZ @ 325 NONAME ; int TGpsTimingMeasurementData::ReferenceFrameMsb(void) const
	?SetGpsTowSubms@TGpsTimingMeasurementData@@QAEXH@Z @ 326 NONAME ; void TGpsTimingMeasurementData::SetGpsTowSubms(int)
	?StanDeviOfSemiMinorAxisError@TDetailedErrorReport@@QBEMXZ @ 327 NONAME ; float TDetailedErrorReport::StanDeviOfSemiMinorAxisError(void) const
	?GpsTowSubms@TGpsTimingMeasurementData@@QBEHXZ @ 328 NONAME ; int TGpsTimingMeasurementData::GpsTowSubms(void) const
	?StanDeviOfLongitudeError@TDetailedErrorReport@@QBENXZ @ 329 NONAME ; double TDetailedErrorReport::StanDeviOfLongitudeError(void) const
	?SetDetailedErrorReport@TPositionExtendedSatelliteInfo@@QAEXVTDetailedErrorReport@@@Z @ 330 NONAME ABSENT ; void TPositionExtendedSatelliteInfo::SetDetailedErrorReport(class TDetailedErrorReport)
	?SetStanDeviOfAltitudeError@TDetailedErrorReport@@QAEXM@Z @ 331 NONAME ; void TDetailedErrorReport::SetStanDeviOfAltitudeError(float)
	?SetStanDeviOfLatiitudeError@TDetailedErrorReport@@QAEXN@Z @ 332 NONAME ; void TDetailedErrorReport::SetStanDeviOfLatiitudeError(double)
	?MagneticVariation@TPositionExtendedSatelliteInfo@@QBEMXZ @ 333 NONAME ; float TPositionExtendedSatelliteInfo::MagneticVariation(void) const
	?VerticalSpeedAccuracy@TCourse@@QBEMXZ @ 334 NONAME ; float TCourse::VerticalSpeedAccuracy(void) const
	?StanDeviOfLatiitudeError@TDetailedErrorReport@@QBENXZ @ 335 NONAME ; double TDetailedErrorReport::StanDeviOfLatiitudeError(void) const
	?SetAltitudeMeanSeaLevel@TPositionExtendedSatelliteInfo@@QAEXM@Z @ 336 NONAME ABSENT ; void TPositionExtendedSatelliteInfo::SetAltitudeMeanSeaLevel(float)
	?SetGeoidalSeparation@TPositionExtendedSatelliteInfo@@QAEXM@Z @ 337 NONAME ; void TPositionExtendedSatelliteInfo::SetGeoidalSeparation(float)
	?SetRmsValOfStanDeviOfRange@TDetailedErrorReport@@QAEXM@Z @ 338 NONAME ; void TDetailedErrorReport::SetRmsValOfStanDeviOfRange(float)
	?SetReferenceIdentity@TGpsTimingMeasurementData@@QAEXH@Z @ 339 NONAME ; void TGpsTimingMeasurementData::SetReferenceIdentity(int)
	??0TPositionExtendedSatelliteInfo@@QAE@XZ @ 340 NONAME ; TPositionExtendedSatelliteInfo::TPositionExtendedSatelliteInfo(void)
	?SetGPSTimingOfCellLsPart@TGpsTimingMeasurementData@@QAEXI@Z @ 341 NONAME ; void TGpsTimingMeasurementData::SetGPSTimingOfCellLsPart(unsigned int)
	?GpsReferenceTimeUncertainty@TGpsTimingMeasurementData@@QBEHXZ @ 342 NONAME ; int TGpsTimingMeasurementData::GpsReferenceTimeUncertainty(void) const
	?GPSTimingOfCellMsPart@TGpsTimingMeasurementData@@QBEHXZ @ 343 NONAME ; int TGpsTimingMeasurementData::GPSTimingOfCellMsPart(void) const
	?StanDeviOfAltitudeError@TDetailedErrorReport@@QBEMXZ @ 344 NONAME ; float TDetailedErrorReport::StanDeviOfAltitudeError(void) const
	?SetStanDeviOfLongitudeError@TDetailedErrorReport@@QAEXN@Z @ 345 NONAME ; void TDetailedErrorReport::SetStanDeviOfLongitudeError(double)
	?SetSfn@TGpsTimingMeasurementData@@QAEXH@Z @ 346 NONAME ; void TGpsTimingMeasurementData::SetSfn(int)
	?SetVerticalSpeedAccuracy@TCourse@@QAEXM@Z @ 347 NONAME ; void TCourse::SetVerticalSpeedAccuracy(float)
	?SetGPSTimingOfCellMsPart@TGpsTimingMeasurementData@@QAEXH@Z @ 348 NONAME ; void TGpsTimingMeasurementData::SetGPSTimingOfCellMsPart(int)
	?CourseOverGroundMagnetic@TPositionExtendedSatelliteInfo@@QBEMXZ @ 349 NONAME ; float TPositionExtendedSatelliteInfo::CourseOverGroundMagnetic(void) const
	?SetVerticalSpeed@TCourse@@QAEXM@Z @ 350 NONAME ; void TCourse::SetVerticalSpeed(float)
	?SetDataType@TGpsTimingMeasurementData@@QAEXI@Z @ 351 NONAME ; void TGpsTimingMeasurementData::SetDataType(unsigned int)
	?SetStanDeviOfSemiMinorAxisError@TDetailedErrorReport@@QAEXM@Z @ 352 NONAME ; void TDetailedErrorReport::SetStanDeviOfSemiMinorAxisError(float)
	?GeoidalSeparation@TPositionExtendedSatelliteInfo@@QBEMXZ @ 353 NONAME ; float TPositionExtendedSatelliteInfo::GeoidalSeparation(void) const
	?StanDeviOfSemiMajorAxisError@TDetailedErrorReport@@QBEMXZ @ 354 NONAME ; float TDetailedErrorReport::StanDeviOfSemiMajorAxisError(void) const
	?DataType@TGpsTimingMeasurementData@@QBEIXZ @ 355 NONAME ; unsigned int TGpsTimingMeasurementData::DataType(void) const
	?GetGpsTimingData@TPositionExtendedSatelliteInfo@@QBEHAAVTGpsTimingMeasurementData@@@Z @ 356 NONAME ; int TPositionExtendedSatelliteInfo::GetGpsTimingData(class TGpsTimingMeasurementData &) const
	?VerticalSpeed@TCourse@@QBEMXZ @ 357 NONAME ; float TCourse::VerticalSpeed(void) const
	?SetMagneticVariation@TPositionExtendedSatelliteInfo@@QAEXM@Z @ 358 NONAME ; void TPositionExtendedSatelliteInfo::SetMagneticVariation(float)
	?SetGpsReferenceTimeUncertainty@TGpsTimingMeasurementData@@QAEXH@Z @ 359 NONAME ; void TGpsTimingMeasurementData::SetGpsReferenceTimeUncertainty(int)
	?OrientationOfSemiMajorAxisError@TDetailedErrorReport@@QBEMXZ @ 360 NONAME ; float TDetailedErrorReport::OrientationOfSemiMajorAxisError(void) const
	?NetworkMode@TGpsTimingMeasurementData@@QBEIXZ @ 361 NONAME ; unsigned int TGpsTimingMeasurementData::NetworkMode(void) const
	?GPSTimingOfCellLsPart@TGpsTimingMeasurementData@@QBEIXZ @ 362 NONAME ; unsigned int TGpsTimingMeasurementData::GPSTimingOfCellLsPart(void) const
	??0TGpsTimingMeasurementData@@QAE@XZ @ 363 NONAME ; TGpsTimingMeasurementData::TGpsTimingMeasurementData(void)
	?SetStanDeviOfSemiMajorAxisError@TDetailedErrorReport@@QAEXM@Z @ 364 NONAME ; void TDetailedErrorReport::SetStanDeviOfSemiMajorAxisError(float)
	?SetOrientationOfSemiMajorAxisError@TDetailedErrorReport@@QAEXM@Z @ 365 NONAME ; void TDetailedErrorReport::SetOrientationOfSemiMajorAxisError(float)
	?SetGpsTimingData@TPositionExtendedSatelliteInfo@@QAEXVTGpsTimingMeasurementData@@@Z @ 366 NONAME ABSENT ; void TPositionExtendedSatelliteInfo::SetGpsTimingData(class TGpsTimingMeasurementData)
	?SetCourseOverGroundMagnetic@TPositionExtendedSatelliteInfo@@QAEXM@Z @ 367 NONAME ; void TPositionExtendedSatelliteInfo::SetCourseOverGroundMagnetic(float)
	?ReferenceIdentity@TGpsTimingMeasurementData@@QBEHXZ @ 368 NONAME ; int TGpsTimingMeasurementData::ReferenceIdentity(void) const
	?SetNetworkMode@TGpsTimingMeasurementData@@QAEXI@Z @ 369 NONAME ; void TGpsTimingMeasurementData::SetNetworkMode(unsigned int)
	?GetGpsTimingData@TPositionGpsMeasurementInfo@@QBEHAAVTGpsTimingMeasurementData@@@Z @ 370 NONAME ; int TPositionGpsMeasurementInfo::GetGpsTimingData(class TGpsTimingMeasurementData &) const
	?SetGpsTimingData@TPositionGpsMeasurementInfo@@QAEXVTGpsTimingMeasurementData@@@Z @ 371 NONAME ABSENT ; void TPositionGpsMeasurementInfo::SetGpsTimingData(class TGpsTimingMeasurementData)
	?SetGpsTimingData@TPositionGpsMeasurementInfo@@QAEXAAVTGpsTimingMeasurementData@@@Z @ 372 NONAME ABSENT ; void TPositionGpsMeasurementInfo::SetGpsTimingData(class TGpsTimingMeasurementData &)
	?SetGpsTimingData@TPositionExtendedSatelliteInfo@@QAEXABVTGpsTimingMeasurementData@@@Z @ 373 NONAME ; void TPositionExtendedSatelliteInfo::SetGpsTimingData(class TGpsTimingMeasurementData const &)
	?SetDetailedErrorReport@TPositionExtendedSatelliteInfo@@QAEXABVTDetailedErrorReport@@@Z @ 374 NONAME ; void TPositionExtendedSatelliteInfo::SetDetailedErrorReport(class TDetailedErrorReport const &)
	?SetGpsTimingData@TPositionGpsMeasurementInfo@@QAEXABVTGpsTimingMeasurementData@@@Z @ 375 NONAME ; void TPositionGpsMeasurementInfo::SetGpsTimingData(class TGpsTimingMeasurementData const &)
	?PositionCalculationPossible@TPositionGpsMeasurementInfo@@QBEHXZ @ 376 NONAME ; int TPositionGpsMeasurementInfo::PositionCalculationPossible(void) const
	?SetPositionCalculationPossible@TPositionGpsMeasurementInfo@@QAEXH@Z @ 377 NONAME ; void TPositionGpsMeasurementInfo::SetPositionCalculationPossible(int)

