EXPORTS
	_ZN8LtkUtils13GetPubSubDataERi @ 1 NONAME ABSENT
	_ZN8LtkUtils15HexDumpToOutputERK6TDesC8R14RIoWriteHandle @ 2 NONAME
	_ZN8LtkUtils15HexDumpToOutputERK6TDesC8R14RIoWriteHandleRi @ 3 NONAME
	_ZN8LtkUtils15HexDumpToRDebugERK6TDesC8 @ 4 NONAME
	_ZN8LtkUtils15HexDumpToRDebugERK6TDesC8Ri @ 5 NONAME
	_ZN8LtkUtils17InjectRawKeyEventEiii @ 6 NONAME
	_ZN8LtkUtils21MakeHeapCellInvisibleEPv @ 7 NONAME
	_ZN8LtkUtils8HexDumpLERK6TDesC8 @ 8 NONAME
	_ZN8LtkUtils21GetFriendlyThreadNameE7RThreadR4TBufILi256EE @ 9 NONAME
	_ZN8LtkUtils22MakeThreadNameFriendlyER4TBufILi256EE @ 10 NONAME
	_ZN8LtkUtils8RawPrintERK6TDesC8 @ 11 NONAME
	_ZN8LtkUtils22GetFriendlyProcessNameERK8RProcessR6TDes16 @ 12 NONAME
	_ZN8LtkUtils23MakeProcessNameFriendlyER6TDes16 @ 13 NONAME
	_ZN8LtkUtils7HexLexLER6TLex16 @ 14 NONAME
	_ZN8LtkUtils11ReplaceTextER6TDes16RK7TDesC16S4_ @ 15 NONAME
	_ZN8LtkUtils10CIniReader10GetValuesLER13RPointerArrayINS_6CValueEE @ 16 NONAME
	_ZN8LtkUtils10CIniReader4NewLERK7TDesC16NS_13TErrorContextE @ 17 NONAME
	_ZN8LtkUtils10CIniReader9SetValueLERK7TDesC16S3_ @ 18 NONAME
	_ZN8LtkUtils10CIniReaderD0Ev @ 19 NONAME
	_ZN8LtkUtils10CIniReaderD1Ev @ 20 NONAME
	_ZN8LtkUtils10CIniReaderD2Ev @ 21 NONAME
	_ZN8LtkUtils12ReadIniFileLER13RIoReadHandleRNS_13MValueHandlerE @ 22 NONAME
	_ZN8LtkUtils12ReadIniFileLERK7TDesC16RNS_13MValueHandlerENS_13TErrorContextENS_19TFileNotFoundActionE @ 23 NONAME
	_ZN8LtkUtils13TErrorContext10LineNumberEv @ 24 NONAME
	_ZN8LtkUtils13TErrorContext8NextLineEv @ 25 NONAME
	_ZN8LtkUtils13TErrorContext8StringLCEv @ 26 NONAME
	_ZN8LtkUtils13TErrorContextC1ERK7TDesC16 @ 27 NONAME
	_ZN8LtkUtils13TErrorContextC1Ev @ 28 NONAME
	_ZN8LtkUtils13TErrorContextC2ERK7TDesC16 @ 29 NONAME
	_ZN8LtkUtils13TErrorContextC2Ev @ 30 NONAME
	_ZN8LtkUtils13WriteIniFileLERK7TDesC16RNS_10CIniReaderE @ 31 NONAME
	_ZN8LtkUtils6CValue4NewLERK7TDesC16S3_NS_13TErrorContextE @ 32 NONAME
	_ZN8LtkUtils6CValue4SetLERK7TDesC16NS_13TErrorContextE @ 33 NONAME
	_ZN8LtkUtils6CValue5NewLCERK7TDesC16S3_NS_13TErrorContextE @ 34 NONAME
	_ZN8LtkUtils6CValueD0Ev @ 35 NONAME
	_ZN8LtkUtils6CValueD1Ev @ 36 NONAME
	_ZN8LtkUtils6CValueD2Ev @ 37 NONAME
	_ZN8LtkUtils8CIniFile10GetSettingERK7TDesC16 @ 38 NONAME
	_ZN8LtkUtils8CIniFile4NewLERK7TDesC16S3_ @ 39 NONAME
	_ZN8LtkUtils8CIniFile4SetLERK7TDesC16S3_ @ 40 NONAME
	_ZN8LtkUtils8CIniFile4SetLERK7TDesC16i @ 41 NONAME
	_ZN8LtkUtils8CIniFile6GetIntERK7TDesC16 @ 42 NONAME
	_ZN8LtkUtils8CIniFile6WriteLEv @ 43 NONAME
	_ZN8LtkUtils8CIniFile7GetBoolERK7TDesC16 @ 44 NONAME
	_ZN8LtkUtils8CIniFile9GetStringERK7TDesC16 @ 45 NONAME
	_ZN8LtkUtils8CIniFileD0Ev @ 46 NONAME
	_ZN8LtkUtils8CIniFileD1Ev @ 47 NONAME
	_ZN8LtkUtils8CIniFileD2Ev @ 48 NONAME
	_ZN8LtkUtils8CSetting4NewLENS_12TSettingTypeERK7TDesC16S4_S4_S4_S4_NS_13TErrorContextE @ 49 NONAME
	_ZN8LtkUtils8CSetting4SetLERK7TDesC16NS_13TErrorContextE @ 50 NONAME
	_ZN8LtkUtils8CSetting4SetLEi @ 51 NONAME
	_ZN8LtkUtils8CSetting5NewLCENS_12TSettingTypeERK7TDesC16S4_S4_S4_S4_NS_13TErrorContextE @ 52 NONAME
	_ZN8LtkUtils8CSettingD0Ev @ 53 NONAME
	_ZN8LtkUtils8CSettingD1Ev @ 54 NONAME
	_ZN8LtkUtils8CSettingD2Ev @ 55 NONAME
	_ZNK8LtkUtils10CIniReader10GetValuesLER13RPointerArrayIKNS_6CValueEE @ 56 NONAME
	_ZNK8LtkUtils10CIniReader7GetIdsLER6RArrayIK7TPtrC16E @ 57 NONAME
	_ZNK8LtkUtils10CIniReader8GetValueERK7TDesC16 @ 58 NONAME
	_ZNK8LtkUtils6CValue10LineNumberEv @ 59 NONAME
	_ZNK8LtkUtils6CValue2IdEv @ 60 NONAME
	_ZNK8LtkUtils6CValue5AsIntERi @ 61 NONAME
	_ZNK8LtkUtils6CValue5ValueEv @ 62 NONAME
	_ZNK8LtkUtils6CValue6AsBoolERi @ 63 NONAME
	_ZNK8LtkUtils6CValue6AsIntLEv @ 64 NONAME
	_ZNK8LtkUtils6CValue7AsBoolLEv @ 65 NONAME
	_ZNK8LtkUtils8CSetting5AsIntERi @ 66 NONAME
	_ZNK8LtkUtils8CSetting5AsIntEv @ 67 NONAME
	_ZNK8LtkUtils8CSetting5IsSetEv @ 68 NONAME
	_ZNK8LtkUtils8CSetting6AsBoolERi @ 69 NONAME
	_ZNK8LtkUtils8CSetting6AsBoolEv @ 70 NONAME
	_ZTIN8LtkUtils10CIniReaderE @ 71 NONAME
	_ZTIN8LtkUtils6CValueE @ 72 NONAME
	_ZTIN8LtkUtils8CIniFileE @ 73 NONAME
	_ZTIN8LtkUtils8CSettingE @ 74 NONAME
	_ZTVN8LtkUtils10CIniReaderE @ 75 NONAME
	_ZTVN8LtkUtils6CValueE @ 76 NONAME
	_ZTVN8LtkUtils8CIniFileE @ 77 NONAME
	_ZTVN8LtkUtils8CSettingE @ 78 NONAME
	_ZN8LtkUtils8CSetting11DescriptionEv @ 79 NONAME
	_ZN8LtkUtils8CSetting4NameEv @ 80 NONAME
	_ZN8LtkUtils10CIniReader12RemoveValueLERK7TDesC16 @ 81 NONAME
	_ZN8LtkUtils8CSetting6ClearLEv @ 82 NONAME
	_ZN8LtkUtils9MatchifyLEP7HBufC16 @ 83 NONAME ABSENT
	_ZN8LtkUtils6HexLexER5TLex8Rj @ 84 NONAME
	_ZN8LtkUtils6HexLexER6TLex16Rj @ 85 NONAME
	_ZN8LtkUtils7HexLexLER5TLex8 @ 86 NONAME
	_ZN8LtkUtils8RLtkBuf810CreateMaxLEi @ 87 NONAME
	_ZN8LtkUtils8RLtkBuf811ReplaceAllLERK6TDesC8S3_ @ 88 NONAME
	_ZN8LtkUtils8RLtkBuf812ReserveExtraEi @ 89 NONAME
	_ZN8LtkUtils8RLtkBuf813AppendFormatLE11TRefByValueIK6TDesC8Ez @ 90 NONAME
	_ZN8LtkUtils8RLtkBuf813ReserveExtraLEi @ 91 NONAME
	_ZN8LtkUtils8RLtkBuf85CloseEv @ 92 NONAME
	_ZN8LtkUtils8RLtkBuf86AssignEP6HBufC8 @ 93 NONAME
	_ZN8LtkUtils8RLtkBuf86CreateEi @ 94 NONAME
	_ZN8LtkUtils8RLtkBuf86ToHBufEv @ 95 NONAME
	_ZN8LtkUtils8RLtkBuf87AppendLE5TChar @ 96 NONAME
	_ZN8LtkUtils8RLtkBuf87AppendLERK6TDesC8 @ 97 NONAME
	_ZN8LtkUtils8RLtkBuf87AppendLERK7TDesC16 @ 98 NONAME
	_ZN8LtkUtils8RLtkBuf87CreateLEi @ 99 NONAME
	_ZN8LtkUtils8RLtkBuf87ReAllocEi @ 100 NONAME
	_ZN8LtkUtils8RLtkBuf88CreateLCEi @ 101 NONAME
	_ZN8LtkUtils8RLtkBuf88ReAllocLEi @ 102 NONAME
	_ZN8LtkUtils8RLtkBuf88ReplaceLEiiRK6TDesC8 @ 103 NONAME
	_ZN8LtkUtils8RLtkBuf89CreateMaxEi @ 104 NONAME
	_ZN8LtkUtils8RLtkBuf8C1EP6HBufC8 @ 105 NONAME
	_ZN8LtkUtils8RLtkBuf8C1Ev @ 106 NONAME
	_ZN8LtkUtils8RLtkBuf8C2EP6HBufC8 @ 107 NONAME
	_ZN8LtkUtils8RLtkBuf8C2Ev @ 108 NONAME
	_ZN8LtkUtils9HasPrefixERK6TDesC8S2_ @ 109 NONAME
	_ZN8LtkUtils9HasPrefixERK7TDesC16S2_ @ 110 NONAME
	_ZN8LtkUtils9RLtkBuf1610CreateMaxLEi @ 111 NONAME
	_ZN8LtkUtils9RLtkBuf1611ReplaceAllLERK7TDesC16S3_ @ 112 NONAME
	_ZN8LtkUtils9RLtkBuf1612ReserveExtraEi @ 113 NONAME
	_ZN8LtkUtils9RLtkBuf1613AppendFormatLE11TRefByValueIK7TDesC16Ez @ 114 NONAME
	_ZN8LtkUtils9RLtkBuf1613ReserveExtraLEi @ 115 NONAME
	_ZN8LtkUtils9RLtkBuf165CloseEv @ 116 NONAME
	_ZN8LtkUtils9RLtkBuf166AssignEP7HBufC16 @ 117 NONAME
	_ZN8LtkUtils9RLtkBuf166CreateEi @ 118 NONAME
	_ZN8LtkUtils9RLtkBuf166ToHBufEv @ 119 NONAME
	_ZN8LtkUtils9RLtkBuf167AppendLE5TChar @ 120 NONAME
	_ZN8LtkUtils9RLtkBuf167AppendLERK6TDesC8 @ 121 NONAME
	_ZN8LtkUtils9RLtkBuf167AppendLERK7TDesC16 @ 122 NONAME
	_ZN8LtkUtils9RLtkBuf167CreateLEi @ 123 NONAME
	_ZN8LtkUtils9RLtkBuf167ReAllocEi @ 124 NONAME
	_ZN8LtkUtils9RLtkBuf168CreateLCEi @ 125 NONAME
	_ZN8LtkUtils9RLtkBuf168ReAllocLEi @ 126 NONAME
	_ZN8LtkUtils9RLtkBuf168ReplaceLEiiRK7TDesC16 @ 127 NONAME
	_ZN8LtkUtils9RLtkBuf169CreateMaxEi @ 128 NONAME
	_ZN8LtkUtils9RLtkBuf16C1EP7HBufC16 @ 129 NONAME
	_ZN8LtkUtils9RLtkBuf16C1Ev @ 130 NONAME
	_ZN8LtkUtils9RLtkBuf16C2EP7HBufC16 @ 131 NONAME
	_ZN8LtkUtils9RLtkBuf16C2Ev @ 132 NONAME
	_ZNK8LtkUtils8RLtkBuf87GetHBufEv @ 133 NONAME
	_ZNK8LtkUtils9RLtkBuf167GetHBufEv @ 134 NONAME
	_ZN8LtkUtils11GetHalInfoLER13RPointerArrayINS_13CHalAttributeEE @ 135 NONAME
	_ZN8LtkUtils11GetHalInfoLEi @ 136 NONAME
	_ZN8LtkUtils11GetHalInfoLEii @ 137 NONAME
	_ZN8LtkUtils13CHalAttributeD0Ev @ 138 NONAME
	_ZN8LtkUtils13CHalAttributeD1Ev @ 139 NONAME
	_ZN8LtkUtils13CHalAttributeD2Ev @ 140 NONAME
	_ZN8LtkUtils19GetHalInfoForValueLEiii @ 141 NONAME
	_ZN8LtkUtils5Utf8LERK7TDesC16 @ 142 NONAME
	_ZN8LtkUtils8RLtkBuf811CopyAsUtf8LERK7TDesC16 @ 143 NONAME
	_ZN8LtkUtils11DecodeUtf8LERK6TDesC8 @ 144 NONAME
	_ZN8LtkUtils9RLtkBuf1611AppendUtf8LERK6TDesC8 @ 145 NONAME
	_ZN8LtkUtils9RLtkBuf1611AppendUtf8LERK6TDesC8Ri @ 146 NONAME
	_ZN8LtkUtils9RLtkBuf1612FinalizeUtf8ERi @ 147 NONAME
	_ZN8LtkUtils9RLtkBuf1612FinalizeUtf8Ev @ 148 NONAME
	_ZN8LtkUtils9RLtkBuf1613CopyFromUtf8LERK6TDesC8 @ 149 NONAME
	_ZN8LtkUtils16RAllocatorHelper13AllocatedSizeEv @ 150 NONAME
	_ZN8LtkUtils16RAllocatorHelper13CommittedSizeEv @ 151 NONAME
	_ZN8LtkUtils16RAllocatorHelper18CommittedFreeSpaceEv @ 152 NONAME
	_ZN8LtkUtils16RAllocatorHelper14RefreshDetailsEv @ 153 NONAME
	_ZN8LtkUtils16RAllocatorHelper15AllocationCountEv @ 154 NONAME
	_ZN8LtkUtils16RAllocatorHelper16CountUnusedPagesEv @ 155 NONAME
	_ZN8LtkUtils16RAllocatorHelper16MaxCommittedSizeEv @ 156 NONAME
	_ZN8LtkUtils16RAllocatorHelper19SetCellNestingLevelEPvi @ 157 NONAME
	_ZN8LtkUtils16RAllocatorHelper4OpenEP10RAllocator @ 158 NONAME
	_ZN8LtkUtils16RAllocatorHelper4WalkEPFiPvNS0_9TCellTypeEmiES1_ @ 159 NONAME
	_ZN8LtkUtils16RAllocatorHelper5CloseEv @ 160 NONAME
	_ZN8LtkUtils16RAllocatorHelperC1Ev @ 161 NONAME
	_ZN8LtkUtils16RAllocatorHelperC2Ev @ 162 NONAME
	_ZN8LtkUtils21RProxyAllocatorHelper13OpenChunkHeapER13RMemoryAccessPv @ 163 NONAME
	_ZN8LtkUtils21RProxyAllocatorHelper4OpenER13RMemoryAccessj @ 164 NONAME
	_ZN8LtkUtils21RProxyAllocatorHelperC1Ev @ 165 NONAME
	_ZN8LtkUtils21RProxyAllocatorHelperC2Ev @ 166 NONAME
	_ZNK8LtkUtils16RAllocatorHelper17AllocCountForCellEPv @ 167 NONAME
	_ZTIN8LtkUtils16RAllocatorHelperE @ 168 NONAME
	_ZTIN8LtkUtils21RProxyAllocatorHelperE @ 169 NONAME
	_ZTVN8LtkUtils16RAllocatorHelperE @ 170 NONAME
	_ZTVN8LtkUtils21RProxyAllocatorHelperE @ 171 NONAME
	_ZN8LtkUtils16RAllocatorHelper16MinCommittedSizeEv @ 172 NONAME
	_ZNK8LtkUtils16RAllocatorHelper16AllocatorAddressEv @ 173 NONAME
	_ZN8LtkUtils16RAllocatorHelper19GetCellNestingLevelEPvRi @ 174 NONAME
	_ZN8LtkUtils16RAllocatorHelper4WalkEPFiRS0_PvNS0_9TCellTypeEmiES2_ @ 175 NONAME
	_ZN8LtkUtils16RAllocatorHelper4WalkEPFiRS0_PvNS0_17TExtendedCellTypeEmiES2_ @ 176 NONAME
	_ZN8LtkUtils16RAllocatorHelper15SizeForCellTypeENS0_17TExtendedCellTypeE @ 177 NONAME
	_ZN8LtkUtils16RAllocatorHelper16CountForCellTypeENS0_17TExtendedCellTypeE @ 178 NONAME
	_ZN8LtkUtils21RProxyAllocatorHelper5CloseEv @ 179 NONAME
	_ZNK8LtkUtils16RAllocatorHelper15AllocatorIsUdebEv @ 180 NONAME
	_ZN8LtkUtils10FormatSizeER5TDes8x @ 181 NONAME
	_ZN8LtkUtils10FormatSizeER6TDes16x @ 182 NONAME
	_ZNK8LtkUtils16RAllocatorHelper11DescriptionEv @ 183 NONAME
	_ZN8LtkUtils14GetSystemDriveEv @ 184 NONAME

