EXPORTS
	_ZN8LtkUtils21MakeHeapCellInvisibleEPv @ 1 NONAME
	_ZN8LtkUtils17InjectRawKeyEventEiii @ 2 NONAME
	_ZN8LtkUtils15HexDumpToOutputERK6TDesC8R14RIoWriteHandle @ 3 NONAME
	_ZN8LtkUtils8HexDumpLERK6TDesC8 @ 4 NONAME
	_ZN8LtkUtils15HexDumpToOutputERK6TDesC8R14RIoWriteHandleRi @ 5 NONAME
	_ZN8LtkUtils9W32CrackLEv @ 6 NONAME
	_ZN8LtkUtils13GetPubSubDataERi @ 7 NONAME ABSENT
	_ZN8LtkUtils15HexDumpToRDebugERK6TDesC8 @ 8 NONAME
	_ZN8LtkUtils15HexDumpToRDebugERK6TDesC8Ri @ 9 NONAME
	_ZN8LtkUtils4RezLERK7TDesC16P3RFsPP7HBufC16 @ 10 NONAME
	_ZN8LtkUtils5Rez8LERK7TDesC16P3RFsPP7HBufC16 @ 11 NONAME
	_ZN8LtkUtils5RezLCERK7TDesC16P3RFsPP7HBufC16 @ 12 NONAME
	_ZN8LtkUtils6Rez8LCERK7TDesC16P3RFsPP7HBufC16 @ 13 NONAME
	_ZN8LtkUtils21GetFriendlyThreadNameE7RThreadR4TBufILi256EE @ 14 NONAME
	_ZN8LtkUtils22MakeThreadNameFriendlyER4TBufILi256EE @ 15 NONAME
	_ZN8LtkUtils16CopyToClipboardLERK7TDesC16P3RFs @ 16 NONAME
	_ZN8LtkUtils17GetFromClipboardLEP3RFs @ 17 NONAME
	_ZN8LtkUtils8RawPrintERK6TDesC8 @ 18 NONAME
	_ZN8LtkUtils22GetFriendlyProcessNameERK8RProcessR6TDes16 @ 19 NONAME
	_ZN8LtkUtils23MakeProcessNameFriendlyER6TDes16 @ 20 NONAME
	_ZN8LtkUtils17W32CrackIsEnabledEv @ 21 NONAME
	_ZN8LtkUtils7HexLexLER6TLex16 @ 22 NONAME
	_ZN8LtkUtils11ReplaceTextER6TDes16RK7TDesC16S4_ @ 23 NONAME
	_ZN8LtkUtils10CIniReader10GetValuesLER13RPointerArrayINS_6CValueEE @ 24 NONAME
	_ZN8LtkUtils10CIniReader4NewLERK7TDesC16NS_13TErrorContextE @ 25 NONAME
	_ZN8LtkUtils10CIniReader9SetValueLERK7TDesC16S3_ @ 26 NONAME
	_ZN8LtkUtils10CIniReaderD0Ev @ 27 NONAME
	_ZN8LtkUtils10CIniReaderD1Ev @ 28 NONAME
	_ZN8LtkUtils10CIniReaderD2Ev @ 29 NONAME
	_ZN8LtkUtils12ReadIniFileLER13RIoReadHandleRNS_13MValueHandlerE @ 30 NONAME
	_ZN8LtkUtils12ReadIniFileLERK7TDesC16RNS_13MValueHandlerENS_13TErrorContextENS_19TFileNotFoundActionE @ 31 NONAME
	_ZN8LtkUtils13TErrorContext10LineNumberEv @ 32 NONAME
	_ZN8LtkUtils13TErrorContext8NextLineEv @ 33 NONAME
	_ZN8LtkUtils13TErrorContext8StringLCEv @ 34 NONAME
	_ZN8LtkUtils13TErrorContextC1ERK7TDesC16 @ 35 NONAME
	_ZN8LtkUtils13TErrorContextC1Ev @ 36 NONAME
	_ZN8LtkUtils13TErrorContextC2ERK7TDesC16 @ 37 NONAME
	_ZN8LtkUtils13TErrorContextC2Ev @ 38 NONAME
	_ZN8LtkUtils13WriteIniFileLERK7TDesC16RNS_10CIniReaderE @ 39 NONAME
	_ZN8LtkUtils6CValue4NewLERK7TDesC16S3_NS_13TErrorContextE @ 40 NONAME
	_ZN8LtkUtils6CValue4SetLERK7TDesC16NS_13TErrorContextE @ 41 NONAME
	_ZN8LtkUtils6CValue5NewLCERK7TDesC16S3_NS_13TErrorContextE @ 42 NONAME
	_ZN8LtkUtils6CValueD0Ev @ 43 NONAME
	_ZN8LtkUtils6CValueD1Ev @ 44 NONAME
	_ZN8LtkUtils6CValueD2Ev @ 45 NONAME
	_ZN8LtkUtils8CIniFile10GetSettingERK7TDesC16 @ 46 NONAME
	_ZN8LtkUtils8CIniFile4NewLERK7TDesC16S3_ @ 47 NONAME
	_ZN8LtkUtils8CIniFile4SetLERK7TDesC16S3_ @ 48 NONAME
	_ZN8LtkUtils8CIniFile4SetLERK7TDesC16i @ 49 NONAME
	_ZN8LtkUtils8CIniFile6GetIntERK7TDesC16 @ 50 NONAME
	_ZN8LtkUtils8CIniFile6WriteLEv @ 51 NONAME
	_ZN8LtkUtils8CIniFile7GetBoolERK7TDesC16 @ 52 NONAME
	_ZN8LtkUtils8CIniFile9GetStringERK7TDesC16 @ 53 NONAME
	_ZN8LtkUtils8CIniFileD0Ev @ 54 NONAME
	_ZN8LtkUtils8CIniFileD1Ev @ 55 NONAME
	_ZN8LtkUtils8CIniFileD2Ev @ 56 NONAME
	_ZN8LtkUtils8CSetting4NewLENS_12TSettingTypeERK7TDesC16S4_S4_S4_S4_NS_13TErrorContextE @ 57 NONAME
	_ZN8LtkUtils8CSetting4SetLERK7TDesC16NS_13TErrorContextE @ 58 NONAME
	_ZN8LtkUtils8CSetting4SetLEi @ 59 NONAME
	_ZN8LtkUtils8CSetting5NewLCENS_12TSettingTypeERK7TDesC16S4_S4_S4_S4_NS_13TErrorContextE @ 60 NONAME
	_ZN8LtkUtils8CSettingD0Ev @ 61 NONAME
	_ZN8LtkUtils8CSettingD1Ev @ 62 NONAME
	_ZN8LtkUtils8CSettingD2Ev @ 63 NONAME
	_ZNK8LtkUtils10CIniReader10GetValuesLER13RPointerArrayIKNS_6CValueEE @ 64 NONAME
	_ZNK8LtkUtils10CIniReader7GetIdsLER6RArrayIK7TPtrC16E @ 65 NONAME
	_ZNK8LtkUtils10CIniReader8GetValueERK7TDesC16 @ 66 NONAME
	_ZNK8LtkUtils6CValue10LineNumberEv @ 67 NONAME
	_ZNK8LtkUtils6CValue2IdEv @ 68 NONAME
	_ZNK8LtkUtils6CValue5AsIntERi @ 69 NONAME
	_ZNK8LtkUtils6CValue5ValueEv @ 70 NONAME
	_ZNK8LtkUtils6CValue6AsBoolERi @ 71 NONAME
	_ZNK8LtkUtils6CValue6AsIntLEv @ 72 NONAME
	_ZNK8LtkUtils6CValue7AsBoolLEv @ 73 NONAME
	_ZNK8LtkUtils8CSetting5AsIntERi @ 74 NONAME
	_ZNK8LtkUtils8CSetting5AsIntEv @ 75 NONAME
	_ZNK8LtkUtils8CSetting5IsSetEv @ 76 NONAME
	_ZNK8LtkUtils8CSetting6AsBoolERi @ 77 NONAME
	_ZNK8LtkUtils8CSetting6AsBoolEv @ 78 NONAME
	_ZTIN8LtkUtils10CIniReaderE @ 79 NONAME
	_ZTIN8LtkUtils6CValueE @ 80 NONAME
	_ZTIN8LtkUtils8CIniFileE @ 81 NONAME
	_ZTIN8LtkUtils8CSettingE @ 82 NONAME
	_ZTVN8LtkUtils10CIniReaderE @ 83 NONAME
	_ZTVN8LtkUtils6CValueE @ 84 NONAME
	_ZTVN8LtkUtils8CIniFileE @ 85 NONAME
	_ZTVN8LtkUtils8CSettingE @ 86 NONAME
	_ZN8LtkUtils8CSetting11DescriptionEv @ 87 NONAME
	_ZN8LtkUtils8CSetting4NameEv @ 88 NONAME
	_ZN8LtkUtils10CIniReader12RemoveValueLERK7TDesC16 @ 89 NONAME
	_ZN8LtkUtils8CSetting6ClearLEv @ 90 NONAME
	_ZN8LtkUtils9MatchifyLEP7HBufC16 @ 91 NONAME ABSENT
	_ZN8LtkUtils9CBsymFile4NewLER3RFsRK7TDesC16 @ 92 NONAME
	_ZN8LtkUtils9CBsymFile7LookupLEm @ 93 NONAME
	_ZN8LtkUtils9CBsymFileD0Ev @ 94 NONAME
	_ZN8LtkUtils9CBsymFileD1Ev @ 95 NONAME
	_ZN8LtkUtils9CBsymFileD2Ev @ 96 NONAME
	_ZN8LtkUtils6HexLexER5TLex8Rj @ 97 NONAME
	_ZN8LtkUtils6HexLexER6TLex16Rj @ 98 NONAME
	_ZN8LtkUtils7HexLexLER5TLex8 @ 99 NONAME
	_ZN8LtkUtils9HasPrefixERK6TDesC8S2_ @ 100 NONAME
	_ZN8LtkUtils9HasPrefixERK7TDesC16S2_ @ 101 NONAME
	_ZN8LtkUtils8CMapFile4NewLER3RFsRK7TDesC16 @ 102 NONAME
	_ZN8LtkUtils8CMapFileD0Ev @ 103 NONAME
	_ZN8LtkUtils8CMapFileD1Ev @ 104 NONAME
	_ZN8LtkUtils8CMapFileD2Ev @ 105 NONAME
	_ZN8LtkUtils10CSymbolics11AddMapFileLERK7TDesC16 @ 106 NONAME
	_ZN8LtkUtils10CSymbolics12AddBsymFileLERK7TDesC16 @ 107 NONAME
	_ZN8LtkUtils10CSymbolics22SetFallbackMapFileDirLERK7TDesC16 @ 108 NONAME
	_ZN8LtkUtils10CSymbolics7LookupLERK7TDesC16m @ 109 NONAME
	_ZN8LtkUtils10CSymbolics7LookupLEm @ 110 NONAME
	_ZN8LtkUtils10CSymbolicsC2ER3RFs @ 111 NONAME
	_ZN8LtkUtils10CSymbolicsD0Ev @ 112 NONAME
	_ZN8LtkUtils10CSymbolicsD1Ev @ 113 NONAME
	_ZN8LtkUtils10CSymbolicsD2Ev @ 114 NONAME
	_ZN8LtkUtils8CMapFile6LookupEmR6TDes16 @ 115 NONAME
	_ZN8LtkUtils10CSymbolicsC1ER3RFs @ 116 NONAME
	_ZN8LtkUtils10CSymbolics11AddMapFileLEPNS_8CMapFileE @ 117 NONAME
	_ZNK8LtkUtils8CMapFile12GetFileNameLER6TDes16 @ 118 NONAME
	_ZN8LtkUtils10BreakpointEv @ 119 NONAME
	_ZN8LtkUtils14BreakpointAddrEv @ 120 NONAME
	_ZN8LtkUtils10CSymbolics28CodesegOffsetFromSymbolNameLERK7TDesC16S3_ @ 121 NONAME
	_ZN8LtkUtils10CSymbolics9CompleteLERK7TDesC16R6TDes16R12CDesC16Array @ 122 NONAME
	_ZN8LtkUtils8RLtkBuf810CreateMaxLEi @ 123 NONAME
	_ZN8LtkUtils8RLtkBuf811ReplaceAllLERK6TDesC8S3_ @ 124 NONAME
	_ZN8LtkUtils8RLtkBuf812ReserveExtraEi @ 125 NONAME
	_ZN8LtkUtils8RLtkBuf813AppendFormatLE11TRefByValueIK6TDesC8Ez @ 126 NONAME
	_ZN8LtkUtils8RLtkBuf813ReserveExtraLEi @ 127 NONAME
	_ZN8LtkUtils8RLtkBuf85CloseEv @ 128 NONAME
	_ZN8LtkUtils8RLtkBuf86AssignEP6HBufC8 @ 129 NONAME
	_ZN8LtkUtils8RLtkBuf86CreateEi @ 130 NONAME
	_ZN8LtkUtils8RLtkBuf86ToHBufEv @ 131 NONAME
	_ZN8LtkUtils8RLtkBuf87AppendLE5TChar @ 132 NONAME
	_ZN8LtkUtils8RLtkBuf87AppendLERK6TDesC8 @ 133 NONAME
	_ZN8LtkUtils8RLtkBuf87AppendLERK7TDesC16 @ 134 NONAME
	_ZN8LtkUtils8RLtkBuf87CreateLEi @ 135 NONAME
	_ZN8LtkUtils8RLtkBuf87ReAllocEi @ 136 NONAME
	_ZN8LtkUtils8RLtkBuf88CreateLCEi @ 137 NONAME
	_ZN8LtkUtils8RLtkBuf88ReAllocLEi @ 138 NONAME
	_ZN8LtkUtils8RLtkBuf88ReplaceLEiiRK6TDesC8 @ 139 NONAME
	_ZN8LtkUtils8RLtkBuf89CreateMaxEi @ 140 NONAME
	_ZN8LtkUtils8RLtkBuf8C1EP6HBufC8 @ 141 NONAME
	_ZN8LtkUtils8RLtkBuf8C1Ev @ 142 NONAME
	_ZN8LtkUtils8RLtkBuf8C2EP6HBufC8 @ 143 NONAME
	_ZN8LtkUtils8RLtkBuf8C2Ev @ 144 NONAME
	_ZN8LtkUtils9RLtkBuf1610CreateMaxLEi @ 145 NONAME
	_ZN8LtkUtils9RLtkBuf1611ReplaceAllLERK7TDesC16S3_ @ 146 NONAME
	_ZN8LtkUtils9RLtkBuf1612ReserveExtraEi @ 147 NONAME
	_ZN8LtkUtils9RLtkBuf1613AppendFormatLE11TRefByValueIK7TDesC16Ez @ 148 NONAME
	_ZN8LtkUtils9RLtkBuf1613ReserveExtraLEi @ 149 NONAME
	_ZN8LtkUtils9RLtkBuf165CloseEv @ 150 NONAME
	_ZN8LtkUtils9RLtkBuf166AssignEP7HBufC16 @ 151 NONAME
	_ZN8LtkUtils9RLtkBuf166CreateEi @ 152 NONAME
	_ZN8LtkUtils9RLtkBuf166ToHBufEv @ 153 NONAME
	_ZN8LtkUtils9RLtkBuf167AppendLE5TChar @ 154 NONAME
	_ZN8LtkUtils9RLtkBuf167AppendLERK6TDesC8 @ 155 NONAME
	_ZN8LtkUtils9RLtkBuf167AppendLERK7TDesC16 @ 156 NONAME
	_ZN8LtkUtils9RLtkBuf167CreateLEi @ 157 NONAME
	_ZN8LtkUtils9RLtkBuf167ReAllocEi @ 158 NONAME
	_ZN8LtkUtils9RLtkBuf168CreateLCEi @ 159 NONAME
	_ZN8LtkUtils9RLtkBuf168ReAllocLEi @ 160 NONAME
	_ZN8LtkUtils9RLtkBuf168ReplaceLEiiRK7TDesC16 @ 161 NONAME
	_ZN8LtkUtils9RLtkBuf169CreateMaxEi @ 162 NONAME
	_ZN8LtkUtils9RLtkBuf16C1EP7HBufC16 @ 163 NONAME
	_ZN8LtkUtils9RLtkBuf16C1Ev @ 164 NONAME
	_ZN8LtkUtils9RLtkBuf16C2EP7HBufC16 @ 165 NONAME
	_ZN8LtkUtils9RLtkBuf16C2Ev @ 166 NONAME
	_ZN8LtkUtils11GetHalInfoLER13RPointerArrayINS_13CHalAttributeEE @ 167 NONAME
	_ZN8LtkUtils11GetHalInfoLEi @ 168 NONAME
	_ZN8LtkUtils11GetHalInfoLEii @ 169 NONAME
	_ZN8LtkUtils13CHalAttributeD0Ev @ 170 NONAME
	_ZN8LtkUtils13CHalAttributeD1Ev @ 171 NONAME
	_ZN8LtkUtils13CHalAttributeD2Ev @ 172 NONAME
	_ZN8LtkUtils19GetHalInfoForValueLEiii @ 173 NONAME
	_ZNK8LtkUtils8RLtkBuf87GetHBufEv @ 174 NONAME
	_ZNK8LtkUtils9RLtkBuf167GetHBufEv @ 175 NONAME
	_ZN8LtkUtils5Utf8LERK7TDesC16 @ 176 NONAME
	_ZN8LtkUtils8RLtkBuf811CopyAsUtf8LERK7TDesC16 @ 177 NONAME
	_ZN8LtkUtils9CBsymFile7LookupLERK7TDesC16i @ 178 NONAME
	_ZN8LtkUtils9RLtkBuf1611AppendUtf8LERK6TDesC8 @ 179 NONAME
	_ZN8LtkUtils9RLtkBuf1611AppendUtf8LERK6TDesC8Ri @ 180 NONAME
	_ZN8LtkUtils9RLtkBuf1612FinalizeUtf8ERi @ 181 NONAME
	_ZN8LtkUtils9RLtkBuf1612FinalizeUtf8Ev @ 182 NONAME
	_ZN8LtkUtils9RLtkBuf1613CopyFromUtf8LERK6TDesC8 @ 183 NONAME
	_ZN8LtkUtils11DecodeUtf8LERK6TDesC8 @ 184 NONAME
	_ZN8LtkUtils16RAllocatorHelper13AllocatedSizeEv @ 185 NONAME
	_ZN8LtkUtils16RAllocatorHelper13CommittedSizeEv @ 186 NONAME
	_ZN8LtkUtils16RAllocatorHelper18CommittedFreeSpaceEv @ 187 NONAME
	_ZN8LtkUtils16RAllocatorHelper14RefreshDetailsEv @ 188 NONAME
	_ZN8LtkUtils16RAllocatorHelper15AllocationCountEv @ 189 NONAME
	_ZN8LtkUtils16RAllocatorHelper16CountUnusedPagesEv @ 190 NONAME
	_ZN8LtkUtils16RAllocatorHelper16MaxCommittedSizeEv @ 191 NONAME
	_ZN8LtkUtils16RAllocatorHelper19SetCellNestingLevelEPvi @ 192 NONAME
	_ZN8LtkUtils16RAllocatorHelper4OpenEP10RAllocator @ 193 NONAME
	_ZN8LtkUtils16RAllocatorHelper4WalkEPFiPvNS0_9TCellTypeEmiES1_ @ 194 NONAME
	_ZN8LtkUtils16RAllocatorHelper5CloseEv @ 195 NONAME
	_ZN8LtkUtils16RAllocatorHelperC1Ev @ 196 NONAME
	_ZN8LtkUtils16RAllocatorHelperC2Ev @ 197 NONAME
	_ZN8LtkUtils21RProxyAllocatorHelper13OpenChunkHeapER13RMemoryAccessPv @ 198 NONAME
	_ZN8LtkUtils21RProxyAllocatorHelper4OpenER13RMemoryAccessj @ 199 NONAME
	_ZN8LtkUtils21RProxyAllocatorHelperC1Ev @ 200 NONAME
	_ZN8LtkUtils21RProxyAllocatorHelperC2Ev @ 201 NONAME
	_ZNK8LtkUtils16RAllocatorHelper17AllocCountForCellEPv @ 202 NONAME
	_ZTIN8LtkUtils16RAllocatorHelperE @ 203 NONAME
	_ZTIN8LtkUtils21RProxyAllocatorHelperE @ 204 NONAME
	_ZTVN8LtkUtils16RAllocatorHelperE @ 205 NONAME
	_ZTVN8LtkUtils21RProxyAllocatorHelperE @ 206 NONAME
	_ZN8LtkUtils16RAllocatorHelper16MinCommittedSizeEv @ 207 NONAME
	_ZNK8LtkUtils16RAllocatorHelper16AllocatorAddressEv @ 208 NONAME
	_ZN8LtkUtils16RAllocatorHelper19GetCellNestingLevelEPvRi @ 209 NONAME
	_ZN8LtkUtils16RAllocatorHelper4WalkEPFiRS0_PvNS0_9TCellTypeEmiES2_ @ 210 NONAME
	_ZN8LtkUtils16RAllocatorHelper4WalkEPFiRS0_PvNS0_17TExtendedCellTypeEmiES2_ @ 211 NONAME
	_ZN8LtkUtils16RAllocatorHelper15SizeForCellTypeENS0_17TExtendedCellTypeE @ 212 NONAME
	_ZN8LtkUtils16RAllocatorHelper16CountForCellTypeENS0_17TExtendedCellTypeE @ 213 NONAME
	_ZN8LtkUtils21RProxyAllocatorHelper5CloseEv @ 214 NONAME
	_ZN8LtkUtils15BreakpointPushLEv @ 215 NONAME
	_ZNK8LtkUtils16RAllocatorHelper15AllocatorIsUdebEv @ 216 NONAME
	_ZN8LtkUtils10FormatSizeER5TDes8x @ 217 NONAME
	_ZN8LtkUtils10FormatSizeER6TDes16x @ 218 NONAME
	_ZNK8LtkUtils16RAllocatorHelper11DescriptionEv @ 219 NONAME
	_ZN8LtkUtils14GetSystemDriveEv @ 220 NONAME

