EXPORTS
	??0TTranpConfig@@QAE@XZ @ 1 NONAME ; TTranpConfig::TTranpConfig(void)
	??0TTranpPicture@@QAE@XZ @ 2 NONAME ; TTranpPicture::TTranpPicture(void)
	??1CTranpSession@@UAE@XZ @ 3 NONAME ; CTranpSession::~CTranpSession(void)
	??1TTranpConfig@@QAE@XZ @ 4 NONAME ; TTranpConfig::~TTranpConfig(void)
	??1TTranpPicture@@QAE@XZ @ 5 NONAME ; TTranpPicture::~TTranpPicture(void)
	?Abort@CTranpSession@@QAEXXZ @ 6 NONAME ; void CTranpSession::Abort(void)
	?Config@CTranpSession@@QAEXABVTTranpConfig@@@Z @ 7 NONAME ; void CTranpSession::Config(class TTranpConfig const &)
	?Config@CTranpSession@@QBE?AVTTranpConfig@@XZ @ 8 NONAME ; class TTranpConfig CTranpSession::Config(void) const
	?Connect@CTranpSession@@QAEXXZ @ 9 NONAME ; void CTranpSession::Connect(void)
	?Disconnect@CTranpSession@@QAEXXZ @ 10 NONAME ; void CTranpSession::Disconnect(void)
	?Filename@TTranpPicture@@QAEABVTDesC8@@XZ @ 11 NONAME ; class TDesC8 const & TTranpPicture::Filename(void)
	?Get@CTranpSession@@QAEXAAVTTranpPicture@@@Z @ 12 NONAME ; void CTranpSession::Get(class TTranpPicture &)
	?GetLatticeSize@TTranpPicture@@QAEXAAW4TLatticeSize@@AAH1@Z @ 13 NONAME ; void TTranpPicture::GetLatticeSize(enum TLatticeSize &, int &, int &)
	?GetThumbNail@TTranpPicture@@QAEPBVTDesC8@@XZ @ 14 NONAME ; class TDesC8 const * TTranpPicture::GetThumbNail(void)
	?LoadFromJpeg@TTranpPicture@@QAEHABV?$TBuf@$0BAA@@@@Z @ 15 NONAME ; int TTranpPicture::LoadFromJpeg(class TBuf<256> const &)
	?LoadFromUPF@TTranpPicture@@QAEHABV?$TBuf@$0BAA@@@@Z @ 16 NONAME ; int TTranpPicture::LoadFromUPF(class TBuf<256> const &)
	?LongFilename@TTranpPicture@@QAEABVTDesC8@@XZ @ 17 NONAME ; class TDesC8 const & TTranpPicture::LongFilename(void)
	?MTN_ExtensionInterfaceL@MTranpNotification@@UAEXVTUid@@AAPAX@Z @ 18 NONAME ; void MTranpNotification::MTN_ExtensionInterfaceL(class TUid, void * &)
	?NewL@CTranpSession@@SAPAV1@AAVMTranpNotification@@@Z @ 19 NONAME ; class CTranpSession * CTranpSession::NewL(class MTranpNotification &)
	?Picture@TTranpPicture@@QAEPBVTDesC8@@XZ @ 20 NONAME ; class TDesC8 const * TTranpPicture::Picture(void)
	?PrimaryMachine@TTranpConfig@@QAEABVTDesC8@@XZ @ 21 NONAME ; class TDesC8 const & TTranpConfig::PrimaryMachine(void)
	?Put@CTranpSession@@QAEXABVTTranpPicture@@@Z @ 22 NONAME ; void CTranpSession::Put(class TTranpPicture const &)
	?Query@CTranpSession@@QAEXW4TTranP@1@@Z @ 23 NONAME ; void CTranpSession::Query(enum CTranpSession::TTranP)
	?SaveAsJpeg@TTranpPicture@@QAEHABV?$TBuf@$0BAA@@@@Z @ 24 NONAME ; int TTranpPicture::SaveAsJpeg(class TBuf<256> const &)
	?SaveAsUPF@TTranpPicture@@QAEHABV?$TBuf@$0BAA@@@@Z @ 25 NONAME ; int TTranpPicture::SaveAsUPF(class TBuf<256> const &)
	?SecondaryMachine@TTranpConfig@@QAEABVTDesC8@@XZ @ 26 NONAME ; class TDesC8 const & TTranpConfig::SecondaryMachine(void)
	?SetDesiredLatticeSize@TTranpPicture@@QAEXW4TLatticeSize@@HH@Z @ 27 NONAME ; void TTranpPicture::SetDesiredLatticeSize(enum TLatticeSize, int, int)
	?SetFilename@TTranpPicture@@QAEXABVTDesC8@@@Z @ 28 NONAME ; void TTranpPicture::SetFilename(class TDesC8 const &)
	?SetLongFilename@TTranpPicture@@QAEXABVTDesC8@@@Z @ 29 NONAME ; void TTranpPicture::SetLongFilename(class TDesC8 const &)
	?SetPrimaryMachine@TTranpConfig@@QAEXABVTDesC8@@@Z @ 30 NONAME ; void TTranpConfig::SetPrimaryMachine(class TDesC8 const &)
	?SetSecondaryMachine@TTranpConfig@@QAEXABVTDesC8@@@Z @ 31 NONAME ; void TTranpConfig::SetSecondaryMachine(class TDesC8 const &)
	?SetTime@TTranpPicture@@QAEXABVTDesC8@@@Z @ 32 NONAME ; void TTranpPicture::SetTime(class TDesC8 const &)
	?Time@TTranpPicture@@QAEABVTDesC8@@XZ @ 33 NONAME ; class TDesC8 const & TTranpPicture::Time(void)

