EXPORTS
	?Bitmap@CTestBitmap@@QBEAAVCFbsBitmap@@XZ @ 1 ABSENT ; class CFbsBitmap & CTestBitmap::Bitmap(void) const
	?Device@CTestBitmap@@QBEAAVCFbsBitmapDevice@@XZ @ 2 ABSENT ; class CFbsBitmapDevice & CTestBitmap::Device(void) const
	?ExtractAspectRatio@TImportScreenConfig@@SAHABVTPtrC16@@AAVTSize@@@Z @ 3 NONAME ; int TImportScreenConfig::ExtractAspectRatio(class TPtrC16 const &, class TSize &)
	?ExtractNumber@TImportScreenConfig@@SAHABVTPtrC16@@AAH1@Z @ 4 NONAME ; int TImportScreenConfig::ExtractNumber(class TPtrC16 const &, int &, int &)
	?ExtractPoint@TImportScreenConfig@@SAHABVTPtrC16@@AAVTPoint@@@Z @ 5 NONAME ; int TImportScreenConfig::ExtractPoint(class TPtrC16 const &, class TPoint &)
	?ExtractRect@TImportScreenConfig@@SAHABVTPtrC16@@AAVTRect@@ABVTSize@@@Z @ 6 NONAME ; int TImportScreenConfig::ExtractRect(class TPtrC16 const &, class TRect &, class TSize const &)
	?ExtractSize@TImportScreenConfig@@SAHABVTPtrC16@@AAVTSize@@@Z @ 7 NONAME ; int TImportScreenConfig::ExtractSize(class TPtrC16 const &, class TSize &)
	?Gc@CTestBitmap@@QBEAAVCFbsBitGc@@XZ @ 8 ABSENT ; class CFbsBitGc & CTestBitmap::Gc(void) const
	?ImportPseudoAppConfigL@TImportPseudoAppConfig@@SAXHAAH0AAW4TDisplayMode@@AAVTSize@@PAVCIniData@@@Z @ 9 NONAME ; void TImportPseudoAppConfig::ImportPseudoAppConfigL(int, int &, int &, enum TDisplayMode &, class TSize &, class CIniData *)
	?NewL@CTestBitmap@@SAPAV1@ABVTSize@@W4TDisplayMode@@@Z @ 10 NONAME ; class CTestBitmap * CTestBitmap::NewL(class TSize const &, enum TDisplayMode)
	?NewL@CTestBitmap@@SAPAV1@H@Z @ 11 NONAME ; class CTestBitmap * CTestBitmap::NewL(int)
	?NewLC@CTestBitmap@@SAPAV1@ABVTSize@@W4TDisplayMode@@@Z @ 12 NONAME ; class CTestBitmap * CTestBitmap::NewLC(class TSize const &, enum TDisplayMode)
	?Numeral@TImportScreenConfig@@SAHHAAH@Z @ 13 NONAME ; int TImportScreenConfig::Numeral(int, int &)
	?ReadIni@TImportScreenConfig@@SAXABVTDesC16@@ABVTPtrC16@@11111AAHHHHHHPAVCIniData@@@Z @ 14 NONAME ; void TImportScreenConfig::ReadIni(class TDesC16 const &, class TPtrC16 const &, class TPtrC16 const &, class TPtrC16 const &, class TPtrC16 const &, class TPtrC16 const &, class TPtrC16 const &, int &, int, int, int, int, int, class CIniData *)
	?ReadIni@TImportScreenConfig@@SAXABVTDesC16@@ABVTPtrC16@@1111AAHHHHHPAVCIniData@@@Z @ 15 NONAME ; void TImportScreenConfig::ReadIni(class TDesC16 const &, class TPtrC16 const &, class TPtrC16 const &, class TPtrC16 const &, class TPtrC16 const &, class TPtrC16 const &, int &, int, int, int, int, class CIniData *)
	?ReadIni@TImportScreenConfig@@SAXABVTDesC16@@ABVTPtrC16@@111AAHHHHPAVCIniData@@@Z @ 16 NONAME ; void TImportScreenConfig::ReadIni(class TDesC16 const &, class TPtrC16 const &, class TPtrC16 const &, class TPtrC16 const &, class TPtrC16 const &, int &, int, int, int, class CIniData *)
	?ReadIni@TImportScreenConfig@@SAXABVTDesC16@@ABVTPtrC16@@11AAHHHPAVCIniData@@@Z @ 17 NONAME ; void TImportScreenConfig::ReadIni(class TDesC16 const &, class TPtrC16 const &, class TPtrC16 const &, class TPtrC16 const &, int &, int, int, class CIniData *)
	?ReadIni@TImportScreenConfig@@SAXABVTDesC16@@ABVTPtrC16@@AAHPAVCIniData@@@Z @ 18 NONAME ; void TImportScreenConfig::ReadIni(class TDesC16 const &, class TPtrC16 const &, int &, class CIniData *)
	?ReadIni@TImportScreenConfig@@SAXABVTDesC16@@ABVTPtrC16@@AAV3@PAVCIniData@@@Z @ 19 NONAME ; void TImportScreenConfig::ReadIni(class TDesC16 const &, class TPtrC16 const &, class TPtrC16 &, class CIniData *)
	?ReadIni@TImportScreenConfig@@SAXABVTPtrC16@@00000AAHHHHHHPAVCIniData@@@Z @ 20 NONAME ; void TImportScreenConfig::ReadIni(class TPtrC16 const &, class TPtrC16 const &, class TPtrC16 const &, class TPtrC16 const &, class TPtrC16 const &, class TPtrC16 const &, int &, int, int, int, int, int, class CIniData *)
	?ReadIni@TImportScreenConfig@@SAXABVTPtrC16@@0000AAHHHHHPAVCIniData@@@Z @ 21 NONAME ; void TImportScreenConfig::ReadIni(class TPtrC16 const &, class TPtrC16 const &, class TPtrC16 const &, class TPtrC16 const &, class TPtrC16 const &, int &, int, int, int, int, class CIniData *)
	?ReadIni@TImportScreenConfig@@SAXABVTPtrC16@@000AAHHHHPAVCIniData@@@Z @ 22 NONAME ; void TImportScreenConfig::ReadIni(class TPtrC16 const &, class TPtrC16 const &, class TPtrC16 const &, class TPtrC16 const &, int &, int, int, int, class CIniData *)
	?ReadIni@TImportScreenConfig@@SAXABVTPtrC16@@00AAHHHPAVCIniData@@@Z @ 23 NONAME ; void TImportScreenConfig::ReadIni(class TPtrC16 const &, class TPtrC16 const &, class TPtrC16 const &, int &, int, int, class CIniData *)
	?ReadIni@TImportScreenConfig@@SAXABVTPtrC16@@AAHPAVCIniData@@@Z @ 24 NONAME ; void TImportScreenConfig::ReadIni(class TPtrC16 const &, int &, class CIniData *)
	?ReadIni@TImportScreenConfig@@SAXABVTPtrC16@@AAV2@PAVCIniData@@@Z @ 25 NONAME ; void TImportScreenConfig::ReadIni(class TPtrC16 const &, class TPtrC16 &, class CIniData *)
	?VerifyFramesPerTraverse@TImportScreenConfig@@SAXAAHH@Z @ 26 NONAME ; void TImportScreenConfig::VerifyFramesPerTraverse(int &, int)

