EXPORTS
	??0CCoreConnectionProvider@@IAE@AAVCConnectionProviderFactoryBase@ESock@@ABUTNodeActivityMap@MeshMachine@@@Z @ 1 NONAME ; CCoreConnectionProvider::CCoreConnectionProvider(class ESock::CConnectionProviderFactoryBase &, struct MeshMachine::TNodeActivityMap const &)
	??0CCoreMetaConnectionProvider@@IAE@AAVCMetaConnectionProviderFactoryBase@ESock@@ABVTProviderInfo@2@ABUTNodeActivityMap@MeshMachine@@@Z @ 2 NONAME ; CCoreMetaConnectionProvider::CCoreMetaConnectionProvider(class ESock::CMetaConnectionProviderFactoryBase &, class ESock::TProviderInfo const &, struct MeshMachine::TNodeActivityMap const &)
	??0CCoreSubConnectionProvider@@IAE@AAVCSubConnectionProviderFactoryBase@ESock@@@Z @ 3 NONAME ; CCoreSubConnectionProvider::CCoreSubConnectionProvider(class ESock::CSubConnectionProviderFactoryBase &)
	??0CCoreSubConnectionProvider@@IAE@AAVCSubConnectionProviderFactoryBase@ESock@@ABUTNodeActivityMap@MeshMachine@@@Z @ 4 NONAME ; CCoreSubConnectionProvider::CCoreSubConnectionProvider(class ESock::CSubConnectionProviderFactoryBase &, struct MeshMachine::TNodeActivityMap const &)
	??0CCoreTierManager@@IAE@AAVCTierManagerFactoryBase@ESock@@ABUTNodeActivityMap@MeshMachine@@@Z @ 5 NONAME ; CCoreTierManager::CCoreTierManager(class ESock::CTierManagerFactoryBase &, struct MeshMachine::TNodeActivityMap const &)
	??0CDataClientStartActivity@CprDataClientStartActivity@@IAE@ABUTNodeActivity@MeshMachine@@AAVAMMNodeBase@3@@Z @ 6 NONAME ; CprDataClientStartActivity::CDataClientStartActivity::CDataClientStartActivity(struct MeshMachine::TNodeActivity const &, class MeshMachine::AMMNodeBase &)
	??0CDataCollectorSession@TierNotification@@IAE@PAVMDataCollector@1@AAVCTierNotificationActivity@1@H@Z @ 7 NONAME ; TierNotification::CDataCollectorSession::CDataCollectorSession(class TierNotification::MDataCollector *, class TierNotification::CTierNotificationActivity &, int)
	??0CTierDataCollector@TierNotification@@IAE@AAVCTierNotificationActivity@1@@Z @ 8 NONAME ; TierNotification::CTierDataCollector::CTierDataCollector(class TierNotification::CTierNotificationActivity &)
	??1CCoreConnectionProvider@@UAE@XZ @ 9 NONAME ; CCoreConnectionProvider::~CCoreConnectionProvider(void)
	??1CCoreMetaConnectionProvider@@UAE@XZ @ 10 NONAME ; CCoreMetaConnectionProvider::~CCoreMetaConnectionProvider(void)
	??1CCoreSubConnectionProvider@@UAE@XZ @ 11 NONAME ; CCoreSubConnectionProvider::~CCoreSubConnectionProvider(void)
	??1CCoreTierManager@@UAE@XZ @ 12 NONAME ; CCoreTierManager::~CCoreTierManager(void)
	??1CSelectNextLayerActivity@MCprActivities@@UAE@XZ @ 13 NONAME ; MCprActivities::CSelectNextLayerActivity::~CSelectNextLayerActivity(void)
	?Accept@TAwaitingApplyRequest@SCprStates@@UAEHXZ @ 14 NONAME ; int SCprStates::TAwaitingApplyRequest::Accept(void)
	?Accept@TAwaitingCancelOrErrorOrDestroy@TierNotification@@UAEHXZ @ 15 NONAME ; int TierNotification::TAwaitingCancelOrErrorOrDestroy::Accept(void)
	?Accept@TAwaitingConnectionGoneDownRecoveryRequest@MCprStates@@UAEHXZ @ 16 NONAME ; int MCprStates::TAwaitingConnectionGoneDownRecoveryRequest::Accept(void)
	?Accept@TAwaitingConnectionStartRecoveryRequest@MCprStates@@UAEHXZ @ 17 NONAME ; int MCprStates::TAwaitingConnectionStartRecoveryRequest::Accept(void)
	?Accept@TAwaitingDataCollectors@TierNotification@@UAEHXZ @ 18 NONAME ; int TierNotification::TAwaitingDataCollectors::Accept(void)
	?Accept@TAwaitingDestroy@TierNotification@@UAEHXZ @ 19 NONAME ; int TierNotification::TAwaitingDestroy::Accept(void)
	?Accept@TAwaitingErrorRecoveryRequest@MCprStates@@UAEHXZ @ 20 NONAME ; int MCprStates::TAwaitingErrorRecoveryRequest::Accept(void)
	?Accept@TAwaitingParamRequest@SCprStates@@UAEHXZ @ 21 NONAME ; int SCprStates::TAwaitingParamRequest::Accept(void)
	?Accept@TAwaitingRegistrationForTierAvailabilityNotification@TMStates@@UAEHXZ @ 22 NONAME ; int TMStates::TAwaitingRegistrationForTierAvailabilityNotification::Accept(void)
	?Accept@TAwaitingSelectComplete@MCprStates@@UAEHXZ @ 23 NONAME ; int MCprStates::TAwaitingSelectComplete::Accept(void)
	?Accept@TAwaitingSelectNextLayer@MCprStates@@UAEHXZ @ 24 NONAME ; int MCprStates::TAwaitingSelectNextLayer::Accept(void)
	?Accept@TAwaitingSelectNextLayerCompleted@MCprStates@@UAEHXZ @ 25 NONAME ; int MCprStates::TAwaitingSelectNextLayerCompleted::Accept(void)
	?Accept@TAwaitingSelectProvider@TMStates@@UAEHXZ @ 26 NONAME ; int TMStates::TAwaitingSelectProvider::Accept(void)
	?Accept@TAwaitingTierManagerCreated@MCprStates@@UAEHXZ @ 27 NONAME ; int MCprStates::TAwaitingTierManagerCreated::Accept(void)
	?Accept@TAwaitingTierNotificationRegistration@TierNotification@@UAEHXZ @ 28 NONAME ; int TierNotification::TAwaitingTierNotificationRegistration::Accept(void)
	?AllCollectorsUnlocked@CTierNotificationActivity@TierNotification@@QBEHXZ @ 29 NONAME ; int TierNotification::CTierNotificationActivity::AllCollectorsUnlocked(void) const
	?CancelAvailabilityMonitoring@CCoreMetaConnectionProvider@@UAEXXZ @ 30 NONAME ; void CCoreMetaConnectionProvider::CancelAvailabilityMonitoring(void)
	?ConstructL@CSelectNextLayerActivity@MCprActivities@@IAEXXZ @ 31 NONAME ; void MCprActivities::CSelectNextLayerActivity::ConstructL(void)
	?DataReceivedL@CTierNotificationActivity@TierNotification@@QAEXAAVCDataCollectorSession@2@AAVCParameterSetContainer@@H@Z @ 32 NONAME ; void TierNotification::CTierNotificationActivity::DataReceivedL(class TierNotification::CDataCollectorSession &, class CParameterSetContainer &, int)
	?DoL@TBindToPrimaryDataClient@CprStates@@UAEXXZ @ 33 NONAME ; void CprStates::TBindToPrimaryDataClient::DoL(void)
	?DoL@TCreateAdditionalDataClient@CprStates@@UAEXXZ @ 34 NONAME ; void CprStates::TCreateAdditionalDataClient::DoL(void)
	?DoL@TDecrementBlockingDestroy@MCprStates@@UAEXXZ @ 35 NONAME ; void MCprStates::TDecrementBlockingDestroy::DoL(void)
	?DoL@TGetDataCollectors@TierNotification@@UAEXXZ @ 36 NONAME ; void TierNotification::TGetDataCollectors::DoL(void)
	?DoL@TInitTierNotifications@TierNotification@@UAEXXZ @ 37 NONAME ; void TierNotification::TInitTierNotifications::DoL(void)
	?DoL@TInitiateTierNotificationCancel@TierNotification@@UAEXXZ @ 38 NONAME ; void TierNotification::TInitiateTierNotificationCancel::DoL(void)
	?DoL@TJoinServiceProviderAndSendSelectComplete@MCprStates@@UAEXXZ @ 39 NONAME ABSENT ; void MCprStates::TJoinServiceProviderAndSendSelectComplete::DoL(void)
	?DoL@TJoinToMCPRs@TMStates@@UAEXXZ @ 40 NONAME ; void TMStates::TJoinToMCPRs::DoL(void)
	?DoL@TPassAvailabilityNotificationToOriginators@TMStates@@UAEXXZ @ 41 NONAME ; void TMStates::TPassAvailabilityNotificationToOriginators::DoL(void)
	?DoL@TPassEventToControlClients@SCprStates@@UAEXXZ @ 42 NONAME ; void SCprStates::TPassEventToControlClients::DoL(void)
	?DoL@TPassToServiceProvider@SCprStates@@UAEXXZ @ 43 NONAME ; void SCprStates::TPassToServiceProvider::DoL(void)
	?DoL@TProcessProviderStatusChangeRegistration@MCprStates@@UAEXXZ @ 44 NONAME ; void MCprStates::TProcessProviderStatusChangeRegistration::DoL(void)
	?DoL@TRegisterForAvailability@TMStates@@UAEXXZ @ 45 NONAME ; void TMStates::TRegisterForAvailability::DoL(void)
	?DoL@TRespondWithCurrentParams@SCprStates@@UAEXXZ @ 46 NONAME ; void SCprStates::TRespondWithCurrentParams::DoL(void)
	?DoL@TSelectProvider@TMStates@@UAEXXZ @ 47 NONAME ; void TMStates::TSelectProvider::DoL(void)
	?DoL@TSendApplyResponse@SCprStates@@UAEXXZ @ 48 NONAME ; void SCprStates::TSendApplyResponse::DoL(void)
	?Accept@TAwaitingSelectNextLayerSuper@MCprStates@@UAEHXZ @ 49 NONAME ; int MCprStates::TAwaitingSelectNextLayerSuper::Accept(void)
	?Accept@TAwaitingSelectProviderSuper@TMStates@@UAEHXZ @ 50 NONAME ; int TMStates::TAwaitingSelectProviderSuper::Accept(void)
	?DoL@THandleDataClientIdle@CprStates@@UAEXXZ @ 51 NONAME ; void CprStates::THandleDataClientIdle::DoL(void)
	?DoL@TSelectProviderSuper@TMStates@@UAEXXZ @ 52 NONAME ; void TMStates::TSelectProviderSuper::DoL(void)
	?DoL@TSendDataClientGoneDown@SCprStates@@UAEXXZ @ 53 NONAME ; void SCprStates::TSendDataClientGoneDown::DoL(void)
	?DoL@TSendFinalSelectComplete@MCprStates@@UAEXXZ @ 54 NONAME ; void MCprStates::TSendFinalSelectComplete::DoL(void)
	?DoL@TSendStopSubConnection@SCprStates@@UAEXXZ @ 55 NONAME ; void SCprStates::TSendStopSubConnection::DoL(void)
	?DoL@TSendStopped@SCprStates@@UAEXXZ @ 56 NONAME ; void SCprStates::TSendStopped::DoL(void)
	?DoL@TStartDataClient@CprDataClientStartActivity@@UAEXXZ @ 57 NONAME ; void CprDataClientStartActivity::TStartDataClient::DoL(void)
	?DoL@TStartTierNotifications@TierNotification@@UAEXXZ @ 58 NONAME ; void TierNotification::TStartTierNotifications::DoL(void)
	?DoL@TStopSendingFlow@SCprStates@@UAEXXZ @ 59 NONAME ; void SCprStates::TStopSendingFlow::DoL(void)
	?DoL@TStopYourFlows@SCprStates@@UAEXXZ @ 60 NONAME ; void SCprStates::TStopYourFlows::DoL(void)
	?DoL@TStoreParams@SCprStates@@UAEXXZ @ 61 NONAME ; void SCprStates::TStoreParams::DoL(void)
	?FirstTriple@AvailabilityActivity_Forward@TMAvailabilityNotificationActivity_Forward@@SAABUTStateTriple@NetStateMachine@@XZ @ 62 NONAME ; struct NetStateMachine::TStateTriple const & TMAvailabilityNotificationActivity_Forward::AvailabilityActivity_Forward::FirstTriple(void)
	?FirstTriple@GetCollectors@TMTierNotificationGetDataCollectorsActivity@@SAABUTStateTriple@NetStateMachine@@XZ @ 63 NONAME ; struct NetStateMachine::TStateTriple const & TMTierNotificationGetDataCollectorsActivity::GetCollectors::FirstTriple(void)
	?FirstTriple@TMClientLeave@TMClientLeaveActivity@@SAABUTStateTriple@NetStateMachine@@XZ @ 64 NONAME ; struct NetStateMachine::TStateTriple const & TMClientLeaveActivity::TMClientLeave::FirstTriple(void)
	?FirstTriple@TierNotify@TMTierNotificationActivity@@SAABUTStateTriple@NetStateMachine@@XZ @ 65 NONAME ; struct NetStateMachine::TStateTriple const & TMTierNotificationActivity::TierNotify::FirstTriple(void)
	?GetVTablePtr@TAddProviderInfo@CSelectNextLayerActivity@MCprActivities@@SAPAVMStateTransition@NetStateMachine@@AAVTDesC8@@PAX@Z @ 66 NONAME ; class NetStateMachine::MStateTransition * MCprActivities::CSelectNextLayerActivity::TAddProviderInfo::GetVTablePtr(class TDesC8 &, void *)
	?GetVTablePtr@TAwaitingApplyRequest@SCprStates@@SAPAVMState@NetStateMachine@@AAVTDesC8@@PAX@Z @ 67 NONAME ; class NetStateMachine::MState * SCprStates::TAwaitingApplyRequest::GetVTablePtr(class TDesC8 &, void *)
	?GetVTablePtr@TAwaitingCancelOrErrorOrDestroy@TierNotification@@SAPAVMState@NetStateMachine@@AAVTDesC8@@PAX@Z @ 68 NONAME ; class NetStateMachine::MState * TierNotification::TAwaitingCancelOrErrorOrDestroy::GetVTablePtr(class TDesC8 &, void *)
	?GetVTablePtr@TAwaitingConnectionGoneDownRecoveryRequest@MCprStates@@SAPAVMState@NetStateMachine@@AAVTDesC8@@PAX@Z @ 69 NONAME ; class NetStateMachine::MState * MCprStates::TAwaitingConnectionGoneDownRecoveryRequest::GetVTablePtr(class TDesC8 &, void *)
	?GetVTablePtr@TAwaitingConnectionStartRecoveryRequest@MCprStates@@SAPAVMState@NetStateMachine@@AAVTDesC8@@PAX@Z @ 70 NONAME ; class NetStateMachine::MState * MCprStates::TAwaitingConnectionStartRecoveryRequest::GetVTablePtr(class TDesC8 &, void *)
	?GetVTablePtr@TAwaitingDataCollectors@TierNotification@@SAPAVMState@NetStateMachine@@AAVTDesC8@@PAX@Z @ 71 NONAME ; class NetStateMachine::MState * TierNotification::TAwaitingDataCollectors::GetVTablePtr(class TDesC8 &, void *)
	?GetVTablePtr@TAwaitingDestroy@TierNotification@@SAPAVMState@NetStateMachine@@AAVTDesC8@@PAX@Z @ 72 NONAME ; class NetStateMachine::MState * TierNotification::TAwaitingDestroy::GetVTablePtr(class TDesC8 &, void *)
	?GetVTablePtr@TAwaitingErrorRecoveryRequest@MCprStates@@SAPAVMState@NetStateMachine@@AAVTDesC8@@PAX@Z @ 73 NONAME ; class NetStateMachine::MState * MCprStates::TAwaitingErrorRecoveryRequest::GetVTablePtr(class TDesC8 &, void *)
	?GetVTablePtr@TAwaitingParamRequest@SCprStates@@SAPAVMState@NetStateMachine@@AAVTDesC8@@PAX@Z @ 74 NONAME ; class NetStateMachine::MState * SCprStates::TAwaitingParamRequest::GetVTablePtr(class TDesC8 &, void *)
	?GetVTablePtr@TAwaitingReConnectCompleteOrError@MCprStates@@SAPAVMState@NetStateMachine@@AAVTDesC8@@PAX@Z @ 75 NONAME ; class NetStateMachine::MState * MCprStates::TAwaitingReConnectCompleteOrError::GetVTablePtr(class TDesC8 &, void *)
	?GetVTablePtr@TAwaitingRegistrationForTierAvailabilityNotification@TMStates@@SAPAVMState@NetStateMachine@@AAVTDesC8@@PAX@Z @ 76 NONAME ; class NetStateMachine::MState * TMStates::TAwaitingRegistrationForTierAvailabilityNotification::GetVTablePtr(class TDesC8 &, void *)
	?GetVTablePtr@TAwaitingSelectComplete@MCprStates@@SAPAVMState@NetStateMachine@@AAVTDesC8@@PAX@Z @ 77 NONAME ; class NetStateMachine::MState * MCprStates::TAwaitingSelectComplete::GetVTablePtr(class TDesC8 &, void *)
	?GetVTablePtr@TAwaitingSelectNextLayer@MCprStates@@SAPAVMState@NetStateMachine@@AAVTDesC8@@PAX@Z @ 78 NONAME ; class NetStateMachine::MState * MCprStates::TAwaitingSelectNextLayer::GetVTablePtr(class TDesC8 &, void *)
	?GetVTablePtr@TAwaitingSelectNextLayerCompleted@MCprStates@@SAPAVMState@NetStateMachine@@AAVTDesC8@@PAX@Z @ 79 NONAME ; class NetStateMachine::MState * MCprStates::TAwaitingSelectNextLayerCompleted::GetVTablePtr(class TDesC8 &, void *)
	?GetVTablePtr@TAwaitingSelectNextLayerSuper@MCprStates@@SAPAVMState@NetStateMachine@@AAVTDesC8@@PAX@Z @ 80 NONAME ; class NetStateMachine::MState * MCprStates::TAwaitingSelectNextLayerSuper::GetVTablePtr(class TDesC8 &, void *)
	?GetVTablePtr@TAwaitingSelectProvider@TMStates@@SAPAVMState@NetStateMachine@@AAVTDesC8@@PAX@Z @ 81 NONAME ; class NetStateMachine::MState * TMStates::TAwaitingSelectProvider::GetVTablePtr(class TDesC8 &, void *)
	?GetVTablePtr@TAwaitingSelectProviderSuper@TMStates@@SAPAVMState@NetStateMachine@@AAVTDesC8@@PAX@Z @ 82 NONAME ; class NetStateMachine::MState * TMStates::TAwaitingSelectProviderSuper::GetVTablePtr(class TDesC8 &, void *)
	?GetVTablePtr@TAwaitingTierManagerCreated@MCprStates@@SAPAVMState@NetStateMachine@@AAVTDesC8@@PAX@Z @ 83 NONAME ; class NetStateMachine::MState * MCprStates::TAwaitingTierManagerCreated::GetVTablePtr(class TDesC8 &, void *)
	?GetVTablePtr@TAwaitingTierNotificationRegistration@TierNotification@@SAPAVMState@NetStateMachine@@AAVTDesC8@@PAX@Z @ 84 NONAME ; class NetStateMachine::MState * TierNotification::TAwaitingTierNotificationRegistration::GetVTablePtr(class TDesC8 &, void *)
	?GetVTablePtr@TBindToPrimaryDataClient@CprStates@@SAPAVMStateTransition@NetStateMachine@@AAVTDesC8@@PAX@Z @ 85 NONAME ; class NetStateMachine::MStateTransition * CprStates::TBindToPrimaryDataClient::GetVTablePtr(class TDesC8 &, void *)
	?GetVTablePtr@TCreateAdditionalDataClient@CprStates@@SAPAVMStateTransition@NetStateMachine@@AAVTDesC8@@PAX@Z @ 86 NONAME ; class NetStateMachine::MStateTransition * CprStates::TCreateAdditionalDataClient::GetVTablePtr(class TDesC8 &, void *)
	?GetVTablePtr@TCreateAdditionalDataClientBackwardOrDataClientReady@CprStates@@SAPAVMStateFork@NetStateMachine@@AAVTDesC8@@PAX@Z @ 87 NONAME ; class NetStateMachine::MStateFork * CprStates::TCreateAdditionalDataClientBackwardOrDataClientReady::GetVTablePtr(class TDesC8 &, void *)
	?GetVTablePtr@TCreateAdditionalDataClientOrDataClientReady@CprStates@@SAPAVMStateFork@NetStateMachine@@AAVTDesC8@@PAX@Z @ 88 NONAME ; class NetStateMachine::MStateFork * CprStates::TCreateAdditionalDataClientOrDataClientReady::GetVTablePtr(class TDesC8 &, void *)
	?GetVTablePtr@TDecrementBlockingDestroy@MCprStates@@SAPAVMStateTransition@NetStateMachine@@AAVTDesC8@@PAX@Z @ 89 NONAME ; class NetStateMachine::MStateTransition * MCprStates::TDecrementBlockingDestroy::GetVTablePtr(class TDesC8 &, void *)
	?GetVTablePtr@TFindOrCreateTierManager@CSelectNextLayerActivity@MCprActivities@@SAPAVMStateTransition@NetStateMachine@@AAVTDesC8@@PAX@Z @ 90 NONAME ; class NetStateMachine::MStateTransition * MCprActivities::CSelectNextLayerActivity::TFindOrCreateTierManager::GetVTablePtr(class TDesC8 &, void *)
	?GetVTablePtr@TFindOrCreateTierManagerSuper@CSelectNextLayerActivity@MCprActivities@@SAPAVMStateTransition@NetStateMachine@@AAVTDesC8@@PAX@Z @ 91 NONAME ; class NetStateMachine::MStateTransition * MCprActivities::CSelectNextLayerActivity::TFindOrCreateTierManagerSuper::GetVTablePtr(class TDesC8 &, void *)
	?GetVTablePtr@TGetDataCollectors@TierNotification@@SAPAVMStateTransition@NetStateMachine@@AAVTDesC8@@PAX@Z @ 92 NONAME ; class NetStateMachine::MStateTransition * TierNotification::TGetDataCollectors::GetVTablePtr(class TDesC8 &, void *)
	?GetVTablePtr@THandleDataClientIdle@CprStates@@SAPAVMStateTransition@NetStateMachine@@AAVTDesC8@@PAX@Z @ 93 NONAME ; class NetStateMachine::MStateTransition * CprStates::THandleDataClientIdle::GetVTablePtr(class TDesC8 &, void *)
	?GetVTablePtr@TInitTierNotifications@TierNotification@@SAPAVMStateTransition@NetStateMachine@@AAVTDesC8@@PAX@Z @ 94 NONAME ; class NetStateMachine::MStateTransition * TierNotification::TInitTierNotifications::GetVTablePtr(class TDesC8 &, void *)
	?GetVTablePtr@TInitiateTierNotificationCancel@TierNotification@@SAPAVMStateTransition@NetStateMachine@@AAVTDesC8@@PAX@Z @ 95 NONAME ; class NetStateMachine::MStateTransition * TierNotification::TInitiateTierNotificationCancel::GetVTablePtr(class TDesC8 &, void *)
	?GetVTablePtr@TJoinServiceProvider@CSelectNextLayerActivity@MCprActivities@@SAPAVMStateTransition@NetStateMachine@@AAVTDesC8@@PAX@Z @ 96 NONAME ; class NetStateMachine::MStateTransition * MCprActivities::CSelectNextLayerActivity::TJoinServiceProvider::GetVTablePtr(class TDesC8 &, void *)
	?GetVTablePtr@TJoinTierManager@CSelectNextLayerActivity@MCprActivities@@SAPAVMStateTransition@NetStateMachine@@AAVTDesC8@@PAX@Z @ 97 NONAME ; class NetStateMachine::MStateTransition * MCprActivities::CSelectNextLayerActivity::TJoinTierManager::GetVTablePtr(class TDesC8 &, void *)
	?GetVTablePtr@TJoinToMCPRs@TMStates@@SAPAVMStateTransition@NetStateMachine@@AAVTDesC8@@PAX@Z @ 98 NONAME ; class NetStateMachine::MStateTransition * TMStates::TJoinToMCPRs::GetVTablePtr(class TDesC8 &, void *)
	?GetVTablePtr@TLeaveTierManager@CSelectNextLayerActivity@MCprActivities@@SAPAVMStateTransition@NetStateMachine@@AAVTDesC8@@PAX@Z @ 99 NONAME ; class NetStateMachine::MStateTransition * MCprActivities::CSelectNextLayerActivity::TLeaveTierManager::GetVTablePtr(class TDesC8 &, void *)
	?GetVTablePtr@TNoTagBackwardsOrJoinServiceProvider@CSelectNextLayerActivity@MCprActivities@@SAPAVMStateFork@NetStateMachine@@AAVTDesC8@@PAX@Z @ 100 NONAME ; class NetStateMachine::MStateFork * MCprActivities::CSelectNextLayerActivity::TNoTagBackwardsOrJoinServiceProvider::GetVTablePtr(class TDesC8 &, void *)
	?GetVTablePtr@TNoTagOrNoTagBackward@CprDataClientStartActivity@@SAPAVMStateFork@NetStateMachine@@AAVTDesC8@@PAX@Z @ 101 NONAME ; class NetStateMachine::MStateFork * CprDataClientStartActivity::TNoTagOrNoTagBackward::GetVTablePtr(class TDesC8 &, void *)
	?GetVTablePtr@TNoTagOrSelectedProviderBackward@CSelectNextLayerActivity@MCprActivities@@SAPAVMStateFork@NetStateMachine@@AAVTDesC8@@PAX@Z @ 102 NONAME ; class NetStateMachine::MStateFork * MCprActivities::CSelectNextLayerActivity::TNoTagOrSelectedProviderBackward::GetVTablePtr(class TDesC8 &, void *)
	?GetVTablePtr@TNoTagOrSelectedProviderBackwardSuper@CSelectNextLayerActivity@MCprActivities@@SAPAVMStateFork@NetStateMachine@@AAVTDesC8@@PAX@Z @ 103 NONAME ; class NetStateMachine::MStateFork * MCprActivities::CSelectNextLayerActivity::TNoTagOrSelectedProviderBackwardSuper::GetVTablePtr(class TDesC8 &, void *)
	?GetVTablePtr@TNoTagOrSelectedProviderIsNull@CSelectNextLayerActivity@MCprActivities@@SAPAVMStateFork@NetStateMachine@@AAVTDesC8@@PAX@Z @ 104 NONAME ; class NetStateMachine::MStateFork * MCprActivities::CSelectNextLayerActivity::TNoTagOrSelectedProviderIsNull::GetVTablePtr(class TDesC8 &, void *)
	?GetVTablePtr@TPassAvailabilityNotificationToOriginators@TMStates@@SAPAVMStateTransition@NetStateMachine@@AAVTDesC8@@PAX@Z @ 105 NONAME ; class NetStateMachine::MStateTransition * TMStates::TPassAvailabilityNotificationToOriginators::GetVTablePtr(class TDesC8 &, void *)
	?GetVTablePtr@TPassEventToControlClients@SCprStates@@SAPAVMStateTransition@NetStateMachine@@AAVTDesC8@@PAX@Z @ 106 NONAME ; class NetStateMachine::MStateTransition * SCprStates::TPassEventToControlClients::GetVTablePtr(class TDesC8 &, void *)
	?GetVTablePtr@TPassToServiceProvider@SCprStates@@SAPAVMStateTransition@NetStateMachine@@AAVTDesC8@@PAX@Z @ 107 NONAME ; class NetStateMachine::MStateTransition * SCprStates::TPassToServiceProvider::GetVTablePtr(class TDesC8 &, void *)
	?GetVTablePtr@TProcessAvailability@MCprStates@@SAPAVMStateFork@NetStateMachine@@AAVTDesC8@@PAX@Z @ 108 NONAME ; class NetStateMachine::MStateFork * MCprStates::TProcessAvailability::GetVTablePtr(class TDesC8 &, void *)
	?GetVTablePtr@TProcessPrioritisedSelectionPolicy@CSelectNextLayerActivity@MCprActivities@@SAPAVMStateTransition@NetStateMachine@@AAVTDesC8@@PAX@Z @ 109 NONAME ; class NetStateMachine::MStateTransition * MCprActivities::CSelectNextLayerActivity::TProcessPrioritisedSelectionPolicy::GetVTablePtr(class TDesC8 &, void *)
	?GetVTablePtr@TProcessPrioritisedSelectionPolicySuper@CSelectNextLayerActivity@MCprActivities@@SAPAVMStateTransition@NetStateMachine@@AAVTDesC8@@PAX@Z @ 110 NONAME ; class NetStateMachine::MStateTransition * MCprActivities::CSelectNextLayerActivity::TProcessPrioritisedSelectionPolicySuper::GetVTablePtr(class TDesC8 &, void *)
	?GetVTablePtr@TProcessProviderStatusChangeRegistration@MCprStates@@SAPAVMStateTransition@NetStateMachine@@AAVTDesC8@@PAX@Z @ 111 NONAME ; class NetStateMachine::MStateTransition * MCprStates::TProcessProviderStatusChangeRegistration::GetVTablePtr(class TDesC8 &, void *)
	?GetVTablePtr@TProcessSimpleSelectionPolicy@CSelectNextLayerActivity@MCprActivities@@SAPAVMStateTransition@NetStateMachine@@AAVTDesC8@@PAX@Z @ 112 NONAME ; class NetStateMachine::MStateTransition * MCprActivities::CSelectNextLayerActivity::TProcessSimpleSelectionPolicy::GetVTablePtr(class TDesC8 &, void *)
	?GetVTablePtr@TProcessSimpleSelectionPolicySuper@CSelectNextLayerActivity@MCprActivities@@SAPAVMStateTransition@NetStateMachine@@AAVTDesC8@@PAX@Z @ 113 NONAME ; class NetStateMachine::MStateTransition * MCprActivities::CSelectNextLayerActivity::TProcessSimpleSelectionPolicySuper::GetVTablePtr(class TDesC8 &, void *)
	?GetVTablePtr@TRegisterForAvailability@TMStates@@SAPAVMStateTransition@NetStateMachine@@AAVTDesC8@@PAX@Z @ 114 NONAME ; class NetStateMachine::MStateTransition * TMStates::TRegisterForAvailability::GetVTablePtr(class TDesC8 &, void *)
	?GetVTablePtr@TRespondWithCurrentParams@SCprStates@@SAPAVMStateTransition@NetStateMachine@@AAVTDesC8@@PAX@Z @ 115 NONAME ; class NetStateMachine::MStateTransition * SCprStates::TRespondWithCurrentParams::GetVTablePtr(class TDesC8 &, void *)
	?GetVTablePtr@TSelectNextLayer@CSelectNextLayerActivity@MCprActivities@@SAPAVMStateTransition@NetStateMachine@@AAVTDesC8@@PAX@Z @ 116 NONAME ; class NetStateMachine::MStateTransition * MCprActivities::CSelectNextLayerActivity::TSelectNextLayer::GetVTablePtr(class TDesC8 &, void *)
	?GetVTablePtr@TSelectNextLayer@MCprStates@@SAPAVMStateTransition@NetStateMachine@@AAVTDesC8@@PAX@Z @ 117 NONAME ; class NetStateMachine::MStateTransition * MCprStates::TSelectNextLayer::GetVTablePtr(class TDesC8 &, void *)
	?GetVTablePtr@TSelectNextLayerSuper@CSelectNextLayerActivity@MCprActivities@@SAPAVMStateTransition@NetStateMachine@@AAVTDesC8@@PAX@Z @ 118 NONAME ; class NetStateMachine::MStateTransition * MCprActivities::CSelectNextLayerActivity::TSelectNextLayerSuper::GetVTablePtr(class TDesC8 &, void *)
	?GetVTablePtr@TSelectProvider@TMStates@@SAPAVMStateTransition@NetStateMachine@@AAVTDesC8@@PAX@Z @ 119 NONAME ; class NetStateMachine::MStateTransition * TMStates::TSelectProvider::GetVTablePtr(class TDesC8 &, void *)
	?GetVTablePtr@TSelectProviderSuper@TMStates@@SAPAVMStateTransition@NetStateMachine@@AAVTDesC8@@PAX@Z @ 120 NONAME ; class NetStateMachine::MStateTransition * TMStates::TSelectProviderSuper::GetVTablePtr(class TDesC8 &, void *)
	?GetVTablePtr@TSelectedProvider@MCprStates@@SAPAVMStateFork@NetStateMachine@@AAVTDesC8@@PAX@Z @ 121 NONAME ; class NetStateMachine::MStateFork * MCprStates::TSelectedProvider::GetVTablePtr(class TDesC8 &, void *)
	?GetVTablePtr@TSelectedProviderIsNullOrJoinServiceProviderBackward@CSelectNextLayerActivity@MCprActivities@@SAPAVMStateFork@NetStateMachine@@AAVTDesC8@@PAX@Z @ 122 NONAME ; class NetStateMachine::MStateFork * MCprActivities::CSelectNextLayerActivity::TSelectedProviderIsNullOrJoinServiceProviderBackward::GetVTablePtr(class TDesC8 &, void *)
	?GetVTablePtr@TSelectionIncomplete@MCprStates@@SAPAVMStateFork@NetStateMachine@@AAVTDesC8@@PAX@Z @ 123 NONAME ; class NetStateMachine::MStateFork * MCprStates::TSelectionIncomplete::GetVTablePtr(class TDesC8 &, void *)
	?GetVTablePtr@TSendApplyResponse@SCprStates@@SAPAVMStateTransition@NetStateMachine@@AAVTDesC8@@PAX@Z @ 124 NONAME ; class NetStateMachine::MStateTransition * SCprStates::TSendApplyResponse::GetVTablePtr(class TDesC8 &, void *)
	?GetVTablePtr@TSendDataClientGoneDown@SCprStates@@SAPAVMStateTransition@NetStateMachine@@AAVTDesC8@@PAX@Z @ 125 NONAME ; class NetStateMachine::MStateTransition * SCprStates::TSendDataClientGoneDown::GetVTablePtr(class TDesC8 &, void *)
	?GetVTablePtr@TSendFinalSelectComplete@MCprStates@@SAPAVMStateTransition@NetStateMachine@@AAVTDesC8@@PAX@Z @ 126 NONAME ; class NetStateMachine::MStateTransition * MCprStates::TSendFinalSelectComplete::GetVTablePtr(class TDesC8 &, void *)
	?GetVTablePtr@TSendPropagateRecoveryResponse@MCprStates@@SAPAVMStateTransition@NetStateMachine@@AAVTDesC8@@PAX@Z @ 127 NONAME ; class NetStateMachine::MStateTransition * MCprStates::TSendPropagateRecoveryResponse::GetVTablePtr(class TDesC8 &, void *)
	?GetVTablePtr@TSendSelectComplete@CSelectNextLayerActivity@MCprActivities@@SAPAVMStateTransition@NetStateMachine@@AAVTDesC8@@PAX@Z @ 128 NONAME ; class NetStateMachine::MStateTransition * MCprActivities::CSelectNextLayerActivity::TSendSelectComplete::GetVTablePtr(class TDesC8 &, void *)
	?GetVTablePtr@TSendStopSubConnection@SCprStates@@SAPAVMStateTransition@NetStateMachine@@AAVTDesC8@@PAX@Z @ 129 NONAME ; class NetStateMachine::MStateTransition * SCprStates::TSendStopSubConnection::GetVTablePtr(class TDesC8 &, void *)
	?GetVTablePtr@TSendStopped@SCprStates@@SAPAVMStateTransition@NetStateMachine@@AAVTDesC8@@PAX@Z @ 130 NONAME ; class NetStateMachine::MStateTransition * SCprStates::TSendStopped::GetVTablePtr(class TDesC8 &, void *)
	?GetVTablePtr@TStartDataClient@CprDataClientStartActivity@@SAPAVMStateTransition@NetStateMachine@@AAVTDesC8@@PAX@Z @ 131 NONAME ; class NetStateMachine::MStateTransition * CprDataClientStartActivity::TStartDataClient::GetVTablePtr(class TDesC8 &, void *)
	?GetVTablePtr@TStartTierNotifications@TierNotification@@SAPAVMStateTransition@NetStateMachine@@AAVTDesC8@@PAX@Z @ 132 NONAME ; class NetStateMachine::MStateTransition * TierNotification::TStartTierNotifications::GetVTablePtr(class TDesC8 &, void *)
	?GetVTablePtr@TStopSendingFlow@SCprStates@@SAPAVMStateTransition@NetStateMachine@@AAVTDesC8@@PAX@Z @ 133 NONAME ; class NetStateMachine::MStateTransition * SCprStates::TStopSendingFlow::GetVTablePtr(class TDesC8 &, void *)
	?GetVTablePtr@TStopYourFlows@SCprStates@@SAPAVMStateTransition@NetStateMachine@@AAVTDesC8@@PAX@Z @ 134 NONAME ; class NetStateMachine::MStateTransition * SCprStates::TStopYourFlows::GetVTablePtr(class TDesC8 &, void *)
	?GetVTablePtr@TStoreParams@SCprStates@@SAPAVMStateTransition@NetStateMachine@@AAVTDesC8@@PAX@Z @ 135 NONAME ; class NetStateMachine::MStateTransition * SCprStates::TStoreParams::GetVTablePtr(class TDesC8 &, void *)
	?InitiateShutdown@CTierNotificationActivity@TierNotification@@QAEXH@Z @ 136 NONAME ; void TierNotification::CTierNotificationActivity::InitiateShutdown(int)
	?InterfaceVTable@CSelectProviderActivity@TMActivities@@QAEABQ6AXPAX@ZXZ @ 137 NONAME ; void (* const)(void *) const & TMActivities::CSelectProviderActivity::InterfaceVTable(void)
	?NewL@CCoreConnectionProvider@@KAPAV1@AAVCConnectionProviderFactoryBase@ESock@@@Z @ 138 NONAME ; class CCoreConnectionProvider * CCoreConnectionProvider::NewL(class ESock::CConnectionProviderFactoryBase &)
	?NewL@CCoreSubConnectionProvider@@KAPAV1@AAVCSubConnectionProviderFactoryBase@ESock@@@Z @ 139 NONAME ; class CCoreSubConnectionProvider * CCoreSubConnectionProvider::NewL(class ESock::CSubConnectionProviderFactoryBase &)
	?NewL@CSelectNextLayerActivity@MCprActivities@@SAPAVCNodeActivityBase@MeshMachine@@ABUTNodeActivity@4@AAVAMMNodeBase@4@@Z @ 140 NONAME ; class MeshMachine::CNodeActivityBase * MCprActivities::CSelectNextLayerActivity::NewL(struct MeshMachine::TNodeActivity const &, class MeshMachine::AMMNodeBase &)
	?NewL@CSelectProviderActivity@TMActivities@@SAPAVCNodeActivityBase@MeshMachine@@ABUTNodeActivity@4@AAVAMMNodeBase@4@@Z @ 141 NONAME ; class MeshMachine::CNodeActivityBase * TMActivities::CSelectProviderActivity::NewL(struct MeshMachine::TNodeActivity const &, class MeshMachine::AMMNodeBase &)
	?NewL@CTierNotificationActivity@TierNotification@@SAPAVCNodeActivityBase@MeshMachine@@ABUTNodeActivity@4@AAVAMMNodeBase@4@@Z @ 142 NONAME ; class MeshMachine::CNodeActivityBase * TierNotification::CTierNotificationActivity::NewL(struct MeshMachine::TNodeActivity const &, class MeshMachine::AMMNodeBase &)
	?Received@CCoreConnectionProvider@@IAEXAAVTNodeContextBase@MeshMachine@@@Z @ 143 NONAME ; void CCoreConnectionProvider::Received(class MeshMachine::TNodeContextBase &)
	?Received@CCoreMetaConnectionProvider@@IAEXAAVTNodeContextBase@MeshMachine@@@Z @ 144 NONAME ; void CCoreMetaConnectionProvider::Received(class MeshMachine::TNodeContextBase &)
	?Received@CCoreSubConnectionProvider@@IAEXAAVTNodeContextBase@MeshMachine@@@Z @ 145 NONAME ; void CCoreSubConnectionProvider::Received(class MeshMachine::TNodeContextBase &)
	?Received@CCoreTierManager@@IAEXAAVTNodeContextBase@MeshMachine@@@Z @ 146 NONAME ; void CCoreTierManager::Received(class MeshMachine::TNodeContextBase &)
	?ReceivedL@CCoreConnectionProvider@@MAEXABVTRuntimeCtxId@Messages@@ABVTNodeId@3@AAVTSignatureBase@3@@Z @ 147 NONAME ; void CCoreConnectionProvider::ReceivedL(class Messages::TRuntimeCtxId const &, class Messages::TNodeId const &, class Messages::TSignatureBase &)
	?ReceivedL@CCoreMetaConnectionProvider@@MAEXABVTRuntimeCtxId@Messages@@ABVTNodeId@3@AAVTSignatureBase@3@@Z @ 148 NONAME ; void CCoreMetaConnectionProvider::ReceivedL(class Messages::TRuntimeCtxId const &, class Messages::TNodeId const &, class Messages::TSignatureBase &)
	?ReceivedL@CCoreSubConnectionProvider@@MAEXABVTRuntimeCtxId@Messages@@ABVTNodeId@3@AAVTSignatureBase@3@@Z @ 149 NONAME ; void CCoreSubConnectionProvider::ReceivedL(class Messages::TRuntimeCtxId const &, class Messages::TNodeId const &, class Messages::TSignatureBase &)
	?ReportChangesInCacheL@CTierNotificationActivity@TierNotification@@QAEXXZ @ 150 NONAME ; void TierNotification::CTierNotificationActivity::ReportChangesInCacheL(void)
	?ReportIfReadyL@CTierNotificationActivity@TierNotification@@QAEXXZ @ 151 NONAME ; void TierNotification::CTierNotificationActivity::ReportIfReadyL(void)
	?SelectionChoices@CSelectNextLayerActivity@MCprActivities@@QAEAAVTConnIdList@@XZ @ 152 NONAME ; class TConnIdList & MCprActivities::CSelectNextLayerActivity::SelectionChoices(void)
	?SelectionConnPrefList@CSelectNextLayerActivity@MCprActivities@@QAEAAVRConnPrefList@ESock@@XZ @ 153 NONAME ; class ESock::RConnPrefList & MCprActivities::CSelectNextLayerActivity::SelectionConnPrefList(void)
	?Self@AvailabilityActivity_Forward@TMAvailabilityNotificationActivity_Forward@@SAABUTNodeActivity@MeshMachine@@XZ @ 154 NONAME ; struct MeshMachine::TNodeActivity const & TMAvailabilityNotificationActivity_Forward::AvailabilityActivity_Forward::Self(void)
	?Self@GetCollectors@TMTierNotificationGetDataCollectorsActivity@@SAABUTNodeActivity@MeshMachine@@XZ @ 155 NONAME ; struct MeshMachine::TNodeActivity const & TMTierNotificationGetDataCollectorsActivity::GetCollectors::Self(void)
	?Self@TMClientLeave@TMClientLeaveActivity@@SAABUTNodeActivity@MeshMachine@@XZ @ 156 NONAME ; struct MeshMachine::TNodeActivity const & TMClientLeaveActivity::TMClientLeave::Self(void)
	?Self@TierNotify@TMTierNotificationActivity@@SAABUTNodeActivity@MeshMachine@@XZ @ 157 NONAME ; struct MeshMachine::TNodeActivity const & TMTierNotificationActivity::TierNotify::Self(void)
	?Self@coreCprActivities@CprActivities@@SAABUTNodeActivityMap@MeshMachine@@XZ @ 158 NONAME ; struct MeshMachine::TNodeActivityMap const & CprActivities::coreCprActivities::Self(void)
	?Self@coreMCprActivities@MCprActivities@@SAABUTNodeActivityMap@MeshMachine@@XZ @ 159 NONAME ; struct MeshMachine::TNodeActivityMap const & MCprActivities::coreMCprActivities::Self(void)
	?Self@coreMCprActivitiesSuper@MCprActivities@@SAABUTNodeActivityMap@MeshMachine@@XZ @ 160 NONAME ; struct MeshMachine::TNodeActivityMap const & MCprActivities::coreMCprActivitiesSuper::Self(void)
	?Self@coreSCprActivities@SCprActivities@@SAABUTNodeActivityMap@MeshMachine@@XZ @ 161 NONAME ; struct MeshMachine::TNodeActivityMap const & SCprActivities::coreSCprActivities::Self(void)
	?Self@coreTMActivities@TMActivities@@SAABUTNodeActivityMap@MeshMachine@@XZ @ 162 NONAME ; struct MeshMachine::TNodeActivityMap const & TMActivities::coreTMActivities::Self(void)
	?Self@coreTMActivitiesSuper@TMActivities@@SAABUTNodeActivityMap@MeshMachine@@XZ @ 163 NONAME ; struct MeshMachine::TNodeActivityMap const & TMActivities::coreTMActivitiesSuper::Self(void)
	?ShutdownFinished@CTierNotificationActivity@TierNotification@@QAEXXZ @ 164 NONAME ; void TierNotification::CTierNotificationActivity::ShutdownFinished(void)
	?StartAvailabilityMonitoringL@CCoreMetaConnectionProvider@@UAEXABVTNodeCtxId@Messages@@@Z @ 165 NONAME ; void CCoreMetaConnectionProvider::StartAvailabilityMonitoringL(class Messages::TNodeCtxId const &)
	?TransitionTag@TCreateAdditionalDataClientBackwardOrDataClientReady@CprStates@@UAEHXZ @ 166 NONAME ; int CprStates::TCreateAdditionalDataClientBackwardOrDataClientReady::TransitionTag(void)
	?TransitionTag@TCreateAdditionalDataClientOrDataClientReady@CprStates@@UAEHXZ @ 167 NONAME ; int CprStates::TCreateAdditionalDataClientOrDataClientReady::TransitionTag(void)
	?TransitionTag@TNoTagOrNoTagBackward@CprDataClientStartActivity@@UAEHXZ @ 168 NONAME ; int CprDataClientStartActivity::TNoTagOrNoTagBackward::TransitionTag(void)
	?TransitionTag@TNoTagOrSelectedProviderBackwardSuper@CSelectNextLayerActivity@MCprActivities@@UAEHXZ @ 169 NONAME ; int MCprActivities::CSelectNextLayerActivity::TNoTagOrSelectedProviderBackwardSuper::TransitionTag(void)
	?DoL@TPostStatusChangeToOriginators@MCprStates@@UAEXXZ @ 170 NONAME ; void MCprStates::TPostStatusChangeToOriginators::DoL(void)
	?GetVTablePtr@TPostStatusChangeToOriginators@MCprStates@@SAPAVMStateTransition@NetStateMachine@@AAVTDesC8@@PAX@Z @ 171 NONAME ; class NetStateMachine::MStateTransition * MCprStates::TPostStatusChangeToOriginators::GetVTablePtr(class TDesC8 &, void *)
	?DoL@TSendDataClientStatusStoppedIfNoControlClient@CprStates@@UAEXXZ @ 172 NONAME ; void CprStates::TSendDataClientStatusStoppedIfNoControlClient::DoL(void)
	?GetVTablePtr@TSendDataClientStatusStoppedIfNoControlClient@CprStates@@SAPAVMStateTransition@NetStateMachine@@AAVTDesC8@@PAX@Z @ 173 NONAME ; class NetStateMachine::MStateTransition * CprStates::TSendDataClientStatusStoppedIfNoControlClient::GetVTablePtr(class TDesC8 &, void *)
	?GetVTablePtr@TUpdatePriorityForServiceProviders@CPriorityUpdateActivity@CprPriorityUpdateActivity@@SAPAVMStateTransition@NetStateMachine@@AAVTDesC8@@PAX@Z @ 174 NONAME ; class NetStateMachine::MStateTransition * CprPriorityUpdateActivity::CPriorityUpdateActivity::TUpdatePriorityForServiceProviders::GetVTablePtr(class TDesC8 &, void *)
	?GetVTablePtr@TSaveLeaveMessageData@CClientLeaveActivity@CprClientLeaveActivity@@SAPAVMStateTransition@NetStateMachine@@AAVTDesC8@@PAX@Z @ 175 NONAME ; class NetStateMachine::MStateTransition * CprClientLeaveActivity::CClientLeaveActivity::TSaveLeaveMessageData::GetVTablePtr(class TDesC8 &, void *)
	?TransitionTag@TNoTagOrSendActive@CControlClientJoinActivity@CprControlClientJoinActivity@@UAEHXZ @ 176 NONAME ; int CprControlClientJoinActivity::CControlClientJoinActivity::TNoTagOrSendActive::TransitionTag(void)
	?IsUnavailableDueToContention@CContentionManager@@QBEHPBVCMetaConnectionProviderBase@ESock@@@Z @ 177 NONAME ; int CContentionManager::IsUnavailableDueToContention(class ESock::CMetaConnectionProviderBase const *) const
	??1CContentionManager@@UAE@XZ @ 178 NONAME ; CContentionManager::~CContentionManager(void)
	?ContentionOccured@CCoreMetaConnectionProvider@@UAEXABVTNodeId@Messages@@@Z @ 179 NONAME ABSENT ; void CCoreMetaConnectionProvider::ContentionOccured(class Messages::TNodeId const &)
	?GetVTablePtr@TSendControlClientJoinRequestWithPriority@CCprBindToActivity@CprBindToActivity@@SAPAVMStateTransition@NetStateMachine@@AAVTDesC8@@PAX@Z @ 180 NONAME ; class NetStateMachine::MStateTransition * CprBindToActivity::CCprBindToActivity::TSendControlClientJoinRequestWithPriority::GetVTablePtr(class TDesC8 &, void *)
	?DoL@TSaveLeaveMessageData@CClientLeaveActivity@CprClientLeaveActivity@@UAEXXZ @ 181 NONAME ; void CprClientLeaveActivity::CClientLeaveActivity::TSaveLeaveMessageData::DoL(void)
	?NewL@CControlClientJoinActivity@CprControlClientJoinActivity@@SAPAVCNodeActivityBase@MeshMachine@@ABUTNodeActivity@4@AAVAMMNodeBase@4@@Z @ 182 NONAME ; class MeshMachine::CNodeActivityBase * CprControlClientJoinActivity::CControlClientJoinActivity::NewL(struct MeshMachine::TNodeActivity const &, class MeshMachine::AMMNodeBase &)
	?DoL@TProcessDataClientRejoin@MCprStates@@UAEXXZ @ 183 NONAME ; void MCprStates::TProcessDataClientRejoin::DoL(void)
	??1CClientLeaveActivity@CprClientLeaveActivity@@UAE@XZ @ 184 NONAME ; CprClientLeaveActivity::CClientLeaveActivity::~CClientLeaveActivity(void)
	?DoL@TSendJoinCompleteIfRequest@CControlClientJoinActivity@CprControlClientJoinActivity@@UAEXXZ @ 185 NONAME ; void CprControlClientJoinActivity::CControlClientJoinActivity::TSendJoinCompleteIfRequest::DoL(void)
	?GetVTablePtr@TSendLeaveCompleteIfRequest@CClientLeaveActivity@CprClientLeaveActivity@@SAPAVMStateTransition@NetStateMachine@@AAVTDesC8@@PAX@Z @ 186 NONAME ; class NetStateMachine::MStateTransition * CprClientLeaveActivity::CClientLeaveActivity::TSendLeaveCompleteIfRequest::GetVTablePtr(class TDesC8 &, void *)
	?DoL@TUpdatePriorityForControlProvider@CPriorityUpdateActivity@CprPriorityUpdateActivity@@UAEXXZ @ 187 NONAME ; void CprPriorityUpdateActivity::CPriorityUpdateActivity::TUpdatePriorityForControlProvider::DoL(void)
	?GetVTablePtr@TNoTagOrSendActive@CControlClientJoinActivity@CprControlClientJoinActivity@@SAPAVMStateFork@NetStateMachine@@AAVTDesC8@@PAX@Z @ 188 NONAME ; class NetStateMachine::MStateFork * CprControlClientJoinActivity::CControlClientJoinActivity::TNoTagOrSendActive::GetVTablePtr(class TDesC8 &, void *)
	?GetVTablePtr@TNoTagOrSendPriorityToServProvider@CPriorityUpdateActivity@CprPriorityUpdateActivity@@SAPAVMStateFork@NetStateMachine@@AAVTDesC8@@PAX@Z @ 189 NONAME ; class NetStateMachine::MStateFork * CprPriorityUpdateActivity::CPriorityUpdateActivity::TNoTagOrSendPriorityToServProvider::GetVTablePtr(class TDesC8 &, void *)
	?IsUnavailableDueToContention@CCoreTierManager@@UBEHPBVCMetaConnectionProviderBase@ESock@@@Z @ 190 NONAME ; int CCoreTierManager::IsUnavailableDueToContention(class ESock::CMetaConnectionProviderBase const *) const
	?GetVTablePtr@TAddClientOrUpdatePriority@CControlClientJoinActivity@CprControlClientJoinActivity@@SAPAVMStateFork@NetStateMachine@@AAVTDesC8@@PAX@Z @ 191 NONAME ; class NetStateMachine::MStateFork * CprControlClientJoinActivity::CControlClientJoinActivity::TAddClientOrUpdatePriority::GetVTablePtr(class TDesC8 &, void *)
	?TransitionTag@TAddClientOrUpdatePriority@CControlClientJoinActivity@CprControlClientJoinActivity@@UAEHXZ @ 192 NONAME ; int CprControlClientJoinActivity::CControlClientJoinActivity::TAddClientOrUpdatePriority::TransitionTag(void)
	?DoL@TSendLeaveCompleteIfRequest@CClientLeaveActivity@CprClientLeaveActivity@@UAEXXZ @ 193 NONAME ; void CprClientLeaveActivity::CClientLeaveActivity::TSendLeaveCompleteIfRequest::DoL(void)
	?DoL@TAddControlClient@CprStates@@UAEXXZ @ 194 NONAME ; void CprStates::TAddControlClient::DoL(void)
	?New@CClientLeaveActivity@CprClientLeaveActivity@@SAPAVCNodeActivityBase@MeshMachine@@ABUTNodeActivity@4@AAVTNodeContextBase@4@@Z @ 195  NONAME ; class MeshMachine::CNodeActivityBase * CprClientLeaveActivity::CClientLeaveActivity::New(struct MeshMachine::TNodeActivity const &, class MeshMachine::TNodeContextBase &)
	??1CControlClientJoinActivity@CprControlClientJoinActivity@@UAE@XZ @ 196 NONAME ; CprControlClientJoinActivity::CControlClientJoinActivity::~CControlClientJoinActivity(void)
	?GetVTablePtr@TProcessDataClientRejoin@MCprStates@@SAPAVMStateTransition@NetStateMachine@@AAVTDesC8@@PAX@Z @ 197 NONAME ; class NetStateMachine::MStateTransition * MCprStates::TProcessDataClientRejoin::GetVTablePtr(class TDesC8 &, void *)
	??0CContentionManager@@QAE@ABVCTierManagerBase@ESock@@@Z @ 198 NONAME ; CContentionManager::CContentionManager(class ESock::CTierManagerBase const &)
	?TransitionTag@TNoTagOrSendPriorityToServProvider@CPriorityUpdateActivity@CprPriorityUpdateActivity@@UAEHXZ @ 199 NONAME ; int CprPriorityUpdateActivity::CPriorityUpdateActivity::TNoTagOrSendPriorityToServProvider::TransitionTag(void)
	?HandleContentionL@CContentionManager@@QAEHPAVCMetaConnectionProviderBase@ESock@@AAVTNodeId@Messages@@I@Z @ 200 NONAME ; int CContentionManager::HandleContentionL(class ESock::CMetaConnectionProviderBase *, class Messages::TNodeId &, unsigned int)
	?TransitionTag@TNoTagOrSendPriorityToCtrlProvider@CPriorityUpdateActivity@CprPriorityUpdateActivity@@UAEHXZ @ 201 NONAME ; int CprPriorityUpdateActivity::CPriorityUpdateActivity::TNoTagOrSendPriorityToCtrlProvider::TransitionTag(void)
	?ContentionResolved@CCoreMetaConnectionProvider@@UAEXABVTNodeId@Messages@@H@Z @ 202 NONAME ABSENT ; void CCoreMetaConnectionProvider::ContentionResolved(class Messages::TNodeId const &, int)
	?HandleContentionL@CCoreTierManager@@UAEHPAVCMetaConnectionProviderBase@ESock@@AAVTNodeId@Messages@@I@Z @ 203 NONAME ; int CCoreTierManager::HandleContentionL(class ESock::CMetaConnectionProviderBase *, class Messages::TNodeId &, unsigned int)
	?ReportContentionAvailabilityStatus@CCoreMetaConnectionProvider@@UAEXABVTAvailabilityStatus@ESock@@@Z @ 204 NONAME ABSENT ; void CCoreMetaConnectionProvider::ReportContentionAvailabilityStatus(class ESock::TAvailabilityStatus const &)
	?DoL@TUpdatePriorityForServiceProviders@CPriorityUpdateActivity@CprPriorityUpdateActivity@@UAEXXZ @ 205 NONAME ; void CprPriorityUpdateActivity::CPriorityUpdateActivity::TUpdatePriorityForServiceProviders::DoL(void)
	?GetVTablePtr@TUpdatePriorityForControlProvider@CPriorityUpdateActivity@CprPriorityUpdateActivity@@SAPAVMStateTransition@NetStateMachine@@AAVTDesC8@@PAX@Z @ 206 NONAME ; class NetStateMachine::MStateTransition * CprPriorityUpdateActivity::CPriorityUpdateActivity::TUpdatePriorityForControlProvider::GetVTablePtr(class TDesC8 &, void *)
	?GetVTablePtr@TNoTagOrSendPriorityToCtrlProvider@CPriorityUpdateActivity@CprPriorityUpdateActivity@@SAPAVMStateFork@NetStateMachine@@AAVTDesC8@@PAX@Z @ 207 NONAME ; class NetStateMachine::MStateFork * CprPriorityUpdateActivity::CPriorityUpdateActivity::TNoTagOrSendPriorityToCtrlProvider::GetVTablePtr(class TDesC8 &, void *)
	?GetVTablePtr@TAddControlClient@CprStates@@SAPAVMStateTransition@NetStateMachine@@AAVTDesC8@@PAX@Z @ 208 NONAME ; class NetStateMachine::MStateTransition * CprStates::TAddControlClient::GetVTablePtr(class TDesC8 &, void *)
	?GetVTablePtr@TSendJoinCompleteIfRequest@CControlClientJoinActivity@CprControlClientJoinActivity@@SAPAVMStateTransition@NetStateMachine@@AAVTDesC8@@PAX@Z @ 209 NONAME ; class NetStateMachine::MStateTransition * CprControlClientJoinActivity::CControlClientJoinActivity::TSendJoinCompleteIfRequest::GetVTablePtr(class TDesC8 &, void *)
	?ContentionResolved@CContentionManager@@MAEXXZ @ 210 NONAME ; void CContentionManager::ContentionResolved(void)
	?DoL@TPostPolicyCheckResponseToOriginators@CprStates@@UAEXXZ @ 211 NONAME ; void CprStates::TPostPolicyCheckResponseToOriginators::DoL(void)
	?GetVTablePtr@TPostPolicyCheckResponseToOriginators@CprStates@@SAPAVMStateTransition@NetStateMachine@@AAVTDesC8@@PAX@Z @ 212 NONAME ; class NetStateMachine::MStateTransition * CprStates::TPostPolicyCheckResponseToOriginators::GetVTablePtr(class TDesC8 &, void *)

