EXPORTS
	_ZN19TMMFTableAudioCodec7ConvertEPhS0_i @ 1 NONAME
	_ZN24TMMFAudioS16ToU8PcmCodec7ConvertEPhS0_i @ 2 NONAME
	_ZN24TMMFAudioU8ToS16PcmCodec7ConvertEPhS0_i @ 3 NONAME
	_ZN25TMMFAudioPcm8ToPcm16Codec7ConvertEPhS0_i @ 4 NONAME
	_ZN25TMMFAudioU16ToS16PcmCodec7ConvertEPhS0_i @ 5 NONAME
	_ZN26TMMFAudioALawToS16PcmCodec7ConvertEPhS0_i @ 6 NONAME
	_ZN26TMMFAudioSPcm16ToAlawCodec7ConvertEPhS0_i @ 7 NONAME
	_ZN27TMMFAudioMuLawToS16PcmCodec7ConvertEPhS0_i @ 8 NONAME
	_ZN27TMMFAudioPcm16ToPcmU16Codec7ConvertEPhS0_i @ 9 NONAME
	_ZN27TMMFAudioPcmS16ToPcmS8Codec7ConvertEPhS0_i @ 10 NONAME
	_ZN27TMMFAudioSPcm16ToMuLawCodec7ConvertEPhS0_i @ 11 NONAME
	_ZN29TMMFAudioPcm16SwapEndianCodec7ConvertEPhS0_i @ 12 NONAME
	_ZN29TMMFAudioPcm16ToImaAdpcmCodec7ConvertEPhS0_i @ 13 NONAME
	_ZN29TMMFAudioPcm16ToImaAdpcmCodec8GetStateEv @ 14 NONAME
	_ZN29TMMFAudioPcm16ToImaAdpcmCodec8SetStateERK22TMMFImaAdpcmCodecState @ 15 NONAME
	_ZN29TMMFAudioPcm16ToPcmU16BECodec7ConvertEPhS0_i @ 16 NONAME
	_ZN30TMMFAudioImaAdpcmToS16PcmCodec7ConvertEPhS0_i @ 17 NONAME
	_ZN30TMMFAudioPcmU16BeToPcmS16Codec7ConvertEPhS0_i @ 18 NONAME
	_ZTV30TMMFAudioPcmU16BeToPcmS16Codec @ 19 NONAME ; #<VT>#
	_ZTI19TMMFTableAudioCodec @ 20 NONAME ; #<TI>#
	_ZTI24TMMFAudioS16ToU8PcmCodec @ 21 NONAME ; #<TI>#
	_ZTI24TMMFAudioU8ToS16PcmCodec @ 22 NONAME ; #<TI>#
	_ZTI25TMMFAudioPcm8ToPcm16Codec @ 23 NONAME ; #<TI>#
	_ZTI25TMMFAudioU16ToS16PcmCodec @ 24 NONAME ; #<TI>#
	_ZTI26TMMFAudioALawToS16PcmCodec @ 25 NONAME ; #<TI>#
	_ZTI26TMMFAudioSPcm16ToAlawCodec @ 26 NONAME ; #<TI>#
	_ZTI27TMMFAudioMuLawToS16PcmCodec @ 27 NONAME ; #<TI>#
	_ZTI27TMMFAudioPcm16ToPcmU16Codec @ 28 NONAME ; #<TI>#
	_ZTI27TMMFAudioPcmS16ToPcmS8Codec @ 29 NONAME ; #<TI>#
	_ZTI27TMMFAudioSPcm16ToMuLawCodec @ 30 NONAME ; #<TI>#
	_ZTI29TMMFAudioPcm16SwapEndianCodec @ 31 NONAME ; #<TI>#
	_ZTI29TMMFAudioPcm16ToImaAdpcmCodec @ 32 NONAME ; #<TI>#
	_ZTI29TMMFAudioPcm16ToPcmU16BECodec @ 33 NONAME ; #<TI>#
	_ZTI30TMMFAudioImaAdpcmToS16PcmCodec @ 34 NONAME ; #<TI>#
	_ZTI30TMMFAudioPcmU16BeToPcmS16Codec @ 35 NONAME ; #<TI>#
	_ZTV19TMMFTableAudioCodec @ 36 NONAME ; #<VT>#
	_ZTV24TMMFAudioS16ToU8PcmCodec @ 37 NONAME ; #<VT>#
	_ZTV24TMMFAudioU8ToS16PcmCodec @ 38 NONAME ; #<VT>#
	_ZTV25TMMFAudioPcm8ToPcm16Codec @ 39 NONAME ; #<VT>#
	_ZTV25TMMFAudioU16ToS16PcmCodec @ 40 NONAME ; #<VT>#
	_ZTV26TMMFAudioALawToS16PcmCodec @ 41 NONAME ; #<VT>#
	_ZTV26TMMFAudioSPcm16ToAlawCodec @ 42 NONAME ; #<VT>#
	_ZTV27TMMFAudioMuLawToS16PcmCodec @ 43 NONAME ; #<VT>#
	_ZTV27TMMFAudioPcm16ToPcmU16Codec @ 44 NONAME ; #<VT>#
	_ZTV27TMMFAudioPcmS16ToPcmS8Codec @ 45 NONAME ; #<VT>#
	_ZTV27TMMFAudioSPcm16ToMuLawCodec @ 46 NONAME ; #<VT>#
	_ZTV29TMMFAudioPcm16SwapEndianCodec @ 47 NONAME ; #<VT>#
	_ZTV29TMMFAudioPcm16ToImaAdpcmCodec @ 48 NONAME ; #<VT>#
	_ZTV29TMMFAudioPcm16ToPcmU16BECodec @ 49 NONAME ; #<VT>#
	_ZTV30TMMFAudioImaAdpcmToS16PcmCodec @ 50 NONAME ; #<VT>#

