EXPORTS
	_ZN10RBTRegServ13ResourceCountEv @ 1 NONAME
	_ZN10RBTRegServ14SetHeapFailureEii @ 2 NONAME
	_ZN10RBTRegServ5CloseEv @ 3 NONAME
	_ZN10RBTRegServ7ConnectEv @ 4 NONAME
	_ZN10RBTRegServ7SessionEv @ 5 NONAME
	_ZN10RBTRegServC1Ev @ 6 NONAME
	_ZN10RBTRegServC2Ev @ 7 NONAME
	_ZN11RBTRegistry10AddDeviceLERK9CBTDeviceR14TRequestStatus @ 8 NONAME
	_ZN11RBTRegistry10CreateViewERK17TBTRegistrySearchR14TRequestStatus @ 9 NONAME
	_ZN11RBTRegistry12ModifyDeviceERK17TBTNamelessDeviceR14TRequestStatus @ 10 NONAME
	_ZN11RBTRegistry12UnpairDeviceERK10TBTDevAddrR14TRequestStatus @ 11 NONAME
	_ZN11RBTRegistry15DeleteAllInViewER14TRequestStatus @ 12 NONAME
	_ZN11RBTRegistry15UnpairAllInViewER14TRequestStatus @ 13 NONAME
	_ZN11RBTRegistry25ModifyFriendlyDeviceNameLERK10TBTDevAddrRK7TDesC16R14TRequestStatus @ 14 NONAME
	_ZN11RBTRegistry26ModifyBluetoothDeviceNameLERK10TBTDevAddrRK6TDesC8R14TRequestStatus @ 15 NONAME
	_ZN11RBTRegistry4OpenER10RBTRegServ @ 16 NONAME
	_ZN11RBTRegistry5CloseEv @ 17 NONAME
	_ZN11RBTRegistry9CloseViewEv @ 18 NONAME
	_ZN11RBTRegistry9GetDeviceER17TBTNamelessDeviceR14TRequestStatus @ 19 NONAME
	_ZN11RBTRegistryC1Ev @ 20 NONAME
	_ZN11RBTRegistryC2Ev @ 21 NONAME
	_ZN14RBTLocalDevice3GetER14TBTLocalDevice @ 22 NONAME
	_ZN14RBTLocalDevice4OpenER10RBTRegServ @ 23 NONAME
	_ZN14RBTLocalDevice5CloseEv @ 24 NONAME
	_ZN14RBTLocalDevice6ModifyERK14TBTLocalDevice @ 25 NONAME
	_ZN14RBTLocalDevice6ModifyERK14TBTLocalDeviceR14TRequestStatus @ 26 NONAME
	_ZN14RBTLocalDeviceC1Ev @ 27 NONAME
	_ZN14RBTLocalDeviceC2Ev @ 28 NONAME
	_ZN16RBTManSubSession13CancelRequestER14TRequestStatus @ 29 NONAME
	_ZN16RBTManSubSessionC2Ev @ 30 NONAME
	_ZN17TBTRegistrySearch10FindBondedEv @ 31 NONAME
	_ZN17TBTRegistrySearch11FindAddressERK10TBTDevAddr @ 32 NONAME
	_ZN17TBTRegistrySearch11FindTrustedEv @ 33 NONAME
	_ZN17TBTRegistrySearch13FindSinceSeenERK5TTime @ 34 NONAME
	_ZN17TBTRegistrySearch13FindSinceUsedERK5TTime @ 35 NONAME
	_ZN17TBTRegistrySearch16FindFriendlyNameERK7TDesC16 @ 36 NONAME
	_ZN17TBTRegistrySearch17FindBluetoothNameERK6TDesC8 @ 37 NONAME
	_ZN17TBTRegistrySearch23FindCurrentProcessOwnedEv @ 38 NONAME
	_ZN17TBTRegistrySearch5ResetEv @ 39 NONAME
	_ZN17TBTRegistrySearch7FindAllEv @ 40 NONAME
	_ZN17TBTRegistrySearch7FindCoDERK14TBTDeviceClass @ 41 NONAME
	_ZN17TBTRegistrySearch7FindCoDERK14TBTDeviceClass20TBTDeviceClassSearch @ 42 NONAME
	_ZN17TBTRegistrySearchC1ERKS_ @ 43 NONAME
	_ZN17TBTRegistrySearchC1Ev @ 44 NONAME
	_ZN17TBTRegistrySearchC2ERKS_ @ 45 NONAME
	_ZN17TBTRegistrySearchC2Ev @ 46 NONAME
	_ZN17TBTRegistrySearchaSERKS_ @ 47 NONAME
	_ZN19CBTRegistryResponse4NewLER11RBTRegistry @ 48 NONAME
	_ZN19CBTRegistryResponse5StartER14TRequestStatus @ 49 NONAME
	_ZN19CBTRegistryResponse7ResultsEv @ 50 NONAME
	_ZN19CBTRegistryResponseD0Ev @ 51 NONAME
	_ZN19CBTRegistryResponseD1Ev @ 52 NONAME
	_ZN19CBTRegistryResponseD2Ev @ 53 NONAME
	_ZN19RBTCommPortSettings3GetER19TBTCommPortSettings @ 54 NONAME
	_ZN19RBTCommPortSettings4OpenER10RBTRegServ @ 55 NONAME
	_ZN19RBTCommPortSettings5CloseEv @ 56 NONAME
	_ZN19RBTCommPortSettings6DeleteERK19TBTCommPortSettingsR14TRequestStatus @ 57 NONAME
	_ZN19RBTCommPortSettings6ModifyERK19TBTCommPortSettingsR14TRequestStatus @ 58 NONAME
	_ZN19RBTCommPortSettingsC1Ev @ 59 NONAME
	_ZN19RBTCommPortSettingsC2Ev @ 60 NONAME
	_ZN19TBTCommPortSettings13SetNoSecurityEv @ 61 NONAME
	_ZN19TBTCommPortSettings16SetSecurityLevelEh @ 62 NONAME
	_ZN19TBTCommPortSettings17SetAuthenticationEv @ 63 NONAME
	_ZN19TBTCommPortSettings30SetAuthenticationAndEncryptionEv @ 64 NONAME
	_ZN19TBTCommPortSettings7SetNameERK7TDesC16 @ 65 NONAME
	_ZN19TBTCommPortSettings7SetPortEm @ 66 NONAME
	_ZN19TBTCommPortSettings7SetUUIDE5TUUID @ 67 NONAME
	_ZN19TBTCommPortSettings9SetBTAddrE10TBTDevAddr @ 68 NONAME
	_ZN19TBTCommPortSettingsC1ERK7TDesC165TUUIDmh10TBTDevAddr @ 69 NONAME
	_ZN19TBTCommPortSettingsC1Ev @ 70 NONAME
	_ZN19TBTCommPortSettingsC2ERK7TDesC165TUUIDmh10TBTDevAddr @ 71 NONAME
	_ZN19TBTCommPortSettingsC2Ev @ 72 NONAME
	_ZN6RBTMan7ConnectEv @ 73 NONAME
	_ZN6RBTManC1Ev @ 74 NONAME
	_ZN6RBTManC2Ev @ 75 NONAME
	_ZNK19TBTCommPortSettings13IsSecuritySetEv @ 76 NONAME
	_ZNK19TBTCommPortSettings13SecurityLevelEv @ 77 NONAME
	_ZNK19TBTCommPortSettings15IsEncryptionSetEv @ 78 NONAME
	_ZNK19TBTCommPortSettings23IsAuthenticationOnlySetEv @ 79 NONAME
	_ZNK19TBTCommPortSettings4NameEv @ 80 NONAME
	_ZNK19TBTCommPortSettings4PortEv @ 81 NONAME
	_ZNK19TBTCommPortSettings4UUIDEv @ 82 NONAME
	_ZNK19TBTCommPortSettings6BDAddrEv @ 83 NONAME
	_ZNK6RBTMan7VersionEv @ 84 NONAME
	_ZN17TBTRegistrySearch12FindUiCookieEm @ 85 NONAME
	_ZN17TBTRegistrySearch12FindUiCookieEmm @ 86 NONAME
	_ZN11RBTRegistry16NotifyViewChangeER14TRequestStatus @ 87 NONAME

