EXPORTS
	??0RAcquisitionSatInfoArrayBuilder@@QAE@XZ @ 1 NONAME ; RAcquisitionSatInfoArrayBuilder::RAcquisitionSatInfoArrayBuilder(void)
	??0RAcquisitionSatInfoArrayReader@@QAE@XZ @ 2 NONAME ; RAcquisitionSatInfoArrayReader::RAcquisitionSatInfoArrayReader(void)
	??0RAcquisitionSatInfoBuilder@@QAE@XZ @ 3 NONAME ; RAcquisitionSatInfoBuilder::RAcquisitionSatInfoBuilder(void)
	??0RAcquisitionSatInfoReader@@QAE@XZ @ 4 NONAME ; RAcquisitionSatInfoReader::RAcquisitionSatInfoReader(void)
	??0RAlmanacSatInfoArrayBuilder@@QAE@XZ @ 5 NONAME ; RAlmanacSatInfoArrayBuilder::RAlmanacSatInfoArrayBuilder(void)
	??0RAlmanacSatInfoArrayReader@@QAE@XZ @ 6 NONAME ; RAlmanacSatInfoArrayReader::RAlmanacSatInfoArrayReader(void)
	??0RAlmanacSatInfoBuilder@@QAE@XZ @ 7 NONAME ; RAlmanacSatInfoBuilder::RAlmanacSatInfoBuilder(void)
	??0RAlmanacSatInfoReader@@QAE@XZ @ 8 NONAME ; RAlmanacSatInfoReader::RAlmanacSatInfoReader(void)
	??0RBadSatArrayBuilder@@QAE@XZ @ 9 NONAME ; RBadSatArrayBuilder::RBadSatArrayBuilder(void)
	??0RBadSatArrayReader@@QAE@XZ @ 10 NONAME ; RBadSatArrayReader::RBadSatArrayReader(void)
	??0RBadSatListBuilder@@QAE@XZ @ 11 NONAME ; RBadSatListBuilder::RBadSatListBuilder(void)
	??0RBadSatListReader@@QAE@XZ @ 12 NONAME ; RBadSatListReader::RBadSatListReader(void)
	??0REllipsoidPointAltitudeEllipsoideBuilder@@QAE@XZ @ 13 NONAME ; REllipsoidPointAltitudeEllipsoideBuilder::REllipsoidPointAltitudeEllipsoideBuilder(void)
	??0REllipsoidPointAltitudeEllipsoideReader@@QAE@XZ @ 14 NONAME ; REllipsoidPointAltitudeEllipsoideReader::REllipsoidPointAltitudeEllipsoideReader(void)
	??0REphemerisParameterBuilder@@QAE@XZ @ 15 NONAME ; REphemerisParameterBuilder::REphemerisParameterBuilder(void)
	??0REphemerisParameterReader@@QAE@XZ @ 16 NONAME ; REphemerisParameterReader::REphemerisParameterReader(void)
	??0RExtraDopplerInfoBuilder@@QAE@XZ @ 17 NONAME ; RExtraDopplerInfoBuilder::RExtraDopplerInfoBuilder(void)
	??0RExtraDopplerInfoReader@@QAE@XZ @ 18 NONAME ; RExtraDopplerInfoReader::RExtraDopplerInfoReader(void)
	??0RGpsTowAssistArrayBuilder@@QAE@XZ @ 19 NONAME ; RGpsTowAssistArrayBuilder::RGpsTowAssistArrayBuilder(void)
	??0RGpsTowAssistArrayReader@@QAE@XZ @ 20 NONAME ; RGpsTowAssistArrayReader::RGpsTowAssistArrayReader(void)
	??0RGpsTowAssistBuilder@@QAE@XZ @ 21 NONAME ; RGpsTowAssistBuilder::RGpsTowAssistBuilder(void)
	??0RGpsTowAssistReader@@QAE@XZ @ 22 NONAME ; RGpsTowAssistReader::RGpsTowAssistReader(void)
	??0RNavigationModelSatInfoArrayBuilder@@QAE@XZ @ 23 NONAME ; RNavigationModelSatInfoArrayBuilder::RNavigationModelSatInfoArrayBuilder(void)
	??0RNavigationModelSatInfoArrayReader@@QAE@XZ @ 24 NONAME ; RNavigationModelSatInfoArrayReader::RNavigationModelSatInfoArrayReader(void)
	??0RNavigationModelSatInfoBuilder@@QAE@XZ @ 25 NONAME ; RNavigationModelSatInfoBuilder::RNavigationModelSatInfoBuilder(void)
	??0RNavigationModelSatInfoReader@@QAE@XZ @ 26 NONAME ; RNavigationModelSatInfoReader::RNavigationModelSatInfoReader(void)
	??0RReferenceLocationBuilder@@QAE@XZ @ 27 NONAME ; RReferenceLocationBuilder::RReferenceLocationBuilder(void)
	??0RReferenceLocationReader@@QAE@XZ @ 28 NONAME ; RReferenceLocationReader::RReferenceLocationReader(void)
	??0RTAzimuthAndElevationBuilder@@QAE@XZ @ 29 NONAME ; RTAzimuthAndElevationBuilder::RTAzimuthAndElevationBuilder(void)
	??0RTAzimuthAndElevationReader@@QAE@XZ @ 30 NONAME ; RTAzimuthAndElevationReader::RTAzimuthAndElevationReader(void)
	??0RUEPositioningGpsAcquisitionAssistanceBuilder@@QAE@XZ @ 31 NONAME ; RUEPositioningGpsAcquisitionAssistanceBuilder::RUEPositioningGpsAcquisitionAssistanceBuilder(void)
	??0RUEPositioningGpsAcquisitionAssistanceReader@@QAE@XZ @ 32 NONAME ; RUEPositioningGpsAcquisitionAssistanceReader::RUEPositioningGpsAcquisitionAssistanceReader(void)
	??0RUEPositioningGpsAlmanacBuilder@@QAE@XZ @ 33 NONAME ; RUEPositioningGpsAlmanacBuilder::RUEPositioningGpsAlmanacBuilder(void)
	??0RUEPositioningGpsAlmanacReader@@QAE@XZ @ 34 NONAME ; RUEPositioningGpsAlmanacReader::RUEPositioningGpsAlmanacReader(void)
	??0RUEPositioningGpsIonosphericModelBuilder@@QAE@XZ @ 35 NONAME ; RUEPositioningGpsIonosphericModelBuilder::RUEPositioningGpsIonosphericModelBuilder(void)
	??0RUEPositioningGpsIonosphericModelReader@@QAE@XZ @ 36 NONAME ; RUEPositioningGpsIonosphericModelReader::RUEPositioningGpsIonosphericModelReader(void)
	??0RUEPositioningGpsNavigationModelBuilder@@QAE@XZ @ 37 NONAME ; RUEPositioningGpsNavigationModelBuilder::RUEPositioningGpsNavigationModelBuilder(void)
	??0RUEPositioningGpsNavigationModelReader@@QAE@XZ @ 38 NONAME ; RUEPositioningGpsNavigationModelReader::RUEPositioningGpsNavigationModelReader(void)
	??0RUEPositioningGpsReferenceTimeBuilder@@QAE@XZ @ 39 NONAME ; RUEPositioningGpsReferenceTimeBuilder::RUEPositioningGpsReferenceTimeBuilder(void)
	??0RUEPositioningGpsReferenceTimeReader@@QAE@XZ @ 40 NONAME ; RUEPositioningGpsReferenceTimeReader::RUEPositioningGpsReferenceTimeReader(void)
	??0RUEPositioningGpsUtcModelBuilder@@QAE@XZ @ 41 NONAME ; RUEPositioningGpsUtcModelBuilder::RUEPositioningGpsUtcModelBuilder(void)
	??0RUEPositioningGpsUtcModelReader@@QAE@XZ @ 42 NONAME ; RUEPositioningGpsUtcModelReader::RUEPositioningGpsUtcModelReader(void)
	??0RUtranGpsReferenceTimeBuilder@@QAE@XZ @ 43 NONAME ; RUtranGpsReferenceTimeBuilder::RUtranGpsReferenceTimeBuilder(void)
	??0RUtranGpsReferenceTimeReader@@QAE@XZ @ 44 NONAME ; RUtranGpsReferenceTimeReader::RUtranGpsReferenceTimeReader(void)
	?ClearAllFields@DataBuilderFuncs@@SAXAAVRDataBuilderBase@@@Z @ 45 NONAME ; void DataBuilderFuncs::ClearAllFields(class RDataBuilderBase &)
	?ClearField@DataBuilderFuncs@@SAXAAVRDataBuilderBase@@ABH@Z @ 46 NONAME ; void DataBuilderFuncs::ClearField(class RDataBuilderBase &, int const &)
	?Close@RDataBuilderRootBase@@QAEXXZ @ 47 NONAME ; void RDataBuilderRootBase::Close(void)
	?Close@RDataReaderRootBase@@QAEXXZ @ 48 NONAME ; void RDataReaderRootBase::Close(void)
	?DataBuffer@RDataBuilderRootBase@@QBE?AVTPtrC8@@XZ @ 49 NONAME ; class TPtrC8 RDataBuilderRootBase::DataBuffer(void) const
	?DataBuffer@RDataReaderRootBase@@QAE?AVTPtr8@@XZ @ 50 NONAME ; class TPtr8 RDataReaderRootBase::DataBuffer(void)
	?FieldExists@DataBuilderFuncs@@SAHABVRDataBuilderBase@@ABH@Z @ 51 NONAME ; int DataBuilderFuncs::FieldExists(class RDataBuilderBase const &, int const &)
	?FieldExists@DataReaderFuncs@@SAHABVRDataReaderBase@@ABH@Z @ 52 NONAME ; int DataReaderFuncs::FieldExists(class RDataReaderBase const &, int const &)
	?GetField@DataReaderFuncs@@SAHABVRDataReaderBase@@ABHAAH@Z @ 53 NONAME ; int DataReaderFuncs::GetField(class RDataReaderBase const &, int const &, int &)
	?GetField@DataReaderFuncs@@SAHABVRDataReaderBase@@ABHAAI@Z @ 54 NONAME ; int DataReaderFuncs::GetField(class RDataReaderBase const &, int const &, unsigned int &)
	?GetField@DataReaderFuncs@@SAHABVRDataReaderBase@@ABHAAVTDes8@@@Z @ 55 NONAME ; int DataReaderFuncs::GetField(class RDataReaderBase const &, int const &, class TDes8 &)
	?GetField@DataReaderFuncs@@SAHABVRDataReaderBase@@ABHAAW4TCodePhaseSearchWindow@@@Z @ 56 NONAME ; int DataReaderFuncs::GetField(class RDataReaderBase const &, int const &, enum TCodePhaseSearchWindow &)
	?GetField@DataReaderFuncs@@SAHABVRDataReaderBase@@ABHAAW4TDopplerUncertainty@@@Z @ 57 NONAME ; int DataReaderFuncs::GetField(class RDataReaderBase const &, int const &, enum TDopplerUncertainty &)
	?GetField@DataReaderFuncs@@SAHABVRDataReaderBase@@ABHAAW4TSatelliteStatus@@@Z @ 58 NONAME ; int DataReaderFuncs::GetField(class RDataReaderBase const &, int const &, enum TSatelliteStatus &)
	?GetField@DataReaderFuncs@@SAHABVRDataReaderBase@@ABHAAW4TSfnTowUncertainty@@@Z @ 59 NONAME ; int DataReaderFuncs::GetField(class RDataReaderBase const &, int const &, enum TSfnTowUncertainty &)
	?GetField@DataReaderFuncs@@SAHABVRDataReaderBase@@ABHAAW4TUtranGpsDriftRate@@@Z @ 60 NONAME ; int DataReaderFuncs::GetField(class RDataReaderBase const &, int const &, enum TUtranGpsDriftRate &)
	?GetFieldBuilder@DataBuilderFuncs@@SAXAAVRDataBuilderBase@@ABH0@Z @ 61 NONAME ; void DataBuilderFuncs::GetFieldBuilder(class RDataBuilderBase &, int const &, class RDataBuilderBase &)
	?GetFieldReader@DataReaderFuncs@@SAHABVRDataReaderBase@@ABHAAV2@@Z @ 62 NONAME ; int DataReaderFuncs::GetFieldReader(class RDataReaderBase const &, int const &, class RDataReaderBase &)
	?MaxCount@DataBuilderFuncs@@SAHABVRDataBuilderArrayBase@@@Z @ 63 NONAME ; int DataBuilderFuncs::MaxCount(class RDataBuilderArrayBase const &)
	?MaxCount@DataReaderFuncs@@SAHABVRDataReaderArrayBase@@@Z @ 64 NONAME ; int DataReaderFuncs::MaxCount(class RDataReaderArrayBase const &)
	?OpenL@RBadSatListBuilder@@QAEXXZ @ 65 NONAME ; void RBadSatListBuilder::OpenL(void)
	?OpenL@RBadSatListReader@@QAEXXZ @ 66 NONAME ; void RBadSatListReader::OpenL(void)
	?OpenL@RReferenceLocationBuilder@@QAEXXZ @ 67 NONAME ; void RReferenceLocationBuilder::OpenL(void)
	?OpenL@RReferenceLocationReader@@QAEXXZ @ 68 NONAME ; void RReferenceLocationReader::OpenL(void)
	?OpenL@RUEPositioningGpsAcquisitionAssistanceBuilder@@QAEXXZ @ 69 NONAME ; void RUEPositioningGpsAcquisitionAssistanceBuilder::OpenL(void)
	?OpenL@RUEPositioningGpsAcquisitionAssistanceReader@@QAEXXZ @ 70 NONAME ; void RUEPositioningGpsAcquisitionAssistanceReader::OpenL(void)
	?OpenL@RUEPositioningGpsAlmanacBuilder@@QAEXXZ @ 71 NONAME ; void RUEPositioningGpsAlmanacBuilder::OpenL(void)
	?OpenL@RUEPositioningGpsAlmanacReader@@QAEXXZ @ 72 NONAME ; void RUEPositioningGpsAlmanacReader::OpenL(void)
	?OpenL@RUEPositioningGpsIonosphericModelBuilder@@QAEXXZ @ 73 NONAME ; void RUEPositioningGpsIonosphericModelBuilder::OpenL(void)
	?OpenL@RUEPositioningGpsIonosphericModelReader@@QAEXXZ @ 74 NONAME ; void RUEPositioningGpsIonosphericModelReader::OpenL(void)
	?OpenL@RUEPositioningGpsNavigationModelBuilder@@QAEXXZ @ 75 NONAME ; void RUEPositioningGpsNavigationModelBuilder::OpenL(void)
	?OpenL@RUEPositioningGpsNavigationModelReader@@QAEXXZ @ 76 NONAME ; void RUEPositioningGpsNavigationModelReader::OpenL(void)
	?OpenL@RUEPositioningGpsReferenceTimeBuilder@@QAEXXZ @ 77 NONAME ; void RUEPositioningGpsReferenceTimeBuilder::OpenL(void)
	?OpenL@RUEPositioningGpsReferenceTimeReader@@QAEXXZ @ 78 NONAME ; void RUEPositioningGpsReferenceTimeReader::OpenL(void)
	?OpenL@RUEPositioningGpsUtcModelBuilder@@QAEXXZ @ 79 NONAME ; void RUEPositioningGpsUtcModelBuilder::OpenL(void)
	?OpenL@RUEPositioningGpsUtcModelReader@@QAEXXZ @ 80 NONAME ; void RUEPositioningGpsUtcModelReader::OpenL(void)
	?SetField@DataBuilderFuncs@@SAXAAVRDataBuilderBase@@ABH1@Z @ 81 NONAME ; void DataBuilderFuncs::SetField(class RDataBuilderBase &, int const &, int const &)
	?SetField@DataBuilderFuncs@@SAXAAVRDataBuilderBase@@ABHABI@Z @ 82 NONAME ; void DataBuilderFuncs::SetField(class RDataBuilderBase &, int const &, unsigned int const &)
	?SetField@DataBuilderFuncs@@SAXAAVRDataBuilderBase@@ABHABVTDesC8@@@Z @ 83 NONAME ; void DataBuilderFuncs::SetField(class RDataBuilderBase &, int const &, class TDesC8 const &)
	?SetField@DataBuilderFuncs@@SAXAAVRDataBuilderBase@@ABHABW4TCodePhaseSearchWindow@@@Z @ 84 NONAME ; void DataBuilderFuncs::SetField(class RDataBuilderBase &, int const &, enum TCodePhaseSearchWindow const &)
	?SetField@DataBuilderFuncs@@SAXAAVRDataBuilderBase@@ABHABW4TDopplerUncertainty@@@Z @ 85 NONAME ; void DataBuilderFuncs::SetField(class RDataBuilderBase &, int const &, enum TDopplerUncertainty const &)
	?SetField@DataBuilderFuncs@@SAXAAVRDataBuilderBase@@ABHABW4TSatelliteStatus@@@Z @ 86 NONAME ; void DataBuilderFuncs::SetField(class RDataBuilderBase &, int const &, enum TSatelliteStatus const &)
	?SetField@DataBuilderFuncs@@SAXAAVRDataBuilderBase@@ABHABW4TSfnTowUncertainty@@@Z @ 87 NONAME ; void DataBuilderFuncs::SetField(class RDataBuilderBase &, int const &, enum TSfnTowUncertainty const &)
	?SetField@DataBuilderFuncs@@SAXAAVRDataBuilderBase@@ABHABW4TUtranGpsDriftRate@@@Z @ 88 NONAME ; void DataBuilderFuncs::SetField(class RDataBuilderBase &, int const &, enum TUtranGpsDriftRate const &)
	??0RPrimaryCpichInfoBuilder@@QAE@XZ @ 89 NONAME ; RPrimaryCpichInfoBuilder::RPrimaryCpichInfoBuilder(void)
	??0RPrimaryCpichInfoReader@@QAE@XZ @ 90 NONAME ; RPrimaryCpichInfoReader::RPrimaryCpichInfoReader(void)
	??0RLbsAssistanceDataBuilderSet@@QAE@XZ @ 91 NONAME ; RLbsAssistanceDataBuilderSet::RLbsAssistanceDataBuilderSet(void)
	?AnyFieldExists@DataBuilderFuncs@@SAHABVRDataBuilderBase@@@Z @ 92 NONAME ; int DataBuilderFuncs::AnyFieldExists(class RDataBuilderBase const &)
	?AnyFieldExists@DataReaderFuncs@@SAHABVRDataReaderBase@@@Z @ 93 NONAME ; int DataReaderFuncs::AnyFieldExists(class RDataReaderBase const &)
	?ClearAllBuilders@RLbsAssistanceDataBuilderSet@@QAEXXZ @ 94 NONAME ; void RLbsAssistanceDataBuilderSet::ClearAllBuilders(void)
	?Close@RLbsAssistanceDataBuilderSet@@QAEXXZ @ 95 NONAME ; void RLbsAssistanceDataBuilderSet::Close(void)
	?DataBufferAccess@RDataBuilderRootBase@@QAE?AVTPtr8@@XZ @ 96 NONAME ; class TPtr8 RDataBuilderRootBase::DataBufferAccess(void)
	?DataSize@RBadSatListBuilder@@SAIXZ @ 97 NONAME ; unsigned int RBadSatListBuilder::DataSize(void)
	?DataSize@RBadSatListReader@@SAIXZ @ 98 NONAME ; unsigned int RBadSatListReader::DataSize(void)
	?DataSize@RReferenceLocationBuilder@@SAIXZ @ 99 NONAME ; unsigned int RReferenceLocationBuilder::DataSize(void)
	?DataSize@RReferenceLocationReader@@SAIXZ @ 100 NONAME ; unsigned int RReferenceLocationReader::DataSize(void)
	?DataSize@RUEPositioningGpsAcquisitionAssistanceBuilder@@SAIXZ @ 101 NONAME ; unsigned int RUEPositioningGpsAcquisitionAssistanceBuilder::DataSize(void)
	?DataSize@RUEPositioningGpsAcquisitionAssistanceReader@@SAIXZ @ 102 NONAME ; unsigned int RUEPositioningGpsAcquisitionAssistanceReader::DataSize(void)
	?DataSize@RUEPositioningGpsAlmanacBuilder@@SAIXZ @ 103 NONAME ; unsigned int RUEPositioningGpsAlmanacBuilder::DataSize(void)
	?DataSize@RUEPositioningGpsAlmanacReader@@SAIXZ @ 104 NONAME ; unsigned int RUEPositioningGpsAlmanacReader::DataSize(void)
	?DataSize@RUEPositioningGpsIonosphericModelBuilder@@SAIXZ @ 105 NONAME ; unsigned int RUEPositioningGpsIonosphericModelBuilder::DataSize(void)
	?DataSize@RUEPositioningGpsIonosphericModelReader@@SAIXZ @ 106 NONAME ; unsigned int RUEPositioningGpsIonosphericModelReader::DataSize(void)
	?DataSize@RUEPositioningGpsNavigationModelBuilder@@SAIXZ @ 107 NONAME ; unsigned int RUEPositioningGpsNavigationModelBuilder::DataSize(void)
	?DataSize@RUEPositioningGpsNavigationModelReader@@SAIXZ @ 108 NONAME ; unsigned int RUEPositioningGpsNavigationModelReader::DataSize(void)
	?DataSize@RUEPositioningGpsReferenceTimeBuilder@@SAIXZ @ 109 NONAME ; unsigned int RUEPositioningGpsReferenceTimeBuilder::DataSize(void)
	?DataSize@RUEPositioningGpsReferenceTimeReader@@SAIXZ @ 110 NONAME ; unsigned int RUEPositioningGpsReferenceTimeReader::DataSize(void)
	?DataSize@RUEPositioningGpsUtcModelBuilder@@SAIXZ @ 111 NONAME ; unsigned int RUEPositioningGpsUtcModelBuilder::DataSize(void)
	?DataSize@RUEPositioningGpsUtcModelReader@@SAIXZ @ 112 NONAME ; unsigned int RUEPositioningGpsUtcModelReader::DataSize(void)
	?DoGet@RLbsAssistanceDataBuilderSet@@AAEHAAPAVRBadSatListBuilder@@@Z @ 113 NONAME ; int RLbsAssistanceDataBuilderSet::DoGet(class RBadSatListBuilder * &)
	?DoGet@RLbsAssistanceDataBuilderSet@@AAEHAAPAVRReferenceLocationBuilder@@@Z @ 114 NONAME ; int RLbsAssistanceDataBuilderSet::DoGet(class RReferenceLocationBuilder * &)
	?DoGet@RLbsAssistanceDataBuilderSet@@AAEHAAPAVRUEPositioningGpsAcquisitionAssistanceBuilder@@@Z @ 115 NONAME ; int RLbsAssistanceDataBuilderSet::DoGet(class RUEPositioningGpsAcquisitionAssistanceBuilder * &)
	?DoGet@RLbsAssistanceDataBuilderSet@@AAEHAAPAVRUEPositioningGpsAlmanacBuilder@@@Z @ 116 NONAME ; int RLbsAssistanceDataBuilderSet::DoGet(class RUEPositioningGpsAlmanacBuilder * &)
	?DoGet@RLbsAssistanceDataBuilderSet@@AAEHAAPAVRUEPositioningGpsIonosphericModelBuilder@@@Z @ 117 NONAME ; int RLbsAssistanceDataBuilderSet::DoGet(class RUEPositioningGpsIonosphericModelBuilder * &)
	?DoGet@RLbsAssistanceDataBuilderSet@@AAEHAAPAVRUEPositioningGpsNavigationModelBuilder@@@Z @ 118 NONAME ; int RLbsAssistanceDataBuilderSet::DoGet(class RUEPositioningGpsNavigationModelBuilder * &)
	?DoGet@RLbsAssistanceDataBuilderSet@@AAEHAAPAVRUEPositioningGpsReferenceTimeBuilder@@@Z @ 119 NONAME ; int RLbsAssistanceDataBuilderSet::DoGet(class RUEPositioningGpsReferenceTimeBuilder * &)
	?DoGet@RLbsAssistanceDataBuilderSet@@AAEHAAPAVRUEPositioningGpsUtcModelBuilder@@@Z @ 120 NONAME ; int RLbsAssistanceDataBuilderSet::DoGet(class RUEPositioningGpsUtcModelBuilder * &)
	?ExternalizeL@RLbsAssistanceDataBuilderSet@@QAEXAAVRWriteStream@@@Z @ 121 NONAME ; void RLbsAssistanceDataBuilderSet::ExternalizeL(class RWriteStream &)
	?InternalizeL@RLbsAssistanceDataBuilderSet@@QAEXAAVRReadStream@@@Z @ 122 NONAME ; void RLbsAssistanceDataBuilderSet::InternalizeL(class RReadStream &)
	?IsOpen@RDataBuilderRootBase@@QBEHXZ @ 123 NONAME ; int RDataBuilderRootBase::IsOpen(void) const
	?IsOpen@RDataReaderRootBase@@QBEHXZ @ 124 NONAME ; int RDataReaderRootBase::IsOpen(void) const
	?MaxExternalizedBufferSize@RLbsAssistanceDataBuilderSet@@SAIXZ @ 125 NONAME ; unsigned int RLbsAssistanceDataBuilderSet::MaxExternalizedBufferSize(void)
	?MergeL@RLbsAssistanceDataBuilderSet@@QAEHAAV1@@Z @ 126 NONAME ; int RLbsAssistanceDataBuilderSet::MergeL(class RLbsAssistanceDataBuilderSet &)
	?OpenL@RLbsAssistanceDataBuilderSet@@QAEXXZ @ 127 NONAME ; void RLbsAssistanceDataBuilderSet::OpenL(void)
	?SetTimeStamp@RDataBuilderRootBase@@QAEXABVTTime@@@Z @ 128 NONAME ; void RDataBuilderRootBase::SetTimeStamp(class TTime const &)
	?TimeStamp@RDataBuilderRootBase@@QBEABVTTime@@XZ @ 129 NONAME ; class TTime const & RDataBuilderRootBase::TimeStamp(void) const
	?TimeStamp@RDataReaderRootBase@@QBEABVTTime@@XZ @ 130 NONAME ; class TTime const & RDataReaderRootBase::TimeStamp(void) const
	??0RSubFrame1ReservedArrayReader@@QAE@XZ @ 131 NONAME ; RSubFrame1ReservedArrayReader::RSubFrame1ReservedArrayReader(void)
	??0RSubFrame1ReservedArrayBuilder@@QAE@XZ @ 132 NONAME ; RSubFrame1ReservedArrayBuilder::RSubFrame1ReservedArrayBuilder(void)
	??0RRrlpGpsReferenceTimeReader@@QAE@XZ @ 133 NONAME ; RRrlpGpsReferenceTimeReader::RRrlpGpsReferenceTimeReader(void)
	??0RRrlpGpsReferenceTimeBuilder@@QAE@XZ @ 134 NONAME ; RRrlpGpsReferenceTimeBuilder::RRrlpGpsReferenceTimeBuilder(void)
	??0RLbsAssistanceDataReaderSet@@QAE@XZ @ 135 NONAME ; RLbsAssistanceDataReaderSet::RLbsAssistanceDataReaderSet(void)
	?DoGet@RLbsAssistanceDataReaderSet@@AAEHAAPAVRUEPositioningGpsAcquisitionAssistanceReader@@@Z @ 136 NONAME ; int RLbsAssistanceDataReaderSet::DoGet(class RUEPositioningGpsAcquisitionAssistanceReader * &)
	?DoGet@RLbsAssistanceDataReaderSet@@AAEHAAPAVRReferenceLocationReader@@@Z @ 137 NONAME ; int RLbsAssistanceDataReaderSet::DoGet(class RReferenceLocationReader * &)
	?ExternalizeL@RLbsAssistanceDataReaderSet@@QAEXAAVRWriteStream@@@Z @ 138 NONAME ; void RLbsAssistanceDataReaderSet::ExternalizeL(class RWriteStream &)
	?DoGet@RLbsAssistanceDataReaderSet@@AAEHAAPAVRUEPositioningGpsNavigationModelReader@@@Z @ 139 NONAME ; int RLbsAssistanceDataReaderSet::DoGet(class RUEPositioningGpsNavigationModelReader * &)
	?InternalizeL@RLbsAssistanceDataReaderSet@@QAEXAAVRReadStream@@@Z @ 140 NONAME ; void RLbsAssistanceDataReaderSet::InternalizeL(class RReadStream &)
	?DoGet@RLbsAssistanceDataReaderSet@@AAEHAAPAVRUEPositioningGpsUtcModelReader@@@Z @ 141 NONAME ; int RLbsAssistanceDataReaderSet::DoGet(class RUEPositioningGpsUtcModelReader * &)
	?DoGet@RLbsAssistanceDataReaderSet@@AAEHAAPAVRUEPositioningGpsReferenceTimeReader@@@Z @ 142 NONAME ; int RLbsAssistanceDataReaderSet::DoGet(class RUEPositioningGpsReferenceTimeReader * &)
	?DoGet@RLbsAssistanceDataReaderSet@@AAEHAAPAVRUEPositioningGpsIonosphericModelReader@@@Z @ 143 NONAME ; int RLbsAssistanceDataReaderSet::DoGet(class RUEPositioningGpsIonosphericModelReader * &)
	?MaxExternalizedBufferSize@RLbsAssistanceDataReaderSet@@SAIXZ @ 144 NONAME ; unsigned int RLbsAssistanceDataReaderSet::MaxExternalizedBufferSize(void)
	?OpenL@RLbsAssistanceDataReaderSet@@QAEXXZ @ 145 NONAME ; void RLbsAssistanceDataReaderSet::OpenL(void)
	?DoGet@RLbsAssistanceDataReaderSet@@AAEHAAPAVRUEPositioningGpsAlmanacReader@@@Z @ 146 NONAME ; int RLbsAssistanceDataReaderSet::DoGet(class RUEPositioningGpsAlmanacReader * &)
	?Close@RLbsAssistanceDataReaderSet@@QAEXXZ @ 147 NONAME ; void RLbsAssistanceDataReaderSet::Close(void)
	?DoGet@RLbsAssistanceDataReaderSet@@AAEHAAPAVRBadSatListReader@@@Z @ 148 NONAME ; int RLbsAssistanceDataReaderSet::DoGet(class RBadSatListReader * &)

