EXPORTS
	?ApplyL@CTempStereoWidening@@UAEXXZ @ 1 NONAME ; void CTempStereoWidening::ApplyL(void)
	?ApplyPresetL@CStereoWideningUtility@@QAEXH@Z @ 2 NONAME ; void CStereoWideningUtility::ApplyPresetL(int)
	?CreatePresetL@CStereoWideningUtility@@QAEXAAVTDesC16@@AAVCStereoWidening@@@Z @ 3 NONAME ; void CStereoWideningUtility::CreatePresetL(class TDesC16 &, class CStereoWidening &)
	?DeletePresetL@CStereoWideningUtility@@QAEXH@Z @ 4 NONAME ; void CStereoWideningUtility::DeletePresetL(int)
	?DisableStereoWideningL@CStereoWideningUtility@@QAEXXZ @ 5 NONAME ; void CStereoWideningUtility::DisableStereoWideningL(void)
	?GetPresetL@CStereoWideningUtility@@QAEABVTDesC16@@H@Z @ 6 NONAME ; class TDesC16 const & CStereoWideningUtility::GetPresetL(int)
	?ModifyPresetL@CStereoWideningUtility@@QAEXHAAVTDesC16@@AAVCStereoWidening@@@Z @ 7 NONAME ; void CStereoWideningUtility::ModifyPresetL(int, class TDesC16 &, class CStereoWidening &)
	?NewL@CStereoWideningUtility@@SAPAV1@AAVCMMFDevSound@@@Z @ 8 NONAME ; class CStereoWideningUtility * CStereoWideningUtility::NewL(class CMMFDevSound &)
	?NewL@CStereoWideningUtility@@SAPAV1@AAVCMdaAudioConvertUtility@@@Z @ 9 NONAME ; class CStereoWideningUtility * CStereoWideningUtility::NewL(class CMdaAudioConvertUtility &)
	?NewL@CStereoWideningUtility@@SAPAV1@AAVCMdaAudioInputStream@@@Z @ 10 NONAME ; class CStereoWideningUtility * CStereoWideningUtility::NewL(class CMdaAudioInputStream &)
	?NewL@CStereoWideningUtility@@SAPAV1@AAVCMdaAudioOutputStream@@@Z @ 11 NONAME ; class CStereoWideningUtility * CStereoWideningUtility::NewL(class CMdaAudioOutputStream &)
	?NewL@CStereoWideningUtility@@SAPAV1@AAVCMdaAudioPlayerUtility@@@Z @ 12 NONAME ; class CStereoWideningUtility * CStereoWideningUtility::NewL(class CMdaAudioPlayerUtility &)
	?NewL@CStereoWideningUtility@@SAPAV1@AAVCMdaAudioRecorderUtility@@@Z @ 13 NONAME ; class CStereoWideningUtility * CStereoWideningUtility::NewL(class CMdaAudioRecorderUtility &)
	?NewL@CStereoWideningUtility@@SAPAV1@AAVCMdaAudioToneUtility@@@Z @ 14 NONAME ; class CStereoWideningUtility * CStereoWideningUtility::NewL(class CMdaAudioToneUtility &)
	?NewL@CStereoWideningUtility@@SAPAV1@AAVMCustomInterface@@@Z @ 15 NONAME ; class CStereoWideningUtility * CStereoWideningUtility::NewL(class MCustomInterface &)
	?NewL@CStereoWideningUtility@@SAPAV1@PAVCCustomCommandUtility@@@Z @ 16 NONAME ; class CStereoWideningUtility * CStereoWideningUtility::NewL(class CCustomCommandUtility *)
	?NewL@CTempStereoWidening@@SAPAV1@HPAVCStereoWidening@@@Z @ 17 NONAME ; class CTempStereoWidening * CTempStereoWidening::NewL(int, class CStereoWidening *)
	?NumberOfPreDefinedPresets@CStereoWideningUtility@@QBEKXZ @ 18 NONAME ; unsigned long CStereoWideningUtility::NumberOfPreDefinedPresets(void) const
	?Presets@CStereoWideningUtility@@QAE?AV?$TArray@VTEfStereoWideningUtilityPreset@@@@XZ @ 19 NONAME ; class TArray<class TEfStereoWideningUtilityPreset> CStereoWideningUtility::Presets(void)
	?ResetPresetL@CStereoWideningUtility@@QAEXH@Z @ 20 NONAME ; void CStereoWideningUtility::ResetPresetL(int)
	?StereoWidening@CStereoWideningUtility@@QAEAAVCStereoWidening@@XZ @ 21 NONAME ; class CStereoWidening & CStereoWideningUtility::StereoWidening(void)
	?NewL@CStereoWideningUtility@@SAPAV1@AAVCMidiClientUtility@@@Z @ 22 NONAME ; class CStereoWideningUtility * CStereoWideningUtility::NewL(class CMidiClientUtility &)
	?DisableL@CTempStereoWidening@@UAEXXZ @ 23 NONAME ; void CTempStereoWidening::DisableL(void)
	?EnableL@CTempStereoWidening@@UAEXXZ @ 24 NONAME ; void CTempStereoWidening::EnableL(void)
	?IsEnabled@CTempStereoWidening@@UBEHXZ @ 25 NONAME ; int CTempStereoWidening::IsEnabled(void) const
	?IsEnforced@CTempStereoWidening@@UBEHXZ @ 26 NONAME ; int CTempStereoWidening::IsEnforced(void) const
	?EnforceL@CTempStereoWidening@@UAEXH@Z @ 27 NONAME ; void CTempStereoWidening::EnforceL(int)
	?HaveUpdateRights@CTempStereoWidening@@UBEHXZ @ 28 NONAME ; int CTempStereoWidening::HaveUpdateRights(void) const
	?NewL@CStereoWideningUtility@@SAPAV1@AAVCDrmPlayerUtility@@@Z @ 29 NONAME ; class CStereoWideningUtility * CStereoWideningUtility::NewL(class CDrmPlayerUtility &)
	?NewL@CStereoWideningUtility@@SAPAV1@AAVCVideoPlayerUtility@@@Z @ 30 NONAME ; class CStereoWideningUtility * CStereoWideningUtility::NewL(class CVideoPlayerUtility &)

