EXPORTS
	??0RAccessoryControl@@QAE@XZ @ 1 NONAME ; RAccessoryControl::RAccessoryControl(void)
	??0RAccessorySettings@@QAE@XZ @ 2 NONAME ; RAccessorySettings::RAccessorySettings(void)
	??0TAccModeSetting@@QAE@XZ @ 3 NONAME ; TAccModeSetting::TAccModeSetting(void)
	??0TAccModeSettingArray@@QAE@XZ @ 4 NONAME ; TAccModeSettingArray::TAccModeSettingArray(void)
	?AccessoryValueChangedNotifyL@RAccessoryControl@@QBEXABVTAccPolGenericID@@ABVTAccPolNameRecord@@UTAccValueTypeTBool@@@Z @ 5 NONAME ; void RAccessoryControl::AccessoryValueChangedNotifyL(class TAccPolGenericID const &, class TAccPolNameRecord const &, struct TAccValueTypeTBool) const
	?AccessoryValueChangedNotifyL@RAccessoryControl@@QBEXABVTAccPolGenericID@@ABVTAccPolNameRecord@@UTAccValueTypeTInt@@@Z @ 6 NONAME ; void RAccessoryControl::AccessoryValueChangedNotifyL(class TAccPolGenericID const &, class TAccPolNameRecord const &, struct TAccValueTypeTInt) const
	?AddSetting@TAccModeSettingArray@@QAEHABVTAccModeSetting@@@Z @ 7 NONAME ; int TAccModeSettingArray::AddSetting(class TAccModeSetting const &)
	?CancelConnectAccessory@RAccessoryControl@@QBEXXZ @ 8 NONAME ; void RAccessoryControl::CancelConnectAccessory(void) const
	?CancelDisconnectAccessory@RAccessoryControl@@QBEXXZ @ 9 NONAME ; void RAccessoryControl::CancelDisconnectAccessory(void) const
	?CloseSubSession@RAccessoryControl@@UAEHXZ @ 10 NONAME ; int RAccessoryControl::CloseSubSession(void)
	?CloseSubSession@RAccessorySettings@@UAEHXZ @ 11 NONAME ; int RAccessorySettings::CloseSubSession(void)
	?ConnectAccessory@RAccessoryControl@@QAEXAAVTRequestStatus@@AAVTAccPolGenericID@@@Z @ 12 NONAME ; void RAccessoryControl::ConnectAccessory(class TRequestStatus &, class TAccPolGenericID &)
	?CreateSubSession@RAccessoryControl@@UAEHAAVRAccessoryServer@@@Z @ 13 NONAME ; int RAccessoryControl::CreateSubSession(class RAccessoryServer &)
	?CreateSubSession@RAccessorySettings@@UAEHAAVRAccessoryServer@@@Z @ 14 NONAME ; int RAccessorySettings::CreateSubSession(class RAccessoryServer &)
	?DisconnectAccessory@RAccessoryControl@@QAEXAAVTRequestStatus@@ABVTAccPolGenericID@@@Z @ 15 NONAME ; void RAccessoryControl::DisconnectAccessory(class TRequestStatus &, class TAccPolGenericID const &)
	?GetAccessoryModeSetting@RAccessorySettings@@QBEHW4TAccMode@@AAVTAccModeSetting@@@Z @ 16 NONAME ; int RAccessorySettings::GetAccessoryModeSetting(enum TAccMode, class TAccModeSetting &) const
	?GetAccessoryModeSettings@RAccessorySettings@@QBEHW4TAccMode@@AAVTAccModeSettingArray@@@Z @ 17 NONAME ; int RAccessorySettings::GetAccessoryModeSettings(enum TAccMode, class TAccModeSettingArray &) const
	?GetArraySize@TAccModeSettingArray@@QBEHXZ @ 18 NONAME ; int TAccModeSettingArray::GetArraySize(void) const
	?GetHWDeviceSettings@RAccessorySettings@@QBEHAAK@Z @ 19 NONAME ; int RAccessorySettings::GetHWDeviceSettings(unsigned long &) const
	?GetMaxArraySize@TAccModeSettingArray@@QBEHXZ @ 20 NONAME ; int TAccModeSettingArray::GetMaxArraySize(void) const
	?GetSetting@TAccModeSettingArray@@QBEHHAAVTAccModeSetting@@@Z @ 21 NONAME ; int TAccModeSettingArray::GetSetting(int, class TAccModeSetting &) const
	?GetSupportedHWDeviceSettings@RAccessorySettings@@QAEHAAK@Z @ 22 NONAME ; int RAccessorySettings::GetSupportedHWDeviceSettings(unsigned long &)
	?GetTBool@TAccModeSetting@@QBEHAAH@Z @ 23 NONAME ; int TAccModeSetting::GetTBool(int &) const
	?GetTDes@TAccModeSetting@@QBEHAAVTDes16@@@Z @ 24 NONAME ; int TAccModeSetting::GetTDes(class TDes16 &) const
	?GetTInt@TAccModeSetting@@QBEHAAH@Z @ 25 NONAME ; int TAccModeSetting::GetTInt(int &) const
	?Id@TAccModeSetting@@QBEKXZ @ 26 NONAME ; unsigned long TAccModeSetting::Id(void) const
	?Reset@TAccModeSettingArray@@QAEXXZ @ 27 NONAME ; void TAccModeSettingArray::Reset(void)
	?SetAccessoryModeSettingL@RAccessorySettings@@QAEHW4TAccMode@@AAVTAccModeSetting@@@Z @ 28 NONAME ; int RAccessorySettings::SetAccessoryModeSettingL(enum TAccMode, class TAccModeSetting &)
	?SetAccessoryModeSettingsL@RAccessorySettings@@QAEHW4TAccMode@@AAVTAccModeSettingArray@@@Z @ 29 NONAME ; int RAccessorySettings::SetAccessoryModeSettingsL(enum TAccMode, class TAccModeSettingArray &)
	?SetHWDeviceSettingsL@RAccessorySettings@@QAEHKHH@Z @ 30 NONAME ; int RAccessorySettings::SetHWDeviceSettingsL(unsigned long, int, int)
	?SetId@TAccModeSetting@@QAEXK@Z @ 31 NONAME ; void TAccModeSetting::SetId(unsigned long)
	?SetTBool@TAccModeSetting@@QAEXH@Z @ 32 NONAME ; void TAccModeSetting::SetTBool(int)
	?SetTDes@TAccModeSetting@@QAEHABVTDesC16@@@Z @ 33 NONAME ; int TAccModeSetting::SetTDes(class TDesC16 const &)
	?SetTInt@TAccModeSetting@@QAEXH@Z @ 34 NONAME ; void TAccModeSetting::SetTInt(int)
	?SetValueL@RAccessoryControl@@QAEHABVTAccPolGenericID@@ABVTAccPolNameRecord@@UTAccValueTypeTBool@@@Z @ 35 NONAME ; int RAccessoryControl::SetValueL(class TAccPolGenericID const &, class TAccPolNameRecord const &, struct TAccValueTypeTBool)
	?SetValueL@RAccessoryControl@@QAEHABVTAccPolGenericID@@ABVTAccPolNameRecord@@UTAccValueTypeTInt@@@Z @ 36 NONAME ; int RAccessoryControl::SetValueL(class TAccPolGenericID const &, class TAccPolNameRecord const &, struct TAccValueTypeTInt)
	?Type@TAccModeSetting@@QBE?AW4TAccModeSettingType@@XZ @ 37 NONAME ; enum TAccModeSettingType TAccModeSetting::Type(void) const
	?ConnectAccessory@RAccessoryControl@@QAEXAAVTRequestStatus@@PAVCAccConGenericID@@H@Z @ 38 NONAME ; void RAccessoryControl::ConnectAccessory(class TRequestStatus &, class CAccConGenericID *, int)
	?SetValueL@RAccessoryControl@@QAEHABVTAccPolGenericID@@ABVTAccPolNameRecord@@ABVCAccPolObjectCon@@@Z @ 39 NONAME ; int RAccessoryControl::SetValueL(class TAccPolGenericID const &, class TAccPolNameRecord const &, class CAccPolObjectCon const &)
	?AccessoryValueChangedNotifyL@RAccessoryControl@@QBEXABVTAccPolGenericID@@ABVTAccPolNameRecord@@ABVCAccPolObjectCon@@@Z @ 40 NONAME ; void RAccessoryControl::AccessoryValueChangedNotifyL(class TAccPolGenericID const &, class TAccPolNameRecord const &, class CAccPolObjectCon const &) const

