EXPORTS
	?NewLC@CAccPolMixerUnit@@SAPAV1@PAVCAccPolObjectCon@@@Z @ 1 NONAME ; class CAccPolMixerUnit * CAccPolMixerUnit::NewLC(class CAccPolObjectCon *)
	?GetAudioControlsL@CAccPolAudioUnitBase@@QBEXKAAV?$RPointerArray@VCAccPolAudioControlBase@@@@@Z @ 2 NONAME ; void CAccPolAudioUnitBase::GetAudioControlsL(unsigned long, class RPointerArray<class CAccPolAudioControlBase> &) const
	?UnitId@CAccPolAudioControlBase@@QBEEXZ @ 3 NONAME ; unsigned char CAccPolAudioControlBase::UnitId(void) const
	?SetRearCenter@CAccPolHdmiSpeakerAllocation@@QAEXH@Z @ 4 NONAME ; void CAccPolHdmiSpeakerAllocation::SetRearCenter(int)
	?SetInput@CAccPolInputControl@@QAEXE@Z @ 5 NONAME ; void CAccPolInputControl::SetInput(unsigned char)
	?SamFreq@CAccPolHdmiAudioFormat@@QBEKXZ @ 6 NONAME ; unsigned long CAccPolHdmiAudioFormat::SamFreq(void) const
	??1CAccPolVolumeControl@@UAE@XZ @ 7 NONAME ; CAccPolVolumeControl::~CAccPolVolumeControl(void)
	?SetRearSpeakers@CAccPolHdmiSpeakerAllocation@@QAEXH@Z @ 8 NONAME ; void CAccPolHdmiSpeakerAllocation::SetRearSpeakers(int)
	??1CAccPolMuteControl@@UAE@XZ @ 9 NONAME ; CAccPolMuteControl::~CAccPolMuteControl(void)
	?GetAudioFormatObjectsL@CAccPolHdmiObjectCon@@QBEXAAV?$RPointerArray@VCAccPolHdmiAudioFormat@@@@@Z @ 10 NONAME ; void CAccPolHdmiObjectCon::GetAudioFormatObjectsL(class RPointerArray<class CAccPolHdmiAudioFormat> &) const
	?FrontSpeakers@CAccPolHdmiSpeakerAllocation@@QBEHXZ @ 11 NONAME ; int CAccPolHdmiSpeakerAllocation::FrontSpeakers(void) const
	?NewL@CAccPolHdmiAudioFormat@@SAPAV1@PAVCAccPolObjectCon@@@Z @ 12 NONAME ; class CAccPolHdmiAudioFormat * CAccPolHdmiAudioFormat::NewL(class CAccPolObjectCon *)
	?RearLeftRightCenter@CAccPolHdmiSpeakerAllocation@@QBEHXZ @ 13 NONAME ; int CAccPolHdmiSpeakerAllocation::RearLeftRightCenter(void) const
	?SetFrontCenterHigh@CAccPolHdmiSpeakerAllocation@@QAEXH@Z @ 14 NONAME ; void CAccPolHdmiSpeakerAllocation::SetFrontCenterHigh(int)
	?SamFreq@CAccPolHdmiAudioFormat@@QBEHW4TSamplingFrequency@1@@Z @ 15 NONAME ; int CAccPolHdmiAudioFormat::SamFreq(enum CAccPolHdmiAudioFormat::TSamplingFrequency) const
	?NewL@CAccPolHdmiSpeakerAllocation@@SAPAV1@K@Z @ 16 NONAME ; class CAccPolHdmiSpeakerAllocation * CAccPolHdmiSpeakerAllocation::NewL(unsigned long)
	?UnitId@CAccPolAudioUnitBase@@QBEEXZ @ 17 NONAME ; unsigned char CAccPolAudioUnitBase::UnitId(void) const
	?NewLC@CAccPolHdmiSpeakerAllocation@@SAPAV1@HHHHHHHHHHH@Z @ 18 NONAME ; class CAccPolHdmiSpeakerAllocation * CAccPolHdmiSpeakerAllocation::NewLC(int, int, int, int, int, int, int, int, int, int, int)
	?NewL@CAccPolAudioStreamFormat@@SAPAV1@W4TStreamConObjectType@@EVTUid@@W4TStreamType@1@W4TBitResolution@1@K@Z @ 19 NONAME ; class CAccPolAudioStreamFormat * CAccPolAudioStreamFormat::NewL(enum TStreamConObjectType, unsigned char, class TUid, enum CAccPolAudioStreamFormat::TStreamType, enum CAccPolAudioStreamFormat::TBitResolution, unsigned long)
	?InternalizeAudioUnitBaseL@CAccPolAudioUnitBase@@IAEXAAVRReadStream@@@Z @ 20 NONAME ; void CAccPolAudioUnitBase::InternalizeAudioUnitBaseL(class RReadStream &)
	?ExternalizeAudioControlbaseL@CAccPolAudioControlBase@@IBEXAAVRWriteStream@@@Z @ 21 NONAME ; void CAccPolAudioControlBase::ExternalizeAudioControlbaseL(class RWriteStream &) const
	??1CAccPolFeatureUnit@@UAE@XZ @ 22 NONAME ; CAccPolFeatureUnit::~CAccPolFeatureUnit(void)
	?SetLowFrequencyEffect@CAccPolHdmiSpeakerAllocation@@QAEXH@Z @ 23 NONAME ; void CAccPolHdmiSpeakerAllocation::SetLowFrequencyEffect(int)
	?SetAudioFormat@CAccPolAudioStreamFormat@@QAEXVTUid@@@Z @ 24 NONAME ; void CAccPolAudioStreamFormat::SetAudioFormat(class TUid)
	?GetObjectsByTypeL@CAccPolAudioTopologyObjectCon@@QBEXW4TTopologyConObjectType@@AAV?$RPointerArray@VCAccPolObjectBase@@@@@Z @ 25 NONAME ; void CAccPolAudioTopologyObjectCon::GetObjectsByTypeL(enum TTopologyConObjectType, class RPointerArray<class CAccPolObjectBase> &) const
	?NewL@CAccPolHdmiSpeakerAllocation@@SAPAV1@HHHHHHHHHHH@Z @ 26 NONAME ; class CAccPolHdmiSpeakerAllocation * CAccPolHdmiSpeakerAllocation::NewL(int, int, int, int, int, int, int, int, int, int, int)
	?LatencyType@CAccPolHdmiLatency@@QBE?BVTUid@@XZ @ 27 NONAME ; class TUid const CAccPolHdmiLatency::LatencyType(void) const
	?AudioFormat@CAccPolAudioStreamFormat@@QBE?BVTUid@@XZ @ 28 NONAME ; class TUid const CAccPolAudioStreamFormat::AudioFormat(void) const
	?NewLC@CAccPolMuteControl@@SAPAV1@KH@Z @ 29 NONAME ; class CAccPolMuteControl * CAccPolMuteControl::NewLC(unsigned long, int)
	?BitResolution@CAccPolAudioStreamFormat@@QBE?AW4TBitResolution@1@XZ @ 30 NONAME ; enum CAccPolAudioStreamFormat::TBitResolution CAccPolAudioStreamFormat::BitResolution(void) const
	?SetSamFreq@CAccPolAudioStreamFormat@@QAEXK@Z @ 31 NONAME ; void CAccPolAudioStreamFormat::SetSamFreq(unsigned long)
	?NewL@CAccPolInputControl@@SAPAV1@PAVCAccPolObjectCon@@@Z @ 32 NONAME ; class CAccPolInputControl * CAccPolInputControl::NewL(class CAccPolObjectCon *)
	?LowFrequencyEffect@CAccPolHdmiSpeakerAllocation@@QBEHXZ @ 33 NONAME ; int CAccPolHdmiSpeakerAllocation::LowFrequencyEffect(void) const
	?SetUnitId@CAccPolAudioStreamFormat@@QAEXE@Z @ 34 NONAME ; void CAccPolAudioStreamFormat::SetUnitId(unsigned char)
	?SetUnitId@CAccPolAudioControlBase@@QAEXE@Z @ 35 NONAME ; void CAccPolAudioControlBase::SetUnitId(unsigned char)
	?SetFrontLeftRightCenter@CAccPolHdmiSpeakerAllocation@@QAEXH@Z @ 36 NONAME ; void CAccPolHdmiSpeakerAllocation::SetFrontLeftRightCenter(int)
	?SetDmtFixedMode@CAccPolHdmiVideoFormat@@QAEXW4TFixedModeDmt@@@Z @ 37 NONAME ; void CAccPolHdmiVideoFormat::SetDmtFixedMode(enum TFixedModeDmt)
	?SetBitResolution@CAccPolHdmiAudioFormat@@QAEXK@Z @ 38 NONAME ; void CAccPolHdmiAudioFormat::SetBitResolution(unsigned long)
	?NewL@CAccPolHdmiSink@@SAPAV1@PAVCAccPolObjectCon@@@Z @ 39 NONAME ; class CAccPolHdmiSink * CAccPolHdmiSink::NewL(class CAccPolObjectCon *)
	?NrInPins@CAccPolSelectorUnit@@QBEEXZ @ 40 NONAME ; unsigned char CAccPolSelectorUnit::NrInPins(void) const
	?NewL@CAccPolSelectorUnit@@SAPAV1@EE@Z @ 41 NONAME ; class CAccPolSelectorUnit * CAccPolSelectorUnit::NewL(unsigned char, unsigned char)
	?StreamType@CAccPolAudioStreamFormat@@QBE?AW4TStreamType@1@XZ @ 42 NONAME ; enum CAccPolAudioStreamFormat::TStreamType CAccPolAudioStreamFormat::StreamType(void) const
	?SetPixelRepeat@CAccPolHdmiVideoFormat@@QAEXE@Z @ 43 NONAME ; void CAccPolHdmiVideoFormat::SetPixelRepeat(unsigned char)
	?SetStreamType@CAccPolAudioStreamFormat@@QAEXW4TStreamType@1@@Z @ 44 NONAME ; void CAccPolAudioStreamFormat::SetStreamType(enum CAccPolAudioStreamFormat::TStreamType)
	?NewLC@CAccPolAudioStreamFormatCon@@SAPAV1@PAVCAccPolObjectCon@@@Z @ 45 NONAME ; class CAccPolAudioStreamFormatCon * CAccPolAudioStreamFormatCon::NewLC(class CAccPolObjectCon *)
	?SetVolumeResDb@CAccPolVolumeControl@@QAEXN@Z @ 46 NONAME ; void CAccPolVolumeControl::SetVolumeResDb(double)
	??4CAccPolHdmiVideoFormat@@QAEAAV0@ABV0@@Z @ 47 NONAME ; class CAccPolHdmiVideoFormat & CAccPolHdmiVideoFormat::operator=(class CAccPolHdmiVideoFormat const &)
	?NewLC@CAccPolHdmiSink@@SAPAV1@PAVCAccPolObjectCon@@@Z @ 48 NONAME ; class CAccPolHdmiSink * CAccPolHdmiSink::NewLC(class CAccPolObjectCon *)
	??4CAccPolFeatureUnit@@QAEAAV0@ABV0@@Z @ 49 NONAME ; class CAccPolFeatureUnit & CAccPolFeatureUnit::operator=(class CAccPolFeatureUnit const &)
	?FrontLeftRightCenter@CAccPolHdmiSpeakerAllocation@@QBEHXZ @ 50 NONAME ; int CAccPolHdmiSpeakerAllocation::FrontLeftRightCenter(void) const
	?InternalizeL@CAccPolAudioStreamFormatCon@@UAEXAAVRReadStream@@@Z @ 51 NONAME ; void CAccPolAudioStreamFormatCon::InternalizeL(class RReadStream &)
	?AudioLatency@CAccPolHdmiLatency@@QBEKXZ @ 52 NONAME ; unsigned long CAccPolHdmiLatency::AudioLatency(void) const
	?NewLC@CAccPolHdmiLatency@@SAPAV1@PAVCAccPolObjectCon@@@Z @ 53 NONAME ; class CAccPolHdmiLatency * CAccPolHdmiLatency::NewLC(class CAccPolObjectCon *)
	?GetHdmiSpeakerAllocationObjectsL@CAccPolHdmiObjectCon@@QBEXAAV?$RPointerArray@VCAccPolHdmiSpeakerAllocation@@@@@Z @ 54 NONAME ; void CAccPolHdmiObjectCon::GetHdmiSpeakerAllocationObjectsL(class RPointerArray<class CAccPolHdmiSpeakerAllocation> &) const
	?SpeakerCount@CAccPolHdmiSpeakerAllocation@@QBEKXZ @ 55 NONAME ; unsigned long CAccPolHdmiSpeakerAllocation::SpeakerCount(void) const
	?NewLC@CAccPolFeatureUnit@@SAPAV1@PAVCAccPolObjectCon@@@Z @ 56 NONAME ; class CAccPolFeatureUnit * CAccPolFeatureUnit::NewLC(class CAccPolObjectCon *)
	?GetAudioControlL@CAccPolAudioUnitBase@@QBEHW4TTopologyConObjectType@@KAAPAVCAccPolAudioControlBase@@@Z @ 57 NONAME ; int CAccPolAudioUnitBase::GetAudioControlL(enum TTopologyConObjectType, unsigned long, class CAccPolAudioControlBase * &) const
	?SetFrontWideSpeakers@CAccPolHdmiSpeakerAllocation@@QAEXH@Z @ 58 NONAME ; void CAccPolHdmiSpeakerAllocation::SetFrontWideSpeakers(int)
	??1CAccPolMixerUnit@@UAE@XZ @ 59 NONAME ; CAccPolMixerUnit::~CAccPolMixerUnit(void)
	?SetMaxBitResolution@CAccPolHdmiAudioFormat@@QAEXK@Z @ 60 NONAME ; void CAccPolHdmiAudioFormat::SetMaxBitResolution(unsigned long)
	??0CAccPolAudioControlBase@@IAE@W4TTopologyConObjectType@@PAVCAccPolObjectCon@@@Z @ 61 NONAME ; CAccPolAudioControlBase::CAccPolAudioControlBase(enum TTopologyConObjectType, class CAccPolObjectCon *)
	?ObjectL@CAccPolAudioTopologyObjectCon@@QBEHEAAPAVCAccPolAudioUnitBase@@@Z @ 62 NONAME ; int CAccPolAudioTopologyObjectCon::ObjectL(unsigned char, class CAccPolAudioUnitBase * &) const
	?NewL@CAccPolAudioStreamFormatCon@@SAPAV1@PAVCAccPolObjectCon@@@Z @ 63 NONAME ; class CAccPolAudioStreamFormatCon * CAccPolAudioStreamFormatCon::NewL(class CAccPolObjectCon *)
	?NewL@CAccPolHdmiLatency@@SAPAV1@PAVCAccPolObjectCon@@@Z @ 64 NONAME ; class CAccPolHdmiLatency * CAccPolHdmiLatency::NewL(class CAccPolObjectCon *)
	?NewLC@CAccPolAudioStreamFormat@@SAPAV1@W4TStreamConObjectType@@EVTUid@@W4TStreamType@1@W4TBitResolution@1@K@Z @ 65 NONAME ; class CAccPolAudioStreamFormat * CAccPolAudioStreamFormat::NewLC(enum TStreamConObjectType, unsigned char, class TUid, enum CAccPolAudioStreamFormat::TStreamType, enum CAccPolAudioStreamFormat::TBitResolution, unsigned long)
	?NewL@CAccPolFeatureUnit@@SAPAV1@PAVCAccPolObjectCon@@@Z @ 66 NONAME ; class CAccPolFeatureUnit * CAccPolFeatureUnit::NewL(class CAccPolObjectCon *)
	?NewL@CAccPolMuteControl@@SAPAV1@KH@Z @ 67 NONAME ; class CAccPolMuteControl * CAccPolMuteControl::NewL(unsigned long, int)
	?NewL@CAccPolInputTerminal@@SAPAV1@PAVCAccPolObjectCon@@@Z @ 68 NONAME ; class CAccPolInputTerminal * CAccPolInputTerminal::NewL(class CAccPolObjectCon *)
	?SetMute@CAccPolMuteControl@@QAEXH@Z @ 69 NONAME ; void CAccPolMuteControl::SetMute(int)
	?NewL@CAccPolOutputTerminal@@SAPAV1@EW4TOutputTerminalType@1@E@Z @ 70 NONAME ; class CAccPolOutputTerminal * CAccPolOutputTerminal::NewL(unsigned char, enum CAccPolOutputTerminal::TOutputTerminalType, unsigned char)
	?SetChannelConfig@CAccPolInputTerminal@@QAEXK@Z @ 71 NONAME ; void CAccPolInputTerminal::SetChannelConfig(unsigned long)
	?OutputTerminalType@CAccPolOutputTerminal@@QBE?AW4TOutputTerminalType@1@XZ @ 72 NONAME ; enum CAccPolOutputTerminal::TOutputTerminalType CAccPolOutputTerminal::OutputTerminalType(void) const
	?SamFreq@CAccPolAudioStreamFormat@@QBEKXZ @ 73 NONAME ; unsigned long CAccPolAudioStreamFormat::SamFreq(void) const
	?NewLC@CAccPolSelectorUnit@@SAPAV1@EE@Z @ 74 NONAME ; class CAccPolSelectorUnit * CAccPolSelectorUnit::NewLC(unsigned char, unsigned char)
	?InternalizeAudioControlbaseL@CAccPolAudioControlBase@@IAEXAAVRReadStream@@@Z @ 75 NONAME ; void CAccPolAudioControlBase::InternalizeAudioControlbaseL(class RReadStream &)
	?BitResolution@CAccPolHdmiAudioFormat@@QBEHW4TBitResolution@1@@Z @ 76 NONAME ; int CAccPolHdmiAudioFormat::BitResolution(enum CAccPolHdmiAudioFormat::TBitResolution) const
	??4CAccPolAudioUnitBase@@QAEAAV0@ABV0@@Z @ 77 NONAME ; class CAccPolAudioUnitBase & CAccPolAudioUnitBase::operator=(class CAccPolAudioUnitBase const &)
	?GetPreviousAudioUnitL@CAccPolAudioUnitBase@@QBEHAAPAV1@@Z @ 78 NONAME ; int CAccPolAudioUnitBase::GetPreviousAudioUnitL(class CAccPolAudioUnitBase * &) const
	?SetHdcpSupport@CAccPolHdmiSink@@QAEXH@Z @ 79 NONAME ; void CAccPolHdmiSink::SetHdcpSupport(int)
	?NewL@CAccPolHdmiSink@@SAPAV1@HH@Z @ 80 NONAME ; class CAccPolHdmiSink * CAccPolHdmiSink::NewL(int, int)
	??1CAccPolOutputTerminal@@UAE@XZ @ 81 NONAME ; CAccPolOutputTerminal::~CAccPolOutputTerminal(void)
	?SetMinVolumeDb@CAccPolVolumeControl@@QAEXN@Z @ 82 NONAME ; void CAccPolVolumeControl::SetMinVolumeDb(double)
	?NewL@CAccPolInputTerminal@@SAPAV1@EW4TInputTerminalType@1@EG@Z @ 83 NONAME ; class CAccPolInputTerminal * CAccPolInputTerminal::NewL(unsigned char, enum CAccPolInputTerminal::TInputTerminalType, unsigned char, unsigned short)
	?GetNextAudioUnitL@CAccPolAudioUnitBase@@QBEHAAPAV1@@Z @ 84 NONAME ; int CAccPolAudioUnitBase::GetNextAudioUnitL(class CAccPolAudioUnitBase * &) const
	?SupportedControls@CAccPolFeatureUnit@@QBEKK@Z @ 85 NONAME ; unsigned long CAccPolFeatureUnit::SupportedControls(unsigned long) const
	?NewLC@CAccPolHdmiAudioFormat@@SAPAV1@VTUid@@KKKKK@Z @ 86 NONAME ; class CAccPolHdmiAudioFormat * CAccPolHdmiAudioFormat::NewLC(class TUid, unsigned long, unsigned long, unsigned long, unsigned long, unsigned long)
	?SetChannel@CAccPolAudioControlBase@@QAEXK@Z @ 87 NONAME ; void CAccPolAudioControlBase::SetChannel(unsigned long)
	?Mute@CAccPolMuteControl@@QBEHXZ @ 88 NONAME ; int CAccPolMuteControl::Mute(void) const
	?BasicAudioSupport@CAccPolHdmiSink@@QBEHXZ @ 89 NONAME ; int CAccPolHdmiSink::BasicAudioSupport(void) const
	?InputTerminalL@CAccPolAudioTopologyObjectCon@@QBEHW4TInputTerminalType@CAccPolInputTerminal@@AAPAVCAccPolAudioUnitBase@@@Z @ 90 NONAME ; int CAccPolAudioTopologyObjectCon::InputTerminalL(enum CAccPolInputTerminal::TInputTerminalType, class CAccPolAudioUnitBase * &) const
	?SetFrontCenter@CAccPolHdmiSpeakerAllocation@@QAEXH@Z @ 91 NONAME ; void CAccPolHdmiSpeakerAllocation::SetFrontCenter(int)
	?SetAudioFormat@CAccPolHdmiAudioFormat@@QAEXVTUid@@@Z @ 92 NONAME ; void CAccPolHdmiAudioFormat::SetAudioFormat(class TUid)
	?NewLC@CAccPolInputTerminal@@SAPAV1@PAVCAccPolObjectCon@@@Z @ 93 NONAME ; class CAccPolInputTerminal * CAccPolInputTerminal::NewLC(class CAccPolObjectCon *)
	?FrontCenterHigh@CAccPolHdmiSpeakerAllocation@@QBEHXZ @ 94 NONAME ; int CAccPolHdmiSpeakerAllocation::FrontCenterHigh(void) const
	?SetChannelCount@CAccPolHdmiAudioFormat@@QAEXK@Z @ 95 NONAME ; void CAccPolHdmiAudioFormat::SetChannelCount(unsigned long)
	??0CAccPolAudioControlBase@@IAE@W4TTopologyConObjectType@@K@Z @ 96 NONAME ; CAccPolAudioControlBase::CAccPolAudioControlBase(enum TTopologyConObjectType, unsigned long)
	?BitResolution@CAccPolHdmiAudioFormat@@QBEKXZ @ 97 NONAME ; unsigned long CAccPolHdmiAudioFormat::BitResolution(void) const
	?NewLC@CAccPolVolumeControl@@SAPAV1@KNNNN@Z @ 98 NONAME ; class CAccPolVolumeControl * CAccPolVolumeControl::NewLC(unsigned long, double, double, double, double)
	?NewLC@CAccPolInputControl@@SAPAV1@E@Z @ 99 NONAME ; class CAccPolInputControl * CAccPolInputControl::NewLC(unsigned char)
	?NewL@CAccPolHdmiLatency@@SAPAV1@VTUid@@KK@Z @ 100 NONAME ; class CAccPolHdmiLatency * CAccPolHdmiLatency::NewL(class TUid, unsigned long, unsigned long)
	?NewL@CAccPolHdmiVideoFormat@@SAPAV1@W4TFixedModeCea@@W4TFixedModeDmt@@EH@Z @ 101 NONAME ; class CAccPolHdmiVideoFormat * CAccPolHdmiVideoFormat::NewL(enum TFixedModeCea, enum TFixedModeDmt, unsigned char, int)
	?SetBasicAudioSupport@CAccPolHdmiSink@@QAEXH@Z @ 102 NONAME ; void CAccPolHdmiSink::SetBasicAudioSupport(int)
	?InternalizeTerminalBaseL@CAccPolTerminalBase@@IAEXAAVRReadStream@@@Z @ 103 NONAME ; void CAccPolTerminalBase::InternalizeTerminalBaseL(class RReadStream &)
	?AudioFormat@CAccPolHdmiAudioFormat@@QBE?BVTUid@@XZ @ 104 NONAME ; class TUid const CAccPolHdmiAudioFormat::AudioFormat(void) const
	?NewL@CAccPolVolumeControl@@SAPAV1@PAVCAccPolObjectCon@@@Z @ 105 NONAME ; class CAccPolVolumeControl * CAccPolVolumeControl::NewL(class CAccPolObjectCon *)
	?ExternalizeL@CAccPolAudioStreamFormatCon@@UBEXAAVRWriteStream@@@Z @ 106 NONAME ; void CAccPolAudioStreamFormatCon::ExternalizeL(class RWriteStream &) const
	?ChannelConfig@CAccPolInputTerminal@@QBEKXZ @ 107 NONAME ; unsigned long CAccPolInputTerminal::ChannelConfig(void) const
	?SetFormatDependentValue@CAccPolHdmiAudioFormat@@QAEXK@Z @ 108 NONAME ; void CAccPolHdmiAudioFormat::SetFormatDependentValue(unsigned long)
	?GetAudioControlsL@CAccPolAudioUnitBase@@QBEXAAV?$RPointerArray@VCAccPolAudioControlBase@@@@@Z @ 109 NONAME ; void CAccPolAudioUnitBase::GetAudioControlsL(class RPointerArray<class CAccPolAudioControlBase> &) const
	??4CAccPolVolumeControl@@QAEAAV0@ABV0@@Z @ 110 NONAME ; class CAccPolVolumeControl & CAccPolVolumeControl::operator=(class CAccPolVolumeControl const &)
	?NewLC@CAccPolInputControl@@SAPAV1@PAVCAccPolObjectCon@@@Z @ 111 NONAME ; class CAccPolInputControl * CAccPolInputControl::NewLC(class CAccPolObjectCon *)
	?ExternalizeL@CAccPolAudioTopologyObjectCon@@UBEXAAVRWriteStream@@@Z @ 112 NONAME ; void CAccPolAudioTopologyObjectCon::ExternalizeL(class RWriteStream &) const
	??4CAccPolHdmiSink@@QAEAAV0@ABV0@@Z @ 113 NONAME ; class CAccPolHdmiSink & CAccPolHdmiSink::operator=(class CAccPolHdmiSink const &)
	?RearSpeakers@CAccPolHdmiSpeakerAllocation@@QBEHXZ @ 114 NONAME ; int CAccPolHdmiSpeakerAllocation::RearSpeakers(void) const
	?NewL@CAccPolVolumeControl@@SAPAV1@KNNNN@Z @ 115 NONAME ; class CAccPolVolumeControl * CAccPolVolumeControl::NewL(unsigned long, double, double, double, double)
	?FrontCenter@CAccPolHdmiSpeakerAllocation@@QBEHXZ @ 116 NONAME ; int CAccPolHdmiSpeakerAllocation::FrontCenter(void) const
	?GetOutputStreamFormatsL@CAccPolAudioStreamFormatCon@@QBEXAAV?$RPointerArray@VCAccPolAudioStreamFormat@@@@@Z @ 117 NONAME ; void CAccPolAudioStreamFormatCon::GetOutputStreamFormatsL(class RPointerArray<class CAccPolAudioStreamFormat> &) const
	?NewLC@CAccPolFeatureUnit@@SAPAV1@EE@Z @ 118 NONAME ; class CAccPolFeatureUnit * CAccPolFeatureUnit::NewLC(unsigned char, unsigned char)
	?SetInputTerminalType@CAccPolInputTerminal@@QAEXW4TInputTerminalType@1@@Z @ 119 NONAME ; void CAccPolInputTerminal::SetInputTerminalType(enum CAccPolInputTerminal::TInputTerminalType)
	?NewLC@CAccPolVolumeControl@@SAPAV1@PAVCAccPolObjectCon@@@Z @ 120 NONAME ; class CAccPolVolumeControl * CAccPolVolumeControl::NewLC(class CAccPolObjectCon *)
	?NewL@CAccPolOutputTerminal@@SAPAV1@PAVCAccPolObjectCon@@@Z @ 121 NONAME ; class CAccPolOutputTerminal * CAccPolOutputTerminal::NewL(class CAccPolObjectCon *)
	?SetBitResolution@CAccPolAudioStreamFormat@@QAEXW4TBitResolution@1@@Z @ 122 NONAME ; void CAccPolAudioStreamFormat::SetBitResolution(enum CAccPolAudioStreamFormat::TBitResolution)
	??1CAccPolSelectorUnit@@UAE@XZ @ 123 NONAME ; CAccPolSelectorUnit::~CAccPolSelectorUnit(void)
	?ChannelConfig@CAccPolInputTerminal@@QBEHK@Z @ 124 NONAME ; int CAccPolInputTerminal::ChannelConfig(unsigned long) const
	?NewL@CAccPolInputControl@@SAPAV1@E@Z @ 125 NONAME ; class CAccPolInputControl * CAccPolInputControl::NewL(unsigned char)
	?NewL@CAccPolMixerUnit@@SAPAV1@E@Z @ 126 NONAME ; class CAccPolMixerUnit * CAccPolMixerUnit::NewL(unsigned char)
	?NewLC@CAccPolAudioStreamFormat@@SAPAV1@W4TStreamConObjectType@@PAVCAccPolObjectCon@@@Z @ 127 NONAME ; class CAccPolAudioStreamFormat * CAccPolAudioStreamFormat::NewLC(enum TStreamConObjectType, class CAccPolObjectCon *)
	??1CAccPolInputTerminal@@UAE@XZ @ 128 NONAME ; CAccPolInputTerminal::~CAccPolInputTerminal(void)
	?PixelRepeat@CAccPolHdmiVideoFormat@@QBEEXZ @ 129 NONAME ; unsigned char CAccPolHdmiVideoFormat::PixelRepeat(void) const
	??1CAccPolTerminalBase@@UAE@XZ @ 130 NONAME ; CAccPolTerminalBase::~CAccPolTerminalBase(void)
	?SupportedControls@CAccPolFeatureUnit@@QBEHKK@Z @ 131 NONAME ; int CAccPolFeatureUnit::SupportedControls(unsigned long, unsigned long) const
	?MaxBitResolution@CAccPolHdmiAudioFormat@@QBEKXZ @ 132 NONAME ; unsigned long CAccPolHdmiAudioFormat::MaxBitResolution(void) const
	?NewL@CAccPolHdmiObjectCon@@SAPAV1@PAVCAccPolObjectCon@@@Z @ 133 NONAME ; class CAccPolHdmiObjectCon * CAccPolHdmiObjectCon::NewL(class CAccPolObjectCon *)
	?Interlaced@CAccPolHdmiVideoFormat@@QBEHXZ @ 134 NONAME ; int CAccPolHdmiVideoFormat::Interlaced(void) const
	?NewLC@CAccPolAudioTopologyObjectCon@@SAPAV1@PAVCAccPolObjectCon@@@Z @ 135 NONAME ; class CAccPolAudioTopologyObjectCon * CAccPolAudioTopologyObjectCon::NewLC(class CAccPolObjectCon *)
	??4CAccPolHdmiLatency@@QAEAAV0@ABV0@@Z @ 136 NONAME ; class CAccPolHdmiLatency & CAccPolHdmiLatency::operator=(class CAccPolHdmiLatency const &)
	?NewL@CAccPolSelectorUnit@@SAPAV1@PAVCAccPolObjectCon@@@Z @ 137 NONAME ; class CAccPolSelectorUnit * CAccPolSelectorUnit::NewL(class CAccPolObjectCon *)
	?NewLC@CAccPolHdmiVideoFormat@@SAPAV1@PAVCAccPolObjectCon@@@Z @ 138 NONAME ; class CAccPolHdmiVideoFormat * CAccPolHdmiVideoFormat::NewLC(class CAccPolObjectCon *)
	??1CAccPolInputControl@@UAE@XZ @ 139 NONAME ; CAccPolInputControl::~CAccPolInputControl(void)
	??0CAccPolTerminalBase@@IAE@W4TTopologyConObjectType@@E@Z @ 140 NONAME ; CAccPolTerminalBase::CAccPolTerminalBase(enum TTopologyConObjectType, unsigned char)
	?GetSourceIds@CAccPolAudioUnitBase@@QBEXAAV?$RArray@H@@@Z @ 141 NONAME ; void CAccPolAudioUnitBase::GetSourceIds(class RArray<int> &) const
	?SpeakerAllocation@CAccPolHdmiSpeakerAllocation@@QBEKXZ @ 142 NONAME ; unsigned long CAccPolHdmiSpeakerAllocation::SpeakerAllocation(void) const
	?ExternalizeTerminalBaseL@CAccPolTerminalBase@@IBEXAAVRWriteStream@@@Z @ 143 NONAME ; void CAccPolTerminalBase::ExternalizeTerminalBaseL(class RWriteStream &) const
	?SetVideoLatency@CAccPolHdmiLatency@@QAEXK@Z @ 144 NONAME ; void CAccPolHdmiLatency::SetVideoLatency(unsigned long)
	?SetSupportedControls@CAccPolFeatureUnit@@QAEXKK@Z @ 145 NONAME ; void CAccPolFeatureUnit::SetSupportedControls(unsigned long, unsigned long)
	?NewLC@CAccPolMuteControl@@SAPAV1@PAVCAccPolObjectCon@@@Z @ 146 NONAME ; class CAccPolMuteControl * CAccPolMuteControl::NewLC(class CAccPolObjectCon *)
	?NewLC@CAccPolHdmiSink@@SAPAV1@HH@Z @ 147 NONAME ; class CAccPolHdmiSink * CAccPolHdmiSink::NewLC(int, int)
	??4CAccPolSelectorUnit@@QAEAAV0@ABV0@@Z @ 148 NONAME ; class CAccPolSelectorUnit & CAccPolSelectorUnit::operator=(class CAccPolSelectorUnit const &)
	?FrontHighSpeakers@CAccPolHdmiSpeakerAllocation@@QBEHXZ @ 149 NONAME ; int CAccPolHdmiSpeakerAllocation::FrontHighSpeakers(void) const
	?DmtFixedMode@CAccPolHdmiVideoFormat@@QBE?AW4TFixedModeDmt@@XZ @ 150 NONAME ; enum TFixedModeDmt CAccPolHdmiVideoFormat::DmtFixedMode(void) const
	?NewLC@CAccPolHdmiSpeakerAllocation@@SAPAV1@PAVCAccPolObjectCon@@@Z @ 151 NONAME ; class CAccPolHdmiSpeakerAllocation * CAccPolHdmiSpeakerAllocation::NewLC(class CAccPolObjectCon *)
	?NewL@CAccPolFeatureUnit@@SAPAV1@EE@Z @ 152 NONAME ; class CAccPolFeatureUnit * CAccPolFeatureUnit::NewL(unsigned char, unsigned char)
	?SetCeaFixedMode@CAccPolHdmiVideoFormat@@QAEXW4TFixedModeCea@@@Z @ 153 NONAME ; void CAccPolHdmiVideoFormat::SetCeaFixedMode(enum TFixedModeCea)
	?NewLC@CAccPolHdmiObjectCon@@SAPAV1@PAVCAccPolObjectCon@@@Z @ 154 NONAME ; class CAccPolHdmiObjectCon * CAccPolHdmiObjectCon::NewLC(class CAccPolObjectCon *)
	??4CAccPolInputTerminal@@QAEAAV0@ABV0@@Z @ 155 NONAME ; class CAccPolInputTerminal & CAccPolInputTerminal::operator=(class CAccPolInputTerminal const &)
	?NewL@CAccPolMuteControl@@SAPAV1@PAVCAccPolObjectCon@@@Z @ 156 NONAME ; class CAccPolMuteControl * CAccPolMuteControl::NewL(class CAccPolObjectCon *)
	?GetInputStreamFormatsL@CAccPolAudioStreamFormatCon@@QBEXAAV?$RPointerArray@VCAccPolAudioStreamFormat@@@@@Z @ 157 NONAME ; void CAccPolAudioStreamFormatCon::GetInputStreamFormatsL(class RPointerArray<class CAccPolAudioStreamFormat> &) const
	?VideoLatency@CAccPolHdmiLatency@@QBEKXZ @ 158 NONAME ; unsigned long CAccPolHdmiLatency::VideoLatency(void) const
	?SupportedPixelRepetitions@CAccPolHdmiVideoFormat@@QBEGXZ @ 159 NONAME ; unsigned short CAccPolHdmiVideoFormat::SupportedPixelRepetitions(void) const
	?NewL@CAccPolMixerUnit@@SAPAV1@PAVCAccPolObjectCon@@@Z @ 160 NONAME ; class CAccPolMixerUnit * CAccPolMixerUnit::NewL(class CAccPolObjectCon *)
	?NewL@CAccPolHdmiAudioFormat@@SAPAV1@VTUid@@KKKKK@Z @ 161 NONAME ; class CAccPolHdmiAudioFormat * CAccPolHdmiAudioFormat::NewL(class TUid, unsigned long, unsigned long, unsigned long, unsigned long, unsigned long)
	?GetLatencyObjectsL@CAccPolHdmiObjectCon@@QBEXAAV?$RPointerArray@VCAccPolHdmiLatency@@@@@Z @ 162 NONAME ; void CAccPolHdmiObjectCon::GetLatencyObjectsL(class RPointerArray<class CAccPolHdmiLatency> &) const
	?SourceIdCount@CAccPolAudioUnitBase@@QBEHXZ @ 163 NONAME ; int CAccPolAudioUnitBase::SourceIdCount(void) const
	??0CAccPolTerminalBase@@IAE@W4TTopologyConObjectType@@PAVCAccPolObjectCon@@@Z @ 164 NONAME ; CAccPolTerminalBase::CAccPolTerminalBase(enum TTopologyConObjectType, class CAccPolObjectCon *)
	?ExternalizeAudioUnitBaseL@CAccPolAudioUnitBase@@IBEXAAVRWriteStream@@@Z @ 165 NONAME ; void CAccPolAudioUnitBase::ExternalizeAudioUnitBaseL(class RWriteStream &) const
	?AddSourceIdL@CAccPolAudioUnitBase@@QAEXE@Z @ 166 NONAME ; void CAccPolAudioUnitBase::AddSourceIdL(unsigned char)
	?Channel@CAccPolAudioControlBase@@QBEKXZ @ 167 NONAME ; unsigned long CAccPolAudioControlBase::Channel(void) const
	?SetAudioLatency@CAccPolHdmiLatency@@QAEXK@Z @ 168 NONAME ; void CAccPolHdmiLatency::SetAudioLatency(unsigned long)
	??4CAccPolInputControl@@QAEAAV0@ABV0@@Z @ 169 NONAME ; class CAccPolInputControl & CAccPolInputControl::operator=(class CAccPolInputControl const &)
	?NewL@CAccPolAudioTopologyObjectCon@@SAPAV1@PAVCAccPolObjectCon@@@Z @ 170 NONAME ; class CAccPolAudioTopologyObjectCon * CAccPolAudioTopologyObjectCon::NewL(class CAccPolObjectCon *)
	?NewLC@CAccPolHdmiSpeakerAllocation@@SAPAV1@K@Z @ 171 NONAME ; class CAccPolHdmiSpeakerAllocation * CAccPolHdmiSpeakerAllocation::NewLC(unsigned long)
	??1CAccPolAudioUnitBase@@UAE@XZ @ 172 NONAME ; CAccPolAudioUnitBase::~CAccPolAudioUnitBase(void)
	?NewLC@CAccPolOutputTerminal@@SAPAV1@PAVCAccPolObjectCon@@@Z @ 173 NONAME ; class CAccPolOutputTerminal * CAccPolOutputTerminal::NewLC(class CAccPolObjectCon *)
	?NewLC@CAccPolHdmiAudioFormat@@SAPAV1@PAVCAccPolObjectCon@@@Z @ 174 NONAME ; class CAccPolHdmiAudioFormat * CAccPolHdmiAudioFormat::NewLC(class CAccPolObjectCon *)
	?SetSpeakerAllocation@CAccPolHdmiSpeakerAllocation@@QAEXK@Z @ 175 NONAME ; void CAccPolHdmiSpeakerAllocation::SetSpeakerAllocation(unsigned long)
	?SetVolumeDb@CAccPolVolumeControl@@QAEXN@Z @ 176 NONAME ; void CAccPolVolumeControl::SetVolumeDb(double)
	??4CAccPolMuteControl@@QAEAAV0@ABV0@@Z @ 177 NONAME ; class CAccPolMuteControl & CAccPolMuteControl::operator=(class CAccPolMuteControl const &)
	??4CAccPolHdmiAudioFormat@@QAEAAV0@ABV0@@Z @ 178 NONAME ; class CAccPolHdmiAudioFormat & CAccPolHdmiAudioFormat::operator=(class CAccPolHdmiAudioFormat const &)
	?TopCenter@CAccPolHdmiSpeakerAllocation@@QBEHXZ @ 179 NONAME ; int CAccPolHdmiSpeakerAllocation::TopCenter(void) const
	?RearCenter@CAccPolHdmiSpeakerAllocation@@QBEHXZ @ 180 NONAME ; int CAccPolHdmiSpeakerAllocation::RearCenter(void) const
	??0CAccPolTerminalBase@@IAE@W4TTopologyConObjectType@@EE@Z @ 181 NONAME ; CAccPolTerminalBase::CAccPolTerminalBase(enum TTopologyConObjectType, unsigned char, unsigned char)
	?InputTerminalType@CAccPolInputTerminal@@QBE?AW4TInputTerminalType@1@XZ @ 182 NONAME ; enum CAccPolInputTerminal::TInputTerminalType CAccPolInputTerminal::InputTerminalType(void) const
	?NewLC@CAccPolOutputTerminal@@SAPAV1@EW4TOutputTerminalType@1@E@Z @ 183 NONAME ; class CAccPolOutputTerminal * CAccPolOutputTerminal::NewLC(unsigned char, enum CAccPolOutputTerminal::TOutputTerminalType, unsigned char)
	?CeaFixedMode@CAccPolHdmiVideoFormat@@QBE?AW4TFixedModeCea@@XZ @ 184 NONAME ; enum TFixedModeCea CAccPolHdmiVideoFormat::CeaFixedMode(void) const
	?InternalizeL@CAccPolAudioTopologyObjectCon@@UAEXAAVRReadStream@@@Z @ 185 NONAME ; void CAccPolAudioTopologyObjectCon::InternalizeL(class RReadStream &)
	?SourceId@CAccPolAudioUnitBase@@QBEEXZ @ 186 NONAME ; unsigned char CAccPolAudioUnitBase::SourceId(void) const
	?SetSupportedPixelRepetitions@CAccPolHdmiVideoFormat@@QAEXG@Z @ 187 NONAME ; void CAccPolHdmiVideoFormat::SetSupportedPixelRepetitions(unsigned short)
	?NewLC@CAccPolHdmiVideoFormat@@SAPAV1@W4TFixedModeCea@@W4TFixedModeDmt@@EH@Z @ 188 NONAME ; class CAccPolHdmiVideoFormat * CAccPolHdmiVideoFormat::NewLC(enum TFixedModeCea, enum TFixedModeDmt, unsigned char, int)
	?FormatDependentValue@CAccPolHdmiAudioFormat@@QBEKXZ @ 189 NONAME ; unsigned long CAccPolHdmiAudioFormat::FormatDependentValue(void) const
	?UnitId@CAccPolAudioStreamFormat@@QBEEXZ @ 190 NONAME ; unsigned char CAccPolAudioStreamFormat::UnitId(void) const
	?SetOutputTerminalType@CAccPolOutputTerminal@@QAEXW4TOutputTerminalType@1@@Z @ 191 NONAME ; void CAccPolOutputTerminal::SetOutputTerminalType(enum CAccPolOutputTerminal::TOutputTerminalType)
	?MinVolumeDb@CAccPolVolumeControl@@QBENXZ @ 192 NONAME ; double CAccPolVolumeControl::MinVolumeDb(void) const
	?NewL@CAccPolHdmiVideoFormat@@SAPAV1@PAVCAccPolObjectCon@@@Z @ 193 NONAME ; class CAccPolHdmiVideoFormat * CAccPolHdmiVideoFormat::NewL(class CAccPolObjectCon *)
	?SetMaxVolumeDb@CAccPolVolumeControl@@QAEXN@Z @ 194 NONAME ; void CAccPolVolumeControl::SetMaxVolumeDb(double)
	?NewLC@CAccPolInputTerminal@@SAPAV1@EW4TInputTerminalType@1@EG@Z @ 195 NONAME ; class CAccPolInputTerminal * CAccPolInputTerminal::NewLC(unsigned char, enum CAccPolInputTerminal::TInputTerminalType, unsigned char, unsigned short)
	?MaxVolumeDb@CAccPolVolumeControl@@QBENXZ @ 196 NONAME ; double CAccPolVolumeControl::MaxVolumeDb(void) const
	?NewLC@CAccPolMixerUnit@@SAPAV1@E@Z @ 197 NONAME ; class CAccPolMixerUnit * CAccPolMixerUnit::NewLC(unsigned char)
	??1CAccPolAudioControlBase@@UAE@XZ @ 198 NONAME ; CAccPolAudioControlBase::~CAccPolAudioControlBase(void)
	?SetTopCenter@CAccPolHdmiSpeakerAllocation@@QAEXH@Z @ 199 NONAME ; void CAccPolHdmiSpeakerAllocation::SetTopCenter(int)
	??4CAccPolHdmiSpeakerAllocation@@QAEAAV0@ABV0@@Z @ 200 NONAME ; class CAccPolHdmiSpeakerAllocation & CAccPolHdmiSpeakerAllocation::operator=(class CAccPolHdmiSpeakerAllocation const &)
	?NewL@CAccPolAudioStreamFormat@@SAPAV1@W4TStreamConObjectType@@PAVCAccPolObjectCon@@@Z @ 201 NONAME ; class CAccPolAudioStreamFormat * CAccPolAudioStreamFormat::NewL(enum TStreamConObjectType, class CAccPolObjectCon *)
	?SetChannelCount@CAccPolInputTerminal@@QAEXE@Z @ 202 NONAME ; void CAccPolInputTerminal::SetChannelCount(unsigned char)
	?AddControlL@CAccPolAudioUnitBase@@QAEXAAVCAccPolAudioControlBase@@@Z @ 203 NONAME ; void CAccPolAudioUnitBase::AddControlL(class CAccPolAudioControlBase &)
	?GetHdmiSinkObjectsL@CAccPolHdmiObjectCon@@QBEXAAV?$RPointerArray@VCAccPolHdmiSink@@@@@Z @ 204 NONAME ; void CAccPolHdmiObjectCon::GetHdmiSinkObjectsL(class RPointerArray<class CAccPolHdmiSink> &) const
	?ChannelCount@CAccPolInputTerminal@@QBEEXZ @ 205 NONAME ; unsigned char CAccPolInputTerminal::ChannelCount(void) const
	?SetFrontHighSpeakers@CAccPolHdmiSpeakerAllocation@@QAEXH@Z @ 206 NONAME ; void CAccPolHdmiSpeakerAllocation::SetFrontHighSpeakers(int)
	?NewLC@CAccPolSelectorUnit@@SAPAV1@PAVCAccPolObjectCon@@@Z @ 207 NONAME ; class CAccPolSelectorUnit * CAccPolSelectorUnit::NewLC(class CAccPolObjectCon *)
	?FrontWideSpeakers@CAccPolHdmiSpeakerAllocation@@QBEHXZ @ 208 NONAME ; int CAccPolHdmiSpeakerAllocation::FrontWideSpeakers(void) const
	?VolumeResDb@CAccPolVolumeControl@@QBENXZ @ 209 NONAME ; double CAccPolVolumeControl::VolumeResDb(void) const
	??4CAccPolMixerUnit@@QAEAAV0@ABV0@@Z @ 210 NONAME ; class CAccPolMixerUnit & CAccPolMixerUnit::operator=(class CAccPolMixerUnit const &)
	??4CAccPolTerminalBase@@QAEAAV0@ABV0@@Z @ 211 NONAME ; class CAccPolTerminalBase & CAccPolTerminalBase::operator=(class CAccPolTerminalBase const &)
	?SetLatencyType@CAccPolHdmiLatency@@QAEXVTUid@@@Z @ 212 NONAME ; void CAccPolHdmiLatency::SetLatencyType(class TUid)
	?SetRearLeftRightCenter@CAccPolHdmiSpeakerAllocation@@QAEXH@Z @ 213 NONAME ; void CAccPolHdmiSpeakerAllocation::SetRearLeftRightCenter(int)
	?Input@CAccPolInputControl@@QBEEXZ @ 214 NONAME ; unsigned char CAccPolInputControl::Input(void) const
	?OutputTerminalL@CAccPolAudioTopologyObjectCon@@QBEHW4TOutputTerminalType@CAccPolOutputTerminal@@AAPAVCAccPolAudioUnitBase@@@Z @ 215 NONAME ; int CAccPolAudioTopologyObjectCon::OutputTerminalL(enum CAccPolOutputTerminal::TOutputTerminalType, class CAccPolAudioUnitBase * &) const
	?NewLC@CAccPolHdmiLatency@@SAPAV1@VTUid@@KK@Z @ 216 NONAME ; class CAccPolHdmiLatency * CAccPolHdmiLatency::NewLC(class TUid, unsigned long, unsigned long)
	??4CAccPolAudioStreamFormat@@QAEAAV0@ABV0@@Z @ 217 NONAME ; class CAccPolAudioStreamFormat & CAccPolAudioStreamFormat::operator=(class CAccPolAudioStreamFormat const &)
	?GetHdmiVideoFormatObjectsL@CAccPolHdmiObjectCon@@QBEXAAV?$RPointerArray@VCAccPolHdmiVideoFormat@@@@@Z @ 218 NONAME ; void CAccPolHdmiObjectCon::GetHdmiVideoFormatObjectsL(class RPointerArray<class CAccPolHdmiVideoFormat> &) const
	?VolumeDb@CAccPolVolumeControl@@QBENXZ @ 219 NONAME ; double CAccPolVolumeControl::VolumeDb(void) const
	?SetSamFreq@CAccPolHdmiAudioFormat@@QAEXK@Z @ 220 NONAME ; void CAccPolHdmiAudioFormat::SetSamFreq(unsigned long)
	??4CAccPolAudioControlBase@@QAEAAV0@ABV0@@Z @ 221 NONAME ; class CAccPolAudioControlBase & CAccPolAudioControlBase::operator=(class CAccPolAudioControlBase const &)
	?GetAudioUnitListL@CAccPolAudioUnitBase@@QBEXAAV?$RPointerArray@VCAccPolAudioUnitBase@@@@@Z @ 222 NONAME ; void CAccPolAudioUnitBase::GetAudioUnitListL(class RPointerArray<class CAccPolAudioUnitBase> &) const
	?HdcpSupport@CAccPolHdmiSink@@QBEHXZ @ 223 NONAME ; int CAccPolHdmiSink::HdcpSupport(void) const
	?NewL@CAccPolHdmiSpeakerAllocation@@SAPAV1@PAVCAccPolObjectCon@@@Z @ 224 NONAME ; class CAccPolHdmiSpeakerAllocation * CAccPolHdmiSpeakerAllocation::NewL(class CAccPolObjectCon *)
	?SetFrontSpeakers@CAccPolHdmiSpeakerAllocation@@QAEXH@Z @ 225 NONAME ; void CAccPolHdmiSpeakerAllocation::SetFrontSpeakers(int)
	?SetInterlaced@CAccPolHdmiVideoFormat@@QAEXH@Z @ 226 NONAME ; void CAccPolHdmiVideoFormat::SetInterlaced(int)
	?ChannelCount@CAccPolHdmiAudioFormat@@QBEKXZ @ 227 NONAME ; unsigned long CAccPolHdmiAudioFormat::ChannelCount(void) const
	??4CAccPolOutputTerminal@@QAEAAV0@ABV0@@Z @ 228 NONAME ; class CAccPolOutputTerminal & CAccPolOutputTerminal::operator=(class CAccPolOutputTerminal const &)

