EXPORTS
	??0TAccPolGenericID@@QAE@XZ @ 1 NONAME ; TAccPolGenericID::TAccPolGenericID(void)
	??0TAccPolGenericIDArray@@QAE@XZ @ 2 NONAME ; TAccPolGenericIDArray::TAccPolGenericIDArray(void)
	??0TAccPolNameRecord@@QAE@XZ @ 3 NONAME ; TAccPolNameRecord::TAccPolNameRecord(void)
	??0TAccPolNameValueRecord@@QAE@ABK@Z @ 4 NONAME ; TAccPolNameValueRecord::TAccPolNameValueRecord(unsigned long const &)
	??0TAccPolNameValueRecord@@QAE@ABKAAVTDesC8@@W4TAccPolValueLocation@@@Z @ 5 NONAME ; TAccPolNameValueRecord::TAccPolNameValueRecord(unsigned long const &, class TDesC8 &, enum TAccPolValueLocation)
	??0TAccPolNameValueRecord@@QAE@ABKHW4TAccPolValueType@@W4TAccPolValueLocation@@@Z @ 6 NONAME ; TAccPolNameValueRecord::TAccPolNameValueRecord(unsigned long const &, int, enum TAccPolValueType, enum TAccPolValueLocation)
	??0TAccPolNameValueRecord@@QAE@VTAccPolNameRecord@@VTAccPolValueRecord@@@Z @ 7 NONAME ; TAccPolNameValueRecord::TAccPolNameValueRecord(class TAccPolNameRecord, class TAccPolValueRecord)
	??0TAccPolNameValueRecord@@QAE@XZ @ 8 NONAME ; TAccPolNameValueRecord::TAccPolNameValueRecord(void)
	??0TAccPolValueRecord@@QAE@AAVTDesC8@@W4TAccPolValueLocation@@@Z @ 9 NONAME ; TAccPolValueRecord::TAccPolValueRecord(class TDesC8 &, enum TAccPolValueLocation)
	??0TAccPolValueRecord@@QAE@HW4TAccPolValueType@@W4TAccPolValueLocation@@@Z @ 10 NONAME ; TAccPolValueRecord::TAccPolValueRecord(int, enum TAccPolValueType, enum TAccPolValueLocation)
	??0TAccPolValueRecord@@QAE@XZ @ 11 NONAME ; TAccPolValueRecord::TAccPolValueRecord(void)
	??1CAccConGenericID@@UAE@XZ @ 12 NONAME ; CAccConGenericID::~CAccConGenericID(void)
	??1CAccPolSubblockNameArray@@UAE@XZ @ 13 NONAME ; CAccPolSubblockNameArray::~CAccPolSubblockNameArray(void)
	?ApplicationProtocolCaps@TAccPolGenericID@@QBEHK@Z @ 14 NONAME ; int TAccPolGenericID::ApplicationProtocolCaps(unsigned long) const
	?ApplicationProtocolCaps@TAccPolGenericID@@QBEKXZ @ 15 NONAME ; unsigned long TAccPolGenericID::ApplicationProtocolCaps(void) const
	?Count@TAccPolGenericIDArray@@QBEHXZ @ 16 NONAME ; int TAccPolGenericIDArray::Count(void) const
	?DeviceAddress@TAccPolGenericID@@QBE_KXZ @ 17 NONAME ; unsigned long long TAccPolGenericID::DeviceAddress(void) const
	?DeviceTypeCaps@TAccPolGenericID@@QBEHK@Z @ 18 NONAME ; int TAccPolGenericID::DeviceTypeCaps(unsigned long) const
	?DeviceTypeCaps@TAccPolGenericID@@QBEKXZ @ 19 NONAME ; unsigned long TAccPolGenericID::DeviceTypeCaps(void) const
	?GenericID@CAccConGenericID@@QBE?AVTAccPolGenericID@@XZ @ 20 NONAME ; class TAccPolGenericID CAccConGenericID::GenericID(void) const
	?GetGenericIDL@TAccPolGenericIDArray@@QBE?BVTAccPolGenericID@@H@Z @ 21 NONAME ; class TAccPolGenericID const TAccPolGenericIDArray::GetGenericIDL(int) const
	?GetName@TAccPolNameRecord@@QBEXAAK@Z @ 22 NONAME ; void TAccPolNameRecord::GetName(unsigned long &) const
	?GetValueL@TAccPolValueRecord@@QBEXAAVTDesC8@@@Z @ 23 NONAME ; void TAccPolValueRecord::GetValueL(class TDesC8 &) const
	?HWDeviceID@TAccPolGenericID@@QBE_KXZ @ 24 NONAME ; unsigned long long TAccPolGenericID::HWDeviceID(void) const
	?HWModelID@TAccPolGenericID@@QBE?AVTPtrC16@@XZ @ 25 NONAME ; class TPtrC16 TAccPolGenericID::HWModelID(void) const
	?HasName@CAccPolSubblockNameArray@@QBEHABK@Z @ 26 NONAME ; int CAccPolSubblockNameArray::HasName(unsigned long const &) const
	?Location@TAccPolValueRecord@@QBE?AW4TAccPolValueLocation@@XZ @ 27 NONAME ; enum TAccPolValueLocation TAccPolValueRecord::Location(void) const
	?NameRecord@TAccPolNameValueRecord@@QBE?AVTAccPolNameRecord@@XZ @ 28 NONAME ; class TAccPolNameRecord TAccPolNameValueRecord::NameRecord(void) const
	?NewL@CAccConGenericID@@SAPAV1@XZ @ 29 NONAME ; class CAccConGenericID * CAccConGenericID::NewL(void)
	?NewL@CAccPolSubblockNameArray@@SAPAV1@XZ @ 30 NONAME ; class CAccPolSubblockNameArray * CAccPolSubblockNameArray::NewL(void)
	?PhysicalConnectionCaps@TAccPolGenericID@@QBEHK@Z @ 31 NONAME ; int TAccPolGenericID::PhysicalConnectionCaps(unsigned long) const
	?PhysicalConnectionCaps@TAccPolGenericID@@QBEKXZ @ 32 NONAME ; unsigned long TAccPolGenericID::PhysicalConnectionCaps(void) const
	?SetL@TAccPolValueRecord@@QAEXHW4TAccPolValueType@@W4TAccPolValueLocation@@@Z @ 33 NONAME ; void TAccPolValueRecord::SetL(int, enum TAccPolValueType, enum TAccPolValueLocation)
	?SetLocation@TAccPolValueRecord@@QAEXW4TAccPolValueLocation@@@Z @ 34 NONAME ; void TAccPolValueRecord::SetLocation(enum TAccPolValueLocation)
	?SetNameL@TAccPolNameRecord@@QAEXABK@Z @ 35 NONAME ; void TAccPolNameRecord::SetNameL(unsigned long const &)
	?SetType@TAccPolValueRecord@@QAEXW4TAccPolValueType@@@Z @ 36 NONAME ; void TAccPolValueRecord::SetType(enum TAccPolValueType)
	?SetValue@TAccPolValueRecord@@QAEXABVTDesC8@@@Z @ 37 NONAME ; void TAccPolValueRecord::SetValue(class TDesC8 const &)
	?SetValue@TAccPolValueRecord@@QAEXH@Z @ 38 NONAME ; void TAccPolValueRecord::SetValue(int)
	?SubblockCaps@TAccPolGenericID@@QBEH_K@Z @ 39 NONAME ; int TAccPolGenericID::SubblockCaps(unsigned long long) const
	?SubblockCaps@TAccPolGenericID@@QBE_KXZ @ 40 NONAME ; unsigned long long TAccPolGenericID::SubblockCaps(void) const
	?Type@TAccPolValueRecord@@QBE?AW4TAccPolValueType@@XZ @ 41 NONAME ; enum TAccPolValueType TAccPolValueRecord::Type(void) const
	?UniqueID@TAccPolGenericID@@QBEHXZ @ 42 NONAME ; int TAccPolGenericID::UniqueID(void) const
	?Value@TAccPolValueRecord@@QBEHXZ @ 43 NONAME ; int TAccPolValueRecord::Value(void) const
	?ValueRecord@TAccPolNameValueRecord@@QBE?AVTAccPolValueRecord@@XZ @ 44 NONAME ; class TAccPolValueRecord TAccPolNameValueRecord::ValueRecord(void) const
	?SetName@TAccPolNameRecord@@QAEXABK@Z @ 45 NONAME ; void TAccPolNameRecord::SetName(unsigned long const &)
	?ValueRef@TAccPolValueRecord@@QAEAAVTDesC8@@XZ @ 46 NONAME ; class TDesC8 & TAccPolValueRecord::ValueRef(void)
	??0CAccPolObjectBase@@IAE@EPAVCAccPolObjectCon@@@Z @ 47 NONAME ; CAccPolObjectBase::CAccPolObjectBase(unsigned char, class CAccPolObjectCon *)
	??0CAccPolObjectBase@@IAE@XZ @ 48 NONAME ; CAccPolObjectBase::CAccPolObjectBase(void)
	??0CAccPolObjectCon@@IAE@EPAV0@@Z @ 49 NONAME ; CAccPolObjectCon::CAccPolObjectCon(unsigned char, class CAccPolObjectCon *)
	??0CAccPolObjectCon@@IAE@XZ @ 50 NONAME ; CAccPolObjectCon::CAccPolObjectCon(void)
	??0TAccPolNameValueRecord@@QAE@ABKW4TAccPolValueLocation@@PAVCAccPolObjectCon@@@Z @ 51 NONAME ; TAccPolNameValueRecord::TAccPolNameValueRecord(unsigned long const &, enum TAccPolValueLocation, class CAccPolObjectCon *)
	??0TAccPolValueRecord@@QAE@W4TAccPolValueLocation@@PAVCAccPolObjectCon@@@Z @ 52 NONAME ; TAccPolValueRecord::TAccPolValueRecord(enum TAccPolValueLocation, class CAccPolObjectCon *)
	??1CAccPolObjectBase@@UAE@XZ @ 53 NONAME ; CAccPolObjectBase::~CAccPolObjectBase(void)
	??1CAccPolObjectCon@@UAE@XZ @ 54 NONAME ; CAccPolObjectCon::~CAccPolObjectCon(void)
	??4CAccPolObjectBase@@IAEAAV0@ABV0@@Z @ 55 NONAME ; class CAccPolObjectBase & CAccPolObjectBase::operator=(class CAccPolObjectBase const &)
	?AddL@CAccPolObjectCon@@QAEXABVCAccPolObjectBase@@@Z @ 56 NONAME ; void CAccPolObjectCon::AddL(class CAccPolObjectBase const &)
	?AtL@CAccPolObjectCon@@QBEABQAVCAccPolObjectBase@@H@Z @ 57 NONAME ; class CAccPolObjectBase * const const & CAccPolObjectCon::AtL(int) const
	?Count@CAccPolObjectCon@@QBEHXZ @ 58 NONAME ; int CAccPolObjectCon::Count(void) const
	?ObjectType@CAccPolObjectBase@@QBEEXZ @ 59 NONAME ; unsigned char CAccPolObjectBase::ObjectType(void) const
	?Reset@CAccPolObjectCon@@QAEXXZ @ 60 NONAME ; void CAccPolObjectCon::Reset(void)
	?SetObjectType@CAccPolObjectBase@@QAEXE@Z @ 61 NONAME ; void CAccPolObjectBase::SetObjectType(unsigned char)

